ARM GAS  C:\Users\kotaro\AppData\Local\Temp\ccCbDiGd.s 			page 1


   1              		.cpu cortex-m4
   2              		.eabi_attribute 27, 1
   3              		.eabi_attribute 28, 1
   4              		.eabi_attribute 20, 1
   5              		.eabi_attribute 21, 1
   6              		.eabi_attribute 23, 3
   7              		.eabi_attribute 24, 1
   8              		.eabi_attribute 25, 1
   9              		.eabi_attribute 26, 1
  10              		.eabi_attribute 30, 1
  11              		.eabi_attribute 34, 1
  12              		.eabi_attribute 18, 4
  13              		.file	"main.c"
  14              		.text
  15              	.Ltext0:
  16              		.cfi_sections	.debug_frame
  17              		.section	.text.__io_putchar,"ax",%progbits
  18              		.align	1
  19              		.global	__io_putchar
  20              		.syntax unified
  21              		.thumb
  22              		.thumb_func
  23              		.fpu fpv4-sp-d16
  25              	__io_putchar:
  26              	.LFB126:
  27              		.file 1 "Src/main.c"
   1:Src/main.c    **** /**
   2:Src/main.c    ****   ******************************************************************************
   3:Src/main.c    ****   * @file           : main.c
   4:Src/main.c    ****   * @brief          : Main program body
   5:Src/main.c    ****   ******************************************************************************
   6:Src/main.c    ****   ** This notice applies to any and all portions of this file
   7:Src/main.c    ****   * that are not between comment pairs USER CODE BEGIN and
   8:Src/main.c    ****   * USER CODE END. Other portions of this file, whether 
   9:Src/main.c    ****   * inserted by the user or by software development tools
  10:Src/main.c    ****   * are owned by their respective copyright owners.
  11:Src/main.c    ****   *
  12:Src/main.c    ****   * COPYRIGHT(c) 2019 STMicroelectronics
  13:Src/main.c    ****   *
  14:Src/main.c    ****   * Redistribution and use in source and binary forms, with or without modification,
  15:Src/main.c    ****   * are permitted provided that the following conditions are met:
  16:Src/main.c    ****   *   1. Redistributions of source code must retain the above copyright notice,
  17:Src/main.c    ****   *      this list of conditions and the following disclaimer.
  18:Src/main.c    ****   *   2. Redistributions in binary form must reproduce the above copyright notice,
  19:Src/main.c    ****   *      this list of conditions and the following disclaimer in the documentation
  20:Src/main.c    ****   *      and/or other materials provided with the distribution.
  21:Src/main.c    ****   *   3. Neither the name of STMicroelectronics nor the names of its contributors
  22:Src/main.c    ****   *      may be used to endorse or promote products derived from this software
  23:Src/main.c    ****   *      without specific prior written permission.
  24:Src/main.c    ****   *
  25:Src/main.c    ****   * THIS SOFTWARE IS PROVIDED BY THE COPYRIGHT HOLDERS AND CONTRIBUTORS "AS IS"
  26:Src/main.c    ****   * AND ANY EXPRESS OR IMPLIED WARRANTIES, INCLUDING, BUT NOT LIMITED TO, THE
  27:Src/main.c    ****   * IMPLIED WARRANTIES OF MERCHANTABILITY AND FITNESS FOR A PARTICULAR PURPOSE ARE
  28:Src/main.c    ****   * DISCLAIMED. IN NO EVENT SHALL THE COPYRIGHT HOLDER OR CONTRIBUTORS BE LIABLE
  29:Src/main.c    ****   * FOR ANY DIRECT, INDIRECT, INCIDENTAL, SPECIAL, EXEMPLARY, OR CONSEQUENTIAL
  30:Src/main.c    ****   * DAMAGES (INCLUDING, BUT NOT LIMITED TO, PROCUREMENT OF SUBSTITUTE GOODS OR
  31:Src/main.c    ****   * SERVICES; LOSS OF USE, DATA, OR PROFITS; OR BUSINESS INTERRUPTION) HOWEVER
ARM GAS  C:\Users\kotaro\AppData\Local\Temp\ccCbDiGd.s 			page 2


  32:Src/main.c    ****   * CAUSED AND ON ANY THEORY OF LIABILITY, WHETHER IN CONTRACT, STRICT LIABILITY,
  33:Src/main.c    ****   * OR TORT (INCLUDING NEGLIGENCE OR OTHERWISE) ARISING IN ANY WAY OUT OF THE USE
  34:Src/main.c    ****   * OF THIS SOFTWARE, EVEN IF ADVISED OF THE POSSIBILITY OF SUCH DAMAGE.
  35:Src/main.c    ****   *
  36:Src/main.c    ****   ******************************************************************************
  37:Src/main.c    ****   */
  38:Src/main.c    **** /* Includes ------------------------------------------------------------------*/
  39:Src/main.c    **** #include "main.h"
  40:Src/main.c    **** #include "stm32f4xx_hal.h"
  41:Src/main.c    **** #include "adc.h"
  42:Src/main.c    **** #include "dma.h"
  43:Src/main.c    **** #include "spi.h"
  44:Src/main.c    **** #include "tim.h"
  45:Src/main.c    **** #include "usart.h"
  46:Src/main.c    **** #include "gpio.h"
  47:Src/main.c    **** 
  48:Src/main.c    **** /* USER CODE BEGIN Includes */
  49:Src/main.c    **** #include "mode.h"
  50:Src/main.c    **** /* USER CODE END Includes */
  51:Src/main.c    **** 
  52:Src/main.c    **** /* Private variables ---------------------------------------------------------*/
  53:Src/main.c    **** 
  54:Src/main.c    **** /* USER CODE BEGIN PV */
  55:Src/main.c    **** #ifdef __GNUC__
  56:Src/main.c    **** #define PUTCHAR_PROTOTYPE int __io_putchar(int ch)
  57:Src/main.c    **** #else
  58:Src/main.c    **** #define PUTCHAR_PROTOTYPE int fputc(int ch, FILE *f)
  59:Src/main.c    **** #endif /* __GNUC__ */
  60:Src/main.c    **** void __io_putchar(uint8_t ch)
  61:Src/main.c    **** {
  28              		.loc 1 61 0
  29              		.cfi_startproc
  30              		@ args = 0, pretend = 0, frame = 8
  31              		@ frame_needed = 0, uses_anonymous_args = 0
  32              	.LVL0:
  33 0000 00B5     		push	{lr}
  34              	.LCFI0:
  35              		.cfi_def_cfa_offset 4
  36              		.cfi_offset 14, -4
  37 0002 83B0     		sub	sp, sp, #12
  38              	.LCFI1:
  39              		.cfi_def_cfa_offset 16
  40 0004 02A9     		add	r1, sp, #8
  41 0006 01F8010D 		strb	r0, [r1, #-1]!
  62:Src/main.c    ****   HAL_UART_Transmit(&huart3, &ch, 1, 1);
  42              		.loc 1 62 0
  43 000a 0123     		movs	r3, #1
  44 000c 1A46     		mov	r2, r3
  45 000e 0348     		ldr	r0, .L3
  46              	.LVL1:
  47 0010 FFF7FEFF 		bl	HAL_UART_Transmit
  48              	.LVL2:
  63:Src/main.c    **** }
  49              		.loc 1 63 0
  50 0014 03B0     		add	sp, sp, #12
  51              	.LCFI2:
  52              		.cfi_def_cfa_offset 4
ARM GAS  C:\Users\kotaro\AppData\Local\Temp\ccCbDiGd.s 			page 3


  53              		@ sp needed
  54 0016 5DF804FB 		ldr	pc, [sp], #4
  55              	.L4:
  56 001a 00BF     		.align	2
  57              	.L3:
  58 001c 00000000 		.word	huart3
  59              		.cfi_endproc
  60              	.LFE126:
  62              		.global	__aeabi_f2d
  63              		.section	.text.Init_Main,"ax",%progbits
  64              		.align	1
  65              		.global	Init_Main
  66              		.syntax unified
  67              		.thumb
  68              		.thumb_func
  69              		.fpu fpv4-sp-d16
  71              	Init_Main:
  72              	.LFB129:
  64:Src/main.c    **** /* Private variables ---------------------------------------------------------*/
  65:Src/main.c    **** extern accel_t accel;
  66:Src/main.c    **** extern float gyro_y;
  67:Src/main.c    **** extern gyro_t gyro_z;
  68:Src/main.c    **** 
  69:Src/main.c    **** /* USER CODE END PV */
  70:Src/main.c    **** 
  71:Src/main.c    **** /* Private function prototypes -----------------------------------------------*/
  72:Src/main.c    **** void SystemClock_Config(void);
  73:Src/main.c    **** 
  74:Src/main.c    **** /* USER CODE BEGIN PFP */
  75:Src/main.c    **** /* Private function prototypes -----------------------------------------------*/
  76:Src/main.c    **** void Init_Main(void);
  77:Src/main.c    **** /* USER CODE END PFP */
  78:Src/main.c    **** 
  79:Src/main.c    **** /* USER CODE BEGIN 0 */
  80:Src/main.c    **** 
  81:Src/main.c    **** /* USER CODE END 0 */
  82:Src/main.c    **** 
  83:Src/main.c    **** /**
  84:Src/main.c    ****   * @brief  The application entry point.
  85:Src/main.c    ****   *
  86:Src/main.c    ****   * @retval None
  87:Src/main.c    ****   */
  88:Src/main.c    **** int main(void)
  89:Src/main.c    **** {
  90:Src/main.c    ****   /* USER CODE BEGIN 1 */
  91:Src/main.c    ****   
  92:Src/main.c    ****   /* USER CODE END 1 */
  93:Src/main.c    **** 
  94:Src/main.c    ****   /* MCU Configuration----------------------------------------------------------*/
  95:Src/main.c    **** 
  96:Src/main.c    ****   /* Reset of all peripherals, Initializes the Flash interface and the Systick. */
  97:Src/main.c    ****   HAL_Init();
  98:Src/main.c    **** 
  99:Src/main.c    ****   /* USER CODE BEGIN Init */
 100:Src/main.c    **** 
 101:Src/main.c    ****   /* USER CODE END Init */
 102:Src/main.c    **** 
ARM GAS  C:\Users\kotaro\AppData\Local\Temp\ccCbDiGd.s 			page 4


 103:Src/main.c    ****   /* Configure the system clock */
 104:Src/main.c    ****   SystemClock_Config();
 105:Src/main.c    **** 
 106:Src/main.c    ****   /* USER CODE BEGIN SysInit */
 107:Src/main.c    **** 
 108:Src/main.c    ****   /* USER CODE END SysInit */
 109:Src/main.c    **** 
 110:Src/main.c    ****   /* Initialize all configured peripherals */
 111:Src/main.c    ****   MX_GPIO_Init();
 112:Src/main.c    ****   MX_DMA_Init();
 113:Src/main.c    ****   MX_ADC1_Init();
 114:Src/main.c    ****   MX_ADC2_Init();
 115:Src/main.c    ****   MX_SPI1_Init();
 116:Src/main.c    ****   MX_TIM1_Init();
 117:Src/main.c    ****   MX_TIM2_Init();
 118:Src/main.c    ****   MX_TIM3_Init();
 119:Src/main.c    ****   MX_TIM8_Init();
 120:Src/main.c    ****   MX_USART3_UART_Init();
 121:Src/main.c    ****   /* USER CODE BEGIN 2 */
 122:Src/main.c    ****   Init_Main();
 123:Src/main.c    ****   /* USER CODE END 2 */
 124:Src/main.c    **** 
 125:Src/main.c    ****   /* Infinite loop */
 126:Src/main.c    ****   /* USER CODE BEGIN WHILE */
 127:Src/main.c    ****   while (1)
 128:Src/main.c    ****   {
 129:Src/main.c    ****     Mode_Mouse(Mode_Select());
 130:Src/main.c    ****     //printf("%f\t%f\r\n",gyro_y,accel.z);
 131:Src/main.c    ****   /* USER CODE END WHILE */
 132:Src/main.c    **** 
 133:Src/main.c    ****   /* USER CODE BEGIN 3 */
 134:Src/main.c    **** 
 135:Src/main.c    ****   }
 136:Src/main.c    ****   /* USER CODE END 3 */
 137:Src/main.c    **** 
 138:Src/main.c    **** }
 139:Src/main.c    **** 
 140:Src/main.c    **** /**
 141:Src/main.c    ****   * @brief System Clock Configuration
 142:Src/main.c    ****   * @retval None
 143:Src/main.c    ****   */
 144:Src/main.c    **** void SystemClock_Config(void)
 145:Src/main.c    **** {
 146:Src/main.c    **** 
 147:Src/main.c    ****   RCC_OscInitTypeDef RCC_OscInitStruct;
 148:Src/main.c    ****   RCC_ClkInitTypeDef RCC_ClkInitStruct;
 149:Src/main.c    **** 
 150:Src/main.c    ****     /**Configure the main internal regulator output voltage 
 151:Src/main.c    ****     */
 152:Src/main.c    ****   __HAL_RCC_PWR_CLK_ENABLE();
 153:Src/main.c    **** 
 154:Src/main.c    ****   __HAL_PWR_VOLTAGESCALING_CONFIG(PWR_REGULATOR_VOLTAGE_SCALE1);
 155:Src/main.c    **** 
 156:Src/main.c    ****     /**Initializes the CPU, AHB and APB busses clocks 
 157:Src/main.c    ****     */
 158:Src/main.c    ****   RCC_OscInitStruct.OscillatorType = RCC_OSCILLATORTYPE_HSE;
 159:Src/main.c    ****   RCC_OscInitStruct.HSEState = RCC_HSE_ON;
ARM GAS  C:\Users\kotaro\AppData\Local\Temp\ccCbDiGd.s 			page 5


 160:Src/main.c    ****   RCC_OscInitStruct.PLL.PLLState = RCC_PLL_ON;
 161:Src/main.c    ****   RCC_OscInitStruct.PLL.PLLSource = RCC_PLLSOURCE_HSE;
 162:Src/main.c    ****   RCC_OscInitStruct.PLL.PLLM = 10;
 163:Src/main.c    ****   RCC_OscInitStruct.PLL.PLLN = 80;
 164:Src/main.c    ****   RCC_OscInitStruct.PLL.PLLP = RCC_PLLP_DIV2;
 165:Src/main.c    ****   RCC_OscInitStruct.PLL.PLLQ = 4;
 166:Src/main.c    ****   if (HAL_RCC_OscConfig(&RCC_OscInitStruct) != HAL_OK)
 167:Src/main.c    ****   {
 168:Src/main.c    ****     _Error_Handler(__FILE__, __LINE__);
 169:Src/main.c    ****   }
 170:Src/main.c    **** 
 171:Src/main.c    ****     /**Initializes the CPU, AHB and APB busses clocks 
 172:Src/main.c    ****     */
 173:Src/main.c    ****   RCC_ClkInitStruct.ClockType = RCC_CLOCKTYPE_HCLK|RCC_CLOCKTYPE_SYSCLK
 174:Src/main.c    ****                               |RCC_CLOCKTYPE_PCLK1|RCC_CLOCKTYPE_PCLK2;
 175:Src/main.c    ****   RCC_ClkInitStruct.SYSCLKSource = RCC_SYSCLKSOURCE_PLLCLK;
 176:Src/main.c    ****   RCC_ClkInitStruct.AHBCLKDivider = RCC_SYSCLK_DIV1;
 177:Src/main.c    ****   RCC_ClkInitStruct.APB1CLKDivider = RCC_HCLK_DIV2;
 178:Src/main.c    ****   RCC_ClkInitStruct.APB2CLKDivider = RCC_HCLK_DIV2;
 179:Src/main.c    **** 
 180:Src/main.c    ****   if (HAL_RCC_ClockConfig(&RCC_ClkInitStruct, FLASH_LATENCY_2) != HAL_OK)
 181:Src/main.c    ****   {
 182:Src/main.c    ****     _Error_Handler(__FILE__, __LINE__);
 183:Src/main.c    ****   }
 184:Src/main.c    **** 
 185:Src/main.c    ****     /**Configure the Systick interrupt time 
 186:Src/main.c    ****     */
 187:Src/main.c    ****   HAL_SYSTICK_Config(HAL_RCC_GetHCLKFreq()/1000);
 188:Src/main.c    **** 
 189:Src/main.c    ****     /**Configure the Systick 
 190:Src/main.c    ****     */
 191:Src/main.c    ****   HAL_SYSTICK_CLKSourceConfig(SYSTICK_CLKSOURCE_HCLK);
 192:Src/main.c    **** 
 193:Src/main.c    ****   /* SysTick_IRQn interrupt configuration */
 194:Src/main.c    ****   HAL_NVIC_SetPriority(SysTick_IRQn, 0, 0);
 195:Src/main.c    **** }
 196:Src/main.c    **** 
 197:Src/main.c    **** /* USER CODE BEGIN 4 */
 198:Src/main.c    **** void Init_Main(void){
  73              		.loc 1 198 0
  74              		.cfi_startproc
  75              		@ args = 0, pretend = 0, frame = 0
  76              		@ frame_needed = 0, uses_anonymous_args = 0
  77 0000 08B5     		push	{r3, lr}
  78              	.LCFI3:
  79              		.cfi_def_cfa_offset 8
  80              		.cfi_offset 3, -8
  81              		.cfi_offset 14, -4
 199:Src/main.c    ****   setbuf(stdout, NULL);//printf
  82              		.loc 1 199 0
  83 0002 154B     		ldr	r3, .L7
  84 0004 1B68     		ldr	r3, [r3]
  85 0006 0021     		movs	r1, #0
  86 0008 9868     		ldr	r0, [r3, #8]
  87 000a FFF7FEFF 		bl	setbuf
  88              	.LVL3:
 200:Src/main.c    ****   HAL_TIM_Encoder_Start(&htim1, TIM_CHANNEL_ALL);
ARM GAS  C:\Users\kotaro\AppData\Local\Temp\ccCbDiGd.s 			page 6


  89              		.loc 1 200 0
  90 000e 1821     		movs	r1, #24
  91 0010 1248     		ldr	r0, .L7+4
  92 0012 FFF7FEFF 		bl	HAL_TIM_Encoder_Start
  93              	.LVL4:
 201:Src/main.c    ****   HAL_TIM_Encoder_Start(&htim8, TIM_CHANNEL_ALL);
  94              		.loc 1 201 0
  95 0016 1821     		movs	r1, #24
  96 0018 1148     		ldr	r0, .L7+8
  97 001a FFF7FEFF 		bl	HAL_TIM_Encoder_Start
  98              	.LVL5:
 202:Src/main.c    ****   Adc_SetSensorValue();
  99              		.loc 1 202 0
 100 001e FFF7FEFF 		bl	Adc_SetSensorValue
 101              	.LVL6:
 203:Src/main.c    ****   Spi_SetGyro();
 102              		.loc 1 203 0
 103 0022 FFF7FEFF 		bl	Spi_SetGyro
 104              	.LVL7:
 204:Src/main.c    ****   Tim_BuzzerPwm(HZ_A,300);
 105              		.loc 1 204 0
 106 0026 4FF49671 		mov	r1, #300
 107 002a 5B20     		movs	r0, #91
 108 002c FFF7FEFF 		bl	Tim_BuzzerPwm
 109              	.LVL8:
 205:Src/main.c    ****   HAL_Delay(200);
 110              		.loc 1 205 0
 111 0030 C820     		movs	r0, #200
 112 0032 FFF7FEFF 		bl	HAL_Delay
 113              	.LVL9:
 206:Src/main.c    ****   Tim_BuzzerPwm(HZ_NORMAL,0);
 114              		.loc 1 206 0
 115 0036 0021     		movs	r1, #0
 116 0038 0A20     		movs	r0, #10
 117 003a FFF7FEFF 		bl	Tim_BuzzerPwm
 118              	.LVL10:
 207:Src/main.c    ****   printf("batt:%f\n\r",Adc_GetBatt());
 119              		.loc 1 207 0
 120 003e FFF7FEFF 		bl	Adc_GetBatt
 121              	.LVL11:
 122 0042 10EE100A 		vmov	r0, s0
 123 0046 FFF7FEFF 		bl	__aeabi_f2d
 124              	.LVL12:
 125 004a 0246     		mov	r2, r0
 126 004c 0B46     		mov	r3, r1
 127 004e 0548     		ldr	r0, .L7+12
 128 0050 FFF7FEFF 		bl	printf
 129              	.LVL13:
 208:Src/main.c    **** }
 130              		.loc 1 208 0
 131 0054 08BD     		pop	{r3, pc}
 132              	.L8:
 133 0056 00BF     		.align	2
 134              	.L7:
 135 0058 00000000 		.word	_impure_ptr
 136 005c 00000000 		.word	htim1
 137 0060 00000000 		.word	htim8
ARM GAS  C:\Users\kotaro\AppData\Local\Temp\ccCbDiGd.s 			page 7


 138 0064 00000000 		.word	.LC0
 139              		.cfi_endproc
 140              	.LFE129:
 142              		.section	.text._Error_Handler,"ax",%progbits
 143              		.align	1
 144              		.global	_Error_Handler
 145              		.syntax unified
 146              		.thumb
 147              		.thumb_func
 148              		.fpu fpv4-sp-d16
 150              	_Error_Handler:
 151              	.LFB130:
 209:Src/main.c    **** /* USER CODE END 4 */
 210:Src/main.c    **** 
 211:Src/main.c    **** /**
 212:Src/main.c    ****   * @brief  This function is executed in case of error occurrence.
 213:Src/main.c    ****   * @param  file: The file name as string.
 214:Src/main.c    ****   * @param  line: The line in file as a number.
 215:Src/main.c    ****   * @retval None
 216:Src/main.c    ****   */
 217:Src/main.c    **** void _Error_Handler(char *file, int line)
 218:Src/main.c    **** {
 152              		.loc 1 218 0
 153              		.cfi_startproc
 154              		@ Volatile: function does not return.
 155              		@ args = 0, pretend = 0, frame = 0
 156              		@ frame_needed = 0, uses_anonymous_args = 0
 157              		@ link register save eliminated.
 158              	.LVL14:
 159              	.L10:
 160 0000 FEE7     		b	.L10
 161              		.cfi_endproc
 162              	.LFE130:
 164              		.section	.text.SystemClock_Config,"ax",%progbits
 165              		.align	1
 166              		.global	SystemClock_Config
 167              		.syntax unified
 168              		.thumb
 169              		.thumb_func
 170              		.fpu fpv4-sp-d16
 172              	SystemClock_Config:
 173              	.LFB128:
 145:Src/main.c    **** 
 174              		.loc 1 145 0
 175              		.cfi_startproc
 176              		@ args = 0, pretend = 0, frame = 80
 177              		@ frame_needed = 0, uses_anonymous_args = 0
 145:Src/main.c    **** 
 178              		.loc 1 145 0
 179 0000 00B5     		push	{lr}
 180              	.LCFI4:
 181              		.cfi_def_cfa_offset 4
 182              		.cfi_offset 14, -4
 183 0002 95B0     		sub	sp, sp, #84
 184              	.LCFI5:
 185              		.cfi_def_cfa_offset 88
 186              	.LBB2:
ARM GAS  C:\Users\kotaro\AppData\Local\Temp\ccCbDiGd.s 			page 8


 152:Src/main.c    **** 
 187              		.loc 1 152 0
 188 0004 0021     		movs	r1, #0
 189 0006 0191     		str	r1, [sp, #4]
 190 0008 294B     		ldr	r3, .L17
 191 000a 1A6C     		ldr	r2, [r3, #64]
 192 000c 42F08052 		orr	r2, r2, #268435456
 193 0010 1A64     		str	r2, [r3, #64]
 194 0012 1B6C     		ldr	r3, [r3, #64]
 195 0014 03F08053 		and	r3, r3, #268435456
 196 0018 0193     		str	r3, [sp, #4]
 197 001a 019B     		ldr	r3, [sp, #4]
 198              	.LBE2:
 199              	.LBB3:
 154:Src/main.c    **** 
 200              		.loc 1 154 0
 201 001c 0291     		str	r1, [sp, #8]
 202 001e 254B     		ldr	r3, .L17+4
 203 0020 1A68     		ldr	r2, [r3]
 204 0022 42F48042 		orr	r2, r2, #16384
 205 0026 1A60     		str	r2, [r3]
 206 0028 1B68     		ldr	r3, [r3]
 207 002a 03F48043 		and	r3, r3, #16384
 208 002e 0293     		str	r3, [sp, #8]
 209 0030 029B     		ldr	r3, [sp, #8]
 210              	.LBE3:
 158:Src/main.c    ****   RCC_OscInitStruct.HSEState = RCC_HSE_ON;
 211              		.loc 1 158 0
 212 0032 0123     		movs	r3, #1
 213 0034 0893     		str	r3, [sp, #32]
 159:Src/main.c    ****   RCC_OscInitStruct.PLL.PLLState = RCC_PLL_ON;
 214              		.loc 1 159 0
 215 0036 4FF48033 		mov	r3, #65536
 216 003a 0993     		str	r3, [sp, #36]
 160:Src/main.c    ****   RCC_OscInitStruct.PLL.PLLSource = RCC_PLLSOURCE_HSE;
 217              		.loc 1 160 0
 218 003c 0223     		movs	r3, #2
 219 003e 0E93     		str	r3, [sp, #56]
 161:Src/main.c    ****   RCC_OscInitStruct.PLL.PLLM = 10;
 220              		.loc 1 161 0
 221 0040 4FF48002 		mov	r2, #4194304
 222 0044 0F92     		str	r2, [sp, #60]
 162:Src/main.c    ****   RCC_OscInitStruct.PLL.PLLN = 80;
 223              		.loc 1 162 0
 224 0046 0A22     		movs	r2, #10
 225 0048 1092     		str	r2, [sp, #64]
 163:Src/main.c    ****   RCC_OscInitStruct.PLL.PLLP = RCC_PLLP_DIV2;
 226              		.loc 1 163 0
 227 004a 5022     		movs	r2, #80
 228 004c 1192     		str	r2, [sp, #68]
 164:Src/main.c    ****   RCC_OscInitStruct.PLL.PLLQ = 4;
 229              		.loc 1 164 0
 230 004e 1293     		str	r3, [sp, #72]
 165:Src/main.c    ****   if (HAL_RCC_OscConfig(&RCC_OscInitStruct) != HAL_OK)
 231              		.loc 1 165 0
 232 0050 0423     		movs	r3, #4
 233 0052 1393     		str	r3, [sp, #76]
ARM GAS  C:\Users\kotaro\AppData\Local\Temp\ccCbDiGd.s 			page 9


 166:Src/main.c    ****   {
 234              		.loc 1 166 0
 235 0054 08A8     		add	r0, sp, #32
 236 0056 FFF7FEFF 		bl	HAL_RCC_OscConfig
 237              	.LVL15:
 238 005a 08BB     		cbnz	r0, .L15
 173:Src/main.c    ****                               |RCC_CLOCKTYPE_PCLK1|RCC_CLOCKTYPE_PCLK2;
 239              		.loc 1 173 0
 240 005c 0F23     		movs	r3, #15
 241 005e 0393     		str	r3, [sp, #12]
 175:Src/main.c    ****   RCC_ClkInitStruct.AHBCLKDivider = RCC_SYSCLK_DIV1;
 242              		.loc 1 175 0
 243 0060 0221     		movs	r1, #2
 244 0062 0491     		str	r1, [sp, #16]
 176:Src/main.c    ****   RCC_ClkInitStruct.APB1CLKDivider = RCC_HCLK_DIV2;
 245              		.loc 1 176 0
 246 0064 0023     		movs	r3, #0
 247 0066 0593     		str	r3, [sp, #20]
 177:Src/main.c    ****   RCC_ClkInitStruct.APB2CLKDivider = RCC_HCLK_DIV2;
 248              		.loc 1 177 0
 249 0068 4FF48053 		mov	r3, #4096
 250 006c 0693     		str	r3, [sp, #24]
 178:Src/main.c    **** 
 251              		.loc 1 178 0
 252 006e 0793     		str	r3, [sp, #28]
 180:Src/main.c    ****   {
 253              		.loc 1 180 0
 254 0070 03A8     		add	r0, sp, #12
 255 0072 FFF7FEFF 		bl	HAL_RCC_ClockConfig
 256              	.LVL16:
 257 0076 B8B9     		cbnz	r0, .L16
 187:Src/main.c    **** 
 258              		.loc 1 187 0
 259 0078 FFF7FEFF 		bl	HAL_RCC_GetHCLKFreq
 260              	.LVL17:
 261 007c 0E4B     		ldr	r3, .L17+8
 262 007e A3FB0030 		umull	r3, r0, r3, r0
 263 0082 8009     		lsrs	r0, r0, #6
 264 0084 FFF7FEFF 		bl	HAL_SYSTICK_Config
 265              	.LVL18:
 191:Src/main.c    **** 
 266              		.loc 1 191 0
 267 0088 0420     		movs	r0, #4
 268 008a FFF7FEFF 		bl	HAL_SYSTICK_CLKSourceConfig
 269              	.LVL19:
 194:Src/main.c    **** }
 270              		.loc 1 194 0
 271 008e 0022     		movs	r2, #0
 272 0090 1146     		mov	r1, r2
 273 0092 4FF0FF30 		mov	r0, #-1
 274 0096 FFF7FEFF 		bl	HAL_NVIC_SetPriority
 275              	.LVL20:
 195:Src/main.c    **** 
 276              		.loc 1 195 0
 277 009a 15B0     		add	sp, sp, #84
 278              	.LCFI6:
 279              		.cfi_remember_state
ARM GAS  C:\Users\kotaro\AppData\Local\Temp\ccCbDiGd.s 			page 10


 280              		.cfi_def_cfa_offset 4
 281              		@ sp needed
 282 009c 5DF804FB 		ldr	pc, [sp], #4
 283              	.L15:
 284              	.LCFI7:
 285              		.cfi_restore_state
 168:Src/main.c    ****   }
 286              		.loc 1 168 0
 287 00a0 A821     		movs	r1, #168
 288 00a2 0648     		ldr	r0, .L17+12
 289 00a4 FFF7FEFF 		bl	_Error_Handler
 290              	.LVL21:
 291              	.L16:
 182:Src/main.c    ****   }
 292              		.loc 1 182 0
 293 00a8 B621     		movs	r1, #182
 294 00aa 0448     		ldr	r0, .L17+12
 295 00ac FFF7FEFF 		bl	_Error_Handler
 296              	.LVL22:
 297              	.L18:
 298              		.align	2
 299              	.L17:
 300 00b0 00380240 		.word	1073887232
 301 00b4 00700040 		.word	1073770496
 302 00b8 D34D6210 		.word	274877907
 303 00bc 00000000 		.word	.LC1
 304              		.cfi_endproc
 305              	.LFE128:
 307              		.section	.text.main,"ax",%progbits
 308              		.align	1
 309              		.global	main
 310              		.syntax unified
 311              		.thumb
 312              		.thumb_func
 313              		.fpu fpv4-sp-d16
 315              	main:
 316              	.LFB127:
  89:Src/main.c    ****   /* USER CODE BEGIN 1 */
 317              		.loc 1 89 0
 318              		.cfi_startproc
 319              		@ Volatile: function does not return.
 320              		@ args = 0, pretend = 0, frame = 0
 321              		@ frame_needed = 0, uses_anonymous_args = 0
 322 0000 08B5     		push	{r3, lr}
 323              	.LCFI8:
 324              		.cfi_def_cfa_offset 8
 325              		.cfi_offset 3, -8
 326              		.cfi_offset 14, -4
  97:Src/main.c    **** 
 327              		.loc 1 97 0
 328 0002 FFF7FEFF 		bl	HAL_Init
 329              	.LVL23:
 104:Src/main.c    **** 
 330              		.loc 1 104 0
 331 0006 FFF7FEFF 		bl	SystemClock_Config
 332              	.LVL24:
 111:Src/main.c    ****   MX_DMA_Init();
ARM GAS  C:\Users\kotaro\AppData\Local\Temp\ccCbDiGd.s 			page 11


 333              		.loc 1 111 0
 334 000a FFF7FEFF 		bl	MX_GPIO_Init
 335              	.LVL25:
 112:Src/main.c    ****   MX_ADC1_Init();
 336              		.loc 1 112 0
 337 000e FFF7FEFF 		bl	MX_DMA_Init
 338              	.LVL26:
 113:Src/main.c    ****   MX_ADC2_Init();
 339              		.loc 1 113 0
 340 0012 FFF7FEFF 		bl	MX_ADC1_Init
 341              	.LVL27:
 114:Src/main.c    ****   MX_SPI1_Init();
 342              		.loc 1 114 0
 343 0016 FFF7FEFF 		bl	MX_ADC2_Init
 344              	.LVL28:
 115:Src/main.c    ****   MX_TIM1_Init();
 345              		.loc 1 115 0
 346 001a FFF7FEFF 		bl	MX_SPI1_Init
 347              	.LVL29:
 116:Src/main.c    ****   MX_TIM2_Init();
 348              		.loc 1 116 0
 349 001e FFF7FEFF 		bl	MX_TIM1_Init
 350              	.LVL30:
 117:Src/main.c    ****   MX_TIM3_Init();
 351              		.loc 1 117 0
 352 0022 FFF7FEFF 		bl	MX_TIM2_Init
 353              	.LVL31:
 118:Src/main.c    ****   MX_TIM8_Init();
 354              		.loc 1 118 0
 355 0026 FFF7FEFF 		bl	MX_TIM3_Init
 356              	.LVL32:
 119:Src/main.c    ****   MX_USART3_UART_Init();
 357              		.loc 1 119 0
 358 002a FFF7FEFF 		bl	MX_TIM8_Init
 359              	.LVL33:
 120:Src/main.c    ****   /* USER CODE BEGIN 2 */
 360              		.loc 1 120 0
 361 002e FFF7FEFF 		bl	MX_USART3_UART_Init
 362              	.LVL34:
 122:Src/main.c    ****   /* USER CODE END 2 */
 363              		.loc 1 122 0
 364 0032 FFF7FEFF 		bl	Init_Main
 365              	.LVL35:
 366              	.L20:
 129:Src/main.c    ****     //printf("%f\t%f\r\n",gyro_y,accel.z);
 367              		.loc 1 129 0 discriminator 1
 368 0036 FFF7FEFF 		bl	Mode_Select
 369              	.LVL36:
 370 003a 40B2     		sxtb	r0, r0
 371 003c FFF7FEFF 		bl	Mode_Mouse
 372              	.LVL37:
 373 0040 F9E7     		b	.L20
 374              		.cfi_endproc
 375              	.LFE127:
 377              		.section	.rodata.Init_Main.str1.4,"aMS",%progbits,1
 378              		.align	2
 379              	.LC0:
ARM GAS  C:\Users\kotaro\AppData\Local\Temp\ccCbDiGd.s 			page 12


 380 0000 62617474 		.ascii	"batt:%f\012\015\000"
 380      3A25660A 
 380      0D00
 381              		.section	.rodata.SystemClock_Config.str1.4,"aMS",%progbits,1
 382              		.align	2
 383              	.LC1:
 384 0000 5372632F 		.ascii	"Src/main.c\000"
 384      6D61696E 
 384      2E6300
 385              		.text
 386              	.Letext0:
 387              		.file 2 "c:\\program files (x86)\\gnu tools arm embedded\\7 2017-q4-major\\arm-none-eabi\\include\
 388              		.file 3 "c:\\program files (x86)\\gnu tools arm embedded\\7 2017-q4-major\\arm-none-eabi\\include\
 389              		.file 4 "Drivers/CMSIS/Include/core_cm4.h"
 390              		.file 5 "Drivers/CMSIS/Device/ST/STM32F4xx/Include/system_stm32f4xx.h"
 391              		.file 6 "Drivers/CMSIS/Device/ST/STM32F4xx/Include/stm32f405xx.h"
 392              		.file 7 "c:\\program files (x86)\\gnu tools arm embedded\\7 2017-q4-major\\arm-none-eabi\\include\
 393              		.file 8 "c:\\program files (x86)\\gnu tools arm embedded\\7 2017-q4-major\\arm-none-eabi\\include\
 394              		.file 9 "c:\\program files (x86)\\gnu tools arm embedded\\7 2017-q4-major\\lib\\gcc\\arm-none-eabi
 395              		.file 10 "c:\\program files (x86)\\gnu tools arm embedded\\7 2017-q4-major\\arm-none-eabi\\include
 396              		.file 11 "Drivers/STM32F4xx_HAL_Driver/Inc/stm32f4xx_hal_def.h"
 397              		.file 12 "Drivers/STM32F4xx_HAL_Driver/Inc/stm32f4xx_hal_rcc_ex.h"
 398              		.file 13 "Drivers/STM32F4xx_HAL_Driver/Inc/stm32f4xx_hal_rcc.h"
 399              		.file 14 "Drivers/STM32F4xx_HAL_Driver/Inc/stm32f4xx_hal_dma.h"
 400              		.file 15 "Drivers/STM32F4xx_HAL_Driver/Inc/stm32f4xx_hal_adc.h"
 401              		.file 16 "Drivers/STM32F4xx_HAL_Driver/Inc/stm32f4xx_hal_spi.h"
 402              		.file 17 "Drivers/STM32F4xx_HAL_Driver/Inc/stm32f4xx_hal_tim.h"
 403              		.file 18 "Drivers/STM32F4xx_HAL_Driver/Inc/stm32f4xx_hal_uart.h"
 404              		.file 19 "Inc/adc.h"
 405              		.file 20 "Inc/spi.h"
 406              		.file 21 "Inc/tim.h"
 407              		.file 22 "Inc/usart.h"
 408              		.file 23 "c:\\program files (x86)\\gnu tools arm embedded\\7 2017-q4-major\\arm-none-eabi\\include
 409              		.file 24 "Drivers/STM32F4xx_HAL_Driver/Inc/stm32f4xx_hal.h"
 410              		.file 25 "Drivers/STM32F4xx_HAL_Driver/Inc/stm32f4xx_hal_cortex.h"
 411              		.file 26 "Inc/gpio.h"
 412              		.file 27 "Inc/dma.h"
 413              		.file 28 "Inc/mode.h"
ARM GAS  C:\Users\kotaro\AppData\Local\Temp\ccCbDiGd.s 			page 13

