ARM GAS  C:\Users\kotaro\AppData\Local\Temp\cc7z3AXq.s 			page 1


   1              		.cpu cortex-m4
   2              		.eabi_attribute 27, 1
   3              		.eabi_attribute 28, 1
   4              		.eabi_attribute 20, 1
   5              		.eabi_attribute 21, 1
   6              		.eabi_attribute 23, 3
   7              		.eabi_attribute 24, 1
   8              		.eabi_attribute 25, 1
   9              		.eabi_attribute 26, 1
  10              		.eabi_attribute 30, 1
  11              		.eabi_attribute 34, 1
  12              		.eabi_attribute 18, 4
  13              		.file	"motion.c"
  14              		.text
  15              	.Ltext0:
  16              		.cfi_sections	.debug_frame
  17              		.section	.text.Motion_MaxVeloSet,"ax",%progbits
  18              		.align	1
  19              		.global	Motion_MaxVeloSet
  20              		.syntax unified
  21              		.thumb
  22              		.thumb_func
  23              		.fpu fpv4-sp-d16
  25              	Motion_MaxVeloSet:
  26              	.LFB159:
  27              		.file 1 "Src/motion.c"
   1:Src/motion.c  **** #include "motion.h"
   2:Src/motion.c  **** #include "stdint.h"
   3:Src/motion.c  **** #include "control.h"
   4:Src/motion.c  **** #include "tim.h"
   5:Src/motion.c  **** #include "spi.h"
   6:Src/motion.c  **** #include "MazeCon.h"
   7:Src/motion.c  **** #include "arm_math.h"
   8:Src/motion.c  **** #include "adc.h"
   9:Src/motion.c  **** 
  10:Src/motion.c  **** #define TRUE 1
  11:Src/motion.c  **** #define FALSE 0
  12:Src/motion.c  **** 
  13:Src/motion.c  **** #define VELO_ANG_B 380.0f
  14:Src/motion.c  **** #define ACCEL_ANG_B 4000.0f
  15:Src/motion.c  **** 
  16:Src/motion.c  **** #define OFFSET_IN 31.0f
  17:Src/motion.c  **** #define OFFSET_OUT 47.0f
  18:Src/motion.c  **** 
  19:Src/motion.c  **** #define OFFSET_SEN 135
  20:Src/motion.c  **** 
  21:Src/motion.c  **** extern enc_t enc;
  22:Src/motion.c  **** extern volatile uint8_t motor_flag;
  23:Src/motion.c  **** extern target_t straight, angle;
  24:Src/motion.c  **** extern volatile accel_t accel;
  25:Src/motion.c  **** extern sensor_t sen_front;
  26:Src/motion.c  **** extern sensor_t sen_l;
  27:Src/motion.c  **** extern sensor_t sen_r;
  28:Src/motion.c  **** extern int16_t sen_front_reference_f;
  29:Src/motion.c  **** 
  30:Src/motion.c  **** extern float error_sum;
  31:Src/motion.c  **** extern float error_old;
ARM GAS  C:\Users\kotaro\AppData\Local\Temp\cc7z3AXq.s 			page 2


  32:Src/motion.c  **** 
  33:Src/motion.c  **** extern float error_ang_sum;
  34:Src/motion.c  **** extern float error_ang_old;
  35:Src/motion.c  **** 
  36:Src/motion.c  **** extern volatile uint8_t control_wall_flag;
  37:Src/motion.c  **** 
  38:Src/motion.c  **** extern volatile uint8_t front_wall_flag;
  39:Src/motion.c  **** 
  40:Src/motion.c  **** volatile uint8_t motion_end_flag;
  41:Src/motion.c  **** float gain_velo = 0;
  42:Src/motion.c  **** float diagonal_step = 0;
  43:Src/motion.c  **** uint16_t prefront_flag = 0;
  44:Src/motion.c  **** 
  45:Src/motion.c  **** void Motion_MaxVeloSet(float gain)
  46:Src/motion.c  **** {
  28              		.loc 1 46 0
  29              		.cfi_startproc
  30              		@ args = 0, pretend = 0, frame = 0
  31              		@ frame_needed = 0, uses_anonymous_args = 0
  32              		@ link register save eliminated.
  33              	.LVL0:
  47:Src/motion.c  ****     //0~160
  48:Src/motion.c  ****     gain_velo = gain;
  34              		.loc 1 48 0
  35 0000 014B     		ldr	r3, .L2
  36 0002 83ED000A 		vstr.32	s0, [r3]
  49:Src/motion.c  **** }
  37              		.loc 1 49 0
  38 0006 7047     		bx	lr
  39              	.L3:
  40              		.align	2
  41              	.L2:
  42 0008 00000000 		.word	.LANCHOR0
  43              		.cfi_endproc
  44              	.LFE159:
  46              		.section	.text.Motion_enkai,"ax",%progbits
  47              		.align	1
  48              		.global	Motion_enkai
  49              		.syntax unified
  50              		.thumb
  51              		.thumb_func
  52              		.fpu fpv4-sp-d16
  54              	Motion_enkai:
  55              	.LFB160:
  50:Src/motion.c  **** 
  51:Src/motion.c  **** void Motion_enkai(void)
  52:Src/motion.c  **** {
  56              		.loc 1 52 0
  57              		.cfi_startproc
  58              		@ Volatile: function does not return.
  59              		@ args = 0, pretend = 0, frame = 0
  60              		@ frame_needed = 0, uses_anonymous_args = 0
  61 0000 08B5     		push	{r3, lr}
  62              	.LCFI0:
  63              		.cfi_def_cfa_offset 8
  64              		.cfi_offset 3, -8
  65              		.cfi_offset 14, -4
ARM GAS  C:\Users\kotaro\AppData\Local\Temp\cc7z3AXq.s 			page 3


  53:Src/motion.c  ****     Control_ResetVelo();
  66              		.loc 1 53 0
  67 0002 FFF7FEFF 		bl	Control_ResetVelo
  68              	.LVL1:
  54:Src/motion.c  ****     Control_StrCalculator(0, 0, 0, 0, 1, 0);
  69              		.loc 1 54 0
  70 0006 9FED0F8A 		vldr.32	s16, .L7
  71 000a F0EE482A 		vmov.f32	s5, s16
  72 000e B7EE002A 		vmov.f32	s4, #1.0e+0
  73 0012 F0EE481A 		vmov.f32	s3, s16
  74 0016 B0EE481A 		vmov.f32	s2, s16
  75 001a F0EE480A 		vmov.f32	s1, s16
  76 001e B0EE480A 		vmov.f32	s0, s16
  77 0022 FFF7FEFF 		bl	Control_StrCalculator
  78              	.LVL2:
  55:Src/motion.c  ****     Control_AngCalculator(0, 0, 0, 0, 1, 0);
  79              		.loc 1 55 0
  80 0026 F0EE482A 		vmov.f32	s5, s16
  81 002a B7EE002A 		vmov.f32	s4, #1.0e+0
  82 002e F0EE481A 		vmov.f32	s3, s16
  83 0032 B0EE481A 		vmov.f32	s2, s16
  84 0036 F0EE480A 		vmov.f32	s1, s16
  85 003a B0EE480A 		vmov.f32	s0, s16
  86 003e FFF7FEFF 		bl	Control_AngCalculator
  87              	.LVL3:
  88              	.L5:
  89 0042 FEE7     		b	.L5
  90              	.L8:
  91              		.align	2
  92              	.L7:
  93 0044 00000000 		.word	0
  94              		.cfi_endproc
  95              	.LFE160:
  97              		.section	.text.Motion_TestTurn,"ax",%progbits
  98              		.align	1
  99              		.global	Motion_TestTurn
 100              		.syntax unified
 101              		.thumb
 102              		.thumb_func
 103              		.fpu fpv4-sp-d16
 105              	Motion_TestTurn:
 106              	.LFB161:
  56:Src/motion.c  ****     while (1)
  57:Src/motion.c  ****     {
  58:Src/motion.c  ****     }
  59:Src/motion.c  **** }
  60:Src/motion.c  **** 
  61:Src/motion.c  **** void Motion_TestTurn(void)
  62:Src/motion.c  **** {
 107              		.loc 1 62 0
 108              		.cfi_startproc
 109              		@ args = 0, pretend = 0, frame = 0
 110              		@ frame_needed = 0, uses_anonymous_args = 0
 111 0000 08B5     		push	{r3, lr}
 112              	.LCFI1:
 113              		.cfi_def_cfa_offset 8
 114              		.cfi_offset 3, -8
ARM GAS  C:\Users\kotaro\AppData\Local\Temp\cc7z3AXq.s 			page 4


 115              		.cfi_offset 14, -4
 116 0002 2DED028B 		vpush.64	{d8}
 117              	.LCFI2:
 118              		.cfi_def_cfa_offset 16
 119              		.cfi_offset 80, -16
 120              		.cfi_offset 81, -12
  63:Src/motion.c  ****     Control_ResetVelo();
 121              		.loc 1 63 0
 122 0006 FFF7FEFF 		bl	Control_ResetVelo
 123              	.LVL4:
  64:Src/motion.c  ****     Control_StrCalculator(0, 0, 0, 0, 1, 0);
 124              		.loc 1 64 0
 125 000a 9FED1A8A 		vldr.32	s16, .L12
 126 000e F0EE482A 		vmov.f32	s5, s16
 127 0012 B7EE002A 		vmov.f32	s4, #1.0e+0
 128 0016 F0EE481A 		vmov.f32	s3, s16
 129 001a B0EE481A 		vmov.f32	s2, s16
 130 001e F0EE480A 		vmov.f32	s1, s16
 131 0022 B0EE480A 		vmov.f32	s0, s16
 132 0026 FFF7FEFF 		bl	Control_StrCalculator
 133              	.LVL5:
  65:Src/motion.c  ****     Control_AngCalculator(180.0f, 0.0f, VELO_ANG_S, 0.0f, ACCEL_ANG_S, 1);
 134              		.loc 1 65 0
 135 002a F7EE002A 		vmov.f32	s5, #1.0e+0
 136 002e 9FED122A 		vldr.32	s4, .L12+4
 137 0032 F0EE481A 		vmov.f32	s3, s16
 138 0036 9FED111A 		vldr.32	s2, .L12+8
 139 003a F0EE480A 		vmov.f32	s1, s16
 140 003e 9FED100A 		vldr.32	s0, .L12+12
 141 0042 FFF7FEFF 		bl	Control_AngCalculator
 142              	.LVL6:
  66:Src/motion.c  ****     motion_end_flag = FALSE;
 143              		.loc 1 66 0
 144 0046 0F4B     		ldr	r3, .L12+16
 145 0048 0022     		movs	r2, #0
 146 004a 1A70     		strb	r2, [r3]
 147              	.L10:
  67:Src/motion.c  ****     while (motion_end_flag == FALSE)
 148              		.loc 1 67 0 discriminator 1
 149 004c 0D4B     		ldr	r3, .L12+16
 150 004e 1B78     		ldrb	r3, [r3]	@ zero_extendqisi2
 151 0050 002B     		cmp	r3, #0
 152 0052 FBD0     		beq	.L10
  68:Src/motion.c  ****     {
  69:Src/motion.c  ****     }
  70:Src/motion.c  ****     straight.v_now = 0;
 153              		.loc 1 70 0
 154 0054 0023     		movs	r3, #0
 155 0056 0C4A     		ldr	r2, .L12+20
 156 0058 D360     		str	r3, [r2, #12]	@ float
  71:Src/motion.c  ****     angle.v_now = 0;
 157              		.loc 1 71 0
 158 005a 0C4A     		ldr	r2, .L12+24
 159 005c D360     		str	r3, [r2, #12]	@ float
  72:Src/motion.c  ****     error_ang_sum = 0.0f;
 160              		.loc 1 72 0
 161 005e 0C4A     		ldr	r2, .L12+28
ARM GAS  C:\Users\kotaro\AppData\Local\Temp\cc7z3AXq.s 			page 5


 162 0060 1360     		str	r3, [r2]	@ float
  73:Src/motion.c  ****     error_ang_old = 0.0f;
 163              		.loc 1 73 0
 164 0062 0C4A     		ldr	r2, .L12+32
 165 0064 1360     		str	r3, [r2]	@ float
  74:Src/motion.c  ****     //Tim_MotorPwm(0, 0);
  75:Src/motion.c  ****     HAL_Delay(500);
 166              		.loc 1 75 0
 167 0066 4FF4FA70 		mov	r0, #500
 168 006a FFF7FEFF 		bl	HAL_Delay
 169              	.LVL7:
  76:Src/motion.c  **** }
 170              		.loc 1 76 0
 171 006e BDEC028B 		vldm	sp!, {d8}
 172              	.LCFI3:
 173              		.cfi_restore 80
 174              		.cfi_restore 81
 175              		.cfi_def_cfa_offset 8
 176 0072 08BD     		pop	{r3, pc}
 177              	.L13:
 178              		.align	2
 179              	.L12:
 180 0074 00000000 		.word	0
 181 0078 0000FA45 		.word	1174011904
 182 007c 0000C843 		.word	1137180672
 183 0080 00003443 		.word	1127481344
 184 0084 00000000 		.word	motion_end_flag
 185 0088 00000000 		.word	straight
 186 008c 00000000 		.word	angle
 187 0090 00000000 		.word	error_ang_sum
 188 0094 00000000 		.word	error_ang_old
 189              		.cfi_endproc
 190              	.LFE161:
 192              		.section	.text.Motion_Start,"ax",%progbits
 193              		.align	1
 194              		.global	Motion_Start
 195              		.syntax unified
 196              		.thumb
 197              		.thumb_func
 198              		.fpu fpv4-sp-d16
 200              	Motion_Start:
 201              	.LFB162:
  77:Src/motion.c  **** 
  78:Src/motion.c  **** void Motion_Start(void)
  79:Src/motion.c  **** {
 202              		.loc 1 79 0
 203              		.cfi_startproc
 204              		@ args = 0, pretend = 0, frame = 0
 205              		@ frame_needed = 0, uses_anonymous_args = 0
 206 0000 08B5     		push	{r3, lr}
 207              	.LCFI4:
 208              		.cfi_def_cfa_offset 8
 209              		.cfi_offset 3, -8
 210              		.cfi_offset 14, -4
 211 0002 2DED028B 		vpush.64	{d8}
 212              	.LCFI5:
 213              		.cfi_def_cfa_offset 16
ARM GAS  C:\Users\kotaro\AppData\Local\Temp\cc7z3AXq.s 			page 6


 214              		.cfi_offset 80, -16
 215              		.cfi_offset 81, -12
  80:Src/motion.c  ****     Control_StrCalculator(130.0f, 0.0f, VELO_S, VELO_S, ACCEL_S, 1);
 216              		.loc 1 80 0
 217 0006 9FED151A 		vldr.32	s2, .L17
 218 000a 9FED158A 		vldr.32	s16, .L17+4
 219 000e F7EE002A 		vmov.f32	s5, #1.0e+0
 220 0012 9FED142A 		vldr.32	s4, .L17+8
 221 0016 F0EE411A 		vmov.f32	s3, s2
 222 001a F0EE480A 		vmov.f32	s1, s16
 223 001e 9FED120A 		vldr.32	s0, .L17+12
 224 0022 FFF7FEFF 		bl	Control_StrCalculator
 225              	.LVL8:
  81:Src/motion.c  ****     Control_AngCalculator(0, 0, 0, 0, 1, 0);
 226              		.loc 1 81 0
 227 0026 F0EE482A 		vmov.f32	s5, s16
 228 002a B7EE002A 		vmov.f32	s4, #1.0e+0
 229 002e F0EE481A 		vmov.f32	s3, s16
 230 0032 B0EE481A 		vmov.f32	s2, s16
 231 0036 F0EE480A 		vmov.f32	s1, s16
 232 003a B0EE480A 		vmov.f32	s0, s16
 233 003e FFF7FEFF 		bl	Control_AngCalculator
 234              	.LVL9:
  82:Src/motion.c  ****     motion_end_flag = FALSE;
 235              		.loc 1 82 0
 236 0042 0A4B     		ldr	r3, .L17+16
 237 0044 0022     		movs	r2, #0
 238 0046 1A70     		strb	r2, [r3]
 239              	.L15:
  83:Src/motion.c  ****     while (motion_end_flag == FALSE)
 240              		.loc 1 83 0 discriminator 1
 241 0048 084B     		ldr	r3, .L17+16
 242 004a 1B78     		ldrb	r3, [r3]	@ zero_extendqisi2
 243 004c 002B     		cmp	r3, #0
 244 004e FBD0     		beq	.L15
  84:Src/motion.c  ****     {
  85:Src/motion.c  ****     }
  86:Src/motion.c  ****     enc.offset = 0.0f;
 245              		.loc 1 86 0
 246 0050 074B     		ldr	r3, .L17+20
 247 0052 0022     		movs	r2, #0
 248 0054 9A60     		str	r2, [r3, #8]	@ float
  87:Src/motion.c  ****     //prefront_flag = TRUE;
  88:Src/motion.c  **** }
 249              		.loc 1 88 0
 250 0056 BDEC028B 		vldm	sp!, {d8}
 251              	.LCFI6:
 252              		.cfi_restore 80
 253              		.cfi_restore 81
 254              		.cfi_def_cfa_offset 8
 255 005a 08BD     		pop	{r3, pc}
 256              	.L18:
 257              		.align	2
 258              	.L17:
 259 005c 00001644 		.word	1142292480
 260 0060 00000000 		.word	0
 261 0064 0080BB45 		.word	1169915904
ARM GAS  C:\Users\kotaro\AppData\Local\Temp\cc7z3AXq.s 			page 7


 262 0068 00000243 		.word	1124204544
 263 006c 00000000 		.word	motion_end_flag
 264 0070 00000000 		.word	enc
 265              		.cfi_endproc
 266              	.LFE162:
 268              		.section	.text.Motion_Restart,"ax",%progbits
 269              		.align	1
 270              		.global	Motion_Restart
 271              		.syntax unified
 272              		.thumb
 273              		.thumb_func
 274              		.fpu fpv4-sp-d16
 276              	Motion_Restart:
 277              	.LFB163:
  89:Src/motion.c  **** 
  90:Src/motion.c  **** void Motion_Restart(uint8_t wall_is)
  91:Src/motion.c  **** {
 278              		.loc 1 91 0
 279              		.cfi_startproc
 280              		@ args = 0, pretend = 0, frame = 0
 281              		@ frame_needed = 0, uses_anonymous_args = 0
 282              	.LVL10:
 283 0000 10B5     		push	{r4, lr}
 284              	.LCFI7:
 285              		.cfi_def_cfa_offset 8
 286              		.cfi_offset 4, -8
 287              		.cfi_offset 14, -4
 288 0002 2DED028B 		vpush.64	{d8}
 289              	.LCFI8:
 290              		.cfi_def_cfa_offset 16
 291              		.cfi_offset 80, -16
 292              		.cfi_offset 81, -12
 293 0006 0446     		mov	r4, r0
  92:Src/motion.c  ****     Control_ResetVelo();
 294              		.loc 1 92 0
 295 0008 FFF7FEFF 		bl	Control_ResetVelo
 296              	.LVL11:
  93:Src/motion.c  ****     if (wall_is == FALSE)
 297              		.loc 1 93 0
 298 000c 002C     		cmp	r4, #0
 299 000e 00F0B680 		beq	.L28
  94:Src/motion.c  ****     {
  95:Src/motion.c  ****         Control_StrCalculator(90.0f, 0.0f, VELO_S, VELO_S, ACCEL_S, 1);
  96:Src/motion.c  ****         Control_AngCalculator(0, 0, 0, 0, 1, 0);
  97:Src/motion.c  ****         motion_end_flag = FALSE;
  98:Src/motion.c  ****         while (motion_end_flag == FALSE)
  99:Src/motion.c  ****         {
 100:Src/motion.c  ****         }
 101:Src/motion.c  ****         enc.offset = 0;
 102:Src/motion.c  ****         prefront_flag = TRUE;
 103:Src/motion.c  ****     }
 104:Src/motion.c  ****     else
 105:Src/motion.c  ****     {
 106:Src/motion.c  ****         front_wall_flag = TRUE;
 300              		.loc 1 106 0
 301 0012 714B     		ldr	r3, .L29
 302 0014 0122     		movs	r2, #1
ARM GAS  C:\Users\kotaro\AppData\Local\Temp\cc7z3AXq.s 			page 8


 303 0016 1A70     		strb	r2, [r3]
 304              	.L23:
 107:Src/motion.c  ****         while (front_wall_flag == TRUE)
 305              		.loc 1 107 0 discriminator 1
 306 0018 6F4B     		ldr	r3, .L29
 307 001a 1B78     		ldrb	r3, [r3]	@ zero_extendqisi2
 308 001c DBB2     		uxtb	r3, r3
 309 001e 012B     		cmp	r3, #1
 310 0020 FAD0     		beq	.L23
 108:Src/motion.c  ****         {
 109:Src/motion.c  ****         }
 110:Src/motion.c  ****         straight.v_now = 0;
 311              		.loc 1 110 0
 312 0022 9FED6E8A 		vldr.32	s16, .L29+4
 313 0026 6E4B     		ldr	r3, .L29+8
 314 0028 83ED038A 		vstr.32	s16, [r3, #12]
 111:Src/motion.c  ****         angle.v_now = 0;
 315              		.loc 1 111 0
 316 002c 6D4B     		ldr	r3, .L29+12
 317 002e 83ED038A 		vstr.32	s16, [r3, #12]
 112:Src/motion.c  ****         error_ang_sum = 0.0f;
 318              		.loc 1 112 0
 319 0032 6D4B     		ldr	r3, .L29+16
 320 0034 83ED008A 		vstr.32	s16, [r3]
 113:Src/motion.c  ****         error_ang_old = 0.0f;
 321              		.loc 1 113 0
 322 0038 6C4B     		ldr	r3, .L29+20
 323 003a 83ED008A 		vstr.32	s16, [r3]
 114:Src/motion.c  ****         HAL_Delay(500);
 324              		.loc 1 114 0
 325 003e 4FF4FA70 		mov	r0, #500
 326 0042 FFF7FEFF 		bl	HAL_Delay
 327              	.LVL12:
 115:Src/motion.c  **** 
 116:Src/motion.c  ****         Control_StrCalculator(0, 0, 0, 0, 1, 0);
 328              		.loc 1 116 0
 329 0046 F0EE482A 		vmov.f32	s5, s16
 330 004a B7EE002A 		vmov.f32	s4, #1.0e+0
 331 004e F0EE481A 		vmov.f32	s3, s16
 332 0052 B0EE481A 		vmov.f32	s2, s16
 333 0056 F0EE480A 		vmov.f32	s1, s16
 334 005a B0EE480A 		vmov.f32	s0, s16
 335 005e FFF7FEFF 		bl	Control_StrCalculator
 336              	.LVL13:
 117:Src/motion.c  ****         Control_AngCalculator(184.0f, 0.0f, VELO_ANG_S, 0.0f, ACCEL_ANG_S, 1);
 337              		.loc 1 117 0
 338 0062 F7EE002A 		vmov.f32	s5, #1.0e+0
 339 0066 9FED622A 		vldr.32	s4, .L29+24
 340 006a F0EE481A 		vmov.f32	s3, s16
 341 006e 9FED611A 		vldr.32	s2, .L29+28
 342 0072 F0EE480A 		vmov.f32	s1, s16
 343 0076 9FED600A 		vldr.32	s0, .L29+32
 344 007a FFF7FEFF 		bl	Control_AngCalculator
 345              	.LVL14:
 118:Src/motion.c  ****         motion_end_flag = FALSE;
 346              		.loc 1 118 0
 347 007e 5F4B     		ldr	r3, .L29+36
ARM GAS  C:\Users\kotaro\AppData\Local\Temp\cc7z3AXq.s 			page 9


 348 0080 0022     		movs	r2, #0
 349 0082 1A70     		strb	r2, [r3]
 350              	.L24:
 119:Src/motion.c  ****         while (motion_end_flag == FALSE)
 351              		.loc 1 119 0 discriminator 1
 352 0084 5D4B     		ldr	r3, .L29+36
 353 0086 1B78     		ldrb	r3, [r3]	@ zero_extendqisi2
 354 0088 002B     		cmp	r3, #0
 355 008a FBD0     		beq	.L24
 120:Src/motion.c  ****         {
 121:Src/motion.c  ****         }
 122:Src/motion.c  ****         straight.v_now = 0;
 356              		.loc 1 122 0
 357 008c 9FED538A 		vldr.32	s16, .L29+4
 358 0090 534B     		ldr	r3, .L29+8
 359 0092 83ED038A 		vstr.32	s16, [r3, #12]
 123:Src/motion.c  ****         angle.v_now = 0;
 360              		.loc 1 123 0
 361 0096 534B     		ldr	r3, .L29+12
 362 0098 83ED038A 		vstr.32	s16, [r3, #12]
 124:Src/motion.c  ****         error_ang_sum = 0.0f;
 363              		.loc 1 124 0
 364 009c 524B     		ldr	r3, .L29+16
 365 009e 83ED008A 		vstr.32	s16, [r3]
 125:Src/motion.c  ****         error_ang_old = 0.0f;
 366              		.loc 1 125 0
 367 00a2 524B     		ldr	r3, .L29+20
 368 00a4 83ED008A 		vstr.32	s16, [r3]
 126:Src/motion.c  ****         HAL_Delay(500);
 369              		.loc 1 126 0
 370 00a8 4FF4FA70 		mov	r0, #500
 371 00ac FFF7FEFF 		bl	HAL_Delay
 372              	.LVL15:
 127:Src/motion.c  **** 
 128:Src/motion.c  ****         Control_StrCalculator(52.0f, 0, 100.0f, 0, 1000.0f, -1);
 373              		.loc 1 128 0
 374 00b0 FFEE002A 		vmov.f32	s5, #-1.0e+0
 375 00b4 9FED522A 		vldr.32	s4, .L29+40
 376 00b8 F0EE481A 		vmov.f32	s3, s16
 377 00bc 9FED511A 		vldr.32	s2, .L29+44
 378 00c0 F0EE480A 		vmov.f32	s1, s16
 379 00c4 9FED500A 		vldr.32	s0, .L29+48
 380 00c8 FFF7FEFF 		bl	Control_StrCalculator
 381              	.LVL16:
 129:Src/motion.c  ****         Control_AngCalculator(0, 0, 0, 0, 1, 0);
 382              		.loc 1 129 0
 383 00cc F0EE482A 		vmov.f32	s5, s16
 384 00d0 B7EE002A 		vmov.f32	s4, #1.0e+0
 385 00d4 F0EE481A 		vmov.f32	s3, s16
 386 00d8 B0EE481A 		vmov.f32	s2, s16
 387 00dc F0EE480A 		vmov.f32	s1, s16
 388 00e0 B0EE480A 		vmov.f32	s0, s16
 389 00e4 FFF7FEFF 		bl	Control_AngCalculator
 390              	.LVL17:
 130:Src/motion.c  ****         motion_end_flag = FALSE;
 391              		.loc 1 130 0
 392 00e8 444B     		ldr	r3, .L29+36
ARM GAS  C:\Users\kotaro\AppData\Local\Temp\cc7z3AXq.s 			page 10


 393 00ea 0022     		movs	r2, #0
 394 00ec 1A70     		strb	r2, [r3]
 395              	.L25:
 131:Src/motion.c  ****         while (motion_end_flag == FALSE)
 396              		.loc 1 131 0 discriminator 1
 397 00ee 434B     		ldr	r3, .L29+36
 398 00f0 1B78     		ldrb	r3, [r3]	@ zero_extendqisi2
 399 00f2 002B     		cmp	r3, #0
 400 00f4 FBD0     		beq	.L25
 132:Src/motion.c  ****         {
 133:Src/motion.c  ****         }
 134:Src/motion.c  ****         straight.v_now = 0;
 401              		.loc 1 134 0
 402 00f6 9FED398A 		vldr.32	s16, .L29+4
 403 00fa 394B     		ldr	r3, .L29+8
 404 00fc 83ED038A 		vstr.32	s16, [r3, #12]
 135:Src/motion.c  ****         angle.v_now = 0;
 405              		.loc 1 135 0
 406 0100 384B     		ldr	r3, .L29+12
 407 0102 83ED038A 		vstr.32	s16, [r3, #12]
 136:Src/motion.c  ****         error_sum = 0.0f;
 408              		.loc 1 136 0
 409 0106 414B     		ldr	r3, .L29+52
 410 0108 83ED008A 		vstr.32	s16, [r3]
 137:Src/motion.c  ****         error_old = 0.0f;
 411              		.loc 1 137 0
 412 010c 404B     		ldr	r3, .L29+56
 413 010e 83ED008A 		vstr.32	s16, [r3]
 138:Src/motion.c  ****         error_ang_sum = 0.0f;
 414              		.loc 1 138 0
 415 0112 354B     		ldr	r3, .L29+16
 416 0114 83ED008A 		vstr.32	s16, [r3]
 139:Src/motion.c  ****         error_ang_old = 0.0f;
 417              		.loc 1 139 0
 418 0118 344B     		ldr	r3, .L29+20
 419 011a 83ED008A 		vstr.32	s16, [r3]
 140:Src/motion.c  ****         HAL_Delay(500);
 420              		.loc 1 140 0
 421 011e 4FF4FA70 		mov	r0, #500
 422 0122 FFF7FEFF 		bl	HAL_Delay
 423              	.LVL18:
 141:Src/motion.c  **** 
 142:Src/motion.c  ****         Control_StrCalculator(130.0f, 0, VELO_S, VELO_S, ACCEL_S, 1);
 424              		.loc 1 142 0
 425 0126 9FED3B1A 		vldr.32	s2, .L29+60
 426 012a F7EE002A 		vmov.f32	s5, #1.0e+0
 427 012e 9FED3A2A 		vldr.32	s4, .L29+64
 428 0132 F0EE411A 		vmov.f32	s3, s2
 429 0136 F0EE480A 		vmov.f32	s1, s16
 430 013a 9FED380A 		vldr.32	s0, .L29+68
 431 013e FFF7FEFF 		bl	Control_StrCalculator
 432              	.LVL19:
 143:Src/motion.c  ****         Control_AngCalculator(0, 0, 0, 0, 1, 0);
 433              		.loc 1 143 0
 434 0142 F0EE482A 		vmov.f32	s5, s16
 435 0146 B7EE002A 		vmov.f32	s4, #1.0e+0
 436 014a F0EE481A 		vmov.f32	s3, s16
ARM GAS  C:\Users\kotaro\AppData\Local\Temp\cc7z3AXq.s 			page 11


 437 014e B0EE481A 		vmov.f32	s2, s16
 438 0152 F0EE480A 		vmov.f32	s1, s16
 439 0156 B0EE480A 		vmov.f32	s0, s16
 440 015a FFF7FEFF 		bl	Control_AngCalculator
 441              	.LVL20:
 144:Src/motion.c  ****         motion_end_flag = FALSE;
 442              		.loc 1 144 0
 443 015e 274B     		ldr	r3, .L29+36
 444 0160 0022     		movs	r2, #0
 445 0162 1A70     		strb	r2, [r3]
 446              	.L26:
 145:Src/motion.c  ****         while (motion_end_flag == FALSE)
 447              		.loc 1 145 0 discriminator 1
 448 0164 254B     		ldr	r3, .L29+36
 449 0166 1B78     		ldrb	r3, [r3]	@ zero_extendqisi2
 450 0168 002B     		cmp	r3, #0
 451 016a FBD0     		beq	.L26
 146:Src/motion.c  ****         {
 147:Src/motion.c  ****         }
 148:Src/motion.c  ****         enc.offset = 0;
 452              		.loc 1 148 0
 453 016c 2C4B     		ldr	r3, .L29+72
 454 016e 0022     		movs	r2, #0
 455 0170 9A60     		str	r2, [r3, #8]	@ float
 149:Src/motion.c  ****         prefront_flag = TRUE;
 456              		.loc 1 149 0
 457 0172 2C4B     		ldr	r3, .L29+76
 458 0174 0122     		movs	r2, #1
 459 0176 1A80     		strh	r2, [r3]	@ movhi
 460              	.L19:
 150:Src/motion.c  ****     }
 151:Src/motion.c  **** }
 461              		.loc 1 151 0
 462 0178 BDEC028B 		vldm	sp!, {d8}
 463              	.LCFI9:
 464              		.cfi_remember_state
 465              		.cfi_restore 80
 466              		.cfi_restore 81
 467              		.cfi_def_cfa_offset 8
 468 017c 10BD     		pop	{r4, pc}
 469              	.L28:
 470              	.LCFI10:
 471              		.cfi_restore_state
  95:Src/motion.c  ****         Control_AngCalculator(0, 0, 0, 0, 1, 0);
 472              		.loc 1 95 0
 473 017e 9FED251A 		vldr.32	s2, .L29+60
 474 0182 9FED168A 		vldr.32	s16, .L29+4
 475 0186 F7EE002A 		vmov.f32	s5, #1.0e+0
 476 018a 9FED232A 		vldr.32	s4, .L29+64
 477 018e F0EE411A 		vmov.f32	s3, s2
 478 0192 F0EE480A 		vmov.f32	s1, s16
 479 0196 9FED240A 		vldr.32	s0, .L29+80
 480 019a FFF7FEFF 		bl	Control_StrCalculator
 481              	.LVL21:
  96:Src/motion.c  ****         motion_end_flag = FALSE;
 482              		.loc 1 96 0
 483 019e F0EE482A 		vmov.f32	s5, s16
ARM GAS  C:\Users\kotaro\AppData\Local\Temp\cc7z3AXq.s 			page 12


 484 01a2 B7EE002A 		vmov.f32	s4, #1.0e+0
 485 01a6 F0EE481A 		vmov.f32	s3, s16
 486 01aa B0EE481A 		vmov.f32	s2, s16
 487 01ae F0EE480A 		vmov.f32	s1, s16
 488 01b2 B0EE480A 		vmov.f32	s0, s16
 489 01b6 FFF7FEFF 		bl	Control_AngCalculator
 490              	.LVL22:
  97:Src/motion.c  ****         while (motion_end_flag == FALSE)
 491              		.loc 1 97 0
 492 01ba 104B     		ldr	r3, .L29+36
 493 01bc 0022     		movs	r2, #0
 494 01be 1A70     		strb	r2, [r3]
 495              	.L21:
  98:Src/motion.c  ****         {
 496              		.loc 1 98 0 discriminator 1
 497 01c0 0E4B     		ldr	r3, .L29+36
 498 01c2 1B78     		ldrb	r3, [r3]	@ zero_extendqisi2
 499 01c4 002B     		cmp	r3, #0
 500 01c6 FBD0     		beq	.L21
 101:Src/motion.c  ****         prefront_flag = TRUE;
 501              		.loc 1 101 0
 502 01c8 154B     		ldr	r3, .L29+72
 503 01ca 0022     		movs	r2, #0
 504 01cc 9A60     		str	r2, [r3, #8]	@ float
 102:Src/motion.c  ****     }
 505              		.loc 1 102 0
 506 01ce 154B     		ldr	r3, .L29+76
 507 01d0 0122     		movs	r2, #1
 508 01d2 1A80     		strh	r2, [r3]	@ movhi
 509 01d4 D0E7     		b	.L19
 510              	.L30:
 511 01d6 00BF     		.align	2
 512              	.L29:
 513 01d8 00000000 		.word	front_wall_flag
 514 01dc 00000000 		.word	0
 515 01e0 00000000 		.word	straight
 516 01e4 00000000 		.word	angle
 517 01e8 00000000 		.word	error_ang_sum
 518 01ec 00000000 		.word	error_ang_old
 519 01f0 0000FA45 		.word	1174011904
 520 01f4 0000C843 		.word	1137180672
 521 01f8 00003843 		.word	1127743488
 522 01fc 00000000 		.word	motion_end_flag
 523 0200 00007A44 		.word	1148846080
 524 0204 0000C842 		.word	1120403456
 525 0208 00005042 		.word	1112539136
 526 020c 00000000 		.word	error_sum
 527 0210 00000000 		.word	error_old
 528 0214 00001644 		.word	1142292480
 529 0218 0080BB45 		.word	1169915904
 530 021c 00000243 		.word	1124204544
 531 0220 00000000 		.word	enc
 532 0224 00000000 		.word	.LANCHOR1
 533 0228 0000B442 		.word	1119092736
 534              		.cfi_endproc
 535              	.LFE163:
 537              		.section	.text.Motion_End,"ax",%progbits
ARM GAS  C:\Users\kotaro\AppData\Local\Temp\cc7z3AXq.s 			page 13


 538              		.align	1
 539              		.global	Motion_End
 540              		.syntax unified
 541              		.thumb
 542              		.thumb_func
 543              		.fpu fpv4-sp-d16
 545              	Motion_End:
 546              	.LFB164:
 152:Src/motion.c  **** 
 153:Src/motion.c  **** void Motion_End(void)
 154:Src/motion.c  **** {
 547              		.loc 1 154 0
 548              		.cfi_startproc
 549              		@ args = 0, pretend = 0, frame = 0
 550              		@ frame_needed = 0, uses_anonymous_args = 0
 551 0000 08B5     		push	{r3, lr}
 552              	.LCFI11:
 553              		.cfi_def_cfa_offset 8
 554              		.cfi_offset 3, -8
 555              		.cfi_offset 14, -4
 556 0002 2DED028B 		vpush.64	{d8}
 557              	.LCFI12:
 558              		.cfi_def_cfa_offset 16
 559              		.cfi_offset 80, -16
 560              		.cfi_offset 81, -12
 155:Src/motion.c  ****     Control_StrCalculator(90.0f - enc.offset, VELO_S, VELO_S, 0.0f, ACCEL_S, 1);
 561              		.loc 1 155 0
 562 0006 1B4B     		ldr	r3, .L34
 563 0008 D3ED027A 		vldr.32	s15, [r3, #8]
 564 000c 9FED1A8A 		vldr.32	s16, .L34+4
 565 0010 DFED1A0A 		vldr.32	s1, .L34+8
 566 0014 F7EE002A 		vmov.f32	s5, #1.0e+0
 567 0018 9FED192A 		vldr.32	s4, .L34+12
 568 001c F0EE481A 		vmov.f32	s3, s16
 569 0020 B0EE601A 		vmov.f32	s2, s1
 570 0024 9FED170A 		vldr.32	s0, .L34+16
 571 0028 30EE670A 		vsub.f32	s0, s0, s15
 572 002c FFF7FEFF 		bl	Control_StrCalculator
 573              	.LVL23:
 156:Src/motion.c  ****     Control_AngCalculator(0, 0, 0, 0, 1, 0);
 574              		.loc 1 156 0
 575 0030 F0EE482A 		vmov.f32	s5, s16
 576 0034 B7EE002A 		vmov.f32	s4, #1.0e+0
 577 0038 F0EE481A 		vmov.f32	s3, s16
 578 003c B0EE481A 		vmov.f32	s2, s16
 579 0040 F0EE480A 		vmov.f32	s1, s16
 580 0044 B0EE480A 		vmov.f32	s0, s16
 581 0048 FFF7FEFF 		bl	Control_AngCalculator
 582              	.LVL24:
 157:Src/motion.c  ****     motion_end_flag = FALSE;
 583              		.loc 1 157 0
 584 004c 0E4B     		ldr	r3, .L34+20
 585 004e 0022     		movs	r2, #0
 586 0050 1A70     		strb	r2, [r3]
 587              	.L32:
 158:Src/motion.c  ****     while (motion_end_flag == FALSE)
 588              		.loc 1 158 0 discriminator 1
ARM GAS  C:\Users\kotaro\AppData\Local\Temp\cc7z3AXq.s 			page 14


 589 0052 0D4B     		ldr	r3, .L34+20
 590 0054 1B78     		ldrb	r3, [r3]	@ zero_extendqisi2
 591 0056 002B     		cmp	r3, #0
 592 0058 FBD0     		beq	.L32
 159:Src/motion.c  ****     {
 160:Src/motion.c  ****     }
 161:Src/motion.c  ****     straight.v_now = 0;
 593              		.loc 1 161 0
 594 005a 0023     		movs	r3, #0
 595 005c 0B4A     		ldr	r2, .L34+24
 596 005e D360     		str	r3, [r2, #12]	@ float
 162:Src/motion.c  ****     angle.v_now = 0;
 597              		.loc 1 162 0
 598 0060 0B4A     		ldr	r2, .L34+28
 599 0062 D360     		str	r3, [r2, #12]	@ float
 163:Src/motion.c  ****     error_ang_sum = 0.0f;
 600              		.loc 1 163 0
 601 0064 0B4A     		ldr	r2, .L34+32
 602 0066 1360     		str	r3, [r2]	@ float
 164:Src/motion.c  ****     error_ang_old = 0.0f;
 603              		.loc 1 164 0
 604 0068 0B4A     		ldr	r2, .L34+36
 605 006a 1360     		str	r3, [r2]	@ float
 165:Src/motion.c  **** }
 606              		.loc 1 165 0
 607 006c BDEC028B 		vldm	sp!, {d8}
 608              	.LCFI13:
 609              		.cfi_restore 80
 610              		.cfi_restore 81
 611              		.cfi_def_cfa_offset 8
 612 0070 08BD     		pop	{r3, pc}
 613              	.L35:
 614 0072 00BF     		.align	2
 615              	.L34:
 616 0074 00000000 		.word	enc
 617 0078 00000000 		.word	0
 618 007c 00001644 		.word	1142292480
 619 0080 0080BB45 		.word	1169915904
 620 0084 0000B442 		.word	1119092736
 621 0088 00000000 		.word	motion_end_flag
 622 008c 00000000 		.word	straight
 623 0090 00000000 		.word	angle
 624 0094 00000000 		.word	error_ang_sum
 625 0098 00000000 		.word	error_ang_old
 626              		.cfi_endproc
 627              	.LFE164:
 629              		.section	.text.Motion_Straight,"ax",%progbits
 630              		.align	1
 631              		.global	Motion_Straight
 632              		.syntax unified
 633              		.thumb
 634              		.thumb_func
 635              		.fpu fpv4-sp-d16
 637              	Motion_Straight:
 638              	.LFB165:
 166:Src/motion.c  **** 
 167:Src/motion.c  **** void Motion_Straight(uint16_t step)
ARM GAS  C:\Users\kotaro\AppData\Local\Temp\cc7z3AXq.s 			page 15


 168:Src/motion.c  **** {
 639              		.loc 1 168 0
 640              		.cfi_startproc
 641              		@ args = 0, pretend = 0, frame = 0
 642              		@ frame_needed = 0, uses_anonymous_args = 0
 643              	.LVL25:
 644 0000 08B5     		push	{r3, lr}
 645              	.LCFI14:
 646              		.cfi_def_cfa_offset 8
 647              		.cfi_offset 3, -8
 648              		.cfi_offset 14, -4
 169:Src/motion.c  ****     if (step < 2)
 649              		.loc 1 169 0
 650 0002 0128     		cmp	r0, #1
 651 0004 6BD9     		bls	.L45
 652              	.LBB2:
 170:Src/motion.c  ****     {
 171:Src/motion.c  ****         //if (prefront_flag)
 172:Src/motion.c  ****         //{
 173:Src/motion.c  ****             Control_WallEdgeAble(0b11);
 174:Src/motion.c  ****         //}
 175:Src/motion.c  ****         Control_StrCalculator(180.0f - enc.offset, VELO_S, VELO_S, VELO_S, ACCEL_S, 1);
 176:Src/motion.c  ****         Control_AngCalculator(0, 0, 0, 0, 1, 0);
 177:Src/motion.c  ****         motion_end_flag = FALSE;
 178:Src/motion.c  ****         while (motion_end_flag == FALSE)
 179:Src/motion.c  ****         {
 180:Src/motion.c  ****         }
 181:Src/motion.c  ****     }
 182:Src/motion.c  ****     else
 183:Src/motion.c  ****     {
 184:Src/motion.c  ****         step--;
 653              		.loc 1 184 0
 654 0006 0138     		subs	r0, r0, #1
 655              	.LVL26:
 656 0008 80B2     		uxth	r0, r0
 657              	.LVL27:
 185:Src/motion.c  ****         float velo = VELO_S + (float)(120 * step);
 658              		.loc 1 185 0
 659 000a C0EB0012 		rsb	r2, r0, r0, lsl #4
 660 000e D300     		lsls	r3, r2, #3
 661 0010 07EE903A 		vmov	s15, r3	@ int
 662 0014 B8EEE71A 		vcvt.f32.s32	s2, s15
 663 0018 DFED477A 		vldr.32	s15, .L46
 664 001c 31EE271A 		vadd.f32	s2, s2, s15
 665              	.LVL28:
 186:Src/motion.c  ****         if (velo > 2400)
 666              		.loc 1 186 0
 667 0020 DFED467A 		vldr.32	s15, .L46+4
 668 0024 B4EEE71A 		vcmpe.f32	s2, s15
 669 0028 F1EE10FA 		vmrs	APSR_nzcv, FPSCR
 670 002c 01DD     		ble	.L40
 187:Src/motion.c  ****         {
 188:Src/motion.c  ****             velo = 2400;
 671              		.loc 1 188 0
 672 002e B0EE671A 		vmov.f32	s2, s15
 673              	.LVL29:
 674              	.L40:
ARM GAS  C:\Users\kotaro\AppData\Local\Temp\cc7z3AXq.s 			page 16


 189:Src/motion.c  ****         }
 190:Src/motion.c  ****         Control_StrCalculator(180.0f * (float)step - enc.offset, VELO_S, velo, VELO_S, ACCEL_S, 1);
 675              		.loc 1 190 0
 676 0032 07EE900A 		vmov	s15, r0	@ int
 677 0036 F8EE677A 		vcvt.f32.u32	s15, s15
 678 003a 9FED410A 		vldr.32	s0, .L46+8
 679 003e 67EE807A 		vmul.f32	s15, s15, s0
 680 0042 404B     		ldr	r3, .L46+12
 681 0044 93ED020A 		vldr.32	s0, [r3, #8]
 682 0048 DFED3B0A 		vldr.32	s1, .L46
 683 004c F7EE002A 		vmov.f32	s5, #1.0e+0
 684 0050 9FED3D2A 		vldr.32	s4, .L46+16
 685 0054 F0EE601A 		vmov.f32	s3, s1
 686 0058 37EEC00A 		vsub.f32	s0, s15, s0
 687 005c FFF7FEFF 		bl	Control_StrCalculator
 688              	.LVL30:
 191:Src/motion.c  ****         Control_AngCalculator(0, 0, 0, 0, 1, 0);
 689              		.loc 1 191 0
 690 0060 9FED3A0A 		vldr.32	s0, .L46+20
 691 0064 F0EE402A 		vmov.f32	s5, s0
 692 0068 B7EE002A 		vmov.f32	s4, #1.0e+0
 693 006c F0EE401A 		vmov.f32	s3, s0
 694 0070 B0EE401A 		vmov.f32	s2, s0
 695 0074 F0EE400A 		vmov.f32	s1, s0
 696 0078 FFF7FEFF 		bl	Control_AngCalculator
 697              	.LVL31:
 192:Src/motion.c  ****         motion_end_flag = FALSE;
 698              		.loc 1 192 0
 699 007c 344B     		ldr	r3, .L46+24
 700 007e 0022     		movs	r2, #0
 701 0080 1A70     		strb	r2, [r3]
 702              	.L41:
 193:Src/motion.c  ****         while (motion_end_flag == FALSE)
 703              		.loc 1 193 0 discriminator 1
 704 0082 334B     		ldr	r3, .L46+24
 705 0084 1B78     		ldrb	r3, [r3]	@ zero_extendqisi2
 706 0086 002B     		cmp	r3, #0
 707 0088 FBD0     		beq	.L41
 194:Src/motion.c  ****         {
 195:Src/motion.c  ****         }
 196:Src/motion.c  ****         Control_WallEdgeAble(0b11);
 708              		.loc 1 196 0
 709 008a 0320     		movs	r0, #3
 710 008c FFF7FEFF 		bl	Control_WallEdgeAble
 711              	.LVL32:
 197:Src/motion.c  ****         Control_StrCalculator(180.0f, VELO_S, VELO_S, VELO_S, ACCEL_S, 1);
 712              		.loc 1 197 0
 713 0090 DFED290A 		vldr.32	s1, .L46
 714 0094 F7EE002A 		vmov.f32	s5, #1.0e+0
 715 0098 9FED2B2A 		vldr.32	s4, .L46+16
 716 009c F0EE601A 		vmov.f32	s3, s1
 717 00a0 B0EE601A 		vmov.f32	s2, s1
 718 00a4 9FED260A 		vldr.32	s0, .L46+8
 719 00a8 FFF7FEFF 		bl	Control_StrCalculator
 720              	.LVL33:
 198:Src/motion.c  ****         Control_AngCalculator(0, 0, 0, 0, 1, 0);
 721              		.loc 1 198 0
ARM GAS  C:\Users\kotaro\AppData\Local\Temp\cc7z3AXq.s 			page 17


 722 00ac 9FED270A 		vldr.32	s0, .L46+20
 723 00b0 F0EE402A 		vmov.f32	s5, s0
 724 00b4 B7EE002A 		vmov.f32	s4, #1.0e+0
 725 00b8 F0EE401A 		vmov.f32	s3, s0
 726 00bc B0EE401A 		vmov.f32	s2, s0
 727 00c0 F0EE400A 		vmov.f32	s1, s0
 728 00c4 FFF7FEFF 		bl	Control_AngCalculator
 729              	.LVL34:
 199:Src/motion.c  ****         motion_end_flag = FALSE;
 730              		.loc 1 199 0
 731 00c8 214B     		ldr	r3, .L46+24
 732 00ca 0022     		movs	r2, #0
 733 00cc 1A70     		strb	r2, [r3]
 734              	.L42:
 200:Src/motion.c  ****         while (motion_end_flag == FALSE)
 735              		.loc 1 200 0 discriminator 1
 736 00ce 204B     		ldr	r3, .L46+24
 737 00d0 1B78     		ldrb	r3, [r3]	@ zero_extendqisi2
 738 00d2 002B     		cmp	r3, #0
 739 00d4 FBD0     		beq	.L42
 740              	.L39:
 741              	.LBE2:
 201:Src/motion.c  ****         {
 202:Src/motion.c  ****         }
 203:Src/motion.c  ****     }
 204:Src/motion.c  ****     enc.offset = 0;
 742              		.loc 1 204 0
 743 00d6 1B4B     		ldr	r3, .L46+12
 744 00d8 0022     		movs	r2, #0
 745 00da 9A60     		str	r2, [r3, #8]	@ float
 205:Src/motion.c  ****     //prefront_flag = TRUE;
 206:Src/motion.c  **** }
 746              		.loc 1 206 0
 747 00dc 08BD     		pop	{r3, pc}
 748              	.LVL35:
 749              	.L45:
 173:Src/motion.c  ****         //}
 750              		.loc 1 173 0
 751 00de 0320     		movs	r0, #3
 752              	.LVL36:
 753 00e0 FFF7FEFF 		bl	Control_WallEdgeAble
 754              	.LVL37:
 175:Src/motion.c  ****         Control_AngCalculator(0, 0, 0, 0, 1, 0);
 755              		.loc 1 175 0
 756 00e4 174B     		ldr	r3, .L46+12
 757 00e6 D3ED027A 		vldr.32	s15, [r3, #8]
 758 00ea DFED130A 		vldr.32	s1, .L46
 759 00ee F7EE002A 		vmov.f32	s5, #1.0e+0
 760 00f2 9FED152A 		vldr.32	s4, .L46+16
 761 00f6 F0EE601A 		vmov.f32	s3, s1
 762 00fa B0EE601A 		vmov.f32	s2, s1
 763 00fe 9FED100A 		vldr.32	s0, .L46+8
 764 0102 30EE670A 		vsub.f32	s0, s0, s15
 765 0106 FFF7FEFF 		bl	Control_StrCalculator
 766              	.LVL38:
 176:Src/motion.c  ****         motion_end_flag = FALSE;
 767              		.loc 1 176 0
ARM GAS  C:\Users\kotaro\AppData\Local\Temp\cc7z3AXq.s 			page 18


 768 010a 9FED100A 		vldr.32	s0, .L46+20
 769 010e F0EE402A 		vmov.f32	s5, s0
 770 0112 B7EE002A 		vmov.f32	s4, #1.0e+0
 771 0116 F0EE401A 		vmov.f32	s3, s0
 772 011a B0EE401A 		vmov.f32	s2, s0
 773 011e F0EE400A 		vmov.f32	s1, s0
 774 0122 FFF7FEFF 		bl	Control_AngCalculator
 775              	.LVL39:
 177:Src/motion.c  ****         while (motion_end_flag == FALSE)
 776              		.loc 1 177 0
 777 0126 0A4B     		ldr	r3, .L46+24
 778 0128 0022     		movs	r2, #0
 779 012a 1A70     		strb	r2, [r3]
 780              	.L38:
 178:Src/motion.c  ****         {
 781              		.loc 1 178 0 discriminator 1
 782 012c 084B     		ldr	r3, .L46+24
 783 012e 1B78     		ldrb	r3, [r3]	@ zero_extendqisi2
 784 0130 002B     		cmp	r3, #0
 785 0132 FBD0     		beq	.L38
 786 0134 CFE7     		b	.L39
 787              	.L47:
 788 0136 00BF     		.align	2
 789              	.L46:
 790 0138 00001644 		.word	1142292480
 791 013c 00001645 		.word	1159069696
 792 0140 00003443 		.word	1127481344
 793 0144 00000000 		.word	enc
 794 0148 0080BB45 		.word	1169915904
 795 014c 00000000 		.word	0
 796 0150 00000000 		.word	motion_end_flag
 797              		.cfi_endproc
 798              	.LFE165:
 800              		.section	.text.Motion_SpinTurn,"ax",%progbits
 801              		.align	1
 802              		.global	Motion_SpinTurn
 803              		.syntax unified
 804              		.thumb
 805              		.thumb_func
 806              		.fpu fpv4-sp-d16
 808              	Motion_SpinTurn:
 809              	.LFB166:
 207:Src/motion.c  **** 
 208:Src/motion.c  **** void Motion_SpinTurn(void)
 209:Src/motion.c  **** {
 810              		.loc 1 209 0
 811              		.cfi_startproc
 812              		@ args = 0, pretend = 0, frame = 0
 813              		@ frame_needed = 0, uses_anonymous_args = 0
 814 0000 08B5     		push	{r3, lr}
 815              	.LCFI15:
 816              		.cfi_def_cfa_offset 8
 817              		.cfi_offset 3, -8
 818              		.cfi_offset 14, -4
 819 0002 2DED028B 		vpush.64	{d8}
 820              	.LCFI16:
 821              		.cfi_def_cfa_offset 16
ARM GAS  C:\Users\kotaro\AppData\Local\Temp\cc7z3AXq.s 			page 19


 822              		.cfi_offset 80, -16
 823              		.cfi_offset 81, -12
 210:Src/motion.c  ****     Control_StrCalculator(90.0f - enc.offset, VELO_S, VELO_S, 0, ACCEL_S, 1);
 824              		.loc 1 210 0
 825 0006 6C4B     		ldr	r3, .L54
 826 0008 D3ED027A 		vldr.32	s15, [r3, #8]
 827 000c 9FED6B8A 		vldr.32	s16, .L54+4
 828 0010 DFED6B0A 		vldr.32	s1, .L54+8
 829 0014 F7EE002A 		vmov.f32	s5, #1.0e+0
 830 0018 9FED6A2A 		vldr.32	s4, .L54+12
 831 001c F0EE481A 		vmov.f32	s3, s16
 832 0020 B0EE601A 		vmov.f32	s2, s1
 833 0024 9FED680A 		vldr.32	s0, .L54+16
 834 0028 30EE670A 		vsub.f32	s0, s0, s15
 835 002c FFF7FEFF 		bl	Control_StrCalculator
 836              	.LVL40:
 211:Src/motion.c  ****     Control_AngCalculator(0, 0, 0, 0, 1, 0);
 837              		.loc 1 211 0
 838 0030 F0EE482A 		vmov.f32	s5, s16
 839 0034 B7EE002A 		vmov.f32	s4, #1.0e+0
 840 0038 F0EE481A 		vmov.f32	s3, s16
 841 003c B0EE481A 		vmov.f32	s2, s16
 842 0040 F0EE480A 		vmov.f32	s1, s16
 843 0044 B0EE480A 		vmov.f32	s0, s16
 844 0048 FFF7FEFF 		bl	Control_AngCalculator
 845              	.LVL41:
 212:Src/motion.c  ****     motion_end_flag = FALSE;
 846              		.loc 1 212 0
 847 004c 5F4B     		ldr	r3, .L54+20
 848 004e 0022     		movs	r2, #0
 849 0050 1A70     		strb	r2, [r3]
 850              	.L49:
 213:Src/motion.c  ****     while (motion_end_flag == FALSE)
 851              		.loc 1 213 0 discriminator 1
 852 0052 5E4B     		ldr	r3, .L54+20
 853 0054 1B78     		ldrb	r3, [r3]	@ zero_extendqisi2
 854 0056 002B     		cmp	r3, #0
 855 0058 FBD0     		beq	.L49
 214:Src/motion.c  ****     {
 215:Src/motion.c  ****     }
 216:Src/motion.c  ****     straight.v_now = 0.0f;
 856              		.loc 1 216 0
 857 005a 9FED588A 		vldr.32	s16, .L54+4
 858 005e 5C4B     		ldr	r3, .L54+24
 859 0060 83ED038A 		vstr.32	s16, [r3, #12]
 217:Src/motion.c  ****     angle.v_now = 0.0f;
 860              		.loc 1 217 0
 861 0064 5B4B     		ldr	r3, .L54+28
 862 0066 83ED038A 		vstr.32	s16, [r3, #12]
 218:Src/motion.c  ****     error_ang_sum = 0.0f;
 863              		.loc 1 218 0
 864 006a 5B4B     		ldr	r3, .L54+32
 865 006c 83ED008A 		vstr.32	s16, [r3]
 219:Src/motion.c  ****     error_ang_old = 0.0f;
 866              		.loc 1 219 0
 867 0070 5A4B     		ldr	r3, .L54+36
 868 0072 83ED008A 		vstr.32	s16, [r3]
ARM GAS  C:\Users\kotaro\AppData\Local\Temp\cc7z3AXq.s 			page 20


 220:Src/motion.c  ****     HAL_Delay(500);
 869              		.loc 1 220 0
 870 0076 4FF4FA70 		mov	r0, #500
 871 007a FFF7FEFF 		bl	HAL_Delay
 872              	.LVL42:
 221:Src/motion.c  ****     Control_StrCalculator(0, 0, 0, 0, 1, 0);
 873              		.loc 1 221 0
 874 007e F0EE482A 		vmov.f32	s5, s16
 875 0082 B7EE002A 		vmov.f32	s4, #1.0e+0
 876 0086 F0EE481A 		vmov.f32	s3, s16
 877 008a B0EE481A 		vmov.f32	s2, s16
 878 008e F0EE480A 		vmov.f32	s1, s16
 879 0092 B0EE480A 		vmov.f32	s0, s16
 880 0096 FFF7FEFF 		bl	Control_StrCalculator
 881              	.LVL43:
 222:Src/motion.c  ****     Control_AngCalculator(184.0f, 0.0f, VELO_ANG_S, 0.0f, ACCEL_ANG_S, 1);
 882              		.loc 1 222 0
 883 009a F7EE002A 		vmov.f32	s5, #1.0e+0
 884 009e 9FED502A 		vldr.32	s4, .L54+40
 885 00a2 F0EE481A 		vmov.f32	s3, s16
 886 00a6 9FED4F1A 		vldr.32	s2, .L54+44
 887 00aa F0EE480A 		vmov.f32	s1, s16
 888 00ae 9FED4E0A 		vldr.32	s0, .L54+48
 889 00b2 FFF7FEFF 		bl	Control_AngCalculator
 890              	.LVL44:
 223:Src/motion.c  ****     motion_end_flag = FALSE;
 891              		.loc 1 223 0
 892 00b6 454B     		ldr	r3, .L54+20
 893 00b8 0022     		movs	r2, #0
 894 00ba 1A70     		strb	r2, [r3]
 895              	.L50:
 224:Src/motion.c  ****     while (motion_end_flag == FALSE)
 896              		.loc 1 224 0 discriminator 1
 897 00bc 434B     		ldr	r3, .L54+20
 898 00be 1B78     		ldrb	r3, [r3]	@ zero_extendqisi2
 899 00c0 002B     		cmp	r3, #0
 900 00c2 FBD0     		beq	.L50
 225:Src/motion.c  ****     {
 226:Src/motion.c  ****     }
 227:Src/motion.c  ****     straight.v_now = 0.0f;
 901              		.loc 1 227 0
 902 00c4 9FED3D8A 		vldr.32	s16, .L54+4
 903 00c8 414B     		ldr	r3, .L54+24
 904 00ca 83ED038A 		vstr.32	s16, [r3, #12]
 228:Src/motion.c  ****     angle.v_now = 0.0f;
 905              		.loc 1 228 0
 906 00ce 414B     		ldr	r3, .L54+28
 907 00d0 83ED038A 		vstr.32	s16, [r3, #12]
 229:Src/motion.c  ****     error_ang_sum = 0.0f;
 908              		.loc 1 229 0
 909 00d4 404B     		ldr	r3, .L54+32
 910 00d6 83ED008A 		vstr.32	s16, [r3]
 230:Src/motion.c  ****     error_ang_old = 0.0f;
 911              		.loc 1 230 0
 912 00da 404B     		ldr	r3, .L54+36
 913 00dc 83ED008A 		vstr.32	s16, [r3]
 231:Src/motion.c  ****     HAL_Delay(500);
ARM GAS  C:\Users\kotaro\AppData\Local\Temp\cc7z3AXq.s 			page 21


 914              		.loc 1 231 0
 915 00e0 4FF4FA70 		mov	r0, #500
 916 00e4 FFF7FEFF 		bl	HAL_Delay
 917              	.LVL45:
 232:Src/motion.c  **** 
 233:Src/motion.c  ****     Control_StrCalculator(60.0f, 0, 100, 0, 1000, -1);
 918              		.loc 1 233 0
 919 00e8 FFEE002A 		vmov.f32	s5, #-1.0e+0
 920 00ec 9FED3F2A 		vldr.32	s4, .L54+52
 921 00f0 F0EE481A 		vmov.f32	s3, s16
 922 00f4 9FED3E1A 		vldr.32	s2, .L54+56
 923 00f8 F0EE480A 		vmov.f32	s1, s16
 924 00fc 9FED3D0A 		vldr.32	s0, .L54+60
 925 0100 FFF7FEFF 		bl	Control_StrCalculator
 926              	.LVL46:
 234:Src/motion.c  ****     Control_AngCalculator(0, 0, 0, 0, 1, 0);
 927              		.loc 1 234 0
 928 0104 F0EE482A 		vmov.f32	s5, s16
 929 0108 B7EE002A 		vmov.f32	s4, #1.0e+0
 930 010c F0EE481A 		vmov.f32	s3, s16
 931 0110 B0EE481A 		vmov.f32	s2, s16
 932 0114 F0EE480A 		vmov.f32	s1, s16
 933 0118 B0EE480A 		vmov.f32	s0, s16
 934 011c FFF7FEFF 		bl	Control_AngCalculator
 935              	.LVL47:
 235:Src/motion.c  ****     motion_end_flag = FALSE;
 936              		.loc 1 235 0
 937 0120 2A4B     		ldr	r3, .L54+20
 938 0122 0022     		movs	r2, #0
 939 0124 1A70     		strb	r2, [r3]
 940              	.L51:
 236:Src/motion.c  ****     while (motion_end_flag == FALSE)
 941              		.loc 1 236 0 discriminator 1
 942 0126 294B     		ldr	r3, .L54+20
 943 0128 1B78     		ldrb	r3, [r3]	@ zero_extendqisi2
 944 012a 002B     		cmp	r3, #0
 945 012c FBD0     		beq	.L51
 237:Src/motion.c  ****     {
 238:Src/motion.c  ****     }
 239:Src/motion.c  ****     straight.v_now = 0;
 946              		.loc 1 239 0
 947 012e 9FED238A 		vldr.32	s16, .L54+4
 948 0132 274B     		ldr	r3, .L54+24
 949 0134 83ED038A 		vstr.32	s16, [r3, #12]
 240:Src/motion.c  ****     angle.v_now = 0;
 950              		.loc 1 240 0
 951 0138 264B     		ldr	r3, .L54+28
 952 013a 83ED038A 		vstr.32	s16, [r3, #12]
 241:Src/motion.c  ****     error_sum = 0.0f;
 953              		.loc 1 241 0
 954 013e 2E4B     		ldr	r3, .L54+64
 955 0140 83ED008A 		vstr.32	s16, [r3]
 242:Src/motion.c  ****     error_old = 0.0f;
 956              		.loc 1 242 0
 957 0144 2D4B     		ldr	r3, .L54+68
 958 0146 83ED008A 		vstr.32	s16, [r3]
 243:Src/motion.c  ****     error_ang_sum = 0.0f;
ARM GAS  C:\Users\kotaro\AppData\Local\Temp\cc7z3AXq.s 			page 22


 959              		.loc 1 243 0
 960 014a 234B     		ldr	r3, .L54+32
 961 014c 83ED008A 		vstr.32	s16, [r3]
 244:Src/motion.c  ****     error_ang_old = 0.0f;
 962              		.loc 1 244 0
 963 0150 224B     		ldr	r3, .L54+36
 964 0152 83ED008A 		vstr.32	s16, [r3]
 245:Src/motion.c  ****     HAL_Delay(500);
 965              		.loc 1 245 0
 966 0156 4FF4FA70 		mov	r0, #500
 967 015a FFF7FEFF 		bl	HAL_Delay
 968              	.LVL48:
 246:Src/motion.c  **** 
 247:Src/motion.c  ****     Control_WallEdgeAble(0b11);
 969              		.loc 1 247 0
 970 015e 0320     		movs	r0, #3
 971 0160 FFF7FEFF 		bl	Control_WallEdgeAble
 972              	.LVL49:
 248:Src/motion.c  ****     Control_StrCalculator(130.0f, 0, VELO_S, VELO_S, ACCEL_S, 1);
 973              		.loc 1 248 0
 974 0164 9FED161A 		vldr.32	s2, .L54+8
 975 0168 F7EE002A 		vmov.f32	s5, #1.0e+0
 976 016c 9FED152A 		vldr.32	s4, .L54+12
 977 0170 F0EE411A 		vmov.f32	s3, s2
 978 0174 F0EE480A 		vmov.f32	s1, s16
 979 0178 9FED210A 		vldr.32	s0, .L54+72
 980 017c FFF7FEFF 		bl	Control_StrCalculator
 981              	.LVL50:
 249:Src/motion.c  ****     Control_AngCalculator(0, 0, 0, 0, 1, 0);
 982              		.loc 1 249 0
 983 0180 F0EE482A 		vmov.f32	s5, s16
 984 0184 B7EE002A 		vmov.f32	s4, #1.0e+0
 985 0188 F0EE481A 		vmov.f32	s3, s16
 986 018c B0EE481A 		vmov.f32	s2, s16
 987 0190 F0EE480A 		vmov.f32	s1, s16
 988 0194 B0EE480A 		vmov.f32	s0, s16
 989 0198 FFF7FEFF 		bl	Control_AngCalculator
 990              	.LVL51:
 250:Src/motion.c  ****     motion_end_flag = FALSE;
 991              		.loc 1 250 0
 992 019c 0B4B     		ldr	r3, .L54+20
 993 019e 0022     		movs	r2, #0
 994 01a0 1A70     		strb	r2, [r3]
 995              	.L52:
 251:Src/motion.c  ****     while (motion_end_flag == FALSE)
 996              		.loc 1 251 0 discriminator 1
 997 01a2 0A4B     		ldr	r3, .L54+20
 998 01a4 1B78     		ldrb	r3, [r3]	@ zero_extendqisi2
 999 01a6 002B     		cmp	r3, #0
 1000 01a8 FBD0     		beq	.L52
 252:Src/motion.c  ****     {
 253:Src/motion.c  ****     }
 254:Src/motion.c  ****     enc.offset = 0;
 1001              		.loc 1 254 0
 1002 01aa 034B     		ldr	r3, .L54
 1003 01ac 0022     		movs	r2, #0
 1004 01ae 9A60     		str	r2, [r3, #8]	@ float
ARM GAS  C:\Users\kotaro\AppData\Local\Temp\cc7z3AXq.s 			page 23


 255:Src/motion.c  ****     //prefront_flag = TRUE;
 256:Src/motion.c  **** }
 1005              		.loc 1 256 0
 1006 01b0 BDEC028B 		vldm	sp!, {d8}
 1007              	.LCFI17:
 1008              		.cfi_restore 80
 1009              		.cfi_restore 81
 1010              		.cfi_def_cfa_offset 8
 1011 01b4 08BD     		pop	{r3, pc}
 1012              	.L55:
 1013 01b6 00BF     		.align	2
 1014              	.L54:
 1015 01b8 00000000 		.word	enc
 1016 01bc 00000000 		.word	0
 1017 01c0 00001644 		.word	1142292480
 1018 01c4 0080BB45 		.word	1169915904
 1019 01c8 0000B442 		.word	1119092736
 1020 01cc 00000000 		.word	motion_end_flag
 1021 01d0 00000000 		.word	straight
 1022 01d4 00000000 		.word	angle
 1023 01d8 00000000 		.word	error_ang_sum
 1024 01dc 00000000 		.word	error_ang_old
 1025 01e0 0000FA45 		.word	1174011904
 1026 01e4 0000C843 		.word	1137180672
 1027 01e8 00003843 		.word	1127743488
 1028 01ec 00007A44 		.word	1148846080
 1029 01f0 0000C842 		.word	1120403456
 1030 01f4 00007042 		.word	1114636288
 1031 01f8 00000000 		.word	error_sum
 1032 01fc 00000000 		.word	error_old
 1033 0200 00000243 		.word	1124204544
 1034              		.cfi_endproc
 1035              	.LFE166:
 1037              		.section	.text.Motion_WallSpinTurn,"ax",%progbits
 1038              		.align	1
 1039              		.global	Motion_WallSpinTurn
 1040              		.syntax unified
 1041              		.thumb
 1042              		.thumb_func
 1043              		.fpu fpv4-sp-d16
 1045              	Motion_WallSpinTurn:
 1046              	.LFB167:
 257:Src/motion.c  **** 
 258:Src/motion.c  **** void Motion_WallSpinTurn(void)
 259:Src/motion.c  **** {
 1047              		.loc 1 259 0
 1048              		.cfi_startproc
 1049              		@ args = 0, pretend = 0, frame = 0
 1050              		@ frame_needed = 0, uses_anonymous_args = 0
 1051 0000 08B5     		push	{r3, lr}
 1052              	.LCFI18:
 1053              		.cfi_def_cfa_offset 8
 1054              		.cfi_offset 3, -8
 1055              		.cfi_offset 14, -4
 1056 0002 2DED028B 		vpush.64	{d8}
 1057              	.LCFI19:
 1058              		.cfi_def_cfa_offset 16
ARM GAS  C:\Users\kotaro\AppData\Local\Temp\cc7z3AXq.s 			page 24


 1059              		.cfi_offset 80, -16
 1060              		.cfi_offset 81, -12
 260:Src/motion.c  ****     Control_StrCalculator(90.0f - enc.offset, VELO_S, VELO_S, 0, ACCEL_S, 1);
 1061              		.loc 1 260 0
 1062 0006 784B     		ldr	r3, .L63
 1063 0008 D3ED027A 		vldr.32	s15, [r3, #8]
 1064 000c 9FED778A 		vldr.32	s16, .L63+4
 1065 0010 DFED770A 		vldr.32	s1, .L63+8
 1066 0014 F7EE002A 		vmov.f32	s5, #1.0e+0
 1067 0018 9FED762A 		vldr.32	s4, .L63+12
 1068 001c F0EE481A 		vmov.f32	s3, s16
 1069 0020 B0EE601A 		vmov.f32	s2, s1
 1070 0024 9FED740A 		vldr.32	s0, .L63+16
 1071 0028 30EE670A 		vsub.f32	s0, s0, s15
 1072 002c FFF7FEFF 		bl	Control_StrCalculator
 1073              	.LVL52:
 261:Src/motion.c  ****     Control_AngCalculator(0, 0, 0, 0, 1, 0);
 1074              		.loc 1 261 0
 1075 0030 F0EE482A 		vmov.f32	s5, s16
 1076 0034 B7EE002A 		vmov.f32	s4, #1.0e+0
 1077 0038 F0EE481A 		vmov.f32	s3, s16
 1078 003c B0EE481A 		vmov.f32	s2, s16
 1079 0040 F0EE480A 		vmov.f32	s1, s16
 1080 0044 B0EE480A 		vmov.f32	s0, s16
 1081 0048 FFF7FEFF 		bl	Control_AngCalculator
 1082              	.LVL53:
 262:Src/motion.c  ****     motion_end_flag = FALSE;
 1083              		.loc 1 262 0
 1084 004c 6B4B     		ldr	r3, .L63+20
 1085 004e 0022     		movs	r2, #0
 1086 0050 1A70     		strb	r2, [r3]
 1087              	.L57:
 263:Src/motion.c  ****     while (motion_end_flag == FALSE)
 1088              		.loc 1 263 0 discriminator 1
 1089 0052 6A4B     		ldr	r3, .L63+20
 1090 0054 1B78     		ldrb	r3, [r3]	@ zero_extendqisi2
 1091 0056 002B     		cmp	r3, #0
 1092 0058 FBD0     		beq	.L57
 264:Src/motion.c  ****     {
 265:Src/motion.c  ****     }
 266:Src/motion.c  **** 
 267:Src/motion.c  ****     straight.v_now = 0;
 1093              		.loc 1 267 0
 1094 005a 0023     		movs	r3, #0
 1095 005c 684A     		ldr	r2, .L63+24
 1096 005e D360     		str	r3, [r2, #12]	@ float
 268:Src/motion.c  ****     angle.v_now = 0;
 1097              		.loc 1 268 0
 1098 0060 684A     		ldr	r2, .L63+28
 1099 0062 D360     		str	r3, [r2, #12]	@ float
 269:Src/motion.c  ****     error_ang_sum = 0.0f;
 1100              		.loc 1 269 0
 1101 0064 684A     		ldr	r2, .L63+32
 1102 0066 1360     		str	r3, [r2]	@ float
 270:Src/motion.c  ****     error_ang_old = 0.0f;
 1103              		.loc 1 270 0
 1104 0068 684A     		ldr	r2, .L63+36
ARM GAS  C:\Users\kotaro\AppData\Local\Temp\cc7z3AXq.s 			page 25


 1105 006a 1360     		str	r3, [r2]	@ float
 271:Src/motion.c  ****     HAL_Delay(500);
 1106              		.loc 1 271 0
 1107 006c 4FF4FA70 		mov	r0, #500
 1108 0070 FFF7FEFF 		bl	HAL_Delay
 1109              	.LVL54:
 272:Src/motion.c  **** 
 273:Src/motion.c  ****     front_wall_flag = TRUE;
 1110              		.loc 1 273 0
 1111 0074 664B     		ldr	r3, .L63+40
 1112 0076 0122     		movs	r2, #1
 1113 0078 1A70     		strb	r2, [r3]
 1114              	.L58:
 274:Src/motion.c  ****     while (front_wall_flag == TRUE)
 1115              		.loc 1 274 0 discriminator 1
 1116 007a 654B     		ldr	r3, .L63+40
 1117 007c 1B78     		ldrb	r3, [r3]	@ zero_extendqisi2
 1118 007e DBB2     		uxtb	r3, r3
 1119 0080 012B     		cmp	r3, #1
 1120 0082 FAD0     		beq	.L58
 275:Src/motion.c  ****     {
 276:Src/motion.c  ****     }
 277:Src/motion.c  **** 
 278:Src/motion.c  ****     straight.v_now = 0;
 1121              		.loc 1 278 0
 1122 0084 9FED598A 		vldr.32	s16, .L63+4
 1123 0088 5D4B     		ldr	r3, .L63+24
 1124 008a 83ED038A 		vstr.32	s16, [r3, #12]
 279:Src/motion.c  ****     angle.v_now = 0;
 1125              		.loc 1 279 0
 1126 008e 5D4B     		ldr	r3, .L63+28
 1127 0090 83ED038A 		vstr.32	s16, [r3, #12]
 280:Src/motion.c  ****     error_ang_sum = 0.0f;
 1128              		.loc 1 280 0
 1129 0094 5C4B     		ldr	r3, .L63+32
 1130 0096 83ED008A 		vstr.32	s16, [r3]
 281:Src/motion.c  ****     error_ang_old = 0.0f;
 1131              		.loc 1 281 0
 1132 009a 5C4B     		ldr	r3, .L63+36
 1133 009c 83ED008A 		vstr.32	s16, [r3]
 282:Src/motion.c  ****     HAL_Delay(500);
 1134              		.loc 1 282 0
 1135 00a0 4FF4FA70 		mov	r0, #500
 1136 00a4 FFF7FEFF 		bl	HAL_Delay
 1137              	.LVL55:
 283:Src/motion.c  **** 
 284:Src/motion.c  ****     Control_StrCalculator(0, 0, 0, 0, 1, 0);
 1138              		.loc 1 284 0
 1139 00a8 F0EE482A 		vmov.f32	s5, s16
 1140 00ac B7EE002A 		vmov.f32	s4, #1.0e+0
 1141 00b0 F0EE481A 		vmov.f32	s3, s16
 1142 00b4 B0EE481A 		vmov.f32	s2, s16
 1143 00b8 F0EE480A 		vmov.f32	s1, s16
 1144 00bc B0EE480A 		vmov.f32	s0, s16
 1145 00c0 FFF7FEFF 		bl	Control_StrCalculator
 1146              	.LVL56:
 285:Src/motion.c  ****     Control_AngCalculator(184.0f, 0.0f, VELO_ANG_S, 0.0f, ACCEL_ANG_S, 1);
ARM GAS  C:\Users\kotaro\AppData\Local\Temp\cc7z3AXq.s 			page 26


 1147              		.loc 1 285 0
 1148 00c4 F7EE002A 		vmov.f32	s5, #1.0e+0
 1149 00c8 9FED522A 		vldr.32	s4, .L63+44
 1150 00cc F0EE481A 		vmov.f32	s3, s16
 1151 00d0 9FED511A 		vldr.32	s2, .L63+48
 1152 00d4 F0EE480A 		vmov.f32	s1, s16
 1153 00d8 9FED500A 		vldr.32	s0, .L63+52
 1154 00dc FFF7FEFF 		bl	Control_AngCalculator
 1155              	.LVL57:
 286:Src/motion.c  ****     motion_end_flag = FALSE;
 1156              		.loc 1 286 0
 1157 00e0 464B     		ldr	r3, .L63+20
 1158 00e2 0022     		movs	r2, #0
 1159 00e4 1A70     		strb	r2, [r3]
 1160              	.L59:
 287:Src/motion.c  ****     while (motion_end_flag == FALSE)
 1161              		.loc 1 287 0 discriminator 1
 1162 00e6 454B     		ldr	r3, .L63+20
 1163 00e8 1B78     		ldrb	r3, [r3]	@ zero_extendqisi2
 1164 00ea 002B     		cmp	r3, #0
 1165 00ec FBD0     		beq	.L59
 288:Src/motion.c  ****     {
 289:Src/motion.c  ****     }
 290:Src/motion.c  ****     straight.v_now = 0;
 1166              		.loc 1 290 0
 1167 00ee 9FED3F8A 		vldr.32	s16, .L63+4
 1168 00f2 434B     		ldr	r3, .L63+24
 1169 00f4 83ED038A 		vstr.32	s16, [r3, #12]
 291:Src/motion.c  ****     angle.v_now = 0;
 1170              		.loc 1 291 0
 1171 00f8 424B     		ldr	r3, .L63+28
 1172 00fa 83ED038A 		vstr.32	s16, [r3, #12]
 292:Src/motion.c  ****     error_ang_sum = 0.0f;
 1173              		.loc 1 292 0
 1174 00fe 424B     		ldr	r3, .L63+32
 1175 0100 83ED008A 		vstr.32	s16, [r3]
 293:Src/motion.c  ****     error_ang_old = 0.0f;
 1176              		.loc 1 293 0
 1177 0104 414B     		ldr	r3, .L63+36
 1178 0106 83ED008A 		vstr.32	s16, [r3]
 294:Src/motion.c  ****     HAL_Delay(500);
 1179              		.loc 1 294 0
 1180 010a 4FF4FA70 		mov	r0, #500
 1181 010e FFF7FEFF 		bl	HAL_Delay
 1182              	.LVL58:
 295:Src/motion.c  **** 
 296:Src/motion.c  ****     Control_StrCalculator(52.0f, 0, 100, 0, 1000, -1);
 1183              		.loc 1 296 0
 1184 0112 FFEE002A 		vmov.f32	s5, #-1.0e+0
 1185 0116 9FED422A 		vldr.32	s4, .L63+56
 1186 011a F0EE481A 		vmov.f32	s3, s16
 1187 011e 9FED411A 		vldr.32	s2, .L63+60
 1188 0122 F0EE480A 		vmov.f32	s1, s16
 1189 0126 9FED400A 		vldr.32	s0, .L63+64
 1190 012a FFF7FEFF 		bl	Control_StrCalculator
 1191              	.LVL59:
 297:Src/motion.c  ****     Control_AngCalculator(0, 0, 0, 0, 1, 0);
ARM GAS  C:\Users\kotaro\AppData\Local\Temp\cc7z3AXq.s 			page 27


 1192              		.loc 1 297 0
 1193 012e F0EE482A 		vmov.f32	s5, s16
 1194 0132 B7EE002A 		vmov.f32	s4, #1.0e+0
 1195 0136 F0EE481A 		vmov.f32	s3, s16
 1196 013a B0EE481A 		vmov.f32	s2, s16
 1197 013e F0EE480A 		vmov.f32	s1, s16
 1198 0142 B0EE480A 		vmov.f32	s0, s16
 1199 0146 FFF7FEFF 		bl	Control_AngCalculator
 1200              	.LVL60:
 298:Src/motion.c  ****     motion_end_flag = FALSE;
 1201              		.loc 1 298 0
 1202 014a 2C4B     		ldr	r3, .L63+20
 1203 014c 0022     		movs	r2, #0
 1204 014e 1A70     		strb	r2, [r3]
 1205              	.L60:
 299:Src/motion.c  ****     while (motion_end_flag == FALSE)
 1206              		.loc 1 299 0 discriminator 1
 1207 0150 2A4B     		ldr	r3, .L63+20
 1208 0152 1B78     		ldrb	r3, [r3]	@ zero_extendqisi2
 1209 0154 002B     		cmp	r3, #0
 1210 0156 FBD0     		beq	.L60
 300:Src/motion.c  ****     {
 301:Src/motion.c  ****     }
 302:Src/motion.c  ****     straight.v_now = 0;
 1211              		.loc 1 302 0
 1212 0158 9FED248A 		vldr.32	s16, .L63+4
 1213 015c 284B     		ldr	r3, .L63+24
 1214 015e 83ED038A 		vstr.32	s16, [r3, #12]
 303:Src/motion.c  ****     angle.v_now = 0;
 1215              		.loc 1 303 0
 1216 0162 284B     		ldr	r3, .L63+28
 1217 0164 83ED038A 		vstr.32	s16, [r3, #12]
 304:Src/motion.c  ****     error_sum = 0.0f;
 1218              		.loc 1 304 0
 1219 0168 304B     		ldr	r3, .L63+68
 1220 016a 83ED008A 		vstr.32	s16, [r3]
 305:Src/motion.c  ****     error_old = 0.0f;
 1221              		.loc 1 305 0
 1222 016e 304B     		ldr	r3, .L63+72
 1223 0170 83ED008A 		vstr.32	s16, [r3]
 306:Src/motion.c  ****     error_ang_sum = 0.0f;
 1224              		.loc 1 306 0
 1225 0174 244B     		ldr	r3, .L63+32
 1226 0176 83ED008A 		vstr.32	s16, [r3]
 307:Src/motion.c  ****     error_ang_old = 0.0f;
 1227              		.loc 1 307 0
 1228 017a 244B     		ldr	r3, .L63+36
 1229 017c 83ED008A 		vstr.32	s16, [r3]
 308:Src/motion.c  ****     HAL_Delay(500);
 1230              		.loc 1 308 0
 1231 0180 4FF4FA70 		mov	r0, #500
 1232 0184 FFF7FEFF 		bl	HAL_Delay
 1233              	.LVL61:
 309:Src/motion.c  ****     Control_WallEdgeAble(0b11);
 1234              		.loc 1 309 0
 1235 0188 0320     		movs	r0, #3
 1236 018a FFF7FEFF 		bl	Control_WallEdgeAble
ARM GAS  C:\Users\kotaro\AppData\Local\Temp\cc7z3AXq.s 			page 28


 1237              	.LVL62:
 310:Src/motion.c  ****     Control_StrCalculator(130.0f, 0, VELO_S, VELO_S, ACCEL_S, 1);
 1238              		.loc 1 310 0
 1239 018e 9FED181A 		vldr.32	s2, .L63+8
 1240 0192 F7EE002A 		vmov.f32	s5, #1.0e+0
 1241 0196 9FED172A 		vldr.32	s4, .L63+12
 1242 019a F0EE411A 		vmov.f32	s3, s2
 1243 019e F0EE480A 		vmov.f32	s1, s16
 1244 01a2 9FED240A 		vldr.32	s0, .L63+76
 1245 01a6 FFF7FEFF 		bl	Control_StrCalculator
 1246              	.LVL63:
 311:Src/motion.c  ****     Control_AngCalculator(0, 0, 0, 0, 1, 0);
 1247              		.loc 1 311 0
 1248 01aa F0EE482A 		vmov.f32	s5, s16
 1249 01ae B7EE002A 		vmov.f32	s4, #1.0e+0
 1250 01b2 F0EE481A 		vmov.f32	s3, s16
 1251 01b6 B0EE481A 		vmov.f32	s2, s16
 1252 01ba F0EE480A 		vmov.f32	s1, s16
 1253 01be B0EE480A 		vmov.f32	s0, s16
 1254 01c2 FFF7FEFF 		bl	Control_AngCalculator
 1255              	.LVL64:
 312:Src/motion.c  ****     motion_end_flag = FALSE;
 1256              		.loc 1 312 0
 1257 01c6 0D4B     		ldr	r3, .L63+20
 1258 01c8 0022     		movs	r2, #0
 1259 01ca 1A70     		strb	r2, [r3]
 1260              	.L61:
 313:Src/motion.c  ****     while (motion_end_flag == FALSE)
 1261              		.loc 1 313 0 discriminator 1
 1262 01cc 0B4B     		ldr	r3, .L63+20
 1263 01ce 1B78     		ldrb	r3, [r3]	@ zero_extendqisi2
 1264 01d0 002B     		cmp	r3, #0
 1265 01d2 FBD0     		beq	.L61
 314:Src/motion.c  ****     {
 315:Src/motion.c  ****     }
 316:Src/motion.c  ****     enc.offset = 0.0f;
 1266              		.loc 1 316 0
 1267 01d4 044B     		ldr	r3, .L63
 1268 01d6 0022     		movs	r2, #0
 1269 01d8 9A60     		str	r2, [r3, #8]	@ float
 317:Src/motion.c  ****     prefront_flag = TRUE;
 1270              		.loc 1 317 0
 1271 01da 174B     		ldr	r3, .L63+80
 1272 01dc 0122     		movs	r2, #1
 1273 01de 1A80     		strh	r2, [r3]	@ movhi
 318:Src/motion.c  **** }
 1274              		.loc 1 318 0
 1275 01e0 BDEC028B 		vldm	sp!, {d8}
 1276              	.LCFI20:
 1277              		.cfi_restore 80
 1278              		.cfi_restore 81
 1279              		.cfi_def_cfa_offset 8
 1280 01e4 08BD     		pop	{r3, pc}
 1281              	.L64:
 1282 01e6 00BF     		.align	2
 1283              	.L63:
 1284 01e8 00000000 		.word	enc
ARM GAS  C:\Users\kotaro\AppData\Local\Temp\cc7z3AXq.s 			page 29


 1285 01ec 00000000 		.word	0
 1286 01f0 00001644 		.word	1142292480
 1287 01f4 0080BB45 		.word	1169915904
 1288 01f8 0000B442 		.word	1119092736
 1289 01fc 00000000 		.word	motion_end_flag
 1290 0200 00000000 		.word	straight
 1291 0204 00000000 		.word	angle
 1292 0208 00000000 		.word	error_ang_sum
 1293 020c 00000000 		.word	error_ang_old
 1294 0210 00000000 		.word	front_wall_flag
 1295 0214 0000FA45 		.word	1174011904
 1296 0218 0000C843 		.word	1137180672
 1297 021c 00003843 		.word	1127743488
 1298 0220 00007A44 		.word	1148846080
 1299 0224 0000C842 		.word	1120403456
 1300 0228 00005042 		.word	1112539136
 1301 022c 00000000 		.word	error_sum
 1302 0230 00000000 		.word	error_old
 1303 0234 00000243 		.word	1124204544
 1304 0238 00000000 		.word	.LANCHOR1
 1305              		.cfi_endproc
 1306              	.LFE167:
 1308              		.section	.text.Motion_LeftTurn,"ax",%progbits
 1309              		.align	1
 1310              		.global	Motion_LeftTurn
 1311              		.syntax unified
 1312              		.thumb
 1313              		.thumb_func
 1314              		.fpu fpv4-sp-d16
 1316              	Motion_LeftTurn:
 1317              	.LFB168:
 319:Src/motion.c  **** 
 320:Src/motion.c  **** void Motion_LeftTurn(void)
 321:Src/motion.c  **** {
 1318              		.loc 1 321 0
 1319              		.cfi_startproc
 1320              		@ args = 0, pretend = 0, frame = 0
 1321              		@ frame_needed = 0, uses_anonymous_args = 0
 1322 0000 08B5     		push	{r3, lr}
 1323              	.LCFI21:
 1324              		.cfi_def_cfa_offset 8
 1325              		.cfi_offset 3, -8
 1326              		.cfi_offset 14, -4
 322:Src/motion.c  ****     //offset in
 323:Src/motion.c  ****     if (sen_front.is_wall == TRUE)
 1327              		.loc 1 323 0
 1328 0002 524B     		ldr	r3, .L74
 1329 0004 1B7F     		ldrb	r3, [r3, #28]	@ zero_extendqisi2
 1330 0006 012B     		cmp	r3, #1
 1331 0008 74D0     		beq	.L73
 324:Src/motion.c  ****     {
 325:Src/motion.c  ****         /*while (sen_front.now < 122)
 326:Src/motion.c  ****             ;*/
 327:Src/motion.c  ****         Control_WallEdgeAble(0b10000);
 328:Src/motion.c  ****         Control_StrCalculator(90.0f - enc.offset, VELO_S, VELO_S, VELO_S, 1, 1);
 329:Src/motion.c  ****         Control_AngCalculator(0, 0, 0, 0, 1, 0);
 330:Src/motion.c  ****         motion_end_flag = FALSE;
ARM GAS  C:\Users\kotaro\AppData\Local\Temp\cc7z3AXq.s 			page 30


 331:Src/motion.c  ****         while (motion_end_flag == FALSE)
 332:Src/motion.c  ****         {
 333:Src/motion.c  ****         }
 334:Src/motion.c  ****     }
 335:Src/motion.c  ****     else
 336:Src/motion.c  ****     {
 337:Src/motion.c  ****         Control_StrCalculator(35.0f - enc.offset, VELO_S, VELO_S, VELO_S, 1, 1);
 1332              		.loc 1 337 0
 1333 000a 514B     		ldr	r3, .L74+4
 1334 000c D3ED027A 		vldr.32	s15, [r3, #8]
 1335 0010 DFED500A 		vldr.32	s1, .L74+8
 1336 0014 F7EE002A 		vmov.f32	s5, #1.0e+0
 1337 0018 B0EE622A 		vmov.f32	s4, s5
 1338 001c F0EE601A 		vmov.f32	s3, s1
 1339 0020 B0EE601A 		vmov.f32	s2, s1
 1340 0024 9FED4C0A 		vldr.32	s0, .L74+12
 1341 0028 30EE670A 		vsub.f32	s0, s0, s15
 1342 002c FFF7FEFF 		bl	Control_StrCalculator
 1343              	.LVL65:
 338:Src/motion.c  ****         Control_AngCalculator(0, 0, 0, 0, 1, 0);
 1344              		.loc 1 338 0
 1345 0030 9FED4A0A 		vldr.32	s0, .L74+16
 1346 0034 F0EE402A 		vmov.f32	s5, s0
 1347 0038 B7EE002A 		vmov.f32	s4, #1.0e+0
 1348 003c F0EE401A 		vmov.f32	s3, s0
 1349 0040 B0EE401A 		vmov.f32	s2, s0
 1350 0044 F0EE400A 		vmov.f32	s1, s0
 1351 0048 FFF7FEFF 		bl	Control_AngCalculator
 1352              	.LVL66:
 339:Src/motion.c  ****         motion_end_flag = FALSE;
 1353              		.loc 1 339 0
 1354 004c 444B     		ldr	r3, .L74+20
 1355 004e 0022     		movs	r2, #0
 1356 0050 1A70     		strb	r2, [r3]
 1357              	.L69:
 340:Src/motion.c  ****         while (motion_end_flag == FALSE)
 1358              		.loc 1 340 0 discriminator 1
 1359 0052 434B     		ldr	r3, .L74+20
 1360 0054 1B78     		ldrb	r3, [r3]	@ zero_extendqisi2
 1361 0056 002B     		cmp	r3, #0
 1362 0058 FBD0     		beq	.L69
 1363              	.L68:
 341:Src/motion.c  ****         {
 342:Src/motion.c  ****         }
 343:Src/motion.c  ****     }
 344:Src/motion.c  ****     //turn
 345:Src/motion.c  ****     Control_StrCalculator(300.0f, VELO_S, VELO_S, VELO_S, 1, 1);
 1364              		.loc 1 345 0
 1365 005a DFED3E0A 		vldr.32	s1, .L74+8
 1366 005e F7EE002A 		vmov.f32	s5, #1.0e+0
 1367 0062 B0EE622A 		vmov.f32	s4, s5
 1368 0066 F0EE601A 		vmov.f32	s3, s1
 1369 006a B0EE601A 		vmov.f32	s2, s1
 1370 006e 9FED3D0A 		vldr.32	s0, .L74+24
 1371 0072 FFF7FEFF 		bl	Control_StrCalculator
 1372              	.LVL67:
 346:Src/motion.c  ****     Control_AngCalculator(90.0f, 0, 800.0, 0, 20000.0, 1); //90.125f
ARM GAS  C:\Users\kotaro\AppData\Local\Temp\cc7z3AXq.s 			page 31


 1373              		.loc 1 346 0
 1374 0076 DFED390A 		vldr.32	s1, .L74+16
 1375 007a F7EE002A 		vmov.f32	s5, #1.0e+0
 1376 007e 9FED3A2A 		vldr.32	s4, .L74+28
 1377 0082 F0EE601A 		vmov.f32	s3, s1
 1378 0086 9FED391A 		vldr.32	s2, .L74+32
 1379 008a 9FED390A 		vldr.32	s0, .L74+36
 1380 008e FFF7FEFF 		bl	Control_AngCalculator
 1381              	.LVL68:
 347:Src/motion.c  ****     motion_end_flag = FALSE;
 1382              		.loc 1 347 0
 1383 0092 334B     		ldr	r3, .L74+20
 1384 0094 0022     		movs	r2, #0
 1385 0096 1A70     		strb	r2, [r3]
 1386              	.L70:
 348:Src/motion.c  ****     while (motion_end_flag == FALSE)
 1387              		.loc 1 348 0 discriminator 1
 1388 0098 314B     		ldr	r3, .L74+20
 1389 009a 1B78     		ldrb	r3, [r3]	@ zero_extendqisi2
 1390 009c 002B     		cmp	r3, #0
 1391 009e FBD0     		beq	.L70
 349:Src/motion.c  ****     {
 350:Src/motion.c  ****     }
 351:Src/motion.c  ****     //offset out
 352:Src/motion.c  ****     Control_StrCalculator(44.0f, VELO_S, VELO_S, VELO_S, 1, 1);
 1392              		.loc 1 352 0
 1393 00a0 DFED2C0A 		vldr.32	s1, .L74+8
 1394 00a4 F7EE002A 		vmov.f32	s5, #1.0e+0
 1395 00a8 B0EE622A 		vmov.f32	s4, s5
 1396 00ac F0EE601A 		vmov.f32	s3, s1
 1397 00b0 B0EE601A 		vmov.f32	s2, s1
 1398 00b4 9FED2F0A 		vldr.32	s0, .L74+40
 1399 00b8 FFF7FEFF 		bl	Control_StrCalculator
 1400              	.LVL69:
 353:Src/motion.c  ****     Control_AngCalculator(0, 0, 0, 0, 1, 0);
 1401              		.loc 1 353 0
 1402 00bc 9FED270A 		vldr.32	s0, .L74+16
 1403 00c0 F0EE402A 		vmov.f32	s5, s0
 1404 00c4 B7EE002A 		vmov.f32	s4, #1.0e+0
 1405 00c8 F0EE401A 		vmov.f32	s3, s0
 1406 00cc B0EE401A 		vmov.f32	s2, s0
 1407 00d0 F0EE400A 		vmov.f32	s1, s0
 1408 00d4 FFF7FEFF 		bl	Control_AngCalculator
 1409              	.LVL70:
 354:Src/motion.c  ****     motion_end_flag = FALSE;
 1410              		.loc 1 354 0
 1411 00d8 214B     		ldr	r3, .L74+20
 1412 00da 0022     		movs	r2, #0
 1413 00dc 1A70     		strb	r2, [r3]
 1414              	.L71:
 355:Src/motion.c  ****     while (motion_end_flag == FALSE)
 1415              		.loc 1 355 0 discriminator 1
 1416 00de 204B     		ldr	r3, .L74+20
 1417 00e0 1B78     		ldrb	r3, [r3]	@ zero_extendqisi2
 1418 00e2 002B     		cmp	r3, #0
 1419 00e4 FBD0     		beq	.L71
 356:Src/motion.c  ****     {
ARM GAS  C:\Users\kotaro\AppData\Local\Temp\cc7z3AXq.s 			page 32


 357:Src/motion.c  ****     }
 358:Src/motion.c  ****     enc.offset = 0.0f;
 1420              		.loc 1 358 0
 1421 00e6 1A4B     		ldr	r3, .L74+4
 1422 00e8 0022     		movs	r2, #0
 1423 00ea 9A60     		str	r2, [r3, #8]	@ float
 359:Src/motion.c  ****     prefront_flag = FALSE;
 1424              		.loc 1 359 0
 1425 00ec 224B     		ldr	r3, .L74+44
 1426 00ee 0022     		movs	r2, #0
 1427 00f0 1A80     		strh	r2, [r3]	@ movhi
 360:Src/motion.c  **** }
 1428              		.loc 1 360 0
 1429 00f2 08BD     		pop	{r3, pc}
 1430              	.L73:
 327:Src/motion.c  ****         Control_StrCalculator(90.0f - enc.offset, VELO_S, VELO_S, VELO_S, 1, 1);
 1431              		.loc 1 327 0
 1432 00f4 1020     		movs	r0, #16
 1433 00f6 FFF7FEFF 		bl	Control_WallEdgeAble
 1434              	.LVL71:
 328:Src/motion.c  ****         Control_AngCalculator(0, 0, 0, 0, 1, 0);
 1435              		.loc 1 328 0
 1436 00fa 154B     		ldr	r3, .L74+4
 1437 00fc D3ED027A 		vldr.32	s15, [r3, #8]
 1438 0100 DFED140A 		vldr.32	s1, .L74+8
 1439 0104 F7EE002A 		vmov.f32	s5, #1.0e+0
 1440 0108 B0EE622A 		vmov.f32	s4, s5
 1441 010c F0EE601A 		vmov.f32	s3, s1
 1442 0110 B0EE601A 		vmov.f32	s2, s1
 1443 0114 9FED160A 		vldr.32	s0, .L74+36
 1444 0118 30EE670A 		vsub.f32	s0, s0, s15
 1445 011c FFF7FEFF 		bl	Control_StrCalculator
 1446              	.LVL72:
 329:Src/motion.c  ****         motion_end_flag = FALSE;
 1447              		.loc 1 329 0
 1448 0120 9FED0E0A 		vldr.32	s0, .L74+16
 1449 0124 F0EE402A 		vmov.f32	s5, s0
 1450 0128 B7EE002A 		vmov.f32	s4, #1.0e+0
 1451 012c F0EE401A 		vmov.f32	s3, s0
 1452 0130 B0EE401A 		vmov.f32	s2, s0
 1453 0134 F0EE400A 		vmov.f32	s1, s0
 1454 0138 FFF7FEFF 		bl	Control_AngCalculator
 1455              	.LVL73:
 330:Src/motion.c  ****         while (motion_end_flag == FALSE)
 1456              		.loc 1 330 0
 1457 013c 084B     		ldr	r3, .L74+20
 1458 013e 0022     		movs	r2, #0
 1459 0140 1A70     		strb	r2, [r3]
 1460              	.L67:
 331:Src/motion.c  ****         {
 1461              		.loc 1 331 0 discriminator 1
 1462 0142 074B     		ldr	r3, .L74+20
 1463 0144 1B78     		ldrb	r3, [r3]	@ zero_extendqisi2
 1464 0146 002B     		cmp	r3, #0
 1465 0148 FBD0     		beq	.L67
 1466 014a 86E7     		b	.L68
 1467              	.L75:
ARM GAS  C:\Users\kotaro\AppData\Local\Temp\cc7z3AXq.s 			page 33


 1468              		.align	2
 1469              	.L74:
 1470 014c 00000000 		.word	sen_front
 1471 0150 00000000 		.word	enc
 1472 0154 00001644 		.word	1142292480
 1473 0158 00000C42 		.word	1108082688
 1474 015c 00000000 		.word	0
 1475 0160 00000000 		.word	motion_end_flag
 1476 0164 00009643 		.word	1133903872
 1477 0168 00409C46 		.word	1184645120
 1478 016c 00004844 		.word	1145569280
 1479 0170 0000B442 		.word	1119092736
 1480 0174 00003042 		.word	1110441984
 1481 0178 00000000 		.word	.LANCHOR1
 1482              		.cfi_endproc
 1483              	.LFE168:
 1485              		.section	.text.Motion_RightTurn,"ax",%progbits
 1486              		.align	1
 1487              		.global	Motion_RightTurn
 1488              		.syntax unified
 1489              		.thumb
 1490              		.thumb_func
 1491              		.fpu fpv4-sp-d16
 1493              	Motion_RightTurn:
 1494              	.LFB169:
 361:Src/motion.c  **** 
 362:Src/motion.c  **** void Motion_RightTurn(void)
 363:Src/motion.c  **** {
 1495              		.loc 1 363 0
 1496              		.cfi_startproc
 1497              		@ args = 0, pretend = 0, frame = 0
 1498              		@ frame_needed = 0, uses_anonymous_args = 0
 1499 0000 08B5     		push	{r3, lr}
 1500              	.LCFI22:
 1501              		.cfi_def_cfa_offset 8
 1502              		.cfi_offset 3, -8
 1503              		.cfi_offset 14, -4
 364:Src/motion.c  ****     //offset in
 365:Src/motion.c  ****     if (sen_front.is_wall == TRUE)
 1504              		.loc 1 365 0
 1505 0002 524B     		ldr	r3, .L85
 1506 0004 1B7F     		ldrb	r3, [r3, #28]	@ zero_extendqisi2
 1507 0006 012B     		cmp	r3, #1
 1508 0008 74D0     		beq	.L84
 366:Src/motion.c  ****     {
 367:Src/motion.c  ****         /*
 368:Src/motion.c  ****         while (sen_front.now < 122)
 369:Src/motion.c  ****             ;*/
 370:Src/motion.c  ****         Control_WallEdgeAble(0b10000);
 371:Src/motion.c  ****         Control_StrCalculator(90.0f - enc.offset, VELO_S, VELO_S, VELO_S, 1, 1);
 372:Src/motion.c  ****         Control_AngCalculator(0, 0, 0, 0, 1, 0);
 373:Src/motion.c  ****         motion_end_flag = FALSE;
 374:Src/motion.c  ****         while (motion_end_flag == FALSE)
 375:Src/motion.c  ****         {
 376:Src/motion.c  ****         }
 377:Src/motion.c  ****     }
 378:Src/motion.c  ****     else
ARM GAS  C:\Users\kotaro\AppData\Local\Temp\cc7z3AXq.s 			page 34


 379:Src/motion.c  ****     {
 380:Src/motion.c  ****         Control_StrCalculator(34.0f - enc.offset, VELO_S, VELO_S, VELO_S, 1, 1);
 1509              		.loc 1 380 0
 1510 000a 514B     		ldr	r3, .L85+4
 1511 000c D3ED027A 		vldr.32	s15, [r3, #8]
 1512 0010 DFED500A 		vldr.32	s1, .L85+8
 1513 0014 F7EE002A 		vmov.f32	s5, #1.0e+0
 1514 0018 B0EE622A 		vmov.f32	s4, s5
 1515 001c F0EE601A 		vmov.f32	s3, s1
 1516 0020 B0EE601A 		vmov.f32	s2, s1
 1517 0024 9FED4C0A 		vldr.32	s0, .L85+12
 1518 0028 30EE670A 		vsub.f32	s0, s0, s15
 1519 002c FFF7FEFF 		bl	Control_StrCalculator
 1520              	.LVL74:
 381:Src/motion.c  ****         Control_AngCalculator(0, 0, 0, 0, 1, 0);
 1521              		.loc 1 381 0
 1522 0030 9FED4A0A 		vldr.32	s0, .L85+16
 1523 0034 F0EE402A 		vmov.f32	s5, s0
 1524 0038 B7EE002A 		vmov.f32	s4, #1.0e+0
 1525 003c F0EE401A 		vmov.f32	s3, s0
 1526 0040 B0EE401A 		vmov.f32	s2, s0
 1527 0044 F0EE400A 		vmov.f32	s1, s0
 1528 0048 FFF7FEFF 		bl	Control_AngCalculator
 1529              	.LVL75:
 382:Src/motion.c  ****         motion_end_flag = FALSE;
 1530              		.loc 1 382 0
 1531 004c 444B     		ldr	r3, .L85+20
 1532 004e 0022     		movs	r2, #0
 1533 0050 1A70     		strb	r2, [r3]
 1534              	.L80:
 383:Src/motion.c  ****         while (motion_end_flag == FALSE)
 1535              		.loc 1 383 0 discriminator 1
 1536 0052 434B     		ldr	r3, .L85+20
 1537 0054 1B78     		ldrb	r3, [r3]	@ zero_extendqisi2
 1538 0056 002B     		cmp	r3, #0
 1539 0058 FBD0     		beq	.L80
 1540              	.L79:
 384:Src/motion.c  ****         {
 385:Src/motion.c  ****         }
 386:Src/motion.c  ****     }
 387:Src/motion.c  ****     //turn
 388:Src/motion.c  ****     Control_StrCalculator(300.0f, VELO_S, VELO_S, VELO_S, 1, 1);
 1541              		.loc 1 388 0
 1542 005a DFED3E0A 		vldr.32	s1, .L85+8
 1543 005e F7EE002A 		vmov.f32	s5, #1.0e+0
 1544 0062 B0EE622A 		vmov.f32	s4, s5
 1545 0066 F0EE601A 		vmov.f32	s3, s1
 1546 006a B0EE601A 		vmov.f32	s2, s1
 1547 006e 9FED3D0A 		vldr.32	s0, .L85+24
 1548 0072 FFF7FEFF 		bl	Control_StrCalculator
 1549              	.LVL76:
 389:Src/motion.c  ****     Control_AngCalculator(90.0f, 0, 800.0, 0, 20000.0, -1); //90.125f
 1550              		.loc 1 389 0
 1551 0076 DFED390A 		vldr.32	s1, .L85+16
 1552 007a FFEE002A 		vmov.f32	s5, #-1.0e+0
 1553 007e 9FED3A2A 		vldr.32	s4, .L85+28
 1554 0082 F0EE601A 		vmov.f32	s3, s1
ARM GAS  C:\Users\kotaro\AppData\Local\Temp\cc7z3AXq.s 			page 35


 1555 0086 9FED391A 		vldr.32	s2, .L85+32
 1556 008a 9FED390A 		vldr.32	s0, .L85+36
 1557 008e FFF7FEFF 		bl	Control_AngCalculator
 1558              	.LVL77:
 390:Src/motion.c  ****     motion_end_flag = FALSE;
 1559              		.loc 1 390 0
 1560 0092 334B     		ldr	r3, .L85+20
 1561 0094 0022     		movs	r2, #0
 1562 0096 1A70     		strb	r2, [r3]
 1563              	.L81:
 391:Src/motion.c  ****     while (motion_end_flag == FALSE)
 1564              		.loc 1 391 0 discriminator 1
 1565 0098 314B     		ldr	r3, .L85+20
 1566 009a 1B78     		ldrb	r3, [r3]	@ zero_extendqisi2
 1567 009c 002B     		cmp	r3, #0
 1568 009e FBD0     		beq	.L81
 392:Src/motion.c  ****     {
 393:Src/motion.c  ****     }
 394:Src/motion.c  ****     //offset out
 395:Src/motion.c  ****     Control_StrCalculator(46.0f, VELO_S, VELO_S, VELO_S, 1, 1);
 1569              		.loc 1 395 0
 1570 00a0 DFED2C0A 		vldr.32	s1, .L85+8
 1571 00a4 F7EE002A 		vmov.f32	s5, #1.0e+0
 1572 00a8 B0EE622A 		vmov.f32	s4, s5
 1573 00ac F0EE601A 		vmov.f32	s3, s1
 1574 00b0 B0EE601A 		vmov.f32	s2, s1
 1575 00b4 9FED2F0A 		vldr.32	s0, .L85+40
 1576 00b8 FFF7FEFF 		bl	Control_StrCalculator
 1577              	.LVL78:
 396:Src/motion.c  ****     Control_AngCalculator(0, 0, 0, 0, 1, 0);
 1578              		.loc 1 396 0
 1579 00bc 9FED270A 		vldr.32	s0, .L85+16
 1580 00c0 F0EE402A 		vmov.f32	s5, s0
 1581 00c4 B7EE002A 		vmov.f32	s4, #1.0e+0
 1582 00c8 F0EE401A 		vmov.f32	s3, s0
 1583 00cc B0EE401A 		vmov.f32	s2, s0
 1584 00d0 F0EE400A 		vmov.f32	s1, s0
 1585 00d4 FFF7FEFF 		bl	Control_AngCalculator
 1586              	.LVL79:
 397:Src/motion.c  ****     motion_end_flag = FALSE;
 1587              		.loc 1 397 0
 1588 00d8 214B     		ldr	r3, .L85+20
 1589 00da 0022     		movs	r2, #0
 1590 00dc 1A70     		strb	r2, [r3]
 1591              	.L82:
 398:Src/motion.c  ****     while (motion_end_flag == FALSE)
 1592              		.loc 1 398 0 discriminator 1
 1593 00de 204B     		ldr	r3, .L85+20
 1594 00e0 1B78     		ldrb	r3, [r3]	@ zero_extendqisi2
 1595 00e2 002B     		cmp	r3, #0
 1596 00e4 FBD0     		beq	.L82
 399:Src/motion.c  ****     {
 400:Src/motion.c  ****     }
 401:Src/motion.c  ****     enc.offset = 0.0f;
 1597              		.loc 1 401 0
 1598 00e6 1A4B     		ldr	r3, .L85+4
 1599 00e8 0022     		movs	r2, #0
ARM GAS  C:\Users\kotaro\AppData\Local\Temp\cc7z3AXq.s 			page 36


 1600 00ea 9A60     		str	r2, [r3, #8]	@ float
 402:Src/motion.c  ****     prefront_flag = FALSE;
 1601              		.loc 1 402 0
 1602 00ec 224B     		ldr	r3, .L85+44
 1603 00ee 0022     		movs	r2, #0
 1604 00f0 1A80     		strh	r2, [r3]	@ movhi
 403:Src/motion.c  **** }
 1605              		.loc 1 403 0
 1606 00f2 08BD     		pop	{r3, pc}
 1607              	.L84:
 370:Src/motion.c  ****         Control_StrCalculator(90.0f - enc.offset, VELO_S, VELO_S, VELO_S, 1, 1);
 1608              		.loc 1 370 0
 1609 00f4 1020     		movs	r0, #16
 1610 00f6 FFF7FEFF 		bl	Control_WallEdgeAble
 1611              	.LVL80:
 371:Src/motion.c  ****         Control_AngCalculator(0, 0, 0, 0, 1, 0);
 1612              		.loc 1 371 0
 1613 00fa 154B     		ldr	r3, .L85+4
 1614 00fc D3ED027A 		vldr.32	s15, [r3, #8]
 1615 0100 DFED140A 		vldr.32	s1, .L85+8
 1616 0104 F7EE002A 		vmov.f32	s5, #1.0e+0
 1617 0108 B0EE622A 		vmov.f32	s4, s5
 1618 010c F0EE601A 		vmov.f32	s3, s1
 1619 0110 B0EE601A 		vmov.f32	s2, s1
 1620 0114 9FED160A 		vldr.32	s0, .L85+36
 1621 0118 30EE670A 		vsub.f32	s0, s0, s15
 1622 011c FFF7FEFF 		bl	Control_StrCalculator
 1623              	.LVL81:
 372:Src/motion.c  ****         motion_end_flag = FALSE;
 1624              		.loc 1 372 0
 1625 0120 9FED0E0A 		vldr.32	s0, .L85+16
 1626 0124 F0EE402A 		vmov.f32	s5, s0
 1627 0128 B7EE002A 		vmov.f32	s4, #1.0e+0
 1628 012c F0EE401A 		vmov.f32	s3, s0
 1629 0130 B0EE401A 		vmov.f32	s2, s0
 1630 0134 F0EE400A 		vmov.f32	s1, s0
 1631 0138 FFF7FEFF 		bl	Control_AngCalculator
 1632              	.LVL82:
 373:Src/motion.c  ****         while (motion_end_flag == FALSE)
 1633              		.loc 1 373 0
 1634 013c 084B     		ldr	r3, .L85+20
 1635 013e 0022     		movs	r2, #0
 1636 0140 1A70     		strb	r2, [r3]
 1637              	.L78:
 374:Src/motion.c  ****         {
 1638              		.loc 1 374 0 discriminator 1
 1639 0142 074B     		ldr	r3, .L85+20
 1640 0144 1B78     		ldrb	r3, [r3]	@ zero_extendqisi2
 1641 0146 002B     		cmp	r3, #0
 1642 0148 FBD0     		beq	.L78
 1643 014a 86E7     		b	.L79
 1644              	.L86:
 1645              		.align	2
 1646              	.L85:
 1647 014c 00000000 		.word	sen_front
 1648 0150 00000000 		.word	enc
 1649 0154 00001644 		.word	1142292480
ARM GAS  C:\Users\kotaro\AppData\Local\Temp\cc7z3AXq.s 			page 37


 1650 0158 00000842 		.word	1107820544
 1651 015c 00000000 		.word	0
 1652 0160 00000000 		.word	motion_end_flag
 1653 0164 00009643 		.word	1133903872
 1654 0168 00409C46 		.word	1184645120
 1655 016c 00004844 		.word	1145569280
 1656 0170 0000B442 		.word	1119092736
 1657 0174 00003842 		.word	1110966272
 1658 0178 00000000 		.word	.LANCHOR1
 1659              		.cfi_endproc
 1660              	.LFE169:
 1662              		.section	.text.Motion_Switch,"ax",%progbits
 1663              		.align	1
 1664              		.global	Motion_Switch
 1665              		.syntax unified
 1666              		.thumb
 1667              		.thumb_func
 1668              		.fpu fpv4-sp-d16
 1670              	Motion_Switch:
 1671              	.LFB170:
 404:Src/motion.c  **** 
 405:Src/motion.c  **** void Motion_Switch(uint8_t motion)
 406:Src/motion.c  **** {
 1672              		.loc 1 406 0
 1673              		.cfi_startproc
 1674              		@ args = 0, pretend = 0, frame = 0
 1675              		@ frame_needed = 0, uses_anonymous_args = 0
 1676              	.LVL83:
 1677 0000 08B5     		push	{r3, lr}
 1678              	.LCFI23:
 1679              		.cfi_def_cfa_offset 8
 1680              		.cfi_offset 3, -8
 1681              		.cfi_offset 14, -4
 407:Src/motion.c  ****     switch (motion & 0xf)
 1682              		.loc 1 407 0
 1683 0002 00F00F03 		and	r3, r0, #15
 1684 0006 042B     		cmp	r3, #4
 1685 0008 14D8     		bhi	.L88
 1686 000a DFE803F0 		tbb	[pc, r3]
 1687              	.L90:
 1688 000e 03       		.byte	(.L89-.L90)/2
 1689 000f 0A       		.byte	(.L91-.L90)/2
 1690 0010 07       		.byte	(.L92-.L90)/2
 1691 0011 0D       		.byte	(.L93-.L90)/2
 1692 0012 10       		.byte	(.L94-.L90)/2
 1693 0013 00       		.p2align 1
 1694              	.L89:
 408:Src/motion.c  ****     {
 409:Src/motion.c  ****     case FRONT:
 410:Src/motion.c  ****         Motion_Straight(motion >> 4);
 1695              		.loc 1 410 0
 1696 0014 0009     		lsrs	r0, r0, #4
 1697              	.LVL84:
 1698 0016 FFF7FEFF 		bl	Motion_Straight
 1699              	.LVL85:
 1700              	.L87:
 411:Src/motion.c  ****         break;
ARM GAS  C:\Users\kotaro\AppData\Local\Temp\cc7z3AXq.s 			page 38


 412:Src/motion.c  ****     case RIGHT:
 413:Src/motion.c  ****         Motion_RightTurn();
 414:Src/motion.c  ****         break;
 415:Src/motion.c  ****     case LEFT:
 416:Src/motion.c  ****         Motion_LeftTurn();
 417:Src/motion.c  ****         break;
 418:Src/motion.c  ****     case REAR:
 419:Src/motion.c  ****         Motion_SpinTurn();
 420:Src/motion.c  ****         break;
 421:Src/motion.c  ****     case PIVO_REAR:
 422:Src/motion.c  ****         Motion_WallSpinTurn();
 423:Src/motion.c  ****         break;
 424:Src/motion.c  ****     default:
 425:Src/motion.c  ****         motor_flag = FALSE;
 426:Src/motion.c  ****         break;
 427:Src/motion.c  ****     }
 428:Src/motion.c  **** }
 1701              		.loc 1 428 0
 1702 001a 08BD     		pop	{r3, pc}
 1703              	.LVL86:
 1704              	.L92:
 413:Src/motion.c  ****         break;
 1705              		.loc 1 413 0
 1706 001c FFF7FEFF 		bl	Motion_RightTurn
 1707              	.LVL87:
 414:Src/motion.c  ****     case LEFT:
 1708              		.loc 1 414 0
 1709 0020 FBE7     		b	.L87
 1710              	.LVL88:
 1711              	.L91:
 416:Src/motion.c  ****         break;
 1712              		.loc 1 416 0
 1713 0022 FFF7FEFF 		bl	Motion_LeftTurn
 1714              	.LVL89:
 417:Src/motion.c  ****     case REAR:
 1715              		.loc 1 417 0
 1716 0026 F8E7     		b	.L87
 1717              	.LVL90:
 1718              	.L93:
 419:Src/motion.c  ****         break;
 1719              		.loc 1 419 0
 1720 0028 FFF7FEFF 		bl	Motion_SpinTurn
 1721              	.LVL91:
 420:Src/motion.c  ****     case PIVO_REAR:
 1722              		.loc 1 420 0
 1723 002c F5E7     		b	.L87
 1724              	.LVL92:
 1725              	.L94:
 422:Src/motion.c  ****         break;
 1726              		.loc 1 422 0
 1727 002e FFF7FEFF 		bl	Motion_WallSpinTurn
 1728              	.LVL93:
 423:Src/motion.c  ****     default:
 1729              		.loc 1 423 0
 1730 0032 F2E7     		b	.L87
 1731              	.LVL94:
 1732              	.L88:
ARM GAS  C:\Users\kotaro\AppData\Local\Temp\cc7z3AXq.s 			page 39


 425:Src/motion.c  ****         break;
 1733              		.loc 1 425 0
 1734 0034 014B     		ldr	r3, .L97
 1735 0036 0022     		movs	r2, #0
 1736 0038 1A70     		strb	r2, [r3]
 1737              		.loc 1 428 0
 1738 003a EEE7     		b	.L87
 1739              	.L98:
 1740              		.align	2
 1741              	.L97:
 1742 003c 00000000 		.word	motor_flag
 1743              		.cfi_endproc
 1744              	.LFE170:
 1746              		.section	.text.Motion_FastStart,"ax",%progbits
 1747              		.align	1
 1748              		.global	Motion_FastStart
 1749              		.syntax unified
 1750              		.thumb
 1751              		.thumb_func
 1752              		.fpu fpv4-sp-d16
 1754              	Motion_FastStart:
 1755              	.LFB171:
 429:Src/motion.c  **** 
 430:Src/motion.c  **** void Motion_FastStart(uint8_t step, float velo_end)
 431:Src/motion.c  **** {
 1756              		.loc 1 431 0
 1757              		.cfi_startproc
 1758              		@ args = 0, pretend = 0, frame = 0
 1759              		@ frame_needed = 0, uses_anonymous_args = 0
 1760              	.LVL95:
 1761 0000 10B5     		push	{r4, lr}
 1762              	.LCFI24:
 1763              		.cfi_def_cfa_offset 8
 1764              		.cfi_offset 4, -8
 1765              		.cfi_offset 14, -4
 1766 0002 2DED028B 		vpush.64	{d8}
 1767              	.LCFI25:
 1768              		.cfi_def_cfa_offset 16
 1769              		.cfi_offset 80, -16
 1770              		.cfi_offset 81, -12
 1771 0006 0446     		mov	r4, r0
 1772 0008 F0EE408A 		vmov.f32	s17, s0
 432:Src/motion.c  ****     diagonal_step = 90.0f * (float)sqrt(2);
 1773              		.loc 1 432 0
 1774 000c 294B     		ldr	r3, .L106
 1775 000e 2A4A     		ldr	r2, .L106+4
 1776 0010 1A60     		str	r2, [r3]	@ float
 433:Src/motion.c  ****     Control_ResetVelo();
 1777              		.loc 1 433 0
 1778 0012 FFF7FEFF 		bl	Control_ResetVelo
 1779              	.LVL96:
 434:Src/motion.c  ****     float velo = VELO_F;
 435:Src/motion.c  ****     if (step > 1)
 1780              		.loc 1 435 0
 1781 0016 012C     		cmp	r4, #1
 1782 0018 49D9     		bls	.L103
 436:Src/motion.c  ****     {
ARM GAS  C:\Users\kotaro\AppData\Local\Temp\cc7z3AXq.s 			page 40


 437:Src/motion.c  ****         velo = VELO_F + gain_velo * (float)(step - 1);
 1783              		.loc 1 437 0
 1784 001a 631E     		subs	r3, r4, #1
 1785 001c 01EE103A 		vmov	s2, r3	@ int
 1786 0020 B8EEC11A 		vcvt.f32.s32	s2, s2
 1787 0024 254B     		ldr	r3, .L106+8
 1788 0026 D3ED007A 		vldr.32	s15, [r3]
 1789 002a 21EE271A 		vmul.f32	s2, s2, s15
 1790 002e DFED247A 		vldr.32	s15, .L106+12
 1791 0032 31EE271A 		vadd.f32	s2, s2, s15
 1792              	.LVL97:
 1793              	.L100:
 438:Src/motion.c  ****     }
 439:Src/motion.c  ****     if (velo > 2400)
 1794              		.loc 1 439 0
 1795 0036 DFED237A 		vldr.32	s15, .L106+16
 1796 003a B4EEE71A 		vcmpe.f32	s2, s15
 1797 003e F1EE10FA 		vmrs	APSR_nzcv, FPSCR
 1798 0042 01DD     		ble	.L101
 440:Src/motion.c  ****     {
 441:Src/motion.c  ****         velo = 2400;
 1799              		.loc 1 441 0
 1800 0044 B0EE671A 		vmov.f32	s2, s15
 1801              	.LVL98:
 1802              	.L101:
 442:Src/motion.c  ****     }
 443:Src/motion.c  ****     Control_StrCalculator(40.0f + 90.0f * (float)step, 0.0f, velo, velo_end, ACCEL_F, 1);
 1803              		.loc 1 443 0
 1804 0048 07EE904A 		vmov	s15, r4	@ int
 1805 004c F8EE677A 		vcvt.f32.u32	s15, s15
 1806 0050 9FED1D0A 		vldr.32	s0, .L106+20
 1807 0054 67EE807A 		vmul.f32	s15, s15, s0
 1808 0058 9FED1C8A 		vldr.32	s16, .L106+24
 1809 005c F7EE002A 		vmov.f32	s5, #1.0e+0
 1810 0060 9FED1B2A 		vldr.32	s4, .L106+28
 1811 0064 F0EE681A 		vmov.f32	s3, s17
 1812 0068 F0EE480A 		vmov.f32	s1, s16
 1813 006c 9FED190A 		vldr.32	s0, .L106+32
 1814 0070 37EE800A 		vadd.f32	s0, s15, s0
 1815 0074 FFF7FEFF 		bl	Control_StrCalculator
 1816              	.LVL99:
 444:Src/motion.c  ****     Control_AngCalculator(0, 0, 0, 0, 1, 0);
 1817              		.loc 1 444 0
 1818 0078 F0EE482A 		vmov.f32	s5, s16
 1819 007c B7EE002A 		vmov.f32	s4, #1.0e+0
 1820 0080 F0EE481A 		vmov.f32	s3, s16
 1821 0084 B0EE481A 		vmov.f32	s2, s16
 1822 0088 F0EE480A 		vmov.f32	s1, s16
 1823 008c B0EE480A 		vmov.f32	s0, s16
 1824 0090 FFF7FEFF 		bl	Control_AngCalculator
 1825              	.LVL100:
 445:Src/motion.c  ****     motion_end_flag = FALSE;
 1826              		.loc 1 445 0
 1827 0094 104B     		ldr	r3, .L106+36
 1828 0096 0022     		movs	r2, #0
 1829 0098 1A70     		strb	r2, [r3]
 1830              	.L102:
ARM GAS  C:\Users\kotaro\AppData\Local\Temp\cc7z3AXq.s 			page 41


 446:Src/motion.c  ****     while (motion_end_flag == FALSE)
 1831              		.loc 1 446 0 discriminator 1
 1832 009a 0F4B     		ldr	r3, .L106+36
 1833 009c 1B78     		ldrb	r3, [r3]	@ zero_extendqisi2
 1834 009e 002B     		cmp	r3, #0
 1835 00a0 FBD0     		beq	.L102
 447:Src/motion.c  ****     {
 448:Src/motion.c  ****     }
 449:Src/motion.c  ****     enc.offset = 0.0f;
 1836              		.loc 1 449 0
 1837 00a2 0E4B     		ldr	r3, .L106+40
 1838 00a4 0022     		movs	r2, #0
 1839 00a6 9A60     		str	r2, [r3, #8]	@ float
 450:Src/motion.c  **** }
 1840              		.loc 1 450 0
 1841 00a8 BDEC028B 		vldm	sp!, {d8}
 1842              	.LCFI26:
 1843              		.cfi_remember_state
 1844              		.cfi_restore 80
 1845              		.cfi_restore 81
 1846              		.cfi_def_cfa_offset 8
 1847 00ac 10BD     		pop	{r4, pc}
 1848              	.LVL101:
 1849              	.L103:
 1850              	.LCFI27:
 1851              		.cfi_restore_state
 434:Src/motion.c  ****     if (step > 1)
 1852              		.loc 1 434 0
 1853 00ae 9FED041A 		vldr.32	s2, .L106+12
 1854 00b2 C0E7     		b	.L100
 1855              	.L107:
 1856              		.align	2
 1857              	.L106:
 1858 00b4 00000000 		.word	.LANCHOR2
 1859 00b8 F68EFE42 		.word	1123978998
 1860 00bc 00000000 		.word	.LANCHOR0
 1861 00c0 00004844 		.word	1145569280
 1862 00c4 00001645 		.word	1159069696
 1863 00c8 0000B442 		.word	1119092736
 1864 00cc 00000000 		.word	0
 1865 00d0 0000FA45 		.word	1174011904
 1866 00d4 00002042 		.word	1109393408
 1867 00d8 00000000 		.word	motion_end_flag
 1868 00dc 00000000 		.word	enc
 1869              		.cfi_endproc
 1870              	.LFE171:
 1872              		.section	.text.Motion_FastStraight,"ax",%progbits
 1873              		.align	1
 1874              		.global	Motion_FastStraight
 1875              		.syntax unified
 1876              		.thumb
 1877              		.thumb_func
 1878              		.fpu fpv4-sp-d16
 1880              	Motion_FastStraight:
 1881              	.LFB172:
 451:Src/motion.c  **** 
 452:Src/motion.c  **** void Motion_FastStraight(uint8_t step, float v_start, float v_end)
ARM GAS  C:\Users\kotaro\AppData\Local\Temp\cc7z3AXq.s 			page 42


 453:Src/motion.c  **** {
 1882              		.loc 1 453 0
 1883              		.cfi_startproc
 1884              		@ args = 0, pretend = 0, frame = 0
 1885              		@ frame_needed = 0, uses_anonymous_args = 0
 1886              	.LVL102:
 1887 0000 08B5     		push	{r3, lr}
 1888              	.LCFI28:
 1889              		.cfi_def_cfa_offset 8
 1890              		.cfi_offset 3, -8
 1891              		.cfi_offset 14, -4
 1892 0002 F0EE601A 		vmov.f32	s3, s1
 454:Src/motion.c  ****     float velo = VELO_F + gain_velo * (float)step;
 1893              		.loc 1 454 0
 1894 0006 07EE900A 		vmov	s15, r0	@ int
 1895 000a F8EE677A 		vcvt.f32.u32	s15, s15
 1896 000e 1E4B     		ldr	r3, .L113
 1897 0010 93ED001A 		vldr.32	s2, [r3]
 1898 0014 27EE811A 		vmul.f32	s2, s15, s2
 1899 0018 9FED1C7A 		vldr.32	s14, .L113+4
 1900 001c 31EE071A 		vadd.f32	s2, s2, s14
 1901              	.LVL103:
 455:Src/motion.c  ****     if (velo > 2400)
 1902              		.loc 1 455 0
 1903 0020 9FED1B7A 		vldr.32	s14, .L113+8
 1904 0024 B4EEC71A 		vcmpe.f32	s2, s14
 1905 0028 F1EE10FA 		vmrs	APSR_nzcv, FPSCR
 1906 002c 01DD     		ble	.L109
 456:Src/motion.c  ****     {
 457:Src/motion.c  ****         velo = 2400;
 1907              		.loc 1 457 0
 1908 002e B0EE471A 		vmov.f32	s2, s14
 1909              	.LVL104:
 1910              	.L109:
 458:Src/motion.c  ****     }
 459:Src/motion.c  ****     Control_StrCalculator(90.0f * (float)step - enc.offset, v_start, velo, v_end, ACCEL_F, 1);
 1911              		.loc 1 459 0
 1912 0032 9FED187A 		vldr.32	s14, .L113+12
 1913 0036 67EE877A 		vmul.f32	s15, s15, s14
 1914 003a 174B     		ldr	r3, .L113+16
 1915 003c 93ED027A 		vldr.32	s14, [r3, #8]
 1916 0040 F7EE002A 		vmov.f32	s5, #1.0e+0
 1917 0044 9FED152A 		vldr.32	s4, .L113+20
 1918 0048 F0EE400A 		vmov.f32	s1, s0
 1919              	.LVL105:
 1920 004c 37EEC70A 		vsub.f32	s0, s15, s14
 1921              	.LVL106:
 1922 0050 FFF7FEFF 		bl	Control_StrCalculator
 1923              	.LVL107:
 460:Src/motion.c  ****     Control_AngCalculator(0, 0, 0, 0, 1, 0);
 1924              		.loc 1 460 0
 1925 0054 9FED120A 		vldr.32	s0, .L113+24
 1926 0058 F0EE402A 		vmov.f32	s5, s0
 1927 005c B7EE002A 		vmov.f32	s4, #1.0e+0
 1928 0060 F0EE401A 		vmov.f32	s3, s0
 1929 0064 B0EE401A 		vmov.f32	s2, s0
 1930 0068 F0EE400A 		vmov.f32	s1, s0
ARM GAS  C:\Users\kotaro\AppData\Local\Temp\cc7z3AXq.s 			page 43


 1931 006c FFF7FEFF 		bl	Control_AngCalculator
 1932              	.LVL108:
 461:Src/motion.c  ****     motion_end_flag = FALSE;
 1933              		.loc 1 461 0
 1934 0070 0C4B     		ldr	r3, .L113+28
 1935 0072 0022     		movs	r2, #0
 1936 0074 1A70     		strb	r2, [r3]
 1937              	.L110:
 462:Src/motion.c  ****     while (motion_end_flag == FALSE)
 1938              		.loc 1 462 0 discriminator 1
 1939 0076 0B4B     		ldr	r3, .L113+28
 1940 0078 1B78     		ldrb	r3, [r3]	@ zero_extendqisi2
 1941 007a 002B     		cmp	r3, #0
 1942 007c FBD0     		beq	.L110
 463:Src/motion.c  ****     {
 464:Src/motion.c  ****     }
 465:Src/motion.c  ****     enc.offset = 0.0f;
 1943              		.loc 1 465 0
 1944 007e 064B     		ldr	r3, .L113+16
 1945 0080 0022     		movs	r2, #0
 1946 0082 9A60     		str	r2, [r3, #8]	@ float
 466:Src/motion.c  **** }
 1947              		.loc 1 466 0
 1948 0084 08BD     		pop	{r3, pc}
 1949              	.L114:
 1950 0086 00BF     		.align	2
 1951              	.L113:
 1952 0088 00000000 		.word	.LANCHOR0
 1953 008c 00004844 		.word	1145569280
 1954 0090 00001645 		.word	1159069696
 1955 0094 0000B442 		.word	1119092736
 1956 0098 00000000 		.word	enc
 1957 009c 0000FA45 		.word	1174011904
 1958 00a0 00000000 		.word	0
 1959 00a4 00000000 		.word	motion_end_flag
 1960              		.cfi_endproc
 1961              	.LFE172:
 1963              		.section	.text.Motion_Adjust,"ax",%progbits
 1964              		.align	1
 1965              		.global	Motion_Adjust
 1966              		.syntax unified
 1967              		.thumb
 1968              		.thumb_func
 1969              		.fpu fpv4-sp-d16
 1971              	Motion_Adjust:
 1972              	.LFB173:
 467:Src/motion.c  **** 
 468:Src/motion.c  **** void Motion_Adjust(uint16_t step, float velo_s)
 469:Src/motion.c  **** {
 1973              		.loc 1 469 0
 1974              		.cfi_startproc
 1975              		@ args = 0, pretend = 0, frame = 0
 1976              		@ frame_needed = 0, uses_anonymous_args = 0
 1977              	.LVL109:
 1978 0000 08B5     		push	{r3, lr}
 1979              	.LCFI29:
 1980              		.cfi_def_cfa_offset 8
ARM GAS  C:\Users\kotaro\AppData\Local\Temp\cc7z3AXq.s 			page 44


 1981              		.cfi_offset 3, -8
 1982              		.cfi_offset 14, -4
 470:Src/motion.c  ****     if (step == 1)
 1983              		.loc 1 470 0
 1984 0002 0128     		cmp	r0, #1
 1985 0004 2BD0     		beq	.L120
 471:Src/motion.c  ****     {
 472:Src/motion.c  ****         Control_StrCalculator(110.0f - enc.offset, velo_s, VELO_F, VELO_F, ACCEL_F, 1); //110
 473:Src/motion.c  ****         Control_AngCalculator(0, 0, 0, 0, 1, 0);
 474:Src/motion.c  ****     }
 475:Src/motion.c  ****     else
 476:Src/motion.c  ****     {
 477:Src/motion.c  ****         Control_StrCalculator(180.0f - enc.offset, VELO_S, VELO_S, VELO_S, 1, 1);
 1986              		.loc 1 477 0
 1987 0006 274B     		ldr	r3, .L121
 1988 0008 D3ED027A 		vldr.32	s15, [r3, #8]
 1989 000c DFED260A 		vldr.32	s1, .L121+4
 1990 0010 F7EE002A 		vmov.f32	s5, #1.0e+0
 1991 0014 B0EE622A 		vmov.f32	s4, s5
 1992 0018 F0EE601A 		vmov.f32	s3, s1
 1993 001c B0EE601A 		vmov.f32	s2, s1
 1994 0020 9FED220A 		vldr.32	s0, .L121+8
 1995              	.LVL110:
 1996 0024 30EE670A 		vsub.f32	s0, s0, s15
 1997 0028 FFF7FEFF 		bl	Control_StrCalculator
 1998              	.LVL111:
 478:Src/motion.c  ****         Control_AngCalculator(0, 0, 0, 0, 1, 0);
 1999              		.loc 1 478 0
 2000 002c 9FED200A 		vldr.32	s0, .L121+12
 2001 0030 F0EE402A 		vmov.f32	s5, s0
 2002 0034 B7EE002A 		vmov.f32	s4, #1.0e+0
 2003 0038 F0EE401A 		vmov.f32	s3, s0
 2004 003c B0EE401A 		vmov.f32	s2, s0
 2005 0040 F0EE400A 		vmov.f32	s1, s0
 2006 0044 FFF7FEFF 		bl	Control_AngCalculator
 2007              	.LVL112:
 2008              	.L117:
 479:Src/motion.c  ****     }
 480:Src/motion.c  ****     motion_end_flag = FALSE;
 2009              		.loc 1 480 0
 2010 0048 1A4B     		ldr	r3, .L121+16
 2011 004a 0022     		movs	r2, #0
 2012 004c 1A70     		strb	r2, [r3]
 2013              	.L118:
 481:Src/motion.c  ****     while (motion_end_flag == FALSE)
 2014              		.loc 1 481 0 discriminator 1
 2015 004e 194B     		ldr	r3, .L121+16
 2016 0050 1B78     		ldrb	r3, [r3]	@ zero_extendqisi2
 2017 0052 002B     		cmp	r3, #0
 2018 0054 FBD0     		beq	.L118
 482:Src/motion.c  ****     {
 483:Src/motion.c  ****     }
 484:Src/motion.c  ****     enc.offset = 0.0f;
 2019              		.loc 1 484 0
 2020 0056 134B     		ldr	r3, .L121
 2021 0058 0022     		movs	r2, #0
 2022 005a 9A60     		str	r2, [r3, #8]	@ float
ARM GAS  C:\Users\kotaro\AppData\Local\Temp\cc7z3AXq.s 			page 45


 485:Src/motion.c  **** }
 2023              		.loc 1 485 0
 2024 005c 08BD     		pop	{r3, pc}
 2025              	.LVL113:
 2026              	.L120:
 472:Src/motion.c  ****         Control_AngCalculator(0, 0, 0, 0, 1, 0);
 2027              		.loc 1 472 0
 2028 005e 114B     		ldr	r3, .L121
 2029 0060 D3ED027A 		vldr.32	s15, [r3, #8]
 2030 0064 9FED141A 		vldr.32	s2, .L121+20
 2031 0068 F7EE002A 		vmov.f32	s5, #1.0e+0
 2032 006c 9FED132A 		vldr.32	s4, .L121+24
 2033 0070 F0EE411A 		vmov.f32	s3, s2
 2034 0074 F0EE400A 		vmov.f32	s1, s0
 2035 0078 9FED110A 		vldr.32	s0, .L121+28
 2036              	.LVL114:
 2037 007c 30EE670A 		vsub.f32	s0, s0, s15
 2038 0080 FFF7FEFF 		bl	Control_StrCalculator
 2039              	.LVL115:
 473:Src/motion.c  ****     }
 2040              		.loc 1 473 0
 2041 0084 9FED0A0A 		vldr.32	s0, .L121+12
 2042 0088 F0EE402A 		vmov.f32	s5, s0
 2043 008c B7EE002A 		vmov.f32	s4, #1.0e+0
 2044 0090 F0EE401A 		vmov.f32	s3, s0
 2045 0094 B0EE401A 		vmov.f32	s2, s0
 2046 0098 F0EE400A 		vmov.f32	s1, s0
 2047 009c FFF7FEFF 		bl	Control_AngCalculator
 2048              	.LVL116:
 2049 00a0 D2E7     		b	.L117
 2050              	.L122:
 2051 00a2 00BF     		.align	2
 2052              	.L121:
 2053 00a4 00000000 		.word	enc
 2054 00a8 00001644 		.word	1142292480
 2055 00ac 00003443 		.word	1127481344
 2056 00b0 00000000 		.word	0
 2057 00b4 00000000 		.word	motion_end_flag
 2058 00b8 00004844 		.word	1145569280
 2059 00bc 0000FA45 		.word	1174011904
 2060 00c0 0000DC42 		.word	1121714176
 2061              		.cfi_endproc
 2062              	.LFE173:
 2064              		.section	.text.Motion_Adjust_L,"ax",%progbits
 2065              		.align	1
 2066              		.global	Motion_Adjust_L
 2067              		.syntax unified
 2068              		.thumb
 2069              		.thumb_func
 2070              		.fpu fpv4-sp-d16
 2072              	Motion_Adjust_L:
 2073              	.LFB174:
 486:Src/motion.c  **** 
 487:Src/motion.c  **** void Motion_Adjust_L(uint16_t step, float velo_s)
 488:Src/motion.c  **** {
 2074              		.loc 1 488 0
 2075              		.cfi_startproc
ARM GAS  C:\Users\kotaro\AppData\Local\Temp\cc7z3AXq.s 			page 46


 2076              		@ args = 0, pretend = 0, frame = 0
 2077              		@ frame_needed = 0, uses_anonymous_args = 0
 2078              	.LVL117:
 2079 0000 08B5     		push	{r3, lr}
 2080              	.LCFI30:
 2081              		.cfi_def_cfa_offset 8
 2082              		.cfi_offset 3, -8
 2083              		.cfi_offset 14, -4
 2084 0002 2DED028B 		vpush.64	{d8}
 2085              	.LCFI31:
 2086              		.cfi_def_cfa_offset 16
 2087              		.cfi_offset 80, -16
 2088              		.cfi_offset 81, -12
 489:Src/motion.c  ****     if (step == 1)
 2089              		.loc 1 489 0
 2090 0006 0128     		cmp	r0, #1
 2091 0008 4ED0     		beq	.L129
 490:Src/motion.c  ****     {
 491:Src/motion.c  ****         Control_WallEdgeAble(0b10);
 492:Src/motion.c  ****         Control_StrCalculator(90.0f, velo_s, VELO_F, VELO_F, ACCEL_F, 1);
 493:Src/motion.c  ****         Control_AngCalculator(0, 0, 0, 0, 1, 0);
 494:Src/motion.c  ****     }
 495:Src/motion.c  ****     else
 496:Src/motion.c  ****     {
 497:Src/motion.c  ****         Control_WallEdgeAble(0b10);
 2092              		.loc 1 497 0
 2093 000a 0220     		movs	r0, #2
 2094              	.LVL118:
 2095 000c FFF7FEFF 		bl	Control_WallEdgeAble
 2096              	.LVL119:
 498:Src/motion.c  ****         Control_StrCalculator(90.0f, VELO_S, VELO_S, VELO_S, 1, 1);
 2097              		.loc 1 498 0
 2098 0010 DFED360A 		vldr.32	s1, .L130
 2099 0014 F7EE002A 		vmov.f32	s5, #1.0e+0
 2100 0018 B0EE622A 		vmov.f32	s4, s5
 2101 001c F0EE601A 		vmov.f32	s3, s1
 2102 0020 B0EE601A 		vmov.f32	s2, s1
 2103 0024 9FED320A 		vldr.32	s0, .L130+4
 2104 0028 FFF7FEFF 		bl	Control_StrCalculator
 2105              	.LVL120:
 499:Src/motion.c  ****         Control_AngCalculator(0, 0, 0, 0, 1, 0);
 2106              		.loc 1 499 0
 2107 002c 9FED310A 		vldr.32	s0, .L130+8
 2108 0030 F0EE402A 		vmov.f32	s5, s0
 2109 0034 B7EE002A 		vmov.f32	s4, #1.0e+0
 2110 0038 F0EE401A 		vmov.f32	s3, s0
 2111 003c B0EE401A 		vmov.f32	s2, s0
 2112 0040 F0EE400A 		vmov.f32	s1, s0
 2113 0044 FFF7FEFF 		bl	Control_AngCalculator
 2114              	.LVL121:
 500:Src/motion.c  ****         motion_end_flag = FALSE;
 2115              		.loc 1 500 0
 2116 0048 2B4B     		ldr	r3, .L130+12
 2117 004a 0022     		movs	r2, #0
 2118 004c 1A70     		strb	r2, [r3]
 2119              	.L126:
 501:Src/motion.c  ****         while (motion_end_flag == FALSE)
ARM GAS  C:\Users\kotaro\AppData\Local\Temp\cc7z3AXq.s 			page 47


 2120              		.loc 1 501 0 discriminator 1
 2121 004e 2A4B     		ldr	r3, .L130+12
 2122 0050 1B78     		ldrb	r3, [r3]	@ zero_extendqisi2
 2123 0052 002B     		cmp	r3, #0
 2124 0054 FBD0     		beq	.L126
 502:Src/motion.c  ****         {
 503:Src/motion.c  ****         }
 504:Src/motion.c  ****         Control_StrCalculator(90.0f, VELO_S, VELO_S, VELO_S, 1, 1);
 2125              		.loc 1 504 0
 2126 0056 DFED250A 		vldr.32	s1, .L130
 2127 005a F7EE002A 		vmov.f32	s5, #1.0e+0
 2128 005e B0EE622A 		vmov.f32	s4, s5
 2129 0062 F0EE601A 		vmov.f32	s3, s1
 2130 0066 B0EE601A 		vmov.f32	s2, s1
 2131 006a 9FED210A 		vldr.32	s0, .L130+4
 2132 006e FFF7FEFF 		bl	Control_StrCalculator
 2133              	.LVL122:
 505:Src/motion.c  ****         Control_AngCalculator(0, 0, 0, 0, 1, 0);
 2134              		.loc 1 505 0
 2135 0072 9FED200A 		vldr.32	s0, .L130+8
 2136 0076 F0EE402A 		vmov.f32	s5, s0
 2137 007a B7EE002A 		vmov.f32	s4, #1.0e+0
 2138 007e F0EE401A 		vmov.f32	s3, s0
 2139 0082 B0EE401A 		vmov.f32	s2, s0
 2140 0086 F0EE400A 		vmov.f32	s1, s0
 2141 008a FFF7FEFF 		bl	Control_AngCalculator
 2142              	.LVL123:
 2143              	.L125:
 506:Src/motion.c  ****     }
 507:Src/motion.c  ****     motion_end_flag = FALSE;
 2144              		.loc 1 507 0
 2145 008e 1A4B     		ldr	r3, .L130+12
 2146 0090 0022     		movs	r2, #0
 2147 0092 1A70     		strb	r2, [r3]
 2148              	.L127:
 508:Src/motion.c  ****     while (motion_end_flag == FALSE)
 2149              		.loc 1 508 0 discriminator 1
 2150 0094 184B     		ldr	r3, .L130+12
 2151 0096 1B78     		ldrb	r3, [r3]	@ zero_extendqisi2
 2152 0098 002B     		cmp	r3, #0
 2153 009a FBD0     		beq	.L127
 509:Src/motion.c  ****     {
 510:Src/motion.c  ****     }
 511:Src/motion.c  ****     enc.offset = 0.0f;
 2154              		.loc 1 511 0
 2155 009c 174B     		ldr	r3, .L130+16
 2156 009e 0022     		movs	r2, #0
 2157 00a0 9A60     		str	r2, [r3, #8]	@ float
 512:Src/motion.c  **** }
 2158              		.loc 1 512 0
 2159 00a2 BDEC028B 		vldm	sp!, {d8}
 2160              	.LCFI32:
 2161              		.cfi_remember_state
 2162              		.cfi_restore 80
 2163              		.cfi_restore 81
 2164              		.cfi_def_cfa_offset 8
 2165 00a6 08BD     		pop	{r3, pc}
ARM GAS  C:\Users\kotaro\AppData\Local\Temp\cc7z3AXq.s 			page 48


 2166              	.LVL124:
 2167              	.L129:
 2168              	.LCFI33:
 2169              		.cfi_restore_state
 2170 00a8 B0EE408A 		vmov.f32	s16, s0
 491:Src/motion.c  ****         Control_StrCalculator(90.0f, velo_s, VELO_F, VELO_F, ACCEL_F, 1);
 2171              		.loc 1 491 0
 2172 00ac 0220     		movs	r0, #2
 2173              	.LVL125:
 2174 00ae FFF7FEFF 		bl	Control_WallEdgeAble
 2175              	.LVL126:
 492:Src/motion.c  ****         Control_AngCalculator(0, 0, 0, 0, 1, 0);
 2176              		.loc 1 492 0
 2177 00b2 9FED131A 		vldr.32	s2, .L130+20
 2178 00b6 F7EE002A 		vmov.f32	s5, #1.0e+0
 2179 00ba 9FED122A 		vldr.32	s4, .L130+24
 2180 00be F0EE411A 		vmov.f32	s3, s2
 2181 00c2 F0EE480A 		vmov.f32	s1, s16
 2182 00c6 9FED0A0A 		vldr.32	s0, .L130+4
 2183 00ca FFF7FEFF 		bl	Control_StrCalculator
 2184              	.LVL127:
 493:Src/motion.c  ****     }
 2185              		.loc 1 493 0
 2186 00ce 9FED090A 		vldr.32	s0, .L130+8
 2187 00d2 F0EE402A 		vmov.f32	s5, s0
 2188 00d6 B7EE002A 		vmov.f32	s4, #1.0e+0
 2189 00da F0EE401A 		vmov.f32	s3, s0
 2190 00de B0EE401A 		vmov.f32	s2, s0
 2191 00e2 F0EE400A 		vmov.f32	s1, s0
 2192 00e6 FFF7FEFF 		bl	Control_AngCalculator
 2193              	.LVL128:
 2194 00ea D0E7     		b	.L125
 2195              	.L131:
 2196              		.align	2
 2197              	.L130:
 2198 00ec 00001644 		.word	1142292480
 2199 00f0 0000B442 		.word	1119092736
 2200 00f4 00000000 		.word	0
 2201 00f8 00000000 		.word	motion_end_flag
 2202 00fc 00000000 		.word	enc
 2203 0100 00004844 		.word	1145569280
 2204 0104 0000FA45 		.word	1174011904
 2205              		.cfi_endproc
 2206              	.LFE174:
 2208              		.section	.text.Motion_Adjust_R,"ax",%progbits
 2209              		.align	1
 2210              		.global	Motion_Adjust_R
 2211              		.syntax unified
 2212              		.thumb
 2213              		.thumb_func
 2214              		.fpu fpv4-sp-d16
 2216              	Motion_Adjust_R:
 2217              	.LFB175:
 513:Src/motion.c  **** 
 514:Src/motion.c  **** void Motion_Adjust_R(uint16_t step, float velo_s)
 515:Src/motion.c  **** {
 2218              		.loc 1 515 0
ARM GAS  C:\Users\kotaro\AppData\Local\Temp\cc7z3AXq.s 			page 49


 2219              		.cfi_startproc
 2220              		@ args = 0, pretend = 0, frame = 0
 2221              		@ frame_needed = 0, uses_anonymous_args = 0
 2222              	.LVL129:
 2223 0000 08B5     		push	{r3, lr}
 2224              	.LCFI34:
 2225              		.cfi_def_cfa_offset 8
 2226              		.cfi_offset 3, -8
 2227              		.cfi_offset 14, -4
 2228 0002 2DED028B 		vpush.64	{d8}
 2229              	.LCFI35:
 2230              		.cfi_def_cfa_offset 16
 2231              		.cfi_offset 80, -16
 2232              		.cfi_offset 81, -12
 516:Src/motion.c  ****     if (step == 1)
 2233              		.loc 1 516 0
 2234 0006 0128     		cmp	r0, #1
 2235 0008 4ED0     		beq	.L138
 517:Src/motion.c  ****     {
 518:Src/motion.c  ****         Control_WallEdgeAble(0b01);
 519:Src/motion.c  ****         Control_StrCalculator(90.0f, velo_s, VELO_F, VELO_F, ACCEL_F, 1);
 520:Src/motion.c  ****         Control_AngCalculator(0, 0, 0, 0, 1, 0);
 521:Src/motion.c  ****     }
 522:Src/motion.c  ****     else
 523:Src/motion.c  ****     {
 524:Src/motion.c  ****         Control_WallEdgeAble(0b01);
 2236              		.loc 1 524 0
 2237 000a 0120     		movs	r0, #1
 2238              	.LVL130:
 2239 000c FFF7FEFF 		bl	Control_WallEdgeAble
 2240              	.LVL131:
 525:Src/motion.c  ****         Control_StrCalculator(90.0f, VELO_S, VELO_S, VELO_S, 1, 1);
 2241              		.loc 1 525 0
 2242 0010 DFED360A 		vldr.32	s1, .L139
 2243 0014 F7EE002A 		vmov.f32	s5, #1.0e+0
 2244 0018 B0EE622A 		vmov.f32	s4, s5
 2245 001c F0EE601A 		vmov.f32	s3, s1
 2246 0020 B0EE601A 		vmov.f32	s2, s1
 2247 0024 9FED320A 		vldr.32	s0, .L139+4
 2248 0028 FFF7FEFF 		bl	Control_StrCalculator
 2249              	.LVL132:
 526:Src/motion.c  ****         Control_AngCalculator(0, 0, 0, 0, 1, 0);
 2250              		.loc 1 526 0
 2251 002c 9FED310A 		vldr.32	s0, .L139+8
 2252 0030 F0EE402A 		vmov.f32	s5, s0
 2253 0034 B7EE002A 		vmov.f32	s4, #1.0e+0
 2254 0038 F0EE401A 		vmov.f32	s3, s0
 2255 003c B0EE401A 		vmov.f32	s2, s0
 2256 0040 F0EE400A 		vmov.f32	s1, s0
 2257 0044 FFF7FEFF 		bl	Control_AngCalculator
 2258              	.LVL133:
 527:Src/motion.c  ****         motion_end_flag = FALSE;
 2259              		.loc 1 527 0
 2260 0048 2B4B     		ldr	r3, .L139+12
 2261 004a 0022     		movs	r2, #0
 2262 004c 1A70     		strb	r2, [r3]
 2263              	.L135:
ARM GAS  C:\Users\kotaro\AppData\Local\Temp\cc7z3AXq.s 			page 50


 528:Src/motion.c  ****         while (motion_end_flag == FALSE)
 2264              		.loc 1 528 0 discriminator 1
 2265 004e 2A4B     		ldr	r3, .L139+12
 2266 0050 1B78     		ldrb	r3, [r3]	@ zero_extendqisi2
 2267 0052 002B     		cmp	r3, #0
 2268 0054 FBD0     		beq	.L135
 529:Src/motion.c  ****         {
 530:Src/motion.c  ****         }
 531:Src/motion.c  ****         Control_StrCalculator(90.0f, VELO_S, VELO_S, VELO_S, 1, 1);
 2269              		.loc 1 531 0
 2270 0056 DFED250A 		vldr.32	s1, .L139
 2271 005a F7EE002A 		vmov.f32	s5, #1.0e+0
 2272 005e B0EE622A 		vmov.f32	s4, s5
 2273 0062 F0EE601A 		vmov.f32	s3, s1
 2274 0066 B0EE601A 		vmov.f32	s2, s1
 2275 006a 9FED210A 		vldr.32	s0, .L139+4
 2276 006e FFF7FEFF 		bl	Control_StrCalculator
 2277              	.LVL134:
 532:Src/motion.c  ****         Control_AngCalculator(0, 0, 0, 0, 1, 0);
 2278              		.loc 1 532 0
 2279 0072 9FED200A 		vldr.32	s0, .L139+8
 2280 0076 F0EE402A 		vmov.f32	s5, s0
 2281 007a B7EE002A 		vmov.f32	s4, #1.0e+0
 2282 007e F0EE401A 		vmov.f32	s3, s0
 2283 0082 B0EE401A 		vmov.f32	s2, s0
 2284 0086 F0EE400A 		vmov.f32	s1, s0
 2285 008a FFF7FEFF 		bl	Control_AngCalculator
 2286              	.LVL135:
 2287              	.L134:
 533:Src/motion.c  ****     }
 534:Src/motion.c  ****     motion_end_flag = FALSE;
 2288              		.loc 1 534 0
 2289 008e 1A4B     		ldr	r3, .L139+12
 2290 0090 0022     		movs	r2, #0
 2291 0092 1A70     		strb	r2, [r3]
 2292              	.L136:
 535:Src/motion.c  ****     while (motion_end_flag == FALSE)
 2293              		.loc 1 535 0 discriminator 1
 2294 0094 184B     		ldr	r3, .L139+12
 2295 0096 1B78     		ldrb	r3, [r3]	@ zero_extendqisi2
 2296 0098 002B     		cmp	r3, #0
 2297 009a FBD0     		beq	.L136
 536:Src/motion.c  ****     {
 537:Src/motion.c  ****     }
 538:Src/motion.c  ****     enc.offset = 0.0f;
 2298              		.loc 1 538 0
 2299 009c 174B     		ldr	r3, .L139+16
 2300 009e 0022     		movs	r2, #0
 2301 00a0 9A60     		str	r2, [r3, #8]	@ float
 539:Src/motion.c  **** }
 2302              		.loc 1 539 0
 2303 00a2 BDEC028B 		vldm	sp!, {d8}
 2304              	.LCFI36:
 2305              		.cfi_remember_state
 2306              		.cfi_restore 80
 2307              		.cfi_restore 81
 2308              		.cfi_def_cfa_offset 8
ARM GAS  C:\Users\kotaro\AppData\Local\Temp\cc7z3AXq.s 			page 51


 2309 00a6 08BD     		pop	{r3, pc}
 2310              	.LVL136:
 2311              	.L138:
 2312              	.LCFI37:
 2313              		.cfi_restore_state
 2314 00a8 B0EE408A 		vmov.f32	s16, s0
 518:Src/motion.c  ****         Control_StrCalculator(90.0f, velo_s, VELO_F, VELO_F, ACCEL_F, 1);
 2315              		.loc 1 518 0
 2316 00ac FFF7FEFF 		bl	Control_WallEdgeAble
 2317              	.LVL137:
 519:Src/motion.c  ****         Control_AngCalculator(0, 0, 0, 0, 1, 0);
 2318              		.loc 1 519 0
 2319 00b0 9FED131A 		vldr.32	s2, .L139+20
 2320 00b4 F7EE002A 		vmov.f32	s5, #1.0e+0
 2321 00b8 9FED122A 		vldr.32	s4, .L139+24
 2322 00bc F0EE411A 		vmov.f32	s3, s2
 2323 00c0 F0EE480A 		vmov.f32	s1, s16
 2324 00c4 9FED0A0A 		vldr.32	s0, .L139+4
 2325 00c8 FFF7FEFF 		bl	Control_StrCalculator
 2326              	.LVL138:
 520:Src/motion.c  ****     }
 2327              		.loc 1 520 0
 2328 00cc 9FED090A 		vldr.32	s0, .L139+8
 2329 00d0 F0EE402A 		vmov.f32	s5, s0
 2330 00d4 B7EE002A 		vmov.f32	s4, #1.0e+0
 2331 00d8 F0EE401A 		vmov.f32	s3, s0
 2332 00dc B0EE401A 		vmov.f32	s2, s0
 2333 00e0 F0EE400A 		vmov.f32	s1, s0
 2334 00e4 FFF7FEFF 		bl	Control_AngCalculator
 2335              	.LVL139:
 2336 00e8 D1E7     		b	.L134
 2337              	.L140:
 2338 00ea 00BF     		.align	2
 2339              	.L139:
 2340 00ec 00001644 		.word	1142292480
 2341 00f0 0000B442 		.word	1119092736
 2342 00f4 00000000 		.word	0
 2343 00f8 00000000 		.word	motion_end_flag
 2344 00fc 00000000 		.word	enc
 2345 0100 00004844 		.word	1145569280
 2346 0104 0000FA45 		.word	1174011904
 2347              		.cfi_endproc
 2348              	.LFE175:
 2350              		.section	.text.Motion_FastGoal,"ax",%progbits
 2351              		.align	1
 2352              		.global	Motion_FastGoal
 2353              		.syntax unified
 2354              		.thumb
 2355              		.thumb_func
 2356              		.fpu fpv4-sp-d16
 2358              	Motion_FastGoal:
 2359              	.LFB176:
 540:Src/motion.c  **** 
 541:Src/motion.c  **** void Motion_FastGoal(uint8_t step, float v_start)
 542:Src/motion.c  **** {
 2360              		.loc 1 542 0
 2361              		.cfi_startproc
ARM GAS  C:\Users\kotaro\AppData\Local\Temp\cc7z3AXq.s 			page 52


 2362              		@ args = 0, pretend = 0, frame = 0
 2363              		@ frame_needed = 0, uses_anonymous_args = 0
 2364              	.LVL140:
 2365 0000 08B5     		push	{r3, lr}
 2366              	.LCFI38:
 2367              		.cfi_def_cfa_offset 8
 2368              		.cfi_offset 3, -8
 2369              		.cfi_offset 14, -4
 2370 0002 2DED028B 		vpush.64	{d8}
 2371              	.LCFI39:
 2372              		.cfi_def_cfa_offset 16
 2373              		.cfi_offset 80, -16
 2374              		.cfi_offset 81, -12
 2375 0006 F0EE400A 		vmov.f32	s1, s0
 2376              	.LVL141:
 543:Src/motion.c  ****     float velo = VELO_F;
 544:Src/motion.c  ****     if (step > 1)
 2377              		.loc 1 544 0
 2378 000a 0128     		cmp	r0, #1
 2379 000c 50D9     		bls	.L145
 545:Src/motion.c  ****     {
 546:Src/motion.c  ****         velo = VELO_F + gain_velo * (step - 1);
 2380              		.loc 1 546 0
 2381 000e 431E     		subs	r3, r0, #1
 2382 0010 01EE103A 		vmov	s2, r3	@ int
 2383 0014 B8EEC11A 		vcvt.f32.s32	s2, s2
 2384 0018 274B     		ldr	r3, .L148
 2385 001a D3ED007A 		vldr.32	s15, [r3]
 2386 001e 21EE271A 		vmul.f32	s2, s2, s15
 2387 0022 DFED267A 		vldr.32	s15, .L148+4
 2388 0026 31EE271A 		vadd.f32	s2, s2, s15
 2389              	.LVL142:
 2390              	.L142:
 547:Src/motion.c  ****     }
 548:Src/motion.c  ****     if (velo > 2400)
 2391              		.loc 1 548 0
 2392 002a DFED257A 		vldr.32	s15, .L148+8
 2393 002e B4EEE71A 		vcmpe.f32	s2, s15
 2394 0032 F1EE10FA 		vmrs	APSR_nzcv, FPSCR
 2395 0036 01DD     		ble	.L143
 549:Src/motion.c  ****     {
 550:Src/motion.c  ****         velo = 2400;
 2396              		.loc 1 550 0
 2397 0038 B0EE671A 		vmov.f32	s2, s15
 2398              	.LVL143:
 2399              	.L143:
 551:Src/motion.c  ****     }
 552:Src/motion.c  ****     Control_StrCalculator(90.0f + 90.0f * (float)step - enc.offset, v_start, velo, 0, ACCEL_F, 1);
 2400              		.loc 1 552 0
 2401 003c 07EE900A 		vmov	s15, r0	@ int
 2402 0040 F8EE677A 		vcvt.f32.u32	s15, s15
 2403 0044 9FED1F7A 		vldr.32	s14, .L148+12
 2404 0048 67EE877A 		vmul.f32	s15, s15, s14
 2405 004c 77EE877A 		vadd.f32	s15, s15, s14
 2406 0050 1D4B     		ldr	r3, .L148+16
 2407 0052 93ED020A 		vldr.32	s0, [r3, #8]
 2408              	.LVL144:
ARM GAS  C:\Users\kotaro\AppData\Local\Temp\cc7z3AXq.s 			page 53


 2409 0056 9FED1D8A 		vldr.32	s16, .L148+20
 2410 005a F7EE002A 		vmov.f32	s5, #1.0e+0
 2411 005e 9FED1C2A 		vldr.32	s4, .L148+24
 2412 0062 F0EE481A 		vmov.f32	s3, s16
 2413 0066 37EEC00A 		vsub.f32	s0, s15, s0
 2414 006a FFF7FEFF 		bl	Control_StrCalculator
 2415              	.LVL145:
 553:Src/motion.c  ****     Control_AngCalculator(0, 0, 0, 0, 1, 0);
 2416              		.loc 1 553 0
 2417 006e F0EE482A 		vmov.f32	s5, s16
 2418 0072 B7EE002A 		vmov.f32	s4, #1.0e+0
 2419 0076 F0EE481A 		vmov.f32	s3, s16
 2420 007a B0EE481A 		vmov.f32	s2, s16
 2421 007e F0EE480A 		vmov.f32	s1, s16
 2422 0082 B0EE480A 		vmov.f32	s0, s16
 2423 0086 FFF7FEFF 		bl	Control_AngCalculator
 2424              	.LVL146:
 554:Src/motion.c  ****     motion_end_flag = FALSE;
 2425              		.loc 1 554 0
 2426 008a 124B     		ldr	r3, .L148+28
 2427 008c 0022     		movs	r2, #0
 2428 008e 1A70     		strb	r2, [r3]
 2429              	.L144:
 555:Src/motion.c  ****     while (motion_end_flag == FALSE)
 2430              		.loc 1 555 0 discriminator 1
 2431 0090 104B     		ldr	r3, .L148+28
 2432 0092 1B78     		ldrb	r3, [r3]	@ zero_extendqisi2
 2433 0094 002B     		cmp	r3, #0
 2434 0096 FBD0     		beq	.L144
 556:Src/motion.c  ****     {
 557:Src/motion.c  ****     }
 558:Src/motion.c  ****     straight.v_now = 0;
 2435              		.loc 1 558 0
 2436 0098 0023     		movs	r3, #0
 2437 009a 0F4A     		ldr	r2, .L148+32
 2438 009c D360     		str	r3, [r2, #12]	@ float
 559:Src/motion.c  ****     angle.v_now = 0;
 2439              		.loc 1 559 0
 2440 009e 0F4A     		ldr	r2, .L148+36
 2441 00a0 D360     		str	r3, [r2, #12]	@ float
 560:Src/motion.c  ****     HAL_Delay(800);
 2442              		.loc 1 560 0
 2443 00a2 4FF44870 		mov	r0, #800
 2444 00a6 FFF7FEFF 		bl	HAL_Delay
 2445              	.LVL147:
 561:Src/motion.c  **** }
 2446              		.loc 1 561 0
 2447 00aa BDEC028B 		vldm	sp!, {d8}
 2448              	.LCFI40:
 2449              		.cfi_remember_state
 2450              		.cfi_restore 80
 2451              		.cfi_restore 81
 2452              		.cfi_def_cfa_offset 8
 2453 00ae 08BD     		pop	{r3, pc}
 2454              	.LVL148:
 2455              	.L145:
 2456              	.LCFI41:
ARM GAS  C:\Users\kotaro\AppData\Local\Temp\cc7z3AXq.s 			page 54


 2457              		.cfi_restore_state
 543:Src/motion.c  ****     if (step > 1)
 2458              		.loc 1 543 0
 2459 00b0 9FED021A 		vldr.32	s2, .L148+4
 2460 00b4 B9E7     		b	.L142
 2461              	.L149:
 2462 00b6 00BF     		.align	2
 2463              	.L148:
 2464 00b8 00000000 		.word	.LANCHOR0
 2465 00bc 00004844 		.word	1145569280
 2466 00c0 00001645 		.word	1159069696
 2467 00c4 0000B442 		.word	1119092736
 2468 00c8 00000000 		.word	enc
 2469 00cc 00000000 		.word	0
 2470 00d0 0000FA45 		.word	1174011904
 2471 00d4 00000000 		.word	motion_end_flag
 2472 00d8 00000000 		.word	straight
 2473 00dc 00000000 		.word	angle
 2474              		.cfi_endproc
 2475              	.LFE176:
 2477              		.section	.text.Motion_Diagonal,"ax",%progbits
 2478              		.align	1
 2479              		.global	Motion_Diagonal
 2480              		.syntax unified
 2481              		.thumb
 2482              		.thumb_func
 2483              		.fpu fpv4-sp-d16
 2485              	Motion_Diagonal:
 2486              	.LFB177:
 562:Src/motion.c  **** 
 563:Src/motion.c  **** void Motion_Diagonal(uint8_t step)
 564:Src/motion.c  **** {
 2487              		.loc 1 564 0
 2488              		.cfi_startproc
 2489              		@ args = 0, pretend = 0, frame = 0
 2490              		@ frame_needed = 0, uses_anonymous_args = 0
 2491              	.LVL149:
 2492 0000 08B5     		push	{r3, lr}
 2493              	.LCFI42:
 2494              		.cfi_def_cfa_offset 8
 2495              		.cfi_offset 3, -8
 2496              		.cfi_offset 14, -4
 565:Src/motion.c  ****     Control_StrCalculator(diagonal_step * (float)step - enc.offset, VELO_F, VELO_F, VELO_F, ACCEL_F
 2497              		.loc 1 565 0
 2498 0002 07EE900A 		vmov	s15, r0	@ int
 2499 0006 F8EE677A 		vcvt.f32.u32	s15, s15
 2500 000a 174B     		ldr	r3, .L153
 2501 000c 93ED000A 		vldr.32	s0, [r3]
 2502 0010 67EE807A 		vmul.f32	s15, s15, s0
 2503 0014 154B     		ldr	r3, .L153+4
 2504 0016 93ED020A 		vldr.32	s0, [r3, #8]
 2505 001a DFED150A 		vldr.32	s1, .L153+8
 2506 001e F7EE002A 		vmov.f32	s5, #1.0e+0
 2507 0022 9FED142A 		vldr.32	s4, .L153+12
 2508 0026 F0EE601A 		vmov.f32	s3, s1
 2509 002a B0EE601A 		vmov.f32	s2, s1
 2510 002e 37EEC00A 		vsub.f32	s0, s15, s0
ARM GAS  C:\Users\kotaro\AppData\Local\Temp\cc7z3AXq.s 			page 55


 2511 0032 FFF7FEFF 		bl	Control_StrCalculator
 2512              	.LVL150:
 566:Src/motion.c  ****     Control_AngCalculator(0, 0, 0, 0, 1, 0);
 2513              		.loc 1 566 0
 2514 0036 9FED100A 		vldr.32	s0, .L153+16
 2515 003a F0EE402A 		vmov.f32	s5, s0
 2516 003e B7EE002A 		vmov.f32	s4, #1.0e+0
 2517 0042 F0EE401A 		vmov.f32	s3, s0
 2518 0046 B0EE401A 		vmov.f32	s2, s0
 2519 004a F0EE400A 		vmov.f32	s1, s0
 2520 004e FFF7FEFF 		bl	Control_AngCalculator
 2521              	.LVL151:
 567:Src/motion.c  ****     motion_end_flag = FALSE;
 2522              		.loc 1 567 0
 2523 0052 0A4B     		ldr	r3, .L153+20
 2524 0054 0022     		movs	r2, #0
 2525 0056 1A70     		strb	r2, [r3]
 2526              	.L151:
 568:Src/motion.c  ****     while (motion_end_flag == FALSE)
 2527              		.loc 1 568 0 discriminator 1
 2528 0058 084B     		ldr	r3, .L153+20
 2529 005a 1B78     		ldrb	r3, [r3]	@ zero_extendqisi2
 2530 005c 002B     		cmp	r3, #0
 2531 005e FBD0     		beq	.L151
 569:Src/motion.c  ****     {
 570:Src/motion.c  ****     }
 571:Src/motion.c  ****     enc.offset = 0.0f;
 2532              		.loc 1 571 0
 2533 0060 024B     		ldr	r3, .L153+4
 2534 0062 0022     		movs	r2, #0
 2535 0064 9A60     		str	r2, [r3, #8]	@ float
 572:Src/motion.c  **** }
 2536              		.loc 1 572 0
 2537 0066 08BD     		pop	{r3, pc}
 2538              	.L154:
 2539              		.align	2
 2540              	.L153:
 2541 0068 00000000 		.word	.LANCHOR2
 2542 006c 00000000 		.word	enc
 2543 0070 00004844 		.word	1145569280
 2544 0074 0000FA45 		.word	1174011904
 2545 0078 00000000 		.word	0
 2546 007c 00000000 		.word	motion_end_flag
 2547              		.cfi_endproc
 2548              	.LFE177:
 2550              		.section	.text.Motion_DiagonalLeft,"ax",%progbits
 2551              		.align	1
 2552              		.global	Motion_DiagonalLeft
 2553              		.syntax unified
 2554              		.thumb
 2555              		.thumb_func
 2556              		.fpu fpv4-sp-d16
 2558              	Motion_DiagonalLeft:
 2559              	.LFB178:
 573:Src/motion.c  **** 
 574:Src/motion.c  **** void Motion_DiagonalLeft(uint8_t step)
 575:Src/motion.c  **** {
ARM GAS  C:\Users\kotaro\AppData\Local\Temp\cc7z3AXq.s 			page 56


 2560              		.loc 1 575 0
 2561              		.cfi_startproc
 2562              		@ args = 0, pretend = 0, frame = 0
 2563              		@ frame_needed = 0, uses_anonymous_args = 0
 2564              	.LVL152:
 2565 0000 08B5     		push	{r3, lr}
 2566              	.LCFI43:
 2567              		.cfi_def_cfa_offset 8
 2568              		.cfi_offset 3, -8
 2569              		.cfi_offset 14, -4
 576:Src/motion.c  ****     if (step > 1)
 2570              		.loc 1 576 0
 2571 0002 0128     		cmp	r0, #1
 2572 0004 46D9     		bls	.L156
 2573              	.LBB3:
 577:Src/motion.c  ****     {
 578:Src/motion.c  ****         step--;
 2574              		.loc 1 578 0
 2575 0006 0138     		subs	r0, r0, #1
 2576              	.LVL153:
 2577 0008 C3B2     		uxtb	r3, r0
 2578 000a 00EE103A 		vmov	s0, r3	@ int
 2579              	.LVL154:
 579:Src/motion.c  ****         float velo = VELO_F + gain_velo * 0.5f * step;
 2580              		.loc 1 579 0
 2581 000e 374B     		ldr	r3, .L162
 2582 0010 93ED001A 		vldr.32	s2, [r3]
 2583 0014 F6EE007A 		vmov.f32	s15, #5.0e-1
 2584 0018 61EE277A 		vmul.f32	s15, s2, s15
 2585 001c B8EEC01A 		vcvt.f32.s32	s2, s0
 2586 0020 21EE271A 		vmul.f32	s2, s2, s15
 2587 0024 DFED327A 		vldr.32	s15, .L162+4
 2588 0028 31EE271A 		vadd.f32	s2, s2, s15
 2589              	.LVL155:
 580:Src/motion.c  ****         if (velo > 2400.0f)
 2590              		.loc 1 580 0
 2591 002c DFED317A 		vldr.32	s15, .L162+8
 2592 0030 B4EEE71A 		vcmpe.f32	s2, s15
 2593 0034 F1EE10FA 		vmrs	APSR_nzcv, FPSCR
 2594 0038 01DD     		ble	.L157
 581:Src/motion.c  ****         {
 582:Src/motion.c  ****             velo = 2400.0f;
 2595              		.loc 1 582 0
 2596 003a B0EE671A 		vmov.f32	s2, s15
 2597              	.LVL156:
 2598              	.L157:
 583:Src/motion.c  ****         }
 584:Src/motion.c  ****         Control_StrCalculator(diagonal_step * (float)step - enc.offset, VELO_F, velo, VELO_F, 6000.
 2599              		.loc 1 584 0
 2600 003e B8EE400A 		vcvt.f32.u32	s0, s0
 2601 0042 2D4B     		ldr	r3, .L162+12
 2602 0044 D3ED007A 		vldr.32	s15, [r3]
 2603 0048 20EE270A 		vmul.f32	s0, s0, s15
 2604 004c 2B4B     		ldr	r3, .L162+16
 2605 004e D3ED027A 		vldr.32	s15, [r3, #8]
 2606 0052 DFED270A 		vldr.32	s1, .L162+4
 2607 0056 F7EE002A 		vmov.f32	s5, #1.0e+0
ARM GAS  C:\Users\kotaro\AppData\Local\Temp\cc7z3AXq.s 			page 57


 2608 005a 9FED292A 		vldr.32	s4, .L162+20
 2609 005e F0EE601A 		vmov.f32	s3, s1
 2610 0062 30EE670A 		vsub.f32	s0, s0, s15
 2611 0066 FFF7FEFF 		bl	Control_StrCalculator
 2612              	.LVL157:
 585:Src/motion.c  ****         Control_AngCalculator(0, 0, 0, 0, 1, 0);
 2613              		.loc 1 585 0
 2614 006a 9FED260A 		vldr.32	s0, .L162+24
 2615 006e F0EE402A 		vmov.f32	s5, s0
 2616 0072 B7EE002A 		vmov.f32	s4, #1.0e+0
 2617 0076 F0EE401A 		vmov.f32	s3, s0
 2618 007a B0EE401A 		vmov.f32	s2, s0
 2619 007e F0EE400A 		vmov.f32	s1, s0
 2620 0082 FFF7FEFF 		bl	Control_AngCalculator
 2621              	.LVL158:
 586:Src/motion.c  ****         motion_end_flag = FALSE;
 2622              		.loc 1 586 0
 2623 0086 204B     		ldr	r3, .L162+28
 2624 0088 0022     		movs	r2, #0
 2625 008a 1A70     		strb	r2, [r3]
 2626              	.L158:
 587:Src/motion.c  ****         while (motion_end_flag == FALSE)
 2627              		.loc 1 587 0 discriminator 1
 2628 008c 1E4B     		ldr	r3, .L162+28
 2629 008e 1B78     		ldrb	r3, [r3]	@ zero_extendqisi2
 2630 0090 002B     		cmp	r3, #0
 2631 0092 FBD0     		beq	.L158
 2632              	.L156:
 2633              	.LBE3:
 588:Src/motion.c  ****         {
 589:Src/motion.c  ****         }
 590:Src/motion.c  ****     }
 591:Src/motion.c  ****     Control_WallEdgeAble(0b1000);
 2634              		.loc 1 591 0
 2635 0094 0820     		movs	r0, #8
 2636 0096 FFF7FEFF 		bl	Control_WallEdgeAble
 2637              	.LVL159:
 592:Src/motion.c  ****     Control_StrCalculator(diagonal_step, VELO_F, VELO_F, VELO_F, 6000.0f, 1); //26
 2638              		.loc 1 592 0
 2639 009a DFED150A 		vldr.32	s1, .L162+4
 2640 009e F7EE002A 		vmov.f32	s5, #1.0e+0
 2641 00a2 9FED172A 		vldr.32	s4, .L162+20
 2642 00a6 F0EE601A 		vmov.f32	s3, s1
 2643 00aa B0EE601A 		vmov.f32	s2, s1
 2644 00ae 124B     		ldr	r3, .L162+12
 2645 00b0 93ED000A 		vldr.32	s0, [r3]
 2646 00b4 FFF7FEFF 		bl	Control_StrCalculator
 2647              	.LVL160:
 593:Src/motion.c  ****     Control_AngCalculator(0, 0, 0, 0, 1, 0);
 2648              		.loc 1 593 0
 2649 00b8 9FED120A 		vldr.32	s0, .L162+24
 2650 00bc F0EE402A 		vmov.f32	s5, s0
 2651 00c0 B7EE002A 		vmov.f32	s4, #1.0e+0
 2652 00c4 F0EE401A 		vmov.f32	s3, s0
 2653 00c8 B0EE401A 		vmov.f32	s2, s0
 2654 00cc F0EE400A 		vmov.f32	s1, s0
 2655 00d0 FFF7FEFF 		bl	Control_AngCalculator
ARM GAS  C:\Users\kotaro\AppData\Local\Temp\cc7z3AXq.s 			page 58


 2656              	.LVL161:
 594:Src/motion.c  ****     motion_end_flag = FALSE;
 2657              		.loc 1 594 0
 2658 00d4 0C4B     		ldr	r3, .L162+28
 2659 00d6 0022     		movs	r2, #0
 2660 00d8 1A70     		strb	r2, [r3]
 2661              	.L159:
 595:Src/motion.c  ****     while (motion_end_flag == FALSE)
 2662              		.loc 1 595 0 discriminator 1
 2663 00da 0B4B     		ldr	r3, .L162+28
 2664 00dc 1B78     		ldrb	r3, [r3]	@ zero_extendqisi2
 2665 00de 002B     		cmp	r3, #0
 2666 00e0 FBD0     		beq	.L159
 596:Src/motion.c  ****     {
 597:Src/motion.c  ****     }
 598:Src/motion.c  ****     enc.offset = 0.0f;
 2667              		.loc 1 598 0
 2668 00e2 064B     		ldr	r3, .L162+16
 2669 00e4 0022     		movs	r2, #0
 2670 00e6 9A60     		str	r2, [r3, #8]	@ float
 599:Src/motion.c  **** }
 2671              		.loc 1 599 0
 2672 00e8 08BD     		pop	{r3, pc}
 2673              	.L163:
 2674 00ea 00BF     		.align	2
 2675              	.L162:
 2676 00ec 00000000 		.word	.LANCHOR0
 2677 00f0 00004844 		.word	1145569280
 2678 00f4 00001645 		.word	1159069696
 2679 00f8 00000000 		.word	.LANCHOR2
 2680 00fc 00000000 		.word	enc
 2681 0100 0080BB45 		.word	1169915904
 2682 0104 00000000 		.word	0
 2683 0108 00000000 		.word	motion_end_flag
 2684              		.cfi_endproc
 2685              	.LFE178:
 2687              		.section	.text.Motion_DiagonalRight,"ax",%progbits
 2688              		.align	1
 2689              		.global	Motion_DiagonalRight
 2690              		.syntax unified
 2691              		.thumb
 2692              		.thumb_func
 2693              		.fpu fpv4-sp-d16
 2695              	Motion_DiagonalRight:
 2696              	.LFB179:
 600:Src/motion.c  **** 
 601:Src/motion.c  **** void Motion_DiagonalRight(uint8_t step)
 602:Src/motion.c  **** {
 2697              		.loc 1 602 0
 2698              		.cfi_startproc
 2699              		@ args = 0, pretend = 0, frame = 0
 2700              		@ frame_needed = 0, uses_anonymous_args = 0
 2701              	.LVL162:
 2702 0000 08B5     		push	{r3, lr}
 2703              	.LCFI44:
 2704              		.cfi_def_cfa_offset 8
 2705              		.cfi_offset 3, -8
ARM GAS  C:\Users\kotaro\AppData\Local\Temp\cc7z3AXq.s 			page 59


 2706              		.cfi_offset 14, -4
 603:Src/motion.c  ****     if (step > 1)
 2707              		.loc 1 603 0
 2708 0002 0128     		cmp	r0, #1
 2709 0004 44D9     		bls	.L165
 2710              	.LBB4:
 604:Src/motion.c  ****     {
 605:Src/motion.c  ****         step--;
 2711              		.loc 1 605 0
 2712 0006 0138     		subs	r0, r0, #1
 2713              	.LVL163:
 2714 0008 C0B2     		uxtb	r0, r0
 2715              	.LVL164:
 606:Src/motion.c  ****         float velo = VELO_F + gain_velo * 0.5f * (float)step;
 2716              		.loc 1 606 0
 2717 000a 374B     		ldr	r3, .L171
 2718 000c 93ED001A 		vldr.32	s2, [r3]
 2719 0010 F6EE007A 		vmov.f32	s15, #5.0e-1
 2720 0014 21EE271A 		vmul.f32	s2, s2, s15
 2721 0018 07EE900A 		vmov	s15, r0	@ int
 2722 001c B8EE670A 		vcvt.f32.u32	s0, s15
 2723 0020 21EE001A 		vmul.f32	s2, s2, s0
 2724 0024 DFED317A 		vldr.32	s15, .L171+4
 2725 0028 31EE271A 		vadd.f32	s2, s2, s15
 2726              	.LVL165:
 607:Src/motion.c  ****         if (velo > 2400.0f)
 2727              		.loc 1 607 0
 2728 002c DFED307A 		vldr.32	s15, .L171+8
 2729 0030 B4EEE71A 		vcmpe.f32	s2, s15
 2730 0034 F1EE10FA 		vmrs	APSR_nzcv, FPSCR
 2731 0038 01DD     		ble	.L166
 608:Src/motion.c  ****         {
 609:Src/motion.c  ****             velo = 2400.0f;
 2732              		.loc 1 609 0
 2733 003a B0EE671A 		vmov.f32	s2, s15
 2734              	.LVL166:
 2735              	.L166:
 610:Src/motion.c  ****         }
 611:Src/motion.c  ****         Control_StrCalculator(diagonal_step * (float)step - enc.offset, VELO_F, velo, VELO_F, 6000.
 2736              		.loc 1 611 0
 2737 003e 2D4B     		ldr	r3, .L171+12
 2738 0040 D3ED007A 		vldr.32	s15, [r3]
 2739 0044 20EE270A 		vmul.f32	s0, s0, s15
 2740 0048 2B4B     		ldr	r3, .L171+16
 2741 004a D3ED027A 		vldr.32	s15, [r3, #8]
 2742 004e DFED270A 		vldr.32	s1, .L171+4
 2743 0052 F7EE002A 		vmov.f32	s5, #1.0e+0
 2744 0056 9FED292A 		vldr.32	s4, .L171+20
 2745 005a F0EE601A 		vmov.f32	s3, s1
 2746 005e 30EE670A 		vsub.f32	s0, s0, s15
 2747 0062 FFF7FEFF 		bl	Control_StrCalculator
 2748              	.LVL167:
 612:Src/motion.c  ****         Control_AngCalculator(0, 0, 0, 0, 1, 0);
 2749              		.loc 1 612 0
 2750 0066 9FED260A 		vldr.32	s0, .L171+24
 2751 006a F0EE402A 		vmov.f32	s5, s0
 2752 006e B7EE002A 		vmov.f32	s4, #1.0e+0
ARM GAS  C:\Users\kotaro\AppData\Local\Temp\cc7z3AXq.s 			page 60


 2753 0072 F0EE401A 		vmov.f32	s3, s0
 2754 0076 B0EE401A 		vmov.f32	s2, s0
 2755 007a F0EE400A 		vmov.f32	s1, s0
 2756 007e FFF7FEFF 		bl	Control_AngCalculator
 2757              	.LVL168:
 613:Src/motion.c  ****         motion_end_flag = FALSE;
 2758              		.loc 1 613 0
 2759 0082 204B     		ldr	r3, .L171+28
 2760 0084 0022     		movs	r2, #0
 2761 0086 1A70     		strb	r2, [r3]
 2762              	.L167:
 614:Src/motion.c  ****         while (motion_end_flag == FALSE)
 2763              		.loc 1 614 0 discriminator 1
 2764 0088 1E4B     		ldr	r3, .L171+28
 2765 008a 1B78     		ldrb	r3, [r3]	@ zero_extendqisi2
 2766 008c 002B     		cmp	r3, #0
 2767 008e FBD0     		beq	.L167
 2768              	.L165:
 2769              	.LBE4:
 615:Src/motion.c  ****         {
 616:Src/motion.c  ****         }
 617:Src/motion.c  ****     }
 618:Src/motion.c  ****     Control_WallEdgeAble(0b0100);
 2770              		.loc 1 618 0
 2771 0090 0420     		movs	r0, #4
 2772 0092 FFF7FEFF 		bl	Control_WallEdgeAble
 2773              	.LVL169:
 619:Src/motion.c  ****     Control_StrCalculator(diagonal_step, VELO_F, VELO_F, VELO_F, 6000.0f, 1); //20
 2774              		.loc 1 619 0
 2775 0096 DFED150A 		vldr.32	s1, .L171+4
 2776 009a F7EE002A 		vmov.f32	s5, #1.0e+0
 2777 009e 9FED172A 		vldr.32	s4, .L171+20
 2778 00a2 F0EE601A 		vmov.f32	s3, s1
 2779 00a6 B0EE601A 		vmov.f32	s2, s1
 2780 00aa 124B     		ldr	r3, .L171+12
 2781 00ac 93ED000A 		vldr.32	s0, [r3]
 2782 00b0 FFF7FEFF 		bl	Control_StrCalculator
 2783              	.LVL170:
 620:Src/motion.c  ****     Control_AngCalculator(0, 0, 0, 0, 1, 0);
 2784              		.loc 1 620 0
 2785 00b4 9FED120A 		vldr.32	s0, .L171+24
 2786 00b8 F0EE402A 		vmov.f32	s5, s0
 2787 00bc B7EE002A 		vmov.f32	s4, #1.0e+0
 2788 00c0 F0EE401A 		vmov.f32	s3, s0
 2789 00c4 B0EE401A 		vmov.f32	s2, s0
 2790 00c8 F0EE400A 		vmov.f32	s1, s0
 2791 00cc FFF7FEFF 		bl	Control_AngCalculator
 2792              	.LVL171:
 621:Src/motion.c  ****     motion_end_flag = FALSE;
 2793              		.loc 1 621 0
 2794 00d0 0C4B     		ldr	r3, .L171+28
 2795 00d2 0022     		movs	r2, #0
 2796 00d4 1A70     		strb	r2, [r3]
 2797              	.L168:
 622:Src/motion.c  ****     while (motion_end_flag == FALSE)
 2798              		.loc 1 622 0 discriminator 1
 2799 00d6 0B4B     		ldr	r3, .L171+28
ARM GAS  C:\Users\kotaro\AppData\Local\Temp\cc7z3AXq.s 			page 61


 2800 00d8 1B78     		ldrb	r3, [r3]	@ zero_extendqisi2
 2801 00da 002B     		cmp	r3, #0
 2802 00dc FBD0     		beq	.L168
 623:Src/motion.c  ****     {
 624:Src/motion.c  ****     }
 625:Src/motion.c  ****     enc.offset = 0.0f;
 2803              		.loc 1 625 0
 2804 00de 064B     		ldr	r3, .L171+16
 2805 00e0 0022     		movs	r2, #0
 2806 00e2 9A60     		str	r2, [r3, #8]	@ float
 626:Src/motion.c  **** }
 2807              		.loc 1 626 0
 2808 00e4 08BD     		pop	{r3, pc}
 2809              	.L172:
 2810 00e6 00BF     		.align	2
 2811              	.L171:
 2812 00e8 00000000 		.word	.LANCHOR0
 2813 00ec 00004844 		.word	1145569280
 2814 00f0 00001645 		.word	1159069696
 2815 00f4 00000000 		.word	.LANCHOR2
 2816 00f8 00000000 		.word	enc
 2817 00fc 0080BB45 		.word	1169915904
 2818 0100 00000000 		.word	0
 2819 0104 00000000 		.word	motion_end_flag
 2820              		.cfi_endproc
 2821              	.LFE179:
 2823              		.section	.text.Motion_DiagonalStart,"ax",%progbits
 2824              		.align	1
 2825              		.global	Motion_DiagonalStart
 2826              		.syntax unified
 2827              		.thumb
 2828              		.thumb_func
 2829              		.fpu fpv4-sp-d16
 2831              	Motion_DiagonalStart:
 2832              	.LFB180:
 627:Src/motion.c  **** 
 628:Src/motion.c  **** void Motion_DiagonalStart(void)
 629:Src/motion.c  **** {
 2833              		.loc 1 629 0
 2834              		.cfi_startproc
 2835              		@ args = 0, pretend = 0, frame = 0
 2836              		@ frame_needed = 0, uses_anonymous_args = 0
 2837 0000 08B5     		push	{r3, lr}
 2838              	.LCFI45:
 2839              		.cfi_def_cfa_offset 8
 2840              		.cfi_offset 3, -8
 2841              		.cfi_offset 14, -4
 2842 0002 2DED028B 		vpush.64	{d8}
 2843              	.LCFI46:
 2844              		.cfi_def_cfa_offset 16
 2845              		.cfi_offset 80, -16
 2846              		.cfi_offset 81, -12
 630:Src/motion.c  ****     Control_ResetVelo();
 2847              		.loc 1 630 0
 2848 0006 FFF7FEFF 		bl	Control_ResetVelo
 2849              	.LVL172:
 631:Src/motion.c  ****     diagonal_step = 90.0f * sqrt(2);
ARM GAS  C:\Users\kotaro\AppData\Local\Temp\cc7z3AXq.s 			page 62


 2850              		.loc 1 631 0
 2851 000a 174B     		ldr	r3, .L176
 2852 000c 174A     		ldr	r2, .L176+4
 2853 000e 1A60     		str	r2, [r3]	@ float
 632:Src/motion.c  ****     Control_StrCalculator(diagonal_step * 2.0f, 0, VELO_F, VELO_F, ACCEL_F, 1);
 2854              		.loc 1 632 0
 2855 0010 9FED171A 		vldr.32	s2, .L176+8
 2856 0014 9FED178A 		vldr.32	s16, .L176+12
 2857 0018 F7EE002A 		vmov.f32	s5, #1.0e+0
 2858 001c 9FED162A 		vldr.32	s4, .L176+16
 2859 0020 F0EE411A 		vmov.f32	s3, s2
 2860 0024 F0EE480A 		vmov.f32	s1, s16
 2861 0028 9FED140A 		vldr.32	s0, .L176+20
 2862 002c FFF7FEFF 		bl	Control_StrCalculator
 2863              	.LVL173:
 633:Src/motion.c  ****     Control_AngCalculator(0, 0, 0, 0, 1, 0);
 2864              		.loc 1 633 0
 2865 0030 F0EE482A 		vmov.f32	s5, s16
 2866 0034 B7EE002A 		vmov.f32	s4, #1.0e+0
 2867 0038 F0EE481A 		vmov.f32	s3, s16
 2868 003c B0EE481A 		vmov.f32	s2, s16
 2869 0040 F0EE480A 		vmov.f32	s1, s16
 2870 0044 B0EE480A 		vmov.f32	s0, s16
 2871 0048 FFF7FEFF 		bl	Control_AngCalculator
 2872              	.LVL174:
 634:Src/motion.c  ****     motion_end_flag = FALSE;
 2873              		.loc 1 634 0
 2874 004c 0C4B     		ldr	r3, .L176+24
 2875 004e 0022     		movs	r2, #0
 2876 0050 1A70     		strb	r2, [r3]
 2877              	.L174:
 635:Src/motion.c  ****     while (motion_end_flag == FALSE)
 2878              		.loc 1 635 0 discriminator 1
 2879 0052 0B4B     		ldr	r3, .L176+24
 2880 0054 1B78     		ldrb	r3, [r3]	@ zero_extendqisi2
 2881 0056 002B     		cmp	r3, #0
 2882 0058 FBD0     		beq	.L174
 636:Src/motion.c  ****     {
 637:Src/motion.c  ****     }
 638:Src/motion.c  ****     enc.offset = 0;
 2883              		.loc 1 638 0
 2884 005a 0A4B     		ldr	r3, .L176+28
 2885 005c 0022     		movs	r2, #0
 2886 005e 9A60     		str	r2, [r3, #8]	@ float
 639:Src/motion.c  **** }
 2887              		.loc 1 639 0
 2888 0060 BDEC028B 		vldm	sp!, {d8}
 2889              	.LCFI47:
 2890              		.cfi_restore 80
 2891              		.cfi_restore 81
 2892              		.cfi_def_cfa_offset 8
 2893 0064 08BD     		pop	{r3, pc}
 2894              	.L177:
 2895 0066 00BF     		.align	2
 2896              	.L176:
 2897 0068 00000000 		.word	.LANCHOR2
 2898 006c F68EFE42 		.word	1123978998
ARM GAS  C:\Users\kotaro\AppData\Local\Temp\cc7z3AXq.s 			page 63


 2899 0070 00004844 		.word	1145569280
 2900 0074 00000000 		.word	0
 2901 0078 0000FA45 		.word	1174011904
 2902 007c F68E7E43 		.word	1132367606
 2903 0080 00000000 		.word	motion_end_flag
 2904 0084 00000000 		.word	enc
 2905              		.cfi_endproc
 2906              	.LFE180:
 2908              		.section	.text.Motion_DiagonalStop,"ax",%progbits
 2909              		.align	1
 2910              		.global	Motion_DiagonalStop
 2911              		.syntax unified
 2912              		.thumb
 2913              		.thumb_func
 2914              		.fpu fpv4-sp-d16
 2916              	Motion_DiagonalStop:
 2917              	.LFB181:
 640:Src/motion.c  **** 
 641:Src/motion.c  **** void Motion_DiagonalStop(void)
 642:Src/motion.c  **** {
 2918              		.loc 1 642 0
 2919              		.cfi_startproc
 2920              		@ args = 0, pretend = 0, frame = 0
 2921              		@ frame_needed = 0, uses_anonymous_args = 0
 2922 0000 08B5     		push	{r3, lr}
 2923              	.LCFI48:
 2924              		.cfi_def_cfa_offset 8
 2925              		.cfi_offset 3, -8
 2926              		.cfi_offset 14, -4
 2927 0002 2DED028B 		vpush.64	{d8}
 2928              	.LCFI49:
 2929              		.cfi_def_cfa_offset 16
 2930              		.cfi_offset 80, -16
 2931              		.cfi_offset 81, -12
 643:Src/motion.c  ****     Control_StrCalculator(diagonal_step * 2.0f - enc.offset, VELO_F, VELO_F, 0, ACCEL_F, 1);
 2932              		.loc 1 643 0
 2933 0006 1E4B     		ldr	r3, .L181
 2934 0008 93ED000A 		vldr.32	s0, [r3]
 2935 000c 30EE000A 		vadd.f32	s0, s0, s0
 2936 0010 1C4B     		ldr	r3, .L181+4
 2937 0012 D3ED027A 		vldr.32	s15, [r3, #8]
 2938 0016 9FED1C8A 		vldr.32	s16, .L181+8
 2939 001a DFED1C0A 		vldr.32	s1, .L181+12
 2940 001e F7EE002A 		vmov.f32	s5, #1.0e+0
 2941 0022 9FED1B2A 		vldr.32	s4, .L181+16
 2942 0026 F0EE481A 		vmov.f32	s3, s16
 2943 002a B0EE601A 		vmov.f32	s2, s1
 2944 002e 30EE670A 		vsub.f32	s0, s0, s15
 2945 0032 FFF7FEFF 		bl	Control_StrCalculator
 2946              	.LVL175:
 644:Src/motion.c  ****     Control_AngCalculator(0, 0, 0, 0, 1, 0);
 2947              		.loc 1 644 0
 2948 0036 F0EE482A 		vmov.f32	s5, s16
 2949 003a B7EE002A 		vmov.f32	s4, #1.0e+0
 2950 003e F0EE481A 		vmov.f32	s3, s16
 2951 0042 B0EE481A 		vmov.f32	s2, s16
 2952 0046 F0EE480A 		vmov.f32	s1, s16
ARM GAS  C:\Users\kotaro\AppData\Local\Temp\cc7z3AXq.s 			page 64


 2953 004a B0EE480A 		vmov.f32	s0, s16
 2954 004e FFF7FEFF 		bl	Control_AngCalculator
 2955              	.LVL176:
 645:Src/motion.c  ****     motion_end_flag = FALSE;
 2956              		.loc 1 645 0
 2957 0052 104B     		ldr	r3, .L181+20
 2958 0054 0022     		movs	r2, #0
 2959 0056 1A70     		strb	r2, [r3]
 2960              	.L179:
 646:Src/motion.c  ****     while (motion_end_flag == FALSE)
 2961              		.loc 1 646 0 discriminator 1
 2962 0058 0E4B     		ldr	r3, .L181+20
 2963 005a 1B78     		ldrb	r3, [r3]	@ zero_extendqisi2
 2964 005c 002B     		cmp	r3, #0
 2965 005e FBD0     		beq	.L179
 647:Src/motion.c  ****     {
 648:Src/motion.c  ****     }
 649:Src/motion.c  ****     straight.v_now = 0;
 2966              		.loc 1 649 0
 2967 0060 0023     		movs	r3, #0
 2968 0062 0D4A     		ldr	r2, .L181+24
 2969 0064 D360     		str	r3, [r2, #12]	@ float
 650:Src/motion.c  ****     angle.v_now = 0;
 2970              		.loc 1 650 0
 2971 0066 0D4A     		ldr	r2, .L181+28
 2972 0068 D360     		str	r3, [r2, #12]	@ float
 651:Src/motion.c  ****     error_ang_sum = 0.0f;
 2973              		.loc 1 651 0
 2974 006a 0D4A     		ldr	r2, .L181+32
 2975 006c 1360     		str	r3, [r2]	@ float
 652:Src/motion.c  ****     error_ang_old = 0.0f;
 2976              		.loc 1 652 0
 2977 006e 0D4A     		ldr	r2, .L181+36
 2978 0070 1360     		str	r3, [r2]	@ float
 653:Src/motion.c  ****     HAL_Delay(500);
 2979              		.loc 1 653 0
 2980 0072 4FF4FA70 		mov	r0, #500
 2981 0076 FFF7FEFF 		bl	HAL_Delay
 2982              	.LVL177:
 654:Src/motion.c  **** }
 2983              		.loc 1 654 0
 2984 007a BDEC028B 		vldm	sp!, {d8}
 2985              	.LCFI50:
 2986              		.cfi_restore 80
 2987              		.cfi_restore 81
 2988              		.cfi_def_cfa_offset 8
 2989 007e 08BD     		pop	{r3, pc}
 2990              	.L182:
 2991              		.align	2
 2992              	.L181:
 2993 0080 00000000 		.word	.LANCHOR2
 2994 0084 00000000 		.word	enc
 2995 0088 00000000 		.word	0
 2996 008c 00004844 		.word	1145569280
 2997 0090 0000FA45 		.word	1174011904
 2998 0094 00000000 		.word	motion_end_flag
 2999 0098 00000000 		.word	straight
ARM GAS  C:\Users\kotaro\AppData\Local\Temp\cc7z3AXq.s 			page 65


 3000 009c 00000000 		.word	angle
 3001 00a0 00000000 		.word	error_ang_sum
 3002 00a4 00000000 		.word	error_ang_old
 3003              		.cfi_endproc
 3004              	.LFE181:
 3006              		.section	.text.Motion_InLeft45Turn,"ax",%progbits
 3007              		.align	1
 3008              		.global	Motion_InLeft45Turn
 3009              		.syntax unified
 3010              		.thumb
 3011              		.thumb_func
 3012              		.fpu fpv4-sp-d16
 3014              	Motion_InLeft45Turn:
 3015              	.LFB182:
 655:Src/motion.c  **** 
 656:Src/motion.c  **** void Motion_InLeft45Turn(void)
 657:Src/motion.c  **** {
 3016              		.loc 1 657 0
 3017              		.cfi_startproc
 3018              		@ args = 0, pretend = 0, frame = 0
 3019              		@ frame_needed = 0, uses_anonymous_args = 0
 3020 0000 08B5     		push	{r3, lr}
 3021              	.LCFI51:
 3022              		.cfi_def_cfa_offset 8
 3023              		.cfi_offset 3, -8
 3024              		.cfi_offset 14, -4
 658:Src/motion.c  ****     //offset in
 659:Src/motion.c  ****     Control_StrCalculator(41.0f - enc.offset, VELO_F, VELO_F, VELO_F, ACCEL_F, 1); //
 3025              		.loc 1 659 0
 3026 0002 3C4B     		ldr	r3, .L188
 3027 0004 D3ED027A 		vldr.32	s15, [r3, #8]
 3028 0008 DFED3B0A 		vldr.32	s1, .L188+4
 3029 000c F7EE002A 		vmov.f32	s5, #1.0e+0
 3030 0010 9FED3A2A 		vldr.32	s4, .L188+8
 3031 0014 F0EE601A 		vmov.f32	s3, s1
 3032 0018 B0EE601A 		vmov.f32	s2, s1
 3033 001c 9FED380A 		vldr.32	s0, .L188+12
 3034 0020 30EE670A 		vsub.f32	s0, s0, s15
 3035 0024 FFF7FEFF 		bl	Control_StrCalculator
 3036              	.LVL178:
 660:Src/motion.c  ****     Control_AngCalculator(0, 0, 0, 0, 1, 0);
 3037              		.loc 1 660 0
 3038 0028 9FED360A 		vldr.32	s0, .L188+16
 3039 002c F0EE402A 		vmov.f32	s5, s0
 3040 0030 B7EE002A 		vmov.f32	s4, #1.0e+0
 3041 0034 F0EE401A 		vmov.f32	s3, s0
 3042 0038 B0EE401A 		vmov.f32	s2, s0
 3043 003c F0EE400A 		vmov.f32	s1, s0
 3044 0040 FFF7FEFF 		bl	Control_AngCalculator
 3045              	.LVL179:
 661:Src/motion.c  ****     motion_end_flag = FALSE;
 3046              		.loc 1 661 0
 3047 0044 304B     		ldr	r3, .L188+20
 3048 0046 0022     		movs	r2, #0
 3049 0048 1A70     		strb	r2, [r3]
 3050              	.L184:
 662:Src/motion.c  ****     while (motion_end_flag == FALSE)
ARM GAS  C:\Users\kotaro\AppData\Local\Temp\cc7z3AXq.s 			page 66


 3051              		.loc 1 662 0 discriminator 1
 3052 004a 2F4B     		ldr	r3, .L188+20
 3053 004c 1B78     		ldrb	r3, [r3]	@ zero_extendqisi2
 3054 004e 002B     		cmp	r3, #0
 3055 0050 FBD0     		beq	.L184
 663:Src/motion.c  ****     {
 664:Src/motion.c  ****     }
 665:Src/motion.c  ****     //turn
 666:Src/motion.c  ****     Control_StrCalculator(800.0f, VELO_F, VELO_F, VELO_F, 1, 1);
 3056              		.loc 1 666 0
 3057 0052 9FED290A 		vldr.32	s0, .L188+4
 3058 0056 F7EE002A 		vmov.f32	s5, #1.0e+0
 3059 005a B0EE622A 		vmov.f32	s4, s5
 3060 005e F0EE401A 		vmov.f32	s3, s0
 3061 0062 B0EE401A 		vmov.f32	s2, s0
 3062 0066 F0EE400A 		vmov.f32	s1, s0
 3063 006a FFF7FEFF 		bl	Control_StrCalculator
 3064              	.LVL180:
 667:Src/motion.c  ****     Control_AngCalculator(45.0f, 0, 600.0f, 0, 20000.0f, 1);
 3065              		.loc 1 667 0
 3066 006e DFED250A 		vldr.32	s1, .L188+16
 3067 0072 F7EE002A 		vmov.f32	s5, #1.0e+0
 3068 0076 9FED252A 		vldr.32	s4, .L188+24
 3069 007a F0EE601A 		vmov.f32	s3, s1
 3070 007e 9FED241A 		vldr.32	s2, .L188+28
 3071 0082 9FED240A 		vldr.32	s0, .L188+32
 3072 0086 FFF7FEFF 		bl	Control_AngCalculator
 3073              	.LVL181:
 668:Src/motion.c  ****     motion_end_flag = FALSE;
 3074              		.loc 1 668 0
 3075 008a 1F4B     		ldr	r3, .L188+20
 3076 008c 0022     		movs	r2, #0
 3077 008e 1A70     		strb	r2, [r3]
 3078              	.L185:
 669:Src/motion.c  ****     while (motion_end_flag == FALSE)
 3079              		.loc 1 669 0 discriminator 1
 3080 0090 1D4B     		ldr	r3, .L188+20
 3081 0092 1B78     		ldrb	r3, [r3]	@ zero_extendqisi2
 3082 0094 002B     		cmp	r3, #0
 3083 0096 FBD0     		beq	.L185
 670:Src/motion.c  ****     {
 671:Src/motion.c  ****     }
 672:Src/motion.c  ****     //offset out
 673:Src/motion.c  ****     control_wall_flag = 3;
 3084              		.loc 1 673 0
 3085 0098 1F4B     		ldr	r3, .L188+36
 3086 009a 0322     		movs	r2, #3
 3087 009c 1A70     		strb	r2, [r3]
 674:Src/motion.c  ****     Control_WallEdgeAble(0b0100);
 3088              		.loc 1 674 0
 3089 009e 0420     		movs	r0, #4
 3090 00a0 FFF7FEFF 		bl	Control_WallEdgeAble
 3091              	.LVL182:
 675:Src/motion.c  ****     Control_StrCalculator(90.0f, VELO_F, VELO_F, VELO_F, 1, 1); //
 3092              		.loc 1 675 0
 3093 00a4 DFED140A 		vldr.32	s1, .L188+4
 3094 00a8 F7EE002A 		vmov.f32	s5, #1.0e+0
ARM GAS  C:\Users\kotaro\AppData\Local\Temp\cc7z3AXq.s 			page 67


 3095 00ac B0EE622A 		vmov.f32	s4, s5
 3096 00b0 F0EE601A 		vmov.f32	s3, s1
 3097 00b4 B0EE601A 		vmov.f32	s2, s1
 3098 00b8 9FED180A 		vldr.32	s0, .L188+40
 3099 00bc FFF7FEFF 		bl	Control_StrCalculator
 3100              	.LVL183:
 676:Src/motion.c  ****     Control_AngCalculator(0, 0, 0, 0, 1, 0);
 3101              		.loc 1 676 0
 3102 00c0 9FED100A 		vldr.32	s0, .L188+16
 3103 00c4 F0EE402A 		vmov.f32	s5, s0
 3104 00c8 B7EE002A 		vmov.f32	s4, #1.0e+0
 3105 00cc F0EE401A 		vmov.f32	s3, s0
 3106 00d0 B0EE401A 		vmov.f32	s2, s0
 3107 00d4 F0EE400A 		vmov.f32	s1, s0
 3108 00d8 FFF7FEFF 		bl	Control_AngCalculator
 3109              	.LVL184:
 677:Src/motion.c  ****     motion_end_flag = FALSE;
 3110              		.loc 1 677 0
 3111 00dc 0A4B     		ldr	r3, .L188+20
 3112 00de 0022     		movs	r2, #0
 3113 00e0 1A70     		strb	r2, [r3]
 3114              	.L186:
 678:Src/motion.c  ****     while (motion_end_flag == FALSE)
 3115              		.loc 1 678 0 discriminator 1
 3116 00e2 094B     		ldr	r3, .L188+20
 3117 00e4 1B78     		ldrb	r3, [r3]	@ zero_extendqisi2
 3118 00e6 002B     		cmp	r3, #0
 3119 00e8 FBD0     		beq	.L186
 679:Src/motion.c  ****     {
 680:Src/motion.c  ****     }
 681:Src/motion.c  ****     enc.offset = 0.0f;
 3120              		.loc 1 681 0
 3121 00ea 024B     		ldr	r3, .L188
 3122 00ec 0022     		movs	r2, #0
 3123 00ee 9A60     		str	r2, [r3, #8]	@ float
 682:Src/motion.c  **** }
 3124              		.loc 1 682 0
 3125 00f0 08BD     		pop	{r3, pc}
 3126              	.L189:
 3127 00f2 00BF     		.align	2
 3128              	.L188:
 3129 00f4 00000000 		.word	enc
 3130 00f8 00004844 		.word	1145569280
 3131 00fc 0000FA45 		.word	1174011904
 3132 0100 00002442 		.word	1109655552
 3133 0104 00000000 		.word	0
 3134 0108 00000000 		.word	motion_end_flag
 3135 010c 00409C46 		.word	1184645120
 3136 0110 00001644 		.word	1142292480
 3137 0114 00003442 		.word	1110704128
 3138 0118 00000000 		.word	control_wall_flag
 3139 011c 0000B442 		.word	1119092736
 3140              		.cfi_endproc
 3141              	.LFE182:
 3143              		.section	.text.Motion_InRight45Turn,"ax",%progbits
 3144              		.align	1
 3145              		.global	Motion_InRight45Turn
ARM GAS  C:\Users\kotaro\AppData\Local\Temp\cc7z3AXq.s 			page 68


 3146              		.syntax unified
 3147              		.thumb
 3148              		.thumb_func
 3149              		.fpu fpv4-sp-d16
 3151              	Motion_InRight45Turn:
 3152              	.LFB183:
 683:Src/motion.c  **** 
 684:Src/motion.c  **** void Motion_InRight45Turn(void)
 685:Src/motion.c  **** {
 3153              		.loc 1 685 0
 3154              		.cfi_startproc
 3155              		@ args = 0, pretend = 0, frame = 0
 3156              		@ frame_needed = 0, uses_anonymous_args = 0
 3157 0000 08B5     		push	{r3, lr}
 3158              	.LCFI52:
 3159              		.cfi_def_cfa_offset 8
 3160              		.cfi_offset 3, -8
 3161              		.cfi_offset 14, -4
 686:Src/motion.c  ****     //offset in
 687:Src/motion.c  ****     Control_StrCalculator(43.0f - enc.offset, VELO_F, VELO_F, VELO_F, ACCEL_F, 1); //43
 3162              		.loc 1 687 0
 3163 0002 3C4B     		ldr	r3, .L195
 3164 0004 D3ED027A 		vldr.32	s15, [r3, #8]
 3165 0008 DFED3B0A 		vldr.32	s1, .L195+4
 3166 000c F7EE002A 		vmov.f32	s5, #1.0e+0
 3167 0010 9FED3A2A 		vldr.32	s4, .L195+8
 3168 0014 F0EE601A 		vmov.f32	s3, s1
 3169 0018 B0EE601A 		vmov.f32	s2, s1
 3170 001c 9FED380A 		vldr.32	s0, .L195+12
 3171 0020 30EE670A 		vsub.f32	s0, s0, s15
 3172 0024 FFF7FEFF 		bl	Control_StrCalculator
 3173              	.LVL185:
 688:Src/motion.c  ****     Control_AngCalculator(0, 0, 0, 0, 1, 0);
 3174              		.loc 1 688 0
 3175 0028 9FED360A 		vldr.32	s0, .L195+16
 3176 002c F0EE402A 		vmov.f32	s5, s0
 3177 0030 B7EE002A 		vmov.f32	s4, #1.0e+0
 3178 0034 F0EE401A 		vmov.f32	s3, s0
 3179 0038 B0EE401A 		vmov.f32	s2, s0
 3180 003c F0EE400A 		vmov.f32	s1, s0
 3181 0040 FFF7FEFF 		bl	Control_AngCalculator
 3182              	.LVL186:
 689:Src/motion.c  ****     motion_end_flag = FALSE;
 3183              		.loc 1 689 0
 3184 0044 304B     		ldr	r3, .L195+20
 3185 0046 0022     		movs	r2, #0
 3186 0048 1A70     		strb	r2, [r3]
 3187              	.L191:
 690:Src/motion.c  ****     while (motion_end_flag == FALSE)
 3188              		.loc 1 690 0 discriminator 1
 3189 004a 2F4B     		ldr	r3, .L195+20
 3190 004c 1B78     		ldrb	r3, [r3]	@ zero_extendqisi2
 3191 004e 002B     		cmp	r3, #0
 3192 0050 FBD0     		beq	.L191
 691:Src/motion.c  ****     {
 692:Src/motion.c  ****     }
 693:Src/motion.c  ****     //turn
ARM GAS  C:\Users\kotaro\AppData\Local\Temp\cc7z3AXq.s 			page 69


 694:Src/motion.c  ****     Control_StrCalculator(800.0f, VELO_F, VELO_F, VELO_F, 1, 1);
 3193              		.loc 1 694 0
 3194 0052 9FED290A 		vldr.32	s0, .L195+4
 3195 0056 F7EE002A 		vmov.f32	s5, #1.0e+0
 3196 005a B0EE622A 		vmov.f32	s4, s5
 3197 005e F0EE401A 		vmov.f32	s3, s0
 3198 0062 B0EE401A 		vmov.f32	s2, s0
 3199 0066 F0EE400A 		vmov.f32	s1, s0
 3200 006a FFF7FEFF 		bl	Control_StrCalculator
 3201              	.LVL187:
 695:Src/motion.c  ****     Control_AngCalculator(45.0f, 0, 600.0f, 0, 20000.0f, -1);
 3202              		.loc 1 695 0
 3203 006e DFED250A 		vldr.32	s1, .L195+16
 3204 0072 FFEE002A 		vmov.f32	s5, #-1.0e+0
 3205 0076 9FED252A 		vldr.32	s4, .L195+24
 3206 007a F0EE601A 		vmov.f32	s3, s1
 3207 007e 9FED241A 		vldr.32	s2, .L195+28
 3208 0082 9FED240A 		vldr.32	s0, .L195+32
 3209 0086 FFF7FEFF 		bl	Control_AngCalculator
 3210              	.LVL188:
 696:Src/motion.c  ****     motion_end_flag = FALSE;
 3211              		.loc 1 696 0
 3212 008a 1F4B     		ldr	r3, .L195+20
 3213 008c 0022     		movs	r2, #0
 3214 008e 1A70     		strb	r2, [r3]
 3215              	.L192:
 697:Src/motion.c  ****     while (motion_end_flag == FALSE)
 3216              		.loc 1 697 0 discriminator 1
 3217 0090 1D4B     		ldr	r3, .L195+20
 3218 0092 1B78     		ldrb	r3, [r3]	@ zero_extendqisi2
 3219 0094 002B     		cmp	r3, #0
 3220 0096 FBD0     		beq	.L192
 698:Src/motion.c  ****     {
 699:Src/motion.c  ****     }
 700:Src/motion.c  ****     //offset out
 701:Src/motion.c  ****     control_wall_flag = 3;
 3221              		.loc 1 701 0
 3222 0098 1F4B     		ldr	r3, .L195+36
 3223 009a 0322     		movs	r2, #3
 3224 009c 1A70     		strb	r2, [r3]
 702:Src/motion.c  ****     Control_WallEdgeAble(0b1000);
 3225              		.loc 1 702 0
 3226 009e 0820     		movs	r0, #8
 3227 00a0 FFF7FEFF 		bl	Control_WallEdgeAble
 3228              	.LVL189:
 703:Src/motion.c  ****     Control_StrCalculator(93.0f, VELO_F, VELO_F, VELO_F, 1, 1); //17
 3229              		.loc 1 703 0
 3230 00a4 DFED140A 		vldr.32	s1, .L195+4
 3231 00a8 F7EE002A 		vmov.f32	s5, #1.0e+0
 3232 00ac B0EE622A 		vmov.f32	s4, s5
 3233 00b0 F0EE601A 		vmov.f32	s3, s1
 3234 00b4 B0EE601A 		vmov.f32	s2, s1
 3235 00b8 9FED180A 		vldr.32	s0, .L195+40
 3236 00bc FFF7FEFF 		bl	Control_StrCalculator
 3237              	.LVL190:
 704:Src/motion.c  ****     Control_AngCalculator(0, 0, 0, 0, 1, 0);
 3238              		.loc 1 704 0
ARM GAS  C:\Users\kotaro\AppData\Local\Temp\cc7z3AXq.s 			page 70


 3239 00c0 9FED100A 		vldr.32	s0, .L195+16
 3240 00c4 F0EE402A 		vmov.f32	s5, s0
 3241 00c8 B7EE002A 		vmov.f32	s4, #1.0e+0
 3242 00cc F0EE401A 		vmov.f32	s3, s0
 3243 00d0 B0EE401A 		vmov.f32	s2, s0
 3244 00d4 F0EE400A 		vmov.f32	s1, s0
 3245 00d8 FFF7FEFF 		bl	Control_AngCalculator
 3246              	.LVL191:
 705:Src/motion.c  ****     motion_end_flag = FALSE;
 3247              		.loc 1 705 0
 3248 00dc 0A4B     		ldr	r3, .L195+20
 3249 00de 0022     		movs	r2, #0
 3250 00e0 1A70     		strb	r2, [r3]
 3251              	.L193:
 706:Src/motion.c  ****     while (motion_end_flag == FALSE)
 3252              		.loc 1 706 0 discriminator 1
 3253 00e2 094B     		ldr	r3, .L195+20
 3254 00e4 1B78     		ldrb	r3, [r3]	@ zero_extendqisi2
 3255 00e6 002B     		cmp	r3, #0
 3256 00e8 FBD0     		beq	.L193
 707:Src/motion.c  ****     {
 708:Src/motion.c  ****     }
 709:Src/motion.c  ****     enc.offset = 0.0f;
 3257              		.loc 1 709 0
 3258 00ea 024B     		ldr	r3, .L195
 3259 00ec 0022     		movs	r2, #0
 3260 00ee 9A60     		str	r2, [r3, #8]	@ float
 710:Src/motion.c  **** }
 3261              		.loc 1 710 0
 3262 00f0 08BD     		pop	{r3, pc}
 3263              	.L196:
 3264 00f2 00BF     		.align	2
 3265              	.L195:
 3266 00f4 00000000 		.word	enc
 3267 00f8 00004844 		.word	1145569280
 3268 00fc 0000FA45 		.word	1174011904
 3269 0100 00002C42 		.word	1110179840
 3270 0104 00000000 		.word	0
 3271 0108 00000000 		.word	motion_end_flag
 3272 010c 00409C46 		.word	1184645120
 3273 0110 00001644 		.word	1142292480
 3274 0114 00003442 		.word	1110704128
 3275 0118 00000000 		.word	control_wall_flag
 3276 011c 0000BA42 		.word	1119485952
 3277              		.cfi_endproc
 3278              	.LFE183:
 3280              		.section	.text.Motion_OutLeft45Turn,"ax",%progbits
 3281              		.align	1
 3282              		.global	Motion_OutLeft45Turn
 3283              		.syntax unified
 3284              		.thumb
 3285              		.thumb_func
 3286              		.fpu fpv4-sp-d16
 3288              	Motion_OutLeft45Turn:
 3289              	.LFB184:
 711:Src/motion.c  **** 
 712:Src/motion.c  **** void Motion_OutLeft45Turn(float v_end)
ARM GAS  C:\Users\kotaro\AppData\Local\Temp\cc7z3AXq.s 			page 71


 713:Src/motion.c  **** {
 3290              		.loc 1 713 0
 3291              		.cfi_startproc
 3292              		@ args = 0, pretend = 0, frame = 0
 3293              		@ frame_needed = 0, uses_anonymous_args = 0
 3294              	.LVL192:
 3295 0000 08B5     		push	{r3, lr}
 3296              	.LCFI53:
 3297              		.cfi_def_cfa_offset 8
 3298              		.cfi_offset 3, -8
 3299              		.cfi_offset 14, -4
 3300 0002 2DED028B 		vpush.64	{d8}
 3301              	.LCFI54:
 3302              		.cfi_def_cfa_offset 16
 3303              		.cfi_offset 80, -16
 3304              		.cfi_offset 81, -12
 3305 0006 B0EE408A 		vmov.f32	s16, s0
 714:Src/motion.c  ****     //offset in
 715:Src/motion.c  ****     Control_StrCalculator(79.0f - enc.offset, VELO_F, VELO_F, VELO_F, 1, 1); //77
 3306              		.loc 1 715 0
 3307 000a 584B     		ldr	r3, .L205
 3308 000c D3ED027A 		vldr.32	s15, [r3, #8]
 3309 0010 DFED570A 		vldr.32	s1, .L205+4
 3310 0014 F7EE002A 		vmov.f32	s5, #1.0e+0
 3311 0018 B0EE622A 		vmov.f32	s4, s5
 3312 001c F0EE601A 		vmov.f32	s3, s1
 3313 0020 B0EE601A 		vmov.f32	s2, s1
 3314 0024 9FED530A 		vldr.32	s0, .L205+8
 3315              	.LVL193:
 3316 0028 30EE670A 		vsub.f32	s0, s0, s15
 3317 002c FFF7FEFF 		bl	Control_StrCalculator
 3318              	.LVL194:
 716:Src/motion.c  ****     Control_AngCalculator(0, 0, 0, 0, 1, 0);
 3319              		.loc 1 716 0
 3320 0030 9FED510A 		vldr.32	s0, .L205+12
 3321 0034 F0EE402A 		vmov.f32	s5, s0
 3322 0038 B7EE002A 		vmov.f32	s4, #1.0e+0
 3323 003c F0EE401A 		vmov.f32	s3, s0
 3324 0040 B0EE401A 		vmov.f32	s2, s0
 3325 0044 F0EE400A 		vmov.f32	s1, s0
 3326 0048 FFF7FEFF 		bl	Control_AngCalculator
 3327              	.LVL195:
 717:Src/motion.c  ****     motion_end_flag = FALSE;
 3328              		.loc 1 717 0
 3329 004c 4B4B     		ldr	r3, .L205+16
 3330 004e 0022     		movs	r2, #0
 3331 0050 1A70     		strb	r2, [r3]
 3332              	.L198:
 718:Src/motion.c  ****     while (motion_end_flag == FALSE)
 3333              		.loc 1 718 0 discriminator 1
 3334 0052 4A4B     		ldr	r3, .L205+16
 3335 0054 1B78     		ldrb	r3, [r3]	@ zero_extendqisi2
 3336 0056 002B     		cmp	r3, #0
 3337 0058 FBD0     		beq	.L198
 719:Src/motion.c  ****     {
 720:Src/motion.c  ****     }
 721:Src/motion.c  ****     //turn
ARM GAS  C:\Users\kotaro\AppData\Local\Temp\cc7z3AXq.s 			page 72


 722:Src/motion.c  ****     Control_StrCalculator(800.0f, VELO_F, VELO_F, VELO_F, 1, 1);
 3338              		.loc 1 722 0
 3339 005a 9FED450A 		vldr.32	s0, .L205+4
 3340 005e F7EE002A 		vmov.f32	s5, #1.0e+0
 3341 0062 B0EE622A 		vmov.f32	s4, s5
 3342 0066 F0EE401A 		vmov.f32	s3, s0
 3343 006a B0EE401A 		vmov.f32	s2, s0
 3344 006e F0EE400A 		vmov.f32	s1, s0
 3345 0072 FFF7FEFF 		bl	Control_StrCalculator
 3346              	.LVL196:
 723:Src/motion.c  ****     Control_AngCalculator(45.5f, 0, 600.0f, 0, 20000.0f, 1);
 3347              		.loc 1 723 0
 3348 0076 DFED400A 		vldr.32	s1, .L205+12
 3349 007a F7EE002A 		vmov.f32	s5, #1.0e+0
 3350 007e 9FED402A 		vldr.32	s4, .L205+20
 3351 0082 F0EE601A 		vmov.f32	s3, s1
 3352 0086 9FED3F1A 		vldr.32	s2, .L205+24
 3353 008a 9FED3F0A 		vldr.32	s0, .L205+28
 3354 008e FFF7FEFF 		bl	Control_AngCalculator
 3355              	.LVL197:
 724:Src/motion.c  ****     motion_end_flag = FALSE;
 3356              		.loc 1 724 0
 3357 0092 3A4B     		ldr	r3, .L205+16
 3358 0094 0022     		movs	r2, #0
 3359 0096 1A70     		strb	r2, [r3]
 3360              	.L199:
 725:Src/motion.c  ****     while (motion_end_flag == FALSE)
 3361              		.loc 1 725 0 discriminator 1
 3362 0098 384B     		ldr	r3, .L205+16
 3363 009a 1B78     		ldrb	r3, [r3]	@ zero_extendqisi2
 3364 009c 002B     		cmp	r3, #0
 3365 009e FBD0     		beq	.L199
 726:Src/motion.c  ****     {
 727:Src/motion.c  ****     }
 728:Src/motion.c  ****     control_wall_flag = 2;
 3366              		.loc 1 728 0
 3367 00a0 3A4B     		ldr	r3, .L205+32
 3368 00a2 0222     		movs	r2, #2
 3369 00a4 1A70     		strb	r2, [r3]
 729:Src/motion.c  ****     //offset out
 730:Src/motion.c  ****     if (v_end == 0.0f)
 3370              		.loc 1 730 0
 3371 00a6 B5EE408A 		vcmp.f32	s16, #0
 3372 00aa F1EE10FA 		vmrs	APSR_nzcv, FPSCR
 3373 00ae 32D1     		bne	.L200
 731:Src/motion.c  ****     {
 732:Src/motion.c  ****         Control_StrCalculator(50.0f, VELO_F, VELO_F, 0.0f, 10000.0f, 1); //110
 3374              		.loc 1 732 0
 3375 00b0 9FED318A 		vldr.32	s16, .L205+12
 3376              	.LVL198:
 3377 00b4 DFED2E0A 		vldr.32	s1, .L205+4
 3378 00b8 F7EE002A 		vmov.f32	s5, #1.0e+0
 3379 00bc 9FED342A 		vldr.32	s4, .L205+36
 3380 00c0 F0EE481A 		vmov.f32	s3, s16
 3381 00c4 B0EE601A 		vmov.f32	s2, s1
 3382 00c8 9FED320A 		vldr.32	s0, .L205+40
 3383 00cc FFF7FEFF 		bl	Control_StrCalculator
ARM GAS  C:\Users\kotaro\AppData\Local\Temp\cc7z3AXq.s 			page 73


 3384              	.LVL199:
 733:Src/motion.c  ****         Control_AngCalculator(0, 0, 0, 0, 1, 0);
 3385              		.loc 1 733 0
 3386 00d0 F0EE482A 		vmov.f32	s5, s16
 3387 00d4 B7EE002A 		vmov.f32	s4, #1.0e+0
 3388 00d8 F0EE481A 		vmov.f32	s3, s16
 3389 00dc B0EE481A 		vmov.f32	s2, s16
 3390 00e0 F0EE480A 		vmov.f32	s1, s16
 3391 00e4 B0EE480A 		vmov.f32	s0, s16
 3392 00e8 FFF7FEFF 		bl	Control_AngCalculator
 3393              	.LVL200:
 734:Src/motion.c  ****         motion_end_flag = FALSE;
 3394              		.loc 1 734 0
 3395 00ec 234B     		ldr	r3, .L205+16
 3396 00ee 0022     		movs	r2, #0
 3397 00f0 1A70     		strb	r2, [r3]
 3398              	.L201:
 735:Src/motion.c  ****         while (motion_end_flag == FALSE)
 3399              		.loc 1 735 0 discriminator 1
 3400 00f2 224B     		ldr	r3, .L205+16
 3401 00f4 1B78     		ldrb	r3, [r3]	@ zero_extendqisi2
 3402 00f6 002B     		cmp	r3, #0
 3403 00f8 FBD0     		beq	.L201
 736:Src/motion.c  ****         {
 737:Src/motion.c  ****         }
 738:Src/motion.c  ****         enc.offset = 0.0f;
 3404              		.loc 1 738 0
 3405 00fa 0023     		movs	r3, #0
 3406 00fc 1B4A     		ldr	r2, .L205
 3407 00fe 9360     		str	r3, [r2, #8]	@ float
 739:Src/motion.c  ****         straight.v_now = 0;
 3408              		.loc 1 739 0
 3409 0100 254A     		ldr	r2, .L205+44
 3410 0102 D360     		str	r3, [r2, #12]	@ float
 740:Src/motion.c  ****         angle.v_now = 0;
 3411              		.loc 1 740 0
 3412 0104 254A     		ldr	r2, .L205+48
 3413 0106 D360     		str	r3, [r2, #12]	@ float
 741:Src/motion.c  ****         HAL_Delay(800);
 3414              		.loc 1 741 0
 3415 0108 4FF44870 		mov	r0, #800
 3416 010c FFF7FEFF 		bl	HAL_Delay
 3417              	.LVL201:
 3418              	.L197:
 742:Src/motion.c  ****     }
 743:Src/motion.c  ****     else
 744:Src/motion.c  ****     {
 745:Src/motion.c  ****         Control_WallEdgeAble(0b11);
 746:Src/motion.c  ****         Control_StrCalculator(50.0f, VELO_F, VELO_F, v_end, 1, 1); //110
 747:Src/motion.c  ****         Control_AngCalculator(0, 0, 0, 0, 1, 0);
 748:Src/motion.c  ****         motion_end_flag = FALSE;
 749:Src/motion.c  ****         while (motion_end_flag == FALSE)
 750:Src/motion.c  ****         {
 751:Src/motion.c  ****         }
 752:Src/motion.c  ****         enc.offset = 0.0f;
 753:Src/motion.c  ****     }
 754:Src/motion.c  **** }
ARM GAS  C:\Users\kotaro\AppData\Local\Temp\cc7z3AXq.s 			page 74


 3419              		.loc 1 754 0
 3420 0110 BDEC028B 		vldm	sp!, {d8}
 3421              	.LCFI55:
 3422              		.cfi_remember_state
 3423              		.cfi_restore 80
 3424              		.cfi_restore 81
 3425              		.cfi_def_cfa_offset 8
 3426 0114 08BD     		pop	{r3, pc}
 3427              	.LVL202:
 3428              	.L200:
 3429              	.LCFI56:
 3430              		.cfi_restore_state
 745:Src/motion.c  ****         Control_StrCalculator(50.0f, VELO_F, VELO_F, v_end, 1, 1); //110
 3431              		.loc 1 745 0
 3432 0116 0320     		movs	r0, #3
 3433 0118 FFF7FEFF 		bl	Control_WallEdgeAble
 3434              	.LVL203:
 746:Src/motion.c  ****         Control_AngCalculator(0, 0, 0, 0, 1, 0);
 3435              		.loc 1 746 0
 3436 011c DFED140A 		vldr.32	s1, .L205+4
 3437 0120 F7EE002A 		vmov.f32	s5, #1.0e+0
 3438 0124 B0EE622A 		vmov.f32	s4, s5
 3439 0128 F0EE481A 		vmov.f32	s3, s16
 3440 012c B0EE601A 		vmov.f32	s2, s1
 3441 0130 9FED180A 		vldr.32	s0, .L205+40
 3442 0134 FFF7FEFF 		bl	Control_StrCalculator
 3443              	.LVL204:
 747:Src/motion.c  ****         motion_end_flag = FALSE;
 3444              		.loc 1 747 0
 3445 0138 9FED0F0A 		vldr.32	s0, .L205+12
 3446 013c F0EE402A 		vmov.f32	s5, s0
 3447 0140 B7EE002A 		vmov.f32	s4, #1.0e+0
 3448 0144 F0EE401A 		vmov.f32	s3, s0
 3449 0148 B0EE401A 		vmov.f32	s2, s0
 3450 014c F0EE400A 		vmov.f32	s1, s0
 3451 0150 FFF7FEFF 		bl	Control_AngCalculator
 3452              	.LVL205:
 748:Src/motion.c  ****         while (motion_end_flag == FALSE)
 3453              		.loc 1 748 0
 3454 0154 094B     		ldr	r3, .L205+16
 3455 0156 0022     		movs	r2, #0
 3456 0158 1A70     		strb	r2, [r3]
 3457              	.L203:
 749:Src/motion.c  ****         {
 3458              		.loc 1 749 0 discriminator 1
 3459 015a 084B     		ldr	r3, .L205+16
 3460 015c 1B78     		ldrb	r3, [r3]	@ zero_extendqisi2
 3461 015e 002B     		cmp	r3, #0
 3462 0160 FBD0     		beq	.L203
 752:Src/motion.c  ****     }
 3463              		.loc 1 752 0
 3464 0162 024B     		ldr	r3, .L205
 3465 0164 0022     		movs	r2, #0
 3466 0166 9A60     		str	r2, [r3, #8]	@ float
 3467              		.loc 1 754 0
 3468 0168 D2E7     		b	.L197
 3469              	.L206:
ARM GAS  C:\Users\kotaro\AppData\Local\Temp\cc7z3AXq.s 			page 75


 3470 016a 00BF     		.align	2
 3471              	.L205:
 3472 016c 00000000 		.word	enc
 3473 0170 00004844 		.word	1145569280
 3474 0174 00009E42 		.word	1117650944
 3475 0178 00000000 		.word	0
 3476 017c 00000000 		.word	motion_end_flag
 3477 0180 00409C46 		.word	1184645120
 3478 0184 00001644 		.word	1142292480
 3479 0188 00003642 		.word	1110835200
 3480 018c 00000000 		.word	control_wall_flag
 3481 0190 00401C46 		.word	1176256512
 3482 0194 00004842 		.word	1112014848
 3483 0198 00000000 		.word	straight
 3484 019c 00000000 		.word	angle
 3485              		.cfi_endproc
 3486              	.LFE184:
 3488              		.section	.text.Motion_OutRight45Turn,"ax",%progbits
 3489              		.align	1
 3490              		.global	Motion_OutRight45Turn
 3491              		.syntax unified
 3492              		.thumb
 3493              		.thumb_func
 3494              		.fpu fpv4-sp-d16
 3496              	Motion_OutRight45Turn:
 3497              	.LFB185:
 755:Src/motion.c  **** 
 756:Src/motion.c  **** void Motion_OutRight45Turn(float v_end)
 757:Src/motion.c  **** {
 3498              		.loc 1 757 0
 3499              		.cfi_startproc
 3500              		@ args = 0, pretend = 0, frame = 0
 3501              		@ frame_needed = 0, uses_anonymous_args = 0
 3502              	.LVL206:
 3503 0000 08B5     		push	{r3, lr}
 3504              	.LCFI57:
 3505              		.cfi_def_cfa_offset 8
 3506              		.cfi_offset 3, -8
 3507              		.cfi_offset 14, -4
 3508 0002 2DED028B 		vpush.64	{d8}
 3509              	.LCFI58:
 3510              		.cfi_def_cfa_offset 16
 3511              		.cfi_offset 80, -16
 3512              		.cfi_offset 81, -12
 3513 0006 B0EE408A 		vmov.f32	s16, s0
 758:Src/motion.c  ****     //offset in
 759:Src/motion.c  ****     Control_StrCalculator(78.0f - enc.offset, VELO_F, VELO_F, VELO_F, 1, 1);
 3514              		.loc 1 759 0
 3515 000a 584B     		ldr	r3, .L215
 3516 000c D3ED027A 		vldr.32	s15, [r3, #8]
 3517 0010 DFED570A 		vldr.32	s1, .L215+4
 3518 0014 F7EE002A 		vmov.f32	s5, #1.0e+0
 3519 0018 B0EE622A 		vmov.f32	s4, s5
 3520 001c F0EE601A 		vmov.f32	s3, s1
 3521 0020 B0EE601A 		vmov.f32	s2, s1
 3522 0024 9FED530A 		vldr.32	s0, .L215+8
 3523              	.LVL207:
ARM GAS  C:\Users\kotaro\AppData\Local\Temp\cc7z3AXq.s 			page 76


 3524 0028 30EE670A 		vsub.f32	s0, s0, s15
 3525 002c FFF7FEFF 		bl	Control_StrCalculator
 3526              	.LVL208:
 760:Src/motion.c  ****     Control_AngCalculator(0, 0, 0, 0, 1, 0);
 3527              		.loc 1 760 0
 3528 0030 9FED510A 		vldr.32	s0, .L215+12
 3529 0034 F0EE402A 		vmov.f32	s5, s0
 3530 0038 B7EE002A 		vmov.f32	s4, #1.0e+0
 3531 003c F0EE401A 		vmov.f32	s3, s0
 3532 0040 B0EE401A 		vmov.f32	s2, s0
 3533 0044 F0EE400A 		vmov.f32	s1, s0
 3534 0048 FFF7FEFF 		bl	Control_AngCalculator
 3535              	.LVL209:
 761:Src/motion.c  ****     motion_end_flag = FALSE;
 3536              		.loc 1 761 0
 3537 004c 4B4B     		ldr	r3, .L215+16
 3538 004e 0022     		movs	r2, #0
 3539 0050 1A70     		strb	r2, [r3]
 3540              	.L208:
 762:Src/motion.c  ****     while (motion_end_flag == FALSE)
 3541              		.loc 1 762 0 discriminator 1
 3542 0052 4A4B     		ldr	r3, .L215+16
 3543 0054 1B78     		ldrb	r3, [r3]	@ zero_extendqisi2
 3544 0056 002B     		cmp	r3, #0
 3545 0058 FBD0     		beq	.L208
 763:Src/motion.c  ****     {
 764:Src/motion.c  ****     }
 765:Src/motion.c  ****     //turn
 766:Src/motion.c  ****     Control_StrCalculator(800.0f, VELO_F, VELO_F, VELO_F, 1, 1);
 3546              		.loc 1 766 0
 3547 005a 9FED450A 		vldr.32	s0, .L215+4
 3548 005e F7EE002A 		vmov.f32	s5, #1.0e+0
 3549 0062 B0EE622A 		vmov.f32	s4, s5
 3550 0066 F0EE401A 		vmov.f32	s3, s0
 3551 006a B0EE401A 		vmov.f32	s2, s0
 3552 006e F0EE400A 		vmov.f32	s1, s0
 3553 0072 FFF7FEFF 		bl	Control_StrCalculator
 3554              	.LVL210:
 767:Src/motion.c  ****     Control_AngCalculator(45.5f, 0, 600.0f, 0, 20000.0f, -1);
 3555              		.loc 1 767 0
 3556 0076 DFED400A 		vldr.32	s1, .L215+12
 3557 007a FFEE002A 		vmov.f32	s5, #-1.0e+0
 3558 007e 9FED402A 		vldr.32	s4, .L215+20
 3559 0082 F0EE601A 		vmov.f32	s3, s1
 3560 0086 9FED3F1A 		vldr.32	s2, .L215+24
 3561 008a 9FED3F0A 		vldr.32	s0, .L215+28
 3562 008e FFF7FEFF 		bl	Control_AngCalculator
 3563              	.LVL211:
 768:Src/motion.c  ****     motion_end_flag = FALSE;
 3564              		.loc 1 768 0
 3565 0092 3A4B     		ldr	r3, .L215+16
 3566 0094 0022     		movs	r2, #0
 3567 0096 1A70     		strb	r2, [r3]
 3568              	.L209:
 769:Src/motion.c  ****     while (motion_end_flag == FALSE)
 3569              		.loc 1 769 0 discriminator 1
 3570 0098 384B     		ldr	r3, .L215+16
ARM GAS  C:\Users\kotaro\AppData\Local\Temp\cc7z3AXq.s 			page 77


 3571 009a 1B78     		ldrb	r3, [r3]	@ zero_extendqisi2
 3572 009c 002B     		cmp	r3, #0
 3573 009e FBD0     		beq	.L209
 770:Src/motion.c  ****     {
 771:Src/motion.c  ****     }
 772:Src/motion.c  ****     control_wall_flag = 2;
 3574              		.loc 1 772 0
 3575 00a0 3A4B     		ldr	r3, .L215+32
 3576 00a2 0222     		movs	r2, #2
 3577 00a4 1A70     		strb	r2, [r3]
 773:Src/motion.c  ****     //offset out
 774:Src/motion.c  ****     if (v_end == 0.0f)
 3578              		.loc 1 774 0
 3579 00a6 B5EE408A 		vcmp.f32	s16, #0
 3580 00aa F1EE10FA 		vmrs	APSR_nzcv, FPSCR
 3581 00ae 32D1     		bne	.L210
 775:Src/motion.c  ****     {
 776:Src/motion.c  ****         Control_StrCalculator(60.0f, VELO_F, VELO_F, 0.0f, 10000.0f, 1); //54
 3582              		.loc 1 776 0
 3583 00b0 9FED318A 		vldr.32	s16, .L215+12
 3584              	.LVL212:
 3585 00b4 DFED2E0A 		vldr.32	s1, .L215+4
 3586 00b8 F7EE002A 		vmov.f32	s5, #1.0e+0
 3587 00bc 9FED342A 		vldr.32	s4, .L215+36
 3588 00c0 F0EE481A 		vmov.f32	s3, s16
 3589 00c4 B0EE601A 		vmov.f32	s2, s1
 3590 00c8 9FED320A 		vldr.32	s0, .L215+40
 3591 00cc FFF7FEFF 		bl	Control_StrCalculator
 3592              	.LVL213:
 777:Src/motion.c  ****         Control_AngCalculator(0, 0, 0, 0, 1, 0);
 3593              		.loc 1 777 0
 3594 00d0 F0EE482A 		vmov.f32	s5, s16
 3595 00d4 B7EE002A 		vmov.f32	s4, #1.0e+0
 3596 00d8 F0EE481A 		vmov.f32	s3, s16
 3597 00dc B0EE481A 		vmov.f32	s2, s16
 3598 00e0 F0EE480A 		vmov.f32	s1, s16
 3599 00e4 B0EE480A 		vmov.f32	s0, s16
 3600 00e8 FFF7FEFF 		bl	Control_AngCalculator
 3601              	.LVL214:
 778:Src/motion.c  ****         motion_end_flag = FALSE;
 3602              		.loc 1 778 0
 3603 00ec 234B     		ldr	r3, .L215+16
 3604 00ee 0022     		movs	r2, #0
 3605 00f0 1A70     		strb	r2, [r3]
 3606              	.L211:
 779:Src/motion.c  ****         while (motion_end_flag == FALSE)
 3607              		.loc 1 779 0 discriminator 1
 3608 00f2 224B     		ldr	r3, .L215+16
 3609 00f4 1B78     		ldrb	r3, [r3]	@ zero_extendqisi2
 3610 00f6 002B     		cmp	r3, #0
 3611 00f8 FBD0     		beq	.L211
 780:Src/motion.c  ****         {
 781:Src/motion.c  ****         }
 782:Src/motion.c  ****         enc.offset = 0.0f;
 3612              		.loc 1 782 0
 3613 00fa 0023     		movs	r3, #0
 3614 00fc 1B4A     		ldr	r2, .L215
ARM GAS  C:\Users\kotaro\AppData\Local\Temp\cc7z3AXq.s 			page 78


 3615 00fe 9360     		str	r3, [r2, #8]	@ float
 783:Src/motion.c  ****         straight.v_now = 0;
 3616              		.loc 1 783 0
 3617 0100 254A     		ldr	r2, .L215+44
 3618 0102 D360     		str	r3, [r2, #12]	@ float
 784:Src/motion.c  ****         angle.v_now = 0;
 3619              		.loc 1 784 0
 3620 0104 254A     		ldr	r2, .L215+48
 3621 0106 D360     		str	r3, [r2, #12]	@ float
 785:Src/motion.c  ****         HAL_Delay(800);
 3622              		.loc 1 785 0
 3623 0108 4FF44870 		mov	r0, #800
 3624 010c FFF7FEFF 		bl	HAL_Delay
 3625              	.LVL215:
 3626              	.L207:
 786:Src/motion.c  ****     }
 787:Src/motion.c  ****     else
 788:Src/motion.c  ****     {
 789:Src/motion.c  ****         Control_WallEdgeAble(0b11);
 790:Src/motion.c  ****         Control_StrCalculator(60.0f, VELO_F, VELO_F, v_end, 1, 1); //54
 791:Src/motion.c  ****         Control_AngCalculator(0, 0, 0, 0, 1, 0);
 792:Src/motion.c  ****         motion_end_flag = FALSE;
 793:Src/motion.c  ****         while (motion_end_flag == FALSE)
 794:Src/motion.c  ****         {
 795:Src/motion.c  ****         }
 796:Src/motion.c  ****         enc.offset = 0.0f;
 797:Src/motion.c  ****     }
 798:Src/motion.c  **** }
 3627              		.loc 1 798 0
 3628 0110 BDEC028B 		vldm	sp!, {d8}
 3629              	.LCFI59:
 3630              		.cfi_remember_state
 3631              		.cfi_restore 80
 3632              		.cfi_restore 81
 3633              		.cfi_def_cfa_offset 8
 3634 0114 08BD     		pop	{r3, pc}
 3635              	.LVL216:
 3636              	.L210:
 3637              	.LCFI60:
 3638              		.cfi_restore_state
 789:Src/motion.c  ****         Control_StrCalculator(60.0f, VELO_F, VELO_F, v_end, 1, 1); //54
 3639              		.loc 1 789 0
 3640 0116 0320     		movs	r0, #3
 3641 0118 FFF7FEFF 		bl	Control_WallEdgeAble
 3642              	.LVL217:
 790:Src/motion.c  ****         Control_AngCalculator(0, 0, 0, 0, 1, 0);
 3643              		.loc 1 790 0
 3644 011c DFED140A 		vldr.32	s1, .L215+4
 3645 0120 F7EE002A 		vmov.f32	s5, #1.0e+0
 3646 0124 B0EE622A 		vmov.f32	s4, s5
 3647 0128 F0EE481A 		vmov.f32	s3, s16
 3648 012c B0EE601A 		vmov.f32	s2, s1
 3649 0130 9FED180A 		vldr.32	s0, .L215+40
 3650 0134 FFF7FEFF 		bl	Control_StrCalculator
 3651              	.LVL218:
 791:Src/motion.c  ****         motion_end_flag = FALSE;
 3652              		.loc 1 791 0
ARM GAS  C:\Users\kotaro\AppData\Local\Temp\cc7z3AXq.s 			page 79


 3653 0138 9FED0F0A 		vldr.32	s0, .L215+12
 3654 013c F0EE402A 		vmov.f32	s5, s0
 3655 0140 B7EE002A 		vmov.f32	s4, #1.0e+0
 3656 0144 F0EE401A 		vmov.f32	s3, s0
 3657 0148 B0EE401A 		vmov.f32	s2, s0
 3658 014c F0EE400A 		vmov.f32	s1, s0
 3659 0150 FFF7FEFF 		bl	Control_AngCalculator
 3660              	.LVL219:
 792:Src/motion.c  ****         while (motion_end_flag == FALSE)
 3661              		.loc 1 792 0
 3662 0154 094B     		ldr	r3, .L215+16
 3663 0156 0022     		movs	r2, #0
 3664 0158 1A70     		strb	r2, [r3]
 3665              	.L213:
 793:Src/motion.c  ****         {
 3666              		.loc 1 793 0 discriminator 1
 3667 015a 084B     		ldr	r3, .L215+16
 3668 015c 1B78     		ldrb	r3, [r3]	@ zero_extendqisi2
 3669 015e 002B     		cmp	r3, #0
 3670 0160 FBD0     		beq	.L213
 796:Src/motion.c  ****     }
 3671              		.loc 1 796 0
 3672 0162 024B     		ldr	r3, .L215
 3673 0164 0022     		movs	r2, #0
 3674 0166 9A60     		str	r2, [r3, #8]	@ float
 3675              		.loc 1 798 0
 3676 0168 D2E7     		b	.L207
 3677              	.L216:
 3678 016a 00BF     		.align	2
 3679              	.L215:
 3680 016c 00000000 		.word	enc
 3681 0170 00004844 		.word	1145569280
 3682 0174 00009C42 		.word	1117519872
 3683 0178 00000000 		.word	0
 3684 017c 00000000 		.word	motion_end_flag
 3685 0180 00409C46 		.word	1184645120
 3686 0184 00001644 		.word	1142292480
 3687 0188 00003642 		.word	1110835200
 3688 018c 00000000 		.word	control_wall_flag
 3689 0190 00401C46 		.word	1176256512
 3690 0194 00007042 		.word	1114636288
 3691 0198 00000000 		.word	straight
 3692 019c 00000000 		.word	angle
 3693              		.cfi_endproc
 3694              	.LFE185:
 3696              		.section	.text.Motion_Left90Turn,"ax",%progbits
 3697              		.align	1
 3698              		.global	Motion_Left90Turn
 3699              		.syntax unified
 3700              		.thumb
 3701              		.thumb_func
 3702              		.fpu fpv4-sp-d16
 3704              	Motion_Left90Turn:
 3705              	.LFB186:
 799:Src/motion.c  **** 
 800:Src/motion.c  **** void Motion_Left90Turn(float v_end)
 801:Src/motion.c  **** {
ARM GAS  C:\Users\kotaro\AppData\Local\Temp\cc7z3AXq.s 			page 80


 3706              		.loc 1 801 0
 3707              		.cfi_startproc
 3708              		@ args = 0, pretend = 0, frame = 0
 3709              		@ frame_needed = 0, uses_anonymous_args = 0
 3710              	.LVL220:
 3711 0000 08B5     		push	{r3, lr}
 3712              	.LCFI61:
 3713              		.cfi_def_cfa_offset 8
 3714              		.cfi_offset 3, -8
 3715              		.cfi_offset 14, -4
 3716 0002 2DED028B 		vpush.64	{d8}
 3717              	.LCFI62:
 3718              		.cfi_def_cfa_offset 16
 3719              		.cfi_offset 80, -16
 3720              		.cfi_offset 81, -12
 3721 0006 B0EE408A 		vmov.f32	s16, s0
 802:Src/motion.c  ****     //offset in
 803:Src/motion.c  ****     Control_StrCalculator(29.0f - enc.offset, VELO_F, VELO_F, VELO_F, ACCEL_F, 1);
 3722              		.loc 1 803 0
 3723 000a 594B     		ldr	r3, .L225
 3724 000c D3ED027A 		vldr.32	s15, [r3, #8]
 3725 0010 DFED580A 		vldr.32	s1, .L225+4
 3726 0014 F7EE002A 		vmov.f32	s5, #1.0e+0
 3727 0018 9FED572A 		vldr.32	s4, .L225+8
 3728 001c F0EE601A 		vmov.f32	s3, s1
 3729 0020 B0EE601A 		vmov.f32	s2, s1
 3730 0024 B3EE0D0A 		vmov.f32	s0, #2.9e+1
 3731              	.LVL221:
 3732 0028 30EE670A 		vsub.f32	s0, s0, s15
 3733 002c FFF7FEFF 		bl	Control_StrCalculator
 3734              	.LVL222:
 804:Src/motion.c  ****     Control_AngCalculator(0, 0, 0, 0, 1, 0);
 3735              		.loc 1 804 0
 3736 0030 9FED520A 		vldr.32	s0, .L225+12
 3737 0034 F0EE402A 		vmov.f32	s5, s0
 3738 0038 B7EE002A 		vmov.f32	s4, #1.0e+0
 3739 003c F0EE401A 		vmov.f32	s3, s0
 3740 0040 B0EE401A 		vmov.f32	s2, s0
 3741 0044 F0EE400A 		vmov.f32	s1, s0
 3742 0048 FFF7FEFF 		bl	Control_AngCalculator
 3743              	.LVL223:
 805:Src/motion.c  ****     motion_end_flag = FALSE;
 3744              		.loc 1 805 0
 3745 004c 4C4B     		ldr	r3, .L225+16
 3746 004e 0022     		movs	r2, #0
 3747 0050 1A70     		strb	r2, [r3]
 3748              	.L218:
 806:Src/motion.c  ****     while (motion_end_flag == FALSE)
 3749              		.loc 1 806 0 discriminator 1
 3750 0052 4B4B     		ldr	r3, .L225+16
 3751 0054 1B78     		ldrb	r3, [r3]	@ zero_extendqisi2
 3752 0056 002B     		cmp	r3, #0
 3753 0058 FBD0     		beq	.L218
 807:Src/motion.c  ****     {
 808:Src/motion.c  ****     }
 809:Src/motion.c  ****     //turn
 810:Src/motion.c  ****     Control_StrCalculator(VELO_F, VELO_F, VELO_F, VELO_F, 1, 1);
ARM GAS  C:\Users\kotaro\AppData\Local\Temp\cc7z3AXq.s 			page 81


 3754              		.loc 1 810 0
 3755 005a 9FED460A 		vldr.32	s0, .L225+4
 3756 005e F7EE002A 		vmov.f32	s5, #1.0e+0
 3757 0062 B0EE622A 		vmov.f32	s4, s5
 3758 0066 F0EE401A 		vmov.f32	s3, s0
 3759 006a B0EE401A 		vmov.f32	s2, s0
 3760 006e F0EE400A 		vmov.f32	s1, s0
 3761 0072 FFF7FEFF 		bl	Control_StrCalculator
 3762              	.LVL224:
 811:Src/motion.c  ****     Control_AngCalculator(90.0f, 0, 400.0f, 0, 5000.0f, 1);
 3763              		.loc 1 811 0
 3764 0076 DFED410A 		vldr.32	s1, .L225+12
 3765 007a F7EE002A 		vmov.f32	s5, #1.0e+0
 3766 007e 9FED412A 		vldr.32	s4, .L225+20
 3767 0082 F0EE601A 		vmov.f32	s3, s1
 3768 0086 9FED401A 		vldr.32	s2, .L225+24
 3769 008a 9FED400A 		vldr.32	s0, .L225+28
 3770 008e FFF7FEFF 		bl	Control_AngCalculator
 3771              	.LVL225:
 812:Src/motion.c  ****     motion_end_flag = FALSE;
 3772              		.loc 1 812 0
 3773 0092 3B4B     		ldr	r3, .L225+16
 3774 0094 0022     		movs	r2, #0
 3775 0096 1A70     		strb	r2, [r3]
 3776              	.L219:
 813:Src/motion.c  ****     while (motion_end_flag == FALSE)
 3777              		.loc 1 813 0 discriminator 1
 3778 0098 394B     		ldr	r3, .L225+16
 3779 009a 1B78     		ldrb	r3, [r3]	@ zero_extendqisi2
 3780 009c 002B     		cmp	r3, #0
 3781 009e FBD0     		beq	.L219
 814:Src/motion.c  ****     {
 815:Src/motion.c  ****     }
 816:Src/motion.c  ****     error_ang_sum = 0.0f;
 3782              		.loc 1 816 0
 3783 00a0 0023     		movs	r3, #0
 3784 00a2 3B4A     		ldr	r2, .L225+32
 3785 00a4 1360     		str	r3, [r2]	@ float
 817:Src/motion.c  ****     error_ang_old = 0.0f;
 3786              		.loc 1 817 0
 3787 00a6 3B4A     		ldr	r2, .L225+36
 3788 00a8 1360     		str	r3, [r2]	@ float
 818:Src/motion.c  ****     //offset out
 819:Src/motion.c  ****     if (v_end == 0.0f)
 3789              		.loc 1 819 0
 3790 00aa B5EE408A 		vcmp.f32	s16, #0
 3791 00ae F1EE10FA 		vmrs	APSR_nzcv, FPSCR
 3792 00b2 32D1     		bne	.L220
 820:Src/motion.c  ****     {
 821:Src/motion.c  ****         Control_StrCalculator(40.0f, VELO_F, VELO_F, 0.0f, 10000.0f, 1);
 3793              		.loc 1 821 0
 3794 00b4 08EE103A 		vmov	s16, r3
 3795              	.LVL226:
 3796 00b8 DFED2E0A 		vldr.32	s1, .L225+4
 3797 00bc F7EE002A 		vmov.f32	s5, #1.0e+0
 3798 00c0 9FED352A 		vldr.32	s4, .L225+40
 3799 00c4 01EE903A 		vmov	s3, r3
ARM GAS  C:\Users\kotaro\AppData\Local\Temp\cc7z3AXq.s 			page 82


 3800 00c8 B0EE601A 		vmov.f32	s2, s1
 3801 00cc 9FED330A 		vldr.32	s0, .L225+44
 3802 00d0 FFF7FEFF 		bl	Control_StrCalculator
 3803              	.LVL227:
 822:Src/motion.c  ****         Control_AngCalculator(0, 0, 0, 0, 1, 0);
 3804              		.loc 1 822 0
 3805 00d4 F0EE482A 		vmov.f32	s5, s16
 3806 00d8 B7EE002A 		vmov.f32	s4, #1.0e+0
 3807 00dc F0EE481A 		vmov.f32	s3, s16
 3808 00e0 B0EE481A 		vmov.f32	s2, s16
 3809 00e4 F0EE480A 		vmov.f32	s1, s16
 3810 00e8 B0EE480A 		vmov.f32	s0, s16
 3811 00ec FFF7FEFF 		bl	Control_AngCalculator
 3812              	.LVL228:
 823:Src/motion.c  ****         motion_end_flag = FALSE;
 3813              		.loc 1 823 0
 3814 00f0 234B     		ldr	r3, .L225+16
 3815 00f2 0022     		movs	r2, #0
 3816 00f4 1A70     		strb	r2, [r3]
 3817              	.L221:
 824:Src/motion.c  ****         while (motion_end_flag == FALSE)
 3818              		.loc 1 824 0 discriminator 1
 3819 00f6 224B     		ldr	r3, .L225+16
 3820 00f8 1B78     		ldrb	r3, [r3]	@ zero_extendqisi2
 3821 00fa 002B     		cmp	r3, #0
 3822 00fc FBD0     		beq	.L221
 825:Src/motion.c  ****         {
 826:Src/motion.c  ****         }
 827:Src/motion.c  ****         enc.offset = 0.0f;
 3823              		.loc 1 827 0
 3824 00fe 0023     		movs	r3, #0
 3825 0100 1B4A     		ldr	r2, .L225
 3826 0102 9360     		str	r3, [r2, #8]	@ float
 828:Src/motion.c  ****         straight.v_now = 0;
 3827              		.loc 1 828 0
 3828 0104 264A     		ldr	r2, .L225+48
 3829 0106 D360     		str	r3, [r2, #12]	@ float
 829:Src/motion.c  ****         angle.v_now = 0;
 3830              		.loc 1 829 0
 3831 0108 264A     		ldr	r2, .L225+52
 3832 010a D360     		str	r3, [r2, #12]	@ float
 830:Src/motion.c  ****         HAL_Delay(800);
 3833              		.loc 1 830 0
 3834 010c 4FF44870 		mov	r0, #800
 3835 0110 FFF7FEFF 		bl	HAL_Delay
 3836              	.LVL229:
 3837              	.L217:
 831:Src/motion.c  ****     }
 832:Src/motion.c  ****     else
 833:Src/motion.c  ****     {
 834:Src/motion.c  ****         Control_WallEdgeAble(0b11);
 835:Src/motion.c  ****         Control_StrCalculator(40.0f, VELO_F, VELO_F, v_end, 1, 1);
 836:Src/motion.c  ****         Control_AngCalculator(0, 0, 0, 0, 1, 0);
 837:Src/motion.c  ****         motion_end_flag = FALSE;
 838:Src/motion.c  ****         while (motion_end_flag == FALSE)
 839:Src/motion.c  ****         {
 840:Src/motion.c  ****         }
ARM GAS  C:\Users\kotaro\AppData\Local\Temp\cc7z3AXq.s 			page 83


 841:Src/motion.c  ****         enc.offset = 0.0f;
 842:Src/motion.c  ****     }
 843:Src/motion.c  **** }
 3838              		.loc 1 843 0
 3839 0114 BDEC028B 		vldm	sp!, {d8}
 3840              	.LCFI63:
 3841              		.cfi_remember_state
 3842              		.cfi_restore 80
 3843              		.cfi_restore 81
 3844              		.cfi_def_cfa_offset 8
 3845 0118 08BD     		pop	{r3, pc}
 3846              	.LVL230:
 3847              	.L220:
 3848              	.LCFI64:
 3849              		.cfi_restore_state
 834:Src/motion.c  ****         Control_StrCalculator(40.0f, VELO_F, VELO_F, v_end, 1, 1);
 3850              		.loc 1 834 0
 3851 011a 0320     		movs	r0, #3
 3852 011c FFF7FEFF 		bl	Control_WallEdgeAble
 3853              	.LVL231:
 835:Src/motion.c  ****         Control_AngCalculator(0, 0, 0, 0, 1, 0);
 3854              		.loc 1 835 0
 3855 0120 DFED140A 		vldr.32	s1, .L225+4
 3856 0124 F7EE002A 		vmov.f32	s5, #1.0e+0
 3857 0128 B0EE622A 		vmov.f32	s4, s5
 3858 012c F0EE481A 		vmov.f32	s3, s16
 3859 0130 B0EE601A 		vmov.f32	s2, s1
 3860 0134 9FED190A 		vldr.32	s0, .L225+44
 3861 0138 FFF7FEFF 		bl	Control_StrCalculator
 3862              	.LVL232:
 836:Src/motion.c  ****         motion_end_flag = FALSE;
 3863              		.loc 1 836 0
 3864 013c 9FED0F0A 		vldr.32	s0, .L225+12
 3865 0140 F0EE402A 		vmov.f32	s5, s0
 3866 0144 B7EE002A 		vmov.f32	s4, #1.0e+0
 3867 0148 F0EE401A 		vmov.f32	s3, s0
 3868 014c B0EE401A 		vmov.f32	s2, s0
 3869 0150 F0EE400A 		vmov.f32	s1, s0
 3870 0154 FFF7FEFF 		bl	Control_AngCalculator
 3871              	.LVL233:
 837:Src/motion.c  ****         while (motion_end_flag == FALSE)
 3872              		.loc 1 837 0
 3873 0158 094B     		ldr	r3, .L225+16
 3874 015a 0022     		movs	r2, #0
 3875 015c 1A70     		strb	r2, [r3]
 3876              	.L223:
 838:Src/motion.c  ****         {
 3877              		.loc 1 838 0 discriminator 1
 3878 015e 084B     		ldr	r3, .L225+16
 3879 0160 1B78     		ldrb	r3, [r3]	@ zero_extendqisi2
 3880 0162 002B     		cmp	r3, #0
 3881 0164 FBD0     		beq	.L223
 841:Src/motion.c  ****     }
 3882              		.loc 1 841 0
 3883 0166 024B     		ldr	r3, .L225
 3884 0168 0022     		movs	r2, #0
 3885 016a 9A60     		str	r2, [r3, #8]	@ float
ARM GAS  C:\Users\kotaro\AppData\Local\Temp\cc7z3AXq.s 			page 84


 3886              		.loc 1 843 0
 3887 016c D2E7     		b	.L217
 3888              	.L226:
 3889 016e 00BF     		.align	2
 3890              	.L225:
 3891 0170 00000000 		.word	enc
 3892 0174 00004844 		.word	1145569280
 3893 0178 0000FA45 		.word	1174011904
 3894 017c 00000000 		.word	0
 3895 0180 00000000 		.word	motion_end_flag
 3896 0184 00409C45 		.word	1167867904
 3897 0188 0000C843 		.word	1137180672
 3898 018c 0000B442 		.word	1119092736
 3899 0190 00000000 		.word	error_ang_sum
 3900 0194 00000000 		.word	error_ang_old
 3901 0198 00401C46 		.word	1176256512
 3902 019c 00002042 		.word	1109393408
 3903 01a0 00000000 		.word	straight
 3904 01a4 00000000 		.word	angle
 3905              		.cfi_endproc
 3906              	.LFE186:
 3908              		.section	.text.Motion_Right90Turn,"ax",%progbits
 3909              		.align	1
 3910              		.global	Motion_Right90Turn
 3911              		.syntax unified
 3912              		.thumb
 3913              		.thumb_func
 3914              		.fpu fpv4-sp-d16
 3916              	Motion_Right90Turn:
 3917              	.LFB187:
 844:Src/motion.c  **** 
 845:Src/motion.c  **** void Motion_Right90Turn(float v_end)
 846:Src/motion.c  **** {
 3918              		.loc 1 846 0
 3919              		.cfi_startproc
 3920              		@ args = 0, pretend = 0, frame = 0
 3921              		@ frame_needed = 0, uses_anonymous_args = 0
 3922              	.LVL234:
 3923 0000 08B5     		push	{r3, lr}
 3924              	.LCFI65:
 3925              		.cfi_def_cfa_offset 8
 3926              		.cfi_offset 3, -8
 3927              		.cfi_offset 14, -4
 3928 0002 2DED028B 		vpush.64	{d8}
 3929              	.LCFI66:
 3930              		.cfi_def_cfa_offset 16
 3931              		.cfi_offset 80, -16
 3932              		.cfi_offset 81, -12
 3933 0006 B0EE408A 		vmov.f32	s16, s0
 847:Src/motion.c  ****     //offset in
 848:Src/motion.c  ****     Control_StrCalculator(28.5f - enc.offset, VELO_F, VELO_F, VELO_F, ACCEL_F, 1); //29
 3934              		.loc 1 848 0
 3935 000a 564B     		ldr	r3, .L235
 3936 000c D3ED027A 		vldr.32	s15, [r3, #8]
 3937 0010 DFED550A 		vldr.32	s1, .L235+4
 3938 0014 F7EE002A 		vmov.f32	s5, #1.0e+0
 3939 0018 9FED542A 		vldr.32	s4, .L235+8
ARM GAS  C:\Users\kotaro\AppData\Local\Temp\cc7z3AXq.s 			page 85


 3940 001c F0EE601A 		vmov.f32	s3, s1
 3941 0020 B0EE601A 		vmov.f32	s2, s1
 3942 0024 9FED520A 		vldr.32	s0, .L235+12
 3943              	.LVL235:
 3944 0028 30EE670A 		vsub.f32	s0, s0, s15
 3945 002c FFF7FEFF 		bl	Control_StrCalculator
 3946              	.LVL236:
 849:Src/motion.c  ****     Control_AngCalculator(0, 0, 0, 0, 1, 0);
 3947              		.loc 1 849 0
 3948 0030 9FED500A 		vldr.32	s0, .L235+16
 3949 0034 F0EE402A 		vmov.f32	s5, s0
 3950 0038 B7EE002A 		vmov.f32	s4, #1.0e+0
 3951 003c F0EE401A 		vmov.f32	s3, s0
 3952 0040 B0EE401A 		vmov.f32	s2, s0
 3953 0044 F0EE400A 		vmov.f32	s1, s0
 3954 0048 FFF7FEFF 		bl	Control_AngCalculator
 3955              	.LVL237:
 850:Src/motion.c  ****     motion_end_flag = FALSE;
 3956              		.loc 1 850 0
 3957 004c 4A4B     		ldr	r3, .L235+20
 3958 004e 0022     		movs	r2, #0
 3959 0050 1A70     		strb	r2, [r3]
 3960              	.L228:
 851:Src/motion.c  ****     while (motion_end_flag == FALSE)
 3961              		.loc 1 851 0 discriminator 1
 3962 0052 494B     		ldr	r3, .L235+20
 3963 0054 1B78     		ldrb	r3, [r3]	@ zero_extendqisi2
 3964 0056 002B     		cmp	r3, #0
 3965 0058 FBD0     		beq	.L228
 852:Src/motion.c  ****     {
 853:Src/motion.c  ****     }
 854:Src/motion.c  ****     //turn
 855:Src/motion.c  ****     Control_StrCalculator(VELO_F, VELO_F, VELO_F, VELO_F, 1, 1);
 3966              		.loc 1 855 0
 3967 005a 9FED430A 		vldr.32	s0, .L235+4
 3968 005e F7EE002A 		vmov.f32	s5, #1.0e+0
 3969 0062 B0EE622A 		vmov.f32	s4, s5
 3970 0066 F0EE401A 		vmov.f32	s3, s0
 3971 006a B0EE401A 		vmov.f32	s2, s0
 3972 006e F0EE400A 		vmov.f32	s1, s0
 3973 0072 FFF7FEFF 		bl	Control_StrCalculator
 3974              	.LVL238:
 856:Src/motion.c  ****     Control_AngCalculator(90.5f, 0, 400.0f, 0, 5000.0f, -1);
 3975              		.loc 1 856 0
 3976 0076 DFED3F0A 		vldr.32	s1, .L235+16
 3977 007a FFEE002A 		vmov.f32	s5, #-1.0e+0
 3978 007e 9FED3F2A 		vldr.32	s4, .L235+24
 3979 0082 F0EE601A 		vmov.f32	s3, s1
 3980 0086 9FED3E1A 		vldr.32	s2, .L235+28
 3981 008a 9FED3E0A 		vldr.32	s0, .L235+32
 3982 008e FFF7FEFF 		bl	Control_AngCalculator
 3983              	.LVL239:
 857:Src/motion.c  ****     motion_end_flag = FALSE;
 3984              		.loc 1 857 0
 3985 0092 394B     		ldr	r3, .L235+20
 3986 0094 0022     		movs	r2, #0
 3987 0096 1A70     		strb	r2, [r3]
ARM GAS  C:\Users\kotaro\AppData\Local\Temp\cc7z3AXq.s 			page 86


 3988              	.L229:
 858:Src/motion.c  ****     while (motion_end_flag == FALSE)
 3989              		.loc 1 858 0 discriminator 1
 3990 0098 374B     		ldr	r3, .L235+20
 3991 009a 1B78     		ldrb	r3, [r3]	@ zero_extendqisi2
 3992 009c 002B     		cmp	r3, #0
 3993 009e FBD0     		beq	.L229
 859:Src/motion.c  ****     {
 860:Src/motion.c  ****     }
 861:Src/motion.c  ****     //offset out
 862:Src/motion.c  ****     if (v_end == 0.0f)
 3994              		.loc 1 862 0
 3995 00a0 B5EE408A 		vcmp.f32	s16, #0
 3996 00a4 F1EE10FA 		vmrs	APSR_nzcv, FPSCR
 3997 00a8 32D1     		bne	.L230
 863:Src/motion.c  ****     {
 864:Src/motion.c  ****         Control_StrCalculator(38.0f, VELO_F, VELO_F, 0.0f, 10000.0f, 1); //41
 3998              		.loc 1 864 0
 3999 00aa 9FED328A 		vldr.32	s16, .L235+16
 4000              	.LVL240:
 4001 00ae DFED2E0A 		vldr.32	s1, .L235+4
 4002 00b2 F7EE002A 		vmov.f32	s5, #1.0e+0
 4003 00b6 9FED342A 		vldr.32	s4, .L235+36
 4004 00ba F0EE481A 		vmov.f32	s3, s16
 4005 00be B0EE601A 		vmov.f32	s2, s1
 4006 00c2 9FED320A 		vldr.32	s0, .L235+40
 4007 00c6 FFF7FEFF 		bl	Control_StrCalculator
 4008              	.LVL241:
 865:Src/motion.c  ****         Control_AngCalculator(0, 0, 0, 0, 1, 0);
 4009              		.loc 1 865 0
 4010 00ca F0EE482A 		vmov.f32	s5, s16
 4011 00ce B7EE002A 		vmov.f32	s4, #1.0e+0
 4012 00d2 F0EE481A 		vmov.f32	s3, s16
 4013 00d6 B0EE481A 		vmov.f32	s2, s16
 4014 00da F0EE480A 		vmov.f32	s1, s16
 4015 00de B0EE480A 		vmov.f32	s0, s16
 4016 00e2 FFF7FEFF 		bl	Control_AngCalculator
 4017              	.LVL242:
 866:Src/motion.c  ****         motion_end_flag = FALSE;
 4018              		.loc 1 866 0
 4019 00e6 244B     		ldr	r3, .L235+20
 4020 00e8 0022     		movs	r2, #0
 4021 00ea 1A70     		strb	r2, [r3]
 4022              	.L231:
 867:Src/motion.c  ****         while (motion_end_flag == FALSE)
 4023              		.loc 1 867 0 discriminator 1
 4024 00ec 224B     		ldr	r3, .L235+20
 4025 00ee 1B78     		ldrb	r3, [r3]	@ zero_extendqisi2
 4026 00f0 002B     		cmp	r3, #0
 4027 00f2 FBD0     		beq	.L231
 868:Src/motion.c  ****         {
 869:Src/motion.c  ****         }
 870:Src/motion.c  ****         enc.offset = 0.0f;
 4028              		.loc 1 870 0
 4029 00f4 0023     		movs	r3, #0
 4030 00f6 1B4A     		ldr	r2, .L235
 4031 00f8 9360     		str	r3, [r2, #8]	@ float
ARM GAS  C:\Users\kotaro\AppData\Local\Temp\cc7z3AXq.s 			page 87


 871:Src/motion.c  ****         straight.v_now = 0;
 4032              		.loc 1 871 0
 4033 00fa 254A     		ldr	r2, .L235+44
 4034 00fc D360     		str	r3, [r2, #12]	@ float
 872:Src/motion.c  ****         angle.v_now = 0;
 4035              		.loc 1 872 0
 4036 00fe 254A     		ldr	r2, .L235+48
 4037 0100 D360     		str	r3, [r2, #12]	@ float
 873:Src/motion.c  ****         HAL_Delay(800);
 4038              		.loc 1 873 0
 4039 0102 4FF44870 		mov	r0, #800
 4040 0106 FFF7FEFF 		bl	HAL_Delay
 4041              	.LVL243:
 4042              	.L227:
 874:Src/motion.c  ****     }
 875:Src/motion.c  ****     else
 876:Src/motion.c  ****     {
 877:Src/motion.c  ****         Control_WallEdgeAble(0b11);
 878:Src/motion.c  ****         Control_StrCalculator(38.0f, VELO_F, VELO_F, v_end, 1, 1); //41
 879:Src/motion.c  ****         Control_AngCalculator(0, 0, 0, 0, 1, 0);
 880:Src/motion.c  ****         motion_end_flag = FALSE;
 881:Src/motion.c  ****         while (motion_end_flag == FALSE)
 882:Src/motion.c  ****         {
 883:Src/motion.c  ****         }
 884:Src/motion.c  ****         enc.offset = 0.0f;
 885:Src/motion.c  ****     }
 886:Src/motion.c  **** }
 4043              		.loc 1 886 0
 4044 010a BDEC028B 		vldm	sp!, {d8}
 4045              	.LCFI67:
 4046              		.cfi_remember_state
 4047              		.cfi_restore 80
 4048              		.cfi_restore 81
 4049              		.cfi_def_cfa_offset 8
 4050 010e 08BD     		pop	{r3, pc}
 4051              	.LVL244:
 4052              	.L230:
 4053              	.LCFI68:
 4054              		.cfi_restore_state
 877:Src/motion.c  ****         Control_StrCalculator(38.0f, VELO_F, VELO_F, v_end, 1, 1); //41
 4055              		.loc 1 877 0
 4056 0110 0320     		movs	r0, #3
 4057 0112 FFF7FEFF 		bl	Control_WallEdgeAble
 4058              	.LVL245:
 878:Src/motion.c  ****         Control_AngCalculator(0, 0, 0, 0, 1, 0);
 4059              		.loc 1 878 0
 4060 0116 DFED140A 		vldr.32	s1, .L235+4
 4061 011a F7EE002A 		vmov.f32	s5, #1.0e+0
 4062 011e B0EE622A 		vmov.f32	s4, s5
 4063 0122 F0EE481A 		vmov.f32	s3, s16
 4064 0126 B0EE601A 		vmov.f32	s2, s1
 4065 012a 9FED180A 		vldr.32	s0, .L235+40
 4066 012e FFF7FEFF 		bl	Control_StrCalculator
 4067              	.LVL246:
 879:Src/motion.c  ****         motion_end_flag = FALSE;
 4068              		.loc 1 879 0
 4069 0132 9FED100A 		vldr.32	s0, .L235+16
ARM GAS  C:\Users\kotaro\AppData\Local\Temp\cc7z3AXq.s 			page 88


 4070 0136 F0EE402A 		vmov.f32	s5, s0
 4071 013a B7EE002A 		vmov.f32	s4, #1.0e+0
 4072 013e F0EE401A 		vmov.f32	s3, s0
 4073 0142 B0EE401A 		vmov.f32	s2, s0
 4074 0146 F0EE400A 		vmov.f32	s1, s0
 4075 014a FFF7FEFF 		bl	Control_AngCalculator
 4076              	.LVL247:
 880:Src/motion.c  ****         while (motion_end_flag == FALSE)
 4077              		.loc 1 880 0
 4078 014e 0A4B     		ldr	r3, .L235+20
 4079 0150 0022     		movs	r2, #0
 4080 0152 1A70     		strb	r2, [r3]
 4081              	.L233:
 881:Src/motion.c  ****         {
 4082              		.loc 1 881 0 discriminator 1
 4083 0154 084B     		ldr	r3, .L235+20
 4084 0156 1B78     		ldrb	r3, [r3]	@ zero_extendqisi2
 4085 0158 002B     		cmp	r3, #0
 4086 015a FBD0     		beq	.L233
 884:Src/motion.c  ****     }
 4087              		.loc 1 884 0
 4088 015c 014B     		ldr	r3, .L235
 4089 015e 0022     		movs	r2, #0
 4090 0160 9A60     		str	r2, [r3, #8]	@ float
 4091              		.loc 1 886 0
 4092 0162 D2E7     		b	.L227
 4093              	.L236:
 4094              		.align	2
 4095              	.L235:
 4096 0164 00000000 		.word	enc
 4097 0168 00004844 		.word	1145569280
 4098 016c 0000FA45 		.word	1174011904
 4099 0170 0000E441 		.word	1105461248
 4100 0174 00000000 		.word	0
 4101 0178 00000000 		.word	motion_end_flag
 4102 017c 00409C45 		.word	1167867904
 4103 0180 0000C843 		.word	1137180672
 4104 0184 0000B542 		.word	1119158272
 4105 0188 00401C46 		.word	1176256512
 4106 018c 00001842 		.word	1108869120
 4107 0190 00000000 		.word	straight
 4108 0194 00000000 		.word	angle
 4109              		.cfi_endproc
 4110              	.LFE187:
 4112              		.section	.text.Turn,"ax",%progbits
 4113              		.align	1
 4114              		.global	Turn
 4115              		.syntax unified
 4116              		.thumb
 4117              		.thumb_func
 4118              		.fpu fpv4-sp-d16
 4120              	Turn:
 4121              	.LFB188:
 887:Src/motion.c  **** 
 888:Src/motion.c  **** void Turn(float offset_in, float offset_out, uint8_t d_flag, float velo, float v_end, float deg, fl
 889:Src/motion.c  **** {
 4122              		.loc 1 889 0
ARM GAS  C:\Users\kotaro\AppData\Local\Temp\cc7z3AXq.s 			page 89


 4123              		.cfi_startproc
 4124              		@ args = 0, pretend = 0, frame = 0
 4125              		@ frame_needed = 0, uses_anonymous_args = 0
 4126              	.LVL248:
 4127 0000 70B5     		push	{r4, r5, r6, lr}
 4128              	.LCFI69:
 4129              		.cfi_def_cfa_offset 16
 4130              		.cfi_offset 4, -16
 4131              		.cfi_offset 5, -12
 4132              		.cfi_offset 6, -8
 4133              		.cfi_offset 14, -4
 4134 0002 2DED068B 		vpush.64	{d8, d9, d10}
 4135              	.LCFI70:
 4136              		.cfi_def_cfa_offset 40
 4137              		.cfi_offset 80, -40
 4138              		.cfi_offset 81, -36
 4139              		.cfi_offset 82, -32
 4140              		.cfi_offset 83, -28
 4141              		.cfi_offset 84, -24
 4142              		.cfi_offset 85, -20
 4143 0006 F0EE60AA 		vmov.f32	s21, s1
 4144 000a 0546     		mov	r5, r0
 4145 000c B0EE418A 		vmov.f32	s16, s2
 4146 0010 F0EE618A 		vmov.f32	s17, s3
 4147 0014 B0EE429A 		vmov.f32	s18, s4
 4148 0018 F0EE629A 		vmov.f32	s19, s5
 4149 001c B0EE43AA 		vmov.f32	s20, s6
 4150 0020 0C46     		mov	r4, r1
 4151 0022 1646     		mov	r6, r2
 890:Src/motion.c  ****     //offset in
 891:Src/motion.c  ****     Control_StrCalculator(offset_in - enc.offset, velo, velo, velo, 1, 1);
 4152              		.loc 1 891 0
 4153 0024 6E4B     		ldr	r3, .L250
 4154 0026 D3ED027A 		vldr.32	s15, [r3, #8]
 4155 002a F7EE002A 		vmov.f32	s5, #1.0e+0
 4156              	.LVL249:
 4157 002e B0EE622A 		vmov.f32	s4, s5
 4158              	.LVL250:
 4159 0032 F0EE411A 		vmov.f32	s3, s2
 4160              	.LVL251:
 4161 0036 F0EE410A 		vmov.f32	s1, s2
 4162              	.LVL252:
 4163 003a 30EE670A 		vsub.f32	s0, s0, s15
 4164              	.LVL253:
 4165 003e FFF7FEFF 		bl	Control_StrCalculator
 4166              	.LVL254:
 892:Src/motion.c  ****     Control_AngCalculator(0, 0, 0, 0, 1, 0);
 4167              		.loc 1 892 0
 4168 0042 9FED680A 		vldr.32	s0, .L250+4
 4169 0046 F0EE402A 		vmov.f32	s5, s0
 4170 004a B7EE002A 		vmov.f32	s4, #1.0e+0
 4171 004e F0EE401A 		vmov.f32	s3, s0
 4172 0052 B0EE401A 		vmov.f32	s2, s0
 4173 0056 F0EE400A 		vmov.f32	s1, s0
 4174 005a FFF7FEFF 		bl	Control_AngCalculator
 4175              	.LVL255:
 893:Src/motion.c  ****     motion_end_flag = FALSE;
ARM GAS  C:\Users\kotaro\AppData\Local\Temp\cc7z3AXq.s 			page 90


 4176              		.loc 1 893 0
 4177 005e 624B     		ldr	r3, .L250+8
 4178 0060 0022     		movs	r2, #0
 4179 0062 1A70     		strb	r2, [r3]
 4180              	.L238:
 894:Src/motion.c  ****     while (motion_end_flag == FALSE)
 4181              		.loc 1 894 0 discriminator 1
 4182 0064 604B     		ldr	r3, .L250+8
 4183 0066 1B78     		ldrb	r3, [r3]	@ zero_extendqisi2
 4184 0068 002B     		cmp	r3, #0
 4185 006a FBD0     		beq	.L238
 895:Src/motion.c  ****     {
 896:Src/motion.c  ****     }
 897:Src/motion.c  ****     //turn
 898:Src/motion.c  ****     Control_StrCalculator(800.0f, velo, velo, velo, 1.0f, 1.0f); //600
 4186              		.loc 1 898 0
 4187 006c F7EE002A 		vmov.f32	s5, #1.0e+0
 4188 0070 B0EE622A 		vmov.f32	s4, s5
 4189 0074 F0EE481A 		vmov.f32	s3, s16
 4190 0078 B0EE481A 		vmov.f32	s2, s16
 4191 007c F0EE480A 		vmov.f32	s1, s16
 4192 0080 9FED5A0A 		vldr.32	s0, .L250+12
 4193 0084 FFF7FEFF 		bl	Control_StrCalculator
 4194              	.LVL256:
 899:Src/motion.c  ****     Control_AngCalculator(deg, 0, velo_ang, 0, accel_ang, dir);
 4195              		.loc 1 899 0
 4196 0088 DFED560A 		vldr.32	s1, .L250+4
 4197 008c 07EE904A 		vmov	s15, r4	@ int
 4198 0090 F8EE672A 		vcvt.f32.u32	s5, s15
 4199 0094 B0EE4A2A 		vmov.f32	s4, s20
 4200 0098 F0EE601A 		vmov.f32	s3, s1
 4201 009c B0EE691A 		vmov.f32	s2, s19
 4202 00a0 B0EE490A 		vmov.f32	s0, s18
 4203 00a4 FFF7FEFF 		bl	Control_AngCalculator
 4204              	.LVL257:
 900:Src/motion.c  ****     motion_end_flag = FALSE;
 4205              		.loc 1 900 0
 4206 00a8 4F4B     		ldr	r3, .L250+8
 4207 00aa 0022     		movs	r2, #0
 4208 00ac 1A70     		strb	r2, [r3]
 4209              	.L239:
 901:Src/motion.c  ****     while (motion_end_flag == FALSE)
 4210              		.loc 1 901 0 discriminator 1
 4211 00ae 4E4B     		ldr	r3, .L250+8
 4212 00b0 1B78     		ldrb	r3, [r3]	@ zero_extendqisi2
 4213 00b2 002B     		cmp	r3, #0
 4214 00b4 FBD0     		beq	.L239
 902:Src/motion.c  ****     {
 903:Src/motion.c  ****     }
 904:Src/motion.c  ****     //offset out
 905:Src/motion.c  ****     control_wall_flag = wall_flag;
 4215              		.loc 1 905 0
 4216 00b6 4E4B     		ldr	r3, .L250+16
 4217 00b8 1E70     		strb	r6, [r3]
 906:Src/motion.c  ****     if (d_flag == 0)
 4218              		.loc 1 906 0
 4219 00ba 002D     		cmp	r5, #0
ARM GAS  C:\Users\kotaro\AppData\Local\Temp\cc7z3AXq.s 			page 91


 4220 00bc 5DD1     		bne	.L240
 907:Src/motion.c  ****     {
 908:Src/motion.c  ****         if (v_end == 0.0f)
 4221              		.loc 1 908 0
 4222 00be F5EE408A 		vcmp.f32	s17, #0
 4223 00c2 F1EE10FA 		vmrs	APSR_nzcv, FPSCR
 4224 00c6 2ED1     		bne	.L241
 909:Src/motion.c  ****         {
 910:Src/motion.c  ****             Control_StrCalculator(offset_out, velo, velo, 0.0f, 8000.0f, 1);
 4225              		.loc 1 910 0
 4226 00c8 DFED468A 		vldr.32	s17, .L250+4
 4227              	.LVL258:
 4228 00cc F7EE002A 		vmov.f32	s5, #1.0e+0
 4229 00d0 9FED482A 		vldr.32	s4, .L250+20
 4230 00d4 F0EE681A 		vmov.f32	s3, s17
 4231 00d8 B0EE481A 		vmov.f32	s2, s16
 4232 00dc F0EE480A 		vmov.f32	s1, s16
 4233 00e0 B0EE6A0A 		vmov.f32	s0, s21
 4234 00e4 FFF7FEFF 		bl	Control_StrCalculator
 4235              	.LVL259:
 911:Src/motion.c  ****             Control_AngCalculator(0, 0, 0, 0, 1, 0);
 4236              		.loc 1 911 0
 4237 00e8 F0EE682A 		vmov.f32	s5, s17
 4238 00ec B7EE002A 		vmov.f32	s4, #1.0e+0
 4239 00f0 F0EE681A 		vmov.f32	s3, s17
 4240 00f4 B0EE681A 		vmov.f32	s2, s17
 4241 00f8 F0EE680A 		vmov.f32	s1, s17
 4242 00fc B0EE680A 		vmov.f32	s0, s17
 4243 0100 FFF7FEFF 		bl	Control_AngCalculator
 4244              	.LVL260:
 912:Src/motion.c  ****             motion_end_flag = FALSE;
 4245              		.loc 1 912 0
 4246 0104 384B     		ldr	r3, .L250+8
 4247 0106 0022     		movs	r2, #0
 4248 0108 1A70     		strb	r2, [r3]
 4249              	.L242:
 913:Src/motion.c  ****             while (motion_end_flag == FALSE)
 4250              		.loc 1 913 0 discriminator 1
 4251 010a 374B     		ldr	r3, .L250+8
 4252 010c 1B78     		ldrb	r3, [r3]	@ zero_extendqisi2
 4253 010e 002B     		cmp	r3, #0
 4254 0110 FBD0     		beq	.L242
 914:Src/motion.c  ****             {
 915:Src/motion.c  ****             }
 916:Src/motion.c  ****             straight.v_now = 0;
 4255              		.loc 1 916 0
 4256 0112 0023     		movs	r3, #0
 4257 0114 384A     		ldr	r2, .L250+24
 4258 0116 D360     		str	r3, [r2, #12]	@ float
 917:Src/motion.c  ****             angle.v_now = 0;
 4259              		.loc 1 917 0
 4260 0118 384A     		ldr	r2, .L250+28
 4261 011a D360     		str	r3, [r2, #12]	@ float
 918:Src/motion.c  ****             HAL_Delay(800);
 4262              		.loc 1 918 0
 4263 011c 4FF44870 		mov	r0, #800
 4264 0120 FFF7FEFF 		bl	HAL_Delay
ARM GAS  C:\Users\kotaro\AppData\Local\Temp\cc7z3AXq.s 			page 92


 4265              	.LVL261:
 4266 0124 54E0     		b	.L237
 4267              	.LVL262:
 4268              	.L241:
 919:Src/motion.c  ****         }
 920:Src/motion.c  ****         else
 921:Src/motion.c  ****         {
 922:Src/motion.c  ****             Control_WallEdgeAble(0b11);
 4269              		.loc 1 922 0
 4270 0126 0320     		movs	r0, #3
 4271 0128 FFF7FEFF 		bl	Control_WallEdgeAble
 4272              	.LVL263:
 923:Src/motion.c  ****             Control_StrCalculator(offset_out, velo, velo, v_end, 1, 1);
 4273              		.loc 1 923 0
 4274 012c F7EE002A 		vmov.f32	s5, #1.0e+0
 4275 0130 B0EE622A 		vmov.f32	s4, s5
 4276 0134 F0EE681A 		vmov.f32	s3, s17
 4277 0138 B0EE481A 		vmov.f32	s2, s16
 4278 013c F0EE480A 		vmov.f32	s1, s16
 4279 0140 B0EE6A0A 		vmov.f32	s0, s21
 4280 0144 FFF7FEFF 		bl	Control_StrCalculator
 4281              	.LVL264:
 924:Src/motion.c  ****             Control_AngCalculator(0, 0, 0, 0, 1, 0);
 4282              		.loc 1 924 0
 4283 0148 9FED260A 		vldr.32	s0, .L250+4
 4284 014c F0EE402A 		vmov.f32	s5, s0
 4285 0150 B7EE002A 		vmov.f32	s4, #1.0e+0
 4286 0154 F0EE401A 		vmov.f32	s3, s0
 4287 0158 B0EE401A 		vmov.f32	s2, s0
 4288 015c F0EE400A 		vmov.f32	s1, s0
 4289 0160 FFF7FEFF 		bl	Control_AngCalculator
 4290              	.LVL265:
 925:Src/motion.c  ****             motion_end_flag = FALSE;
 4291              		.loc 1 925 0
 4292 0164 204B     		ldr	r3, .L250+8
 4293 0166 0022     		movs	r2, #0
 4294 0168 1A70     		strb	r2, [r3]
 4295              	.L244:
 926:Src/motion.c  ****             while (motion_end_flag == FALSE)
 4296              		.loc 1 926 0 discriminator 1
 4297 016a 1F4B     		ldr	r3, .L250+8
 4298 016c 1B78     		ldrb	r3, [r3]	@ zero_extendqisi2
 4299 016e 002B     		cmp	r3, #0
 4300 0170 FBD0     		beq	.L244
 927:Src/motion.c  ****             {
 928:Src/motion.c  ****             }
 929:Src/motion.c  ****             enc.offset = 0.0f;
 4301              		.loc 1 929 0
 4302 0172 1B4B     		ldr	r3, .L250
 4303 0174 0022     		movs	r2, #0
 4304 0176 9A60     		str	r2, [r3, #8]	@ float
 4305 0178 2AE0     		b	.L237
 4306              	.L240:
 930:Src/motion.c  ****         }
 931:Src/motion.c  ****     }
 932:Src/motion.c  ****     else
 933:Src/motion.c  ****     {
ARM GAS  C:\Users\kotaro\AppData\Local\Temp\cc7z3AXq.s 			page 93


 934:Src/motion.c  ****         if (dir == 1)
 4307              		.loc 1 934 0
 4308 017a 012C     		cmp	r4, #1
 4309 017c 2BD0     		beq	.L249
 935:Src/motion.c  ****         {
 936:Src/motion.c  ****             Control_WallEdgeAble(0b0100);
 937:Src/motion.c  ****         }
 938:Src/motion.c  ****         else
 939:Src/motion.c  ****         {
 940:Src/motion.c  ****             Control_WallEdgeAble(0b1000);
 4310              		.loc 1 940 0
 4311 017e 0820     		movs	r0, #8
 4312 0180 FFF7FEFF 		bl	Control_WallEdgeAble
 4313              	.LVL266:
 4314              	.L246:
 941:Src/motion.c  ****         }
 942:Src/motion.c  ****         Control_StrCalculator(offset_out, velo, velo, v_end, 16000.0f, 1);
 4315              		.loc 1 942 0
 4316 0184 F7EE002A 		vmov.f32	s5, #1.0e+0
 4317 0188 9FED1D2A 		vldr.32	s4, .L250+32
 4318 018c F0EE681A 		vmov.f32	s3, s17
 4319 0190 B0EE481A 		vmov.f32	s2, s16
 4320 0194 F0EE480A 		vmov.f32	s1, s16
 4321 0198 B0EE6A0A 		vmov.f32	s0, s21
 4322 019c FFF7FEFF 		bl	Control_StrCalculator
 4323              	.LVL267:
 943:Src/motion.c  ****         Control_AngCalculator(0, 0, 0, 0, 1, 0);
 4324              		.loc 1 943 0
 4325 01a0 9FED100A 		vldr.32	s0, .L250+4
 4326 01a4 F0EE402A 		vmov.f32	s5, s0
 4327 01a8 B7EE002A 		vmov.f32	s4, #1.0e+0
 4328 01ac F0EE401A 		vmov.f32	s3, s0
 4329 01b0 B0EE401A 		vmov.f32	s2, s0
 4330 01b4 F0EE400A 		vmov.f32	s1, s0
 4331 01b8 FFF7FEFF 		bl	Control_AngCalculator
 4332              	.LVL268:
 944:Src/motion.c  ****         motion_end_flag = FALSE;
 4333              		.loc 1 944 0
 4334 01bc 0A4B     		ldr	r3, .L250+8
 4335 01be 0022     		movs	r2, #0
 4336 01c0 1A70     		strb	r2, [r3]
 4337              	.L247:
 945:Src/motion.c  ****         while (motion_end_flag == FALSE)
 4338              		.loc 1 945 0 discriminator 1
 4339 01c2 094B     		ldr	r3, .L250+8
 4340 01c4 1B78     		ldrb	r3, [r3]	@ zero_extendqisi2
 4341 01c6 002B     		cmp	r3, #0
 4342 01c8 FBD0     		beq	.L247
 946:Src/motion.c  ****         {
 947:Src/motion.c  ****         }
 948:Src/motion.c  ****         enc.offset = 0.0f;
 4343              		.loc 1 948 0
 4344 01ca 054B     		ldr	r3, .L250
 4345 01cc 0022     		movs	r2, #0
 4346 01ce 9A60     		str	r2, [r3, #8]	@ float
 4347              	.LVL269:
 4348              	.L237:
ARM GAS  C:\Users\kotaro\AppData\Local\Temp\cc7z3AXq.s 			page 94


 949:Src/motion.c  ****     }
 950:Src/motion.c  **** }
 4349              		.loc 1 950 0
 4350 01d0 BDEC068B 		vldm	sp!, {d8-d10}
 4351              	.LCFI71:
 4352              		.cfi_remember_state
 4353              		.cfi_restore 84
 4354              		.cfi_restore 85
 4355              		.cfi_restore 82
 4356              		.cfi_restore 83
 4357              		.cfi_restore 80
 4358              		.cfi_restore 81
 4359              		.cfi_def_cfa_offset 16
 4360              	.LVL270:
 4361 01d4 70BD     		pop	{r4, r5, r6, pc}
 4362              	.LVL271:
 4363              	.L249:
 4364              	.LCFI72:
 4365              		.cfi_restore_state
 936:Src/motion.c  ****         }
 4366              		.loc 1 936 0
 4367 01d6 0420     		movs	r0, #4
 4368 01d8 FFF7FEFF 		bl	Control_WallEdgeAble
 4369              	.LVL272:
 4370 01dc D2E7     		b	.L246
 4371              	.L251:
 4372 01de 00BF     		.align	2
 4373              	.L250:
 4374 01e0 00000000 		.word	enc
 4375 01e4 00000000 		.word	0
 4376 01e8 00000000 		.word	motion_end_flag
 4377 01ec 00004844 		.word	1145569280
 4378 01f0 00000000 		.word	control_wall_flag
 4379 01f4 0000FA45 		.word	1174011904
 4380 01f8 00000000 		.word	straight
 4381 01fc 00000000 		.word	angle
 4382 0200 00007A46 		.word	1182400512
 4383              		.cfi_endproc
 4384              	.LFE188:
 4386              		.section	.text.Motion_FastLeftTurn,"ax",%progbits
 4387              		.align	1
 4388              		.global	Motion_FastLeftTurn
 4389              		.syntax unified
 4390              		.thumb
 4391              		.thumb_func
 4392              		.fpu fpv4-sp-d16
 4394              	Motion_FastLeftTurn:
 4395              	.LFB189:
 951:Src/motion.c  **** 
 952:Src/motion.c  **** void Motion_FastLeftTurn(uint8_t type, float v_end)
 953:Src/motion.c  **** {
 4396              		.loc 1 953 0
 4397              		.cfi_startproc
 4398              		@ args = 0, pretend = 0, frame = 0
 4399              		@ frame_needed = 0, uses_anonymous_args = 0
 4400              	.LVL273:
 4401 0000 08B5     		push	{r3, lr}
ARM GAS  C:\Users\kotaro\AppData\Local\Temp\cc7z3AXq.s 			page 95


 4402              	.LCFI73:
 4403              		.cfi_def_cfa_offset 8
 4404              		.cfi_offset 3, -8
 4405              		.cfi_offset 14, -4
 954:Src/motion.c  ****     switch (type)
 4406              		.loc 1 954 0
 4407 0002 0728     		cmp	r0, #7
 4408 0004 07D8     		bhi	.L252
 4409 0006 DFE800F0 		tbb	[pc, r0]
 4410              	.L255:
 4411 000a 04       		.byte	(.L254-.L255)/2
 4412 000b 1E       		.byte	(.L256-.L255)/2
 4413 000c 27       		.byte	(.L257-.L255)/2
 4414 000d 07       		.byte	(.L258-.L255)/2
 4415 000e 0A       		.byte	(.L259-.L255)/2
 4416 000f 21       		.byte	(.L260-.L255)/2
 4417 0010 3B       		.byte	(.L261-.L255)/2
 4418 0011 51       		.byte	(.L262-.L255)/2
 4419              		.p2align 1
 4420              	.L254:
 955:Src/motion.c  ****     {
 956:Src/motion.c  ****     case SEARCH:
 957:Src/motion.c  ****         Motion_LeftTurn();
 4421              		.loc 1 957 0
 4422 0012 FFF7FEFF 		bl	Motion_LeftTurn
 4423              	.LVL274:
 4424              	.L252:
 958:Src/motion.c  ****         break;
 959:Src/motion.c  ****     case T_90:
 960:Src/motion.c  ****         Motion_Left90Turn(v_end);
 961:Src/motion.c  ****         break;
 962:Src/motion.c  ****     case T_180:
 963:Src/motion.c  ****         Turn(36.0f, 43.0f, 0, 800.0f, v_end, 180.0f, 520.0f, 5000.0f, 1, 2); //0ut = 53
 964:Src/motion.c  ****         break;
 965:Src/motion.c  ****     case T_45IN:
 966:Src/motion.c  ****         Motion_InLeft45Turn();
 967:Src/motion.c  ****         break;
 968:Src/motion.c  ****     case T_45OUT:
 969:Src/motion.c  ****         control_wall_flag = 0;
 970:Src/motion.c  ****         Motion_OutLeft45Turn(v_end);
 971:Src/motion.c  ****         break;
 972:Src/motion.c  ****     case T_135IN:
 973:Src/motion.c  ****         Turn(49.0f, 46.0f, 1, 800.0f, 800.0f, 135.0f, 600.0f, 8000.0f, 1, 3);
 974:Src/motion.c  ****         break;
 975:Src/motion.c  ****     case T_135OUT:
 976:Src/motion.c  ****         control_wall_flag = 0;
 977:Src/motion.c  ****         Turn(28.0f, 57.5f, 0, 800.0f, v_end, 135.0f, 600.0f, 8000.0f, 1, 2); //in=34 out=67
 978:Src/motion.c  ****         break;
 979:Src/motion.c  ****     case T_V90:
 980:Src/motion.c  ****         control_wall_flag = 0;
 981:Src/motion.c  ****         Turn(46.0f, 67.0f, 1, 800.0f, 800.0f, 90.25f, 800.0f, 20000.0f, 1, 3); //in=67 out=23
 982:Src/motion.c  ****         break;
 983:Src/motion.c  ****     }
 984:Src/motion.c  **** }
 4425              		.loc 1 984 0
 4426 0016 08BD     		pop	{r3, pc}
 4427              	.LVL275:
ARM GAS  C:\Users\kotaro\AppData\Local\Temp\cc7z3AXq.s 			page 96


 4428              	.L258:
 960:Src/motion.c  ****         break;
 4429              		.loc 1 960 0
 4430 0018 FFF7FEFF 		bl	Motion_Left90Turn
 4431              	.LVL276:
 961:Src/motion.c  ****     case T_180:
 4432              		.loc 1 961 0
 4433 001c FBE7     		b	.L252
 4434              	.LVL277:
 4435              	.L259:
 963:Src/motion.c  ****         break;
 4436              		.loc 1 963 0
 4437 001e 0222     		movs	r2, #2
 4438 0020 0121     		movs	r1, #1
 4439 0022 9FED2E3A 		vldr.32	s6, .L264
 4440 0026 DFED2E2A 		vldr.32	s5, .L264+4
 4441 002a 9FED2E2A 		vldr.32	s4, .L264+8
 4442 002e F0EE401A 		vmov.f32	s3, s0
 4443 0032 9FED2D1A 		vldr.32	s2, .L264+12
 4444 0036 0020     		movs	r0, #0
 4445              	.LVL278:
 4446 0038 DFED2C0A 		vldr.32	s1, .L264+16
 4447 003c 9FED2C0A 		vldr.32	s0, .L264+20
 4448              	.LVL279:
 4449 0040 FFF7FEFF 		bl	Turn
 4450              	.LVL280:
 964:Src/motion.c  ****     case T_45IN:
 4451              		.loc 1 964 0
 4452 0044 E7E7     		b	.L252
 4453              	.LVL281:
 4454              	.L256:
 966:Src/motion.c  ****         break;
 4455              		.loc 1 966 0
 4456 0046 FFF7FEFF 		bl	Motion_InLeft45Turn
 4457              	.LVL282:
 967:Src/motion.c  ****     case T_45OUT:
 4458              		.loc 1 967 0
 4459 004a E4E7     		b	.L252
 4460              	.LVL283:
 4461              	.L260:
 969:Src/motion.c  ****         Motion_OutLeft45Turn(v_end);
 4462              		.loc 1 969 0
 4463 004c 294B     		ldr	r3, .L264+24
 4464 004e 0022     		movs	r2, #0
 4465 0050 1A70     		strb	r2, [r3]
 970:Src/motion.c  ****         break;
 4466              		.loc 1 970 0
 4467 0052 FFF7FEFF 		bl	Motion_OutLeft45Turn
 4468              	.LVL284:
 971:Src/motion.c  ****     case T_135IN:
 4469              		.loc 1 971 0
 4470 0056 DEE7     		b	.L252
 4471              	.LVL285:
 4472              	.L257:
 973:Src/motion.c  ****         break;
 4473              		.loc 1 973 0
 4474 0058 9FED231A 		vldr.32	s2, .L264+12
ARM GAS  C:\Users\kotaro\AppData\Local\Temp\cc7z3AXq.s 			page 97


 4475 005c 0322     		movs	r2, #3
 4476 005e 0121     		movs	r1, #1
 4477 0060 9FED253A 		vldr.32	s6, .L264+28
 4478 0064 DFED252A 		vldr.32	s5, .L264+32
 4479 0068 9FED252A 		vldr.32	s4, .L264+36
 4480 006c F0EE411A 		vmov.f32	s3, s2
 4481 0070 0846     		mov	r0, r1
 4482              	.LVL286:
 4483 0072 DFED240A 		vldr.32	s1, .L264+40
 4484 0076 9FED240A 		vldr.32	s0, .L264+44
 4485              	.LVL287:
 4486 007a FFF7FEFF 		bl	Turn
 4487              	.LVL288:
 974:Src/motion.c  ****     case T_135OUT:
 4488              		.loc 1 974 0
 4489 007e CAE7     		b	.L252
 4490              	.LVL289:
 4491              	.L261:
 976:Src/motion.c  ****         Turn(28.0f, 57.5f, 0, 800.0f, v_end, 135.0f, 600.0f, 8000.0f, 1, 2); //in=34 out=67
 4492              		.loc 1 976 0
 4493 0080 0020     		movs	r0, #0
 4494              	.LVL290:
 4495 0082 1C4B     		ldr	r3, .L264+24
 4496 0084 1870     		strb	r0, [r3]
 977:Src/motion.c  ****         break;
 4497              		.loc 1 977 0
 4498 0086 0222     		movs	r2, #2
 4499 0088 0121     		movs	r1, #1
 4500 008a 9FED1B3A 		vldr.32	s6, .L264+28
 4501 008e DFED1B2A 		vldr.32	s5, .L264+32
 4502 0092 9FED1B2A 		vldr.32	s4, .L264+36
 4503 0096 F0EE401A 		vmov.f32	s3, s0
 4504 009a 9FED131A 		vldr.32	s2, .L264+12
 4505 009e DFED1B0A 		vldr.32	s1, .L264+48
 4506 00a2 B3EE0C0A 		vmov.f32	s0, #2.8e+1
 4507              	.LVL291:
 4508 00a6 FFF7FEFF 		bl	Turn
 4509              	.LVL292:
 978:Src/motion.c  ****     case T_V90:
 4510              		.loc 1 978 0
 4511 00aa B4E7     		b	.L252
 4512              	.LVL293:
 4513              	.L262:
 980:Src/motion.c  ****         Turn(46.0f, 67.0f, 1, 800.0f, 800.0f, 90.25f, 800.0f, 20000.0f, 1, 3); //in=67 out=23
 4514              		.loc 1 980 0
 4515 00ac 114B     		ldr	r3, .L264+24
 4516 00ae 0022     		movs	r2, #0
 4517 00b0 1A70     		strb	r2, [r3]
 981:Src/motion.c  ****         break;
 4518              		.loc 1 981 0
 4519 00b2 9FED0D1A 		vldr.32	s2, .L264+12
 4520 00b6 0322     		movs	r2, #3
 4521 00b8 0121     		movs	r1, #1
 4522 00ba 9FED153A 		vldr.32	s6, .L264+52
 4523 00be F0EE412A 		vmov.f32	s5, s2
 4524 00c2 9FED142A 		vldr.32	s4, .L264+56
 4525 00c6 F0EE411A 		vmov.f32	s3, s2
ARM GAS  C:\Users\kotaro\AppData\Local\Temp\cc7z3AXq.s 			page 98


 4526 00ca 0846     		mov	r0, r1
 4527              	.LVL294:
 4528 00cc DFED120A 		vldr.32	s1, .L264+60
 4529 00d0 9FED0C0A 		vldr.32	s0, .L264+40
 4530              	.LVL295:
 4531 00d4 FFF7FEFF 		bl	Turn
 4532              	.LVL296:
 4533              		.loc 1 984 0
 4534 00d8 9DE7     		b	.L252
 4535              	.L265:
 4536 00da 00BF     		.align	2
 4537              	.L264:
 4538 00dc 00409C45 		.word	1167867904
 4539 00e0 00000244 		.word	1140981760
 4540 00e4 00003443 		.word	1127481344
 4541 00e8 00004844 		.word	1145569280
 4542 00ec 00002C42 		.word	1110179840
 4543 00f0 00001042 		.word	1108344832
 4544 00f4 00000000 		.word	control_wall_flag
 4545 00f8 0000FA45 		.word	1174011904
 4546 00fc 00001644 		.word	1142292480
 4547 0100 00000743 		.word	1124532224
 4548 0104 00003842 		.word	1110966272
 4549 0108 00004442 		.word	1111752704
 4550 010c 00006642 		.word	1113980928
 4551 0110 00409C46 		.word	1184645120
 4552 0114 0080B442 		.word	1119125504
 4553 0118 00008642 		.word	1116078080
 4554              		.cfi_endproc
 4555              	.LFE189:
 4557              		.section	.text.Motion_FastRightTurn,"ax",%progbits
 4558              		.align	1
 4559              		.global	Motion_FastRightTurn
 4560              		.syntax unified
 4561              		.thumb
 4562              		.thumb_func
 4563              		.fpu fpv4-sp-d16
 4565              	Motion_FastRightTurn:
 4566              	.LFB190:
 985:Src/motion.c  **** 
 986:Src/motion.c  **** void Motion_FastRightTurn(uint8_t type, float v_end)
 987:Src/motion.c  **** {
 4567              		.loc 1 987 0
 4568              		.cfi_startproc
 4569              		@ args = 0, pretend = 0, frame = 0
 4570              		@ frame_needed = 0, uses_anonymous_args = 0
 4571              	.LVL297:
 4572 0000 08B5     		push	{r3, lr}
 4573              	.LCFI74:
 4574              		.cfi_def_cfa_offset 8
 4575              		.cfi_offset 3, -8
 4576              		.cfi_offset 14, -4
 988:Src/motion.c  ****     switch (type)
 4577              		.loc 1 988 0
 4578 0002 0728     		cmp	r0, #7
 4579 0004 07D8     		bhi	.L266
 4580 0006 DFE800F0 		tbb	[pc, r0]
ARM GAS  C:\Users\kotaro\AppData\Local\Temp\cc7z3AXq.s 			page 99


 4581              	.L269:
 4582 000a 04       		.byte	(.L268-.L269)/2
 4583 000b 1E       		.byte	(.L270-.L269)/2
 4584 000c 27       		.byte	(.L271-.L269)/2
 4585 000d 07       		.byte	(.L272-.L269)/2
 4586 000e 0A       		.byte	(.L273-.L269)/2
 4587 000f 21       		.byte	(.L274-.L269)/2
 4588 0010 3B       		.byte	(.L275-.L269)/2
 4589 0011 51       		.byte	(.L276-.L269)/2
 4590              		.p2align 1
 4591              	.L268:
 989:Src/motion.c  ****     {
 990:Src/motion.c  ****     case SEARCH:
 991:Src/motion.c  ****         Motion_RightTurn();
 4592              		.loc 1 991 0
 4593 0012 FFF7FEFF 		bl	Motion_RightTurn
 4594              	.LVL298:
 4595              	.L266:
 992:Src/motion.c  ****         break;
 993:Src/motion.c  ****     case T_90:
 994:Src/motion.c  ****         Motion_Right90Turn(v_end);
 995:Src/motion.c  ****         break;
 996:Src/motion.c  ****     case T_180:
 997:Src/motion.c  ****         Turn(30.0f, 48.0f, 0, 800.0f, v_end, 180.0f, 530.0f, 5000.0f, -1, 2); //out=50
 998:Src/motion.c  ****         break;
 999:Src/motion.c  ****     case T_45IN:
1000:Src/motion.c  ****         Motion_InRight45Turn();
1001:Src/motion.c  ****         break;
1002:Src/motion.c  ****     case T_45OUT:
1003:Src/motion.c  ****         control_wall_flag = 0;
1004:Src/motion.c  ****         Motion_OutRight45Turn(v_end);
1005:Src/motion.c  ****         break;
1006:Src/motion.c  ****     case T_135IN:
1007:Src/motion.c  ****         Turn(49.0f, 45.0f, 1, 800.0f, 800.0f, 135.0f, 600.0f, 8000.0f, -1, 3); //in:50 out=26
1008:Src/motion.c  ****         break;
1009:Src/motion.c  ****     case T_135OUT:
1010:Src/motion.c  ****         control_wall_flag = 0;
1011:Src/motion.c  ****         Turn(29.0f, 55.0f, 0, 800.0f, v_end, 135.0f, 600.0f, 8000.0f, -1, 2); //in=40.5 out = 66
1012:Src/motion.c  ****         break;
1013:Src/motion.c  ****     case T_V90:
1014:Src/motion.c  ****         control_wall_flag = 0;
1015:Src/motion.c  ****         Turn(52.0f, 68.0f, 1, 800.0f, 800.0f, 90.125f, 800.0f, 20000.0f, -1, 3); //in=63 out=25,23
1016:Src/motion.c  ****         break;
1017:Src/motion.c  ****     }
1018:Src/motion.c  **** }
 4596              		.loc 1 1018 0
 4597 0016 08BD     		pop	{r3, pc}
 4598              	.LVL299:
 4599              	.L272:
 994:Src/motion.c  ****         break;
 4600              		.loc 1 994 0
 4601 0018 FFF7FEFF 		bl	Motion_Right90Turn
 4602              	.LVL300:
 995:Src/motion.c  ****     case T_180:
 4603              		.loc 1 995 0
 4604 001c FBE7     		b	.L266
 4605              	.LVL301:
ARM GAS  C:\Users\kotaro\AppData\Local\Temp\cc7z3AXq.s 			page 100


 4606              	.L273:
 997:Src/motion.c  ****         break;
 4607              		.loc 1 997 0
 4608 001e 0222     		movs	r2, #2
 4609 0020 FF21     		movs	r1, #255
 4610 0022 9FED2E3A 		vldr.32	s6, .L278
 4611 0026 DFED2E2A 		vldr.32	s5, .L278+4
 4612 002a 9FED2E2A 		vldr.32	s4, .L278+8
 4613 002e F0EE401A 		vmov.f32	s3, s0
 4614 0032 9FED2D1A 		vldr.32	s2, .L278+12
 4615 0036 0020     		movs	r0, #0
 4616              	.LVL302:
 4617 0038 DFED2C0A 		vldr.32	s1, .L278+16
 4618 003c B3EE0E0A 		vmov.f32	s0, #3.0e+1
 4619              	.LVL303:
 4620 0040 FFF7FEFF 		bl	Turn
 4621              	.LVL304:
 998:Src/motion.c  ****     case T_45IN:
 4622              		.loc 1 998 0
 4623 0044 E7E7     		b	.L266
 4624              	.LVL305:
 4625              	.L270:
1000:Src/motion.c  ****         break;
 4626              		.loc 1 1000 0
 4627 0046 FFF7FEFF 		bl	Motion_InRight45Turn
 4628              	.LVL306:
1001:Src/motion.c  ****     case T_45OUT:
 4629              		.loc 1 1001 0
 4630 004a E4E7     		b	.L266
 4631              	.LVL307:
 4632              	.L274:
1003:Src/motion.c  ****         Motion_OutRight45Turn(v_end);
 4633              		.loc 1 1003 0
 4634 004c 284B     		ldr	r3, .L278+20
 4635 004e 0022     		movs	r2, #0
 4636 0050 1A70     		strb	r2, [r3]
1004:Src/motion.c  ****         break;
 4637              		.loc 1 1004 0
 4638 0052 FFF7FEFF 		bl	Motion_OutRight45Turn
 4639              	.LVL308:
1005:Src/motion.c  ****     case T_135IN:
 4640              		.loc 1 1005 0
 4641 0056 DEE7     		b	.L266
 4642              	.LVL309:
 4643              	.L271:
1007:Src/motion.c  ****         break;
 4644              		.loc 1 1007 0
 4645 0058 9FED231A 		vldr.32	s2, .L278+12
 4646 005c 0322     		movs	r2, #3
 4647 005e FF21     		movs	r1, #255
 4648 0060 9FED243A 		vldr.32	s6, .L278+24
 4649 0064 DFED242A 		vldr.32	s5, .L278+28
 4650 0068 9FED242A 		vldr.32	s4, .L278+32
 4651 006c F0EE411A 		vmov.f32	s3, s2
 4652 0070 0120     		movs	r0, #1
 4653              	.LVL310:
 4654 0072 DFED230A 		vldr.32	s1, .L278+36
ARM GAS  C:\Users\kotaro\AppData\Local\Temp\cc7z3AXq.s 			page 101


 4655 0076 9FED230A 		vldr.32	s0, .L278+40
 4656              	.LVL311:
 4657 007a FFF7FEFF 		bl	Turn
 4658              	.LVL312:
1008:Src/motion.c  ****     case T_135OUT:
 4659              		.loc 1 1008 0
 4660 007e CAE7     		b	.L266
 4661              	.LVL313:
 4662              	.L275:
1010:Src/motion.c  ****         Turn(29.0f, 55.0f, 0, 800.0f, v_end, 135.0f, 600.0f, 8000.0f, -1, 2); //in=40.5 out = 66
 4663              		.loc 1 1010 0
 4664 0080 0020     		movs	r0, #0
 4665              	.LVL314:
 4666 0082 1B4B     		ldr	r3, .L278+20
 4667 0084 1870     		strb	r0, [r3]
1011:Src/motion.c  ****         break;
 4668              		.loc 1 1011 0
 4669 0086 0222     		movs	r2, #2
 4670 0088 FF21     		movs	r1, #255
 4671 008a 9FED1A3A 		vldr.32	s6, .L278+24
 4672 008e DFED1A2A 		vldr.32	s5, .L278+28
 4673 0092 9FED1A2A 		vldr.32	s4, .L278+32
 4674 0096 F0EE401A 		vmov.f32	s3, s0
 4675 009a 9FED131A 		vldr.32	s2, .L278+12
 4676 009e DFED1A0A 		vldr.32	s1, .L278+44
 4677 00a2 B3EE0D0A 		vmov.f32	s0, #2.9e+1
 4678              	.LVL315:
 4679 00a6 FFF7FEFF 		bl	Turn
 4680              	.LVL316:
1012:Src/motion.c  ****     case T_V90:
 4681              		.loc 1 1012 0
 4682 00aa B4E7     		b	.L266
 4683              	.LVL317:
 4684              	.L276:
1014:Src/motion.c  ****         Turn(52.0f, 68.0f, 1, 800.0f, 800.0f, 90.125f, 800.0f, 20000.0f, -1, 3); //in=63 out=25,23
 4685              		.loc 1 1014 0
 4686 00ac 104B     		ldr	r3, .L278+20
 4687 00ae 0022     		movs	r2, #0
 4688 00b0 1A70     		strb	r2, [r3]
1015:Src/motion.c  ****         break;
 4689              		.loc 1 1015 0
 4690 00b2 9FED0D1A 		vldr.32	s2, .L278+12
 4691 00b6 0322     		movs	r2, #3
 4692 00b8 FF21     		movs	r1, #255
 4693 00ba 9FED143A 		vldr.32	s6, .L278+48
 4694 00be F0EE412A 		vmov.f32	s5, s2
 4695 00c2 9FED132A 		vldr.32	s4, .L278+52
 4696 00c6 F0EE411A 		vmov.f32	s3, s2
 4697 00ca 0120     		movs	r0, #1
 4698              	.LVL318:
 4699 00cc DFED110A 		vldr.32	s1, .L278+56
 4700 00d0 9FED110A 		vldr.32	s0, .L278+60
 4701              	.LVL319:
 4702 00d4 FFF7FEFF 		bl	Turn
 4703              	.LVL320:
 4704              		.loc 1 1018 0
 4705 00d8 9DE7     		b	.L266
ARM GAS  C:\Users\kotaro\AppData\Local\Temp\cc7z3AXq.s 			page 102


 4706              	.L279:
 4707 00da 00BF     		.align	2
 4708              	.L278:
 4709 00dc 00409C45 		.word	1167867904
 4710 00e0 00800444 		.word	1141145600
 4711 00e4 00003443 		.word	1127481344
 4712 00e8 00004844 		.word	1145569280
 4713 00ec 00004042 		.word	1111490560
 4714 00f0 00000000 		.word	control_wall_flag
 4715 00f4 0000FA45 		.word	1174011904
 4716 00f8 00001644 		.word	1142292480
 4717 00fc 00000743 		.word	1124532224
 4718 0100 00003442 		.word	1110704128
 4719 0104 00004442 		.word	1111752704
 4720 0108 00005C42 		.word	1113325568
 4721 010c 00409C46 		.word	1184645120
 4722 0110 0040B442 		.word	1119109120
 4723 0114 00008842 		.word	1116209152
 4724 0118 00005042 		.word	1112539136
 4725              		.cfi_endproc
 4726              	.LFE190:
 4728              		.section	.text.Motion_FastestStart,"ax",%progbits
 4729              		.align	1
 4730              		.global	Motion_FastestStart
 4731              		.syntax unified
 4732              		.thumb
 4733              		.thumb_func
 4734              		.fpu fpv4-sp-d16
 4736              	Motion_FastestStart:
 4737              	.LFB191:
1019:Src/motion.c  **** 
1020:Src/motion.c  **** void Motion_FastestStart(uint8_t step, float velo_end)
1021:Src/motion.c  **** {
 4738              		.loc 1 1021 0
 4739              		.cfi_startproc
 4740              		@ args = 0, pretend = 0, frame = 0
 4741              		@ frame_needed = 0, uses_anonymous_args = 0
 4742              	.LVL321:
 4743 0000 08B5     		push	{r3, lr}
 4744              	.LCFI75:
 4745              		.cfi_def_cfa_offset 8
 4746              		.cfi_offset 3, -8
 4747              		.cfi_offset 14, -4
 4748 0002 2DED028B 		vpush.64	{d8}
 4749              	.LCFI76:
 4750              		.cfi_def_cfa_offset 16
 4751              		.cfi_offset 80, -16
 4752              		.cfi_offset 81, -12
 4753 0006 F0EE401A 		vmov.f32	s3, s0
1022:Src/motion.c  ****     diagonal_step = 90.0f * sqrt(2);
 4754              		.loc 1 1022 0
 4755 000a 284B     		ldr	r3, .L287
 4756 000c 284A     		ldr	r2, .L287+4
 4757 000e 1A60     		str	r2, [r3]	@ float
 4758              	.LVL322:
1023:Src/motion.c  ****     float velo = VELO_EST;
1024:Src/motion.c  ****     if (step > 2)
ARM GAS  C:\Users\kotaro\AppData\Local\Temp\cc7z3AXq.s 			page 103


 4759              		.loc 1 1024 0
 4760 0010 0228     		cmp	r0, #2
 4761 0012 47D9     		bls	.L284
1025:Src/motion.c  ****     {
1026:Src/motion.c  ****         velo = VELO_EST + gain_velo * (float)(step - 1);
 4762              		.loc 1 1026 0
 4763 0014 431E     		subs	r3, r0, #1
 4764 0016 01EE103A 		vmov	s2, r3	@ int
 4765 001a B8EEC11A 		vcvt.f32.s32	s2, s2
 4766 001e 254B     		ldr	r3, .L287+8
 4767 0020 D3ED007A 		vldr.32	s15, [r3]
 4768 0024 21EE271A 		vmul.f32	s2, s2, s15
 4769 0028 DFED237A 		vldr.32	s15, .L287+12
 4770 002c 31EE271A 		vadd.f32	s2, s2, s15
 4771              	.LVL323:
 4772              	.L281:
1027:Src/motion.c  ****     }
1028:Src/motion.c  ****     if (velo > 4000.0f)
 4773              		.loc 1 1028 0
 4774 0030 DFED227A 		vldr.32	s15, .L287+16
 4775 0034 B4EEE71A 		vcmpe.f32	s2, s15
 4776 0038 F1EE10FA 		vmrs	APSR_nzcv, FPSCR
 4777 003c 01DD     		ble	.L282
1029:Src/motion.c  ****     {
1030:Src/motion.c  ****         velo = 4000.0f;
 4778              		.loc 1 1030 0
 4779 003e B0EE671A 		vmov.f32	s2, s15
 4780              	.LVL324:
 4781              	.L282:
1031:Src/motion.c  ****     }
1032:Src/motion.c  ****     Control_StrCalculator(40.0f + 90.0f * (float)step, 0.0f, velo, velo_end, ACCEL_EST, 1);
 4782              		.loc 1 1032 0
 4783 0042 07EE900A 		vmov	s15, r0	@ int
 4784 0046 F8EE677A 		vcvt.f32.u32	s15, s15
 4785 004a 9FED1D0A 		vldr.32	s0, .L287+20
 4786              	.LVL325:
 4787 004e 67EE807A 		vmul.f32	s15, s15, s0
 4788 0052 9FED1C8A 		vldr.32	s16, .L287+24
 4789 0056 F7EE002A 		vmov.f32	s5, #1.0e+0
 4790 005a 9FED1B2A 		vldr.32	s4, .L287+28
 4791 005e F0EE480A 		vmov.f32	s1, s16
 4792 0062 9FED1A0A 		vldr.32	s0, .L287+32
 4793 0066 37EE800A 		vadd.f32	s0, s15, s0
 4794 006a FFF7FEFF 		bl	Control_StrCalculator
 4795              	.LVL326:
1033:Src/motion.c  ****     Control_AngCalculator(0, 0, 0, 0, 1, 0);
 4796              		.loc 1 1033 0
 4797 006e F0EE482A 		vmov.f32	s5, s16
 4798 0072 B7EE002A 		vmov.f32	s4, #1.0e+0
 4799 0076 F0EE481A 		vmov.f32	s3, s16
 4800 007a B0EE481A 		vmov.f32	s2, s16
 4801 007e F0EE480A 		vmov.f32	s1, s16
 4802 0082 B0EE480A 		vmov.f32	s0, s16
 4803 0086 FFF7FEFF 		bl	Control_AngCalculator
 4804              	.LVL327:
1034:Src/motion.c  ****     motion_end_flag = FALSE;
 4805              		.loc 1 1034 0
ARM GAS  C:\Users\kotaro\AppData\Local\Temp\cc7z3AXq.s 			page 104


 4806 008a 114B     		ldr	r3, .L287+36
 4807 008c 0022     		movs	r2, #0
 4808 008e 1A70     		strb	r2, [r3]
 4809              	.L283:
1035:Src/motion.c  ****     while (motion_end_flag == FALSE)
 4810              		.loc 1 1035 0 discriminator 1
 4811 0090 0F4B     		ldr	r3, .L287+36
 4812 0092 1B78     		ldrb	r3, [r3]	@ zero_extendqisi2
 4813 0094 002B     		cmp	r3, #0
 4814 0096 FBD0     		beq	.L283
1036:Src/motion.c  ****     {
1037:Src/motion.c  ****     }
1038:Src/motion.c  ****     enc.offset = 0.0f;
 4815              		.loc 1 1038 0
 4816 0098 0E4B     		ldr	r3, .L287+40
 4817 009a 0022     		movs	r2, #0
 4818 009c 9A60     		str	r2, [r3, #8]	@ float
1039:Src/motion.c  **** }
 4819              		.loc 1 1039 0
 4820 009e BDEC028B 		vldm	sp!, {d8}
 4821              	.LCFI77:
 4822              		.cfi_remember_state
 4823              		.cfi_restore 80
 4824              		.cfi_restore 81
 4825              		.cfi_def_cfa_offset 8
 4826 00a2 08BD     		pop	{r3, pc}
 4827              	.LVL328:
 4828              	.L284:
 4829              	.LCFI78:
 4830              		.cfi_restore_state
1023:Src/motion.c  ****     if (step > 2)
 4831              		.loc 1 1023 0
 4832 00a4 9FED041A 		vldr.32	s2, .L287+12
 4833 00a8 C2E7     		b	.L281
 4834              	.L288:
 4835 00aa 00BF     		.align	2
 4836              	.L287:
 4837 00ac 00000000 		.word	.LANCHOR2
 4838 00b0 F68EFE42 		.word	1123978998
 4839 00b4 00000000 		.word	.LANCHOR0
 4840 00b8 00009644 		.word	1150681088
 4841 00bc 00007A45 		.word	1165623296
 4842 00c0 0000B442 		.word	1119092736
 4843 00c4 00000000 		.word	0
 4844 00c8 00409C46 		.word	1184645120
 4845 00cc 00002042 		.word	1109393408
 4846 00d0 00000000 		.word	motion_end_flag
 4847 00d4 00000000 		.word	enc
 4848              		.cfi_endproc
 4849              	.LFE191:
 4851              		.section	.text.Motion_FastestStraight,"ax",%progbits
 4852              		.align	1
 4853              		.global	Motion_FastestStraight
 4854              		.syntax unified
 4855              		.thumb
 4856              		.thumb_func
 4857              		.fpu fpv4-sp-d16
ARM GAS  C:\Users\kotaro\AppData\Local\Temp\cc7z3AXq.s 			page 105


 4859              	Motion_FastestStraight:
 4860              	.LFB192:
1040:Src/motion.c  **** 
1041:Src/motion.c  **** void Motion_FastestStraight(uint8_t step, float v_start, float v_end)
1042:Src/motion.c  **** {
 4861              		.loc 1 1042 0
 4862              		.cfi_startproc
 4863              		@ args = 0, pretend = 0, frame = 0
 4864              		@ frame_needed = 0, uses_anonymous_args = 0
 4865              	.LVL329:
 4866 0000 08B5     		push	{r3, lr}
 4867              	.LCFI79:
 4868              		.cfi_def_cfa_offset 8
 4869              		.cfi_offset 3, -8
 4870              		.cfi_offset 14, -4
 4871 0002 F0EE601A 		vmov.f32	s3, s1
1043:Src/motion.c  ****     float velo = VELO_EST + gain_velo * (float)step;
 4872              		.loc 1 1043 0
 4873 0006 07EE900A 		vmov	s15, r0	@ int
 4874 000a F8EE677A 		vcvt.f32.u32	s15, s15
 4875 000e 1E4B     		ldr	r3, .L294
 4876 0010 93ED001A 		vldr.32	s2, [r3]
 4877 0014 27EE811A 		vmul.f32	s2, s15, s2
 4878 0018 9FED1C7A 		vldr.32	s14, .L294+4
 4879 001c 31EE071A 		vadd.f32	s2, s2, s14
 4880              	.LVL330:
1044:Src/motion.c  ****     if (velo > 4000.0f)
 4881              		.loc 1 1044 0
 4882 0020 9FED1B7A 		vldr.32	s14, .L294+8
 4883 0024 B4EEC71A 		vcmpe.f32	s2, s14
 4884 0028 F1EE10FA 		vmrs	APSR_nzcv, FPSCR
 4885 002c 01DD     		ble	.L290
1045:Src/motion.c  ****     {
1046:Src/motion.c  ****         velo = 4000.0f;
 4886              		.loc 1 1046 0
 4887 002e B0EE471A 		vmov.f32	s2, s14
 4888              	.LVL331:
 4889              	.L290:
1047:Src/motion.c  ****     }
1048:Src/motion.c  ****     Control_StrCalculator(90.0f * (float)step - enc.offset, v_start, velo, v_end, ACCEL_EST, 1);
 4890              		.loc 1 1048 0
 4891 0032 9FED187A 		vldr.32	s14, .L294+12
 4892 0036 67EE877A 		vmul.f32	s15, s15, s14
 4893 003a 174B     		ldr	r3, .L294+16
 4894 003c 93ED027A 		vldr.32	s14, [r3, #8]
 4895 0040 F7EE002A 		vmov.f32	s5, #1.0e+0
 4896 0044 9FED152A 		vldr.32	s4, .L294+20
 4897 0048 F0EE400A 		vmov.f32	s1, s0
 4898              	.LVL332:
 4899 004c 37EEC70A 		vsub.f32	s0, s15, s14
 4900              	.LVL333:
 4901 0050 FFF7FEFF 		bl	Control_StrCalculator
 4902              	.LVL334:
1049:Src/motion.c  ****     Control_AngCalculator(0, 0, 0, 0, 1, 0);
 4903              		.loc 1 1049 0
 4904 0054 9FED120A 		vldr.32	s0, .L294+24
 4905 0058 F0EE402A 		vmov.f32	s5, s0
ARM GAS  C:\Users\kotaro\AppData\Local\Temp\cc7z3AXq.s 			page 106


 4906 005c B7EE002A 		vmov.f32	s4, #1.0e+0
 4907 0060 F0EE401A 		vmov.f32	s3, s0
 4908 0064 B0EE401A 		vmov.f32	s2, s0
 4909 0068 F0EE400A 		vmov.f32	s1, s0
 4910 006c FFF7FEFF 		bl	Control_AngCalculator
 4911              	.LVL335:
1050:Src/motion.c  ****     motion_end_flag = FALSE;
 4912              		.loc 1 1050 0
 4913 0070 0C4B     		ldr	r3, .L294+28
 4914 0072 0022     		movs	r2, #0
 4915 0074 1A70     		strb	r2, [r3]
 4916              	.L291:
1051:Src/motion.c  ****     while (motion_end_flag == FALSE)
 4917              		.loc 1 1051 0 discriminator 1
 4918 0076 0B4B     		ldr	r3, .L294+28
 4919 0078 1B78     		ldrb	r3, [r3]	@ zero_extendqisi2
 4920 007a 002B     		cmp	r3, #0
 4921 007c FBD0     		beq	.L291
1052:Src/motion.c  ****     {
1053:Src/motion.c  ****     }
1054:Src/motion.c  ****     enc.offset = 0.0f;
 4922              		.loc 1 1054 0
 4923 007e 064B     		ldr	r3, .L294+16
 4924 0080 0022     		movs	r2, #0
 4925 0082 9A60     		str	r2, [r3, #8]	@ float
1055:Src/motion.c  **** }
 4926              		.loc 1 1055 0
 4927 0084 08BD     		pop	{r3, pc}
 4928              	.L295:
 4929 0086 00BF     		.align	2
 4930              	.L294:
 4931 0088 00000000 		.word	.LANCHOR0
 4932 008c 00009644 		.word	1150681088
 4933 0090 00007A45 		.word	1165623296
 4934 0094 0000B442 		.word	1119092736
 4935 0098 00000000 		.word	enc
 4936 009c 00409C46 		.word	1184645120
 4937 00a0 00000000 		.word	0
 4938 00a4 00000000 		.word	motion_end_flag
 4939              		.cfi_endproc
 4940              	.LFE192:
 4942              		.section	.text.Motion_FastestGoal,"ax",%progbits
 4943              		.align	1
 4944              		.global	Motion_FastestGoal
 4945              		.syntax unified
 4946              		.thumb
 4947              		.thumb_func
 4948              		.fpu fpv4-sp-d16
 4950              	Motion_FastestGoal:
 4951              	.LFB193:
1056:Src/motion.c  **** 
1057:Src/motion.c  **** void Motion_FastestGoal(uint8_t step, float v_start)
1058:Src/motion.c  **** {
 4952              		.loc 1 1058 0
 4953              		.cfi_startproc
 4954              		@ args = 0, pretend = 0, frame = 0
 4955              		@ frame_needed = 0, uses_anonymous_args = 0
ARM GAS  C:\Users\kotaro\AppData\Local\Temp\cc7z3AXq.s 			page 107


 4956              	.LVL336:
 4957 0000 08B5     		push	{r3, lr}
 4958              	.LCFI80:
 4959              		.cfi_def_cfa_offset 8
 4960              		.cfi_offset 3, -8
 4961              		.cfi_offset 14, -4
 4962 0002 2DED028B 		vpush.64	{d8}
 4963              	.LCFI81:
 4964              		.cfi_def_cfa_offset 16
 4965              		.cfi_offset 80, -16
 4966              		.cfi_offset 81, -12
 4967 0006 F0EE400A 		vmov.f32	s1, s0
 4968              	.LVL337:
1059:Src/motion.c  ****     float velo = VELO_EST;
1060:Src/motion.c  ****     if (step > 2)
 4969              		.loc 1 1060 0
 4970 000a 0228     		cmp	r0, #2
 4971 000c 4FD9     		bls	.L300
1061:Src/motion.c  ****     {
1062:Src/motion.c  ****         velo = VELO_EST + gain_velo * (step - 1);
 4972              		.loc 1 1062 0
 4973 000e 431E     		subs	r3, r0, #1
 4974 0010 01EE103A 		vmov	s2, r3	@ int
 4975 0014 B8EEC11A 		vcvt.f32.s32	s2, s2
 4976 0018 264B     		ldr	r3, .L303
 4977 001a D3ED007A 		vldr.32	s15, [r3]
 4978 001e 21EE271A 		vmul.f32	s2, s2, s15
 4979 0022 DFED257A 		vldr.32	s15, .L303+4
 4980 0026 31EE271A 		vadd.f32	s2, s2, s15
 4981              	.LVL338:
 4982              	.L297:
1063:Src/motion.c  ****     }
1064:Src/motion.c  ****     if (velo > 4000.0f)
 4983              		.loc 1 1064 0
 4984 002a DFED247A 		vldr.32	s15, .L303+8
 4985 002e B4EEE71A 		vcmpe.f32	s2, s15
 4986 0032 F1EE10FA 		vmrs	APSR_nzcv, FPSCR
 4987 0036 01DD     		ble	.L298
1065:Src/motion.c  ****     {
1066:Src/motion.c  ****         velo = 4000.0f;
 4988              		.loc 1 1066 0
 4989 0038 B0EE671A 		vmov.f32	s2, s15
 4990              	.LVL339:
 4991              	.L298:
1067:Src/motion.c  ****     }
1068:Src/motion.c  ****     Control_StrCalculator(90.0f + 90.0f * (float)step - enc.offset, v_start, velo, 0, ACCEL_EST, 1)
 4992              		.loc 1 1068 0
 4993 003c 07EE900A 		vmov	s15, r0	@ int
 4994 0040 F8EE677A 		vcvt.f32.u32	s15, s15
 4995 0044 9FED1E7A 		vldr.32	s14, .L303+12
 4996 0048 67EE877A 		vmul.f32	s15, s15, s14
 4997 004c 77EE877A 		vadd.f32	s15, s15, s14
 4998 0050 1C4B     		ldr	r3, .L303+16
 4999 0052 93ED020A 		vldr.32	s0, [r3, #8]
 5000              	.LVL340:
 5001 0056 9FED1C8A 		vldr.32	s16, .L303+20
 5002 005a F7EE002A 		vmov.f32	s5, #1.0e+0
ARM GAS  C:\Users\kotaro\AppData\Local\Temp\cc7z3AXq.s 			page 108


 5003 005e 9FED1B2A 		vldr.32	s4, .L303+24
 5004 0062 F0EE481A 		vmov.f32	s3, s16
 5005 0066 37EEC00A 		vsub.f32	s0, s15, s0
 5006 006a FFF7FEFF 		bl	Control_StrCalculator
 5007              	.LVL341:
1069:Src/motion.c  ****     Control_AngCalculator(0, 0, 0, 0, 1, 0);
 5008              		.loc 1 1069 0
 5009 006e F0EE482A 		vmov.f32	s5, s16
 5010 0072 B7EE002A 		vmov.f32	s4, #1.0e+0
 5011 0076 F0EE481A 		vmov.f32	s3, s16
 5012 007a B0EE481A 		vmov.f32	s2, s16
 5013 007e F0EE480A 		vmov.f32	s1, s16
 5014 0082 B0EE480A 		vmov.f32	s0, s16
 5015 0086 FFF7FEFF 		bl	Control_AngCalculator
 5016              	.LVL342:
1070:Src/motion.c  ****     motion_end_flag = FALSE;
 5017              		.loc 1 1070 0
 5018 008a 114B     		ldr	r3, .L303+28
 5019 008c 0022     		movs	r2, #0
 5020 008e 1A70     		strb	r2, [r3]
 5021              	.L299:
1071:Src/motion.c  ****     while (motion_end_flag == FALSE)
 5022              		.loc 1 1071 0 discriminator 1
 5023 0090 0F4B     		ldr	r3, .L303+28
 5024 0092 1B78     		ldrb	r3, [r3]	@ zero_extendqisi2
 5025 0094 002B     		cmp	r3, #0
 5026 0096 FBD0     		beq	.L299
1072:Src/motion.c  ****     {
1073:Src/motion.c  ****     }
1074:Src/motion.c  ****     straight.v_now = 0;
 5027              		.loc 1 1074 0
 5028 0098 0023     		movs	r3, #0
 5029 009a 0E4A     		ldr	r2, .L303+32
 5030 009c D360     		str	r3, [r2, #12]	@ float
1075:Src/motion.c  ****     angle.v_now = 0;
 5031              		.loc 1 1075 0
 5032 009e 0E4A     		ldr	r2, .L303+36
 5033 00a0 D360     		str	r3, [r2, #12]	@ float
1076:Src/motion.c  ****     HAL_Delay(100);
 5034              		.loc 1 1076 0
 5035 00a2 6420     		movs	r0, #100
 5036 00a4 FFF7FEFF 		bl	HAL_Delay
 5037              	.LVL343:
1077:Src/motion.c  **** }
 5038              		.loc 1 1077 0
 5039 00a8 BDEC028B 		vldm	sp!, {d8}
 5040              	.LCFI82:
 5041              		.cfi_remember_state
 5042              		.cfi_restore 80
 5043              		.cfi_restore 81
 5044              		.cfi_def_cfa_offset 8
 5045 00ac 08BD     		pop	{r3, pc}
 5046              	.LVL344:
 5047              	.L300:
 5048              	.LCFI83:
 5049              		.cfi_restore_state
1059:Src/motion.c  ****     if (step > 2)
ARM GAS  C:\Users\kotaro\AppData\Local\Temp\cc7z3AXq.s 			page 109


 5050              		.loc 1 1059 0
 5051 00ae 9FED021A 		vldr.32	s2, .L303+4
 5052 00b2 BAE7     		b	.L297
 5053              	.L304:
 5054              		.align	2
 5055              	.L303:
 5056 00b4 00000000 		.word	.LANCHOR0
 5057 00b8 00009644 		.word	1150681088
 5058 00bc 00007A45 		.word	1165623296
 5059 00c0 0000B442 		.word	1119092736
 5060 00c4 00000000 		.word	enc
 5061 00c8 00000000 		.word	0
 5062 00cc 00409C46 		.word	1184645120
 5063 00d0 00000000 		.word	motion_end_flag
 5064 00d4 00000000 		.word	straight
 5065 00d8 00000000 		.word	angle
 5066              		.cfi_endproc
 5067              	.LFE193:
 5069              		.section	.text.Motion_FastestAdjust_L,"ax",%progbits
 5070              		.align	1
 5071              		.global	Motion_FastestAdjust_L
 5072              		.syntax unified
 5073              		.thumb
 5074              		.thumb_func
 5075              		.fpu fpv4-sp-d16
 5077              	Motion_FastestAdjust_L:
 5078              	.LFB194:
1078:Src/motion.c  **** 
1079:Src/motion.c  **** void Motion_FastestAdjust_L(uint16_t step, float velo_s)
1080:Src/motion.c  **** {
 5079              		.loc 1 1080 0
 5080              		.cfi_startproc
 5081              		@ args = 0, pretend = 0, frame = 0
 5082              		@ frame_needed = 0, uses_anonymous_args = 0
 5083              	.LVL345:
 5084 0000 08B5     		push	{r3, lr}
 5085              	.LCFI84:
 5086              		.cfi_def_cfa_offset 8
 5087              		.cfi_offset 3, -8
 5088              		.cfi_offset 14, -4
 5089 0002 2DED028B 		vpush.64	{d8}
 5090              	.LCFI85:
 5091              		.cfi_def_cfa_offset 16
 5092              		.cfi_offset 80, -16
 5093              		.cfi_offset 81, -12
 5094 0006 B0EE408A 		vmov.f32	s16, s0
1081:Src/motion.c  ****     if (step == 1)
 5095              		.loc 1 1081 0
 5096 000a 0128     		cmp	r0, #1
 5097 000c 4ED0     		beq	.L311
1082:Src/motion.c  ****     {
1083:Src/motion.c  ****         Control_WallEdgeAble(0b0010);
1084:Src/motion.c  ****         Control_StrCalculator(90.0f, velo_s, VELO_EST, VELO_EST, ACCEL_EST, 1);
1085:Src/motion.c  ****         Control_AngCalculator(0, 0, 0, 0, 1, 0);
1086:Src/motion.c  ****     }
1087:Src/motion.c  ****     else
1088:Src/motion.c  ****     {
ARM GAS  C:\Users\kotaro\AppData\Local\Temp\cc7z3AXq.s 			page 110


1089:Src/motion.c  ****         Control_WallEdgeAble(0b0010);
 5098              		.loc 1 1089 0
 5099 000e 0220     		movs	r0, #2
 5100              	.LVL346:
 5101 0010 FFF7FEFF 		bl	Control_WallEdgeAble
 5102              	.LVL347:
1090:Src/motion.c  ****         Control_StrCalculator(90.0f, velo_s, VELO_EST, VELO_EST, ACCEL_EST, 1);
 5103              		.loc 1 1090 0
 5104 0014 9FED351A 		vldr.32	s2, .L312
 5105 0018 F7EE002A 		vmov.f32	s5, #1.0e+0
 5106 001c 9FED342A 		vldr.32	s4, .L312+4
 5107 0020 F0EE411A 		vmov.f32	s3, s2
 5108 0024 F0EE480A 		vmov.f32	s1, s16
 5109 0028 9FED320A 		vldr.32	s0, .L312+8
 5110 002c FFF7FEFF 		bl	Control_StrCalculator
 5111              	.LVL348:
1091:Src/motion.c  ****         Control_AngCalculator(0, 0, 0, 0, 1, 0);
 5112              		.loc 1 1091 0
 5113 0030 9FED310A 		vldr.32	s0, .L312+12
 5114 0034 F0EE402A 		vmov.f32	s5, s0
 5115 0038 B7EE002A 		vmov.f32	s4, #1.0e+0
 5116 003c F0EE401A 		vmov.f32	s3, s0
 5117 0040 B0EE401A 		vmov.f32	s2, s0
 5118 0044 F0EE400A 		vmov.f32	s1, s0
 5119 0048 FFF7FEFF 		bl	Control_AngCalculator
 5120              	.LVL349:
1092:Src/motion.c  ****         motion_end_flag = FALSE;
 5121              		.loc 1 1092 0
 5122 004c 2B4B     		ldr	r3, .L312+16
 5123 004e 0022     		movs	r2, #0
 5124 0050 1A70     		strb	r2, [r3]
 5125              	.L308:
1093:Src/motion.c  ****         while (motion_end_flag == FALSE)
 5126              		.loc 1 1093 0 discriminator 1
 5127 0052 2A4B     		ldr	r3, .L312+16
 5128 0054 1B78     		ldrb	r3, [r3]	@ zero_extendqisi2
 5129 0056 002B     		cmp	r3, #0
 5130 0058 FBD0     		beq	.L308
1094:Src/motion.c  ****         {
1095:Src/motion.c  ****         }
1096:Src/motion.c  ****         Control_StrCalculator(90.0f, velo_s, VELO_EST, VELO_EST, ACCEL_EST, 1);
 5131              		.loc 1 1096 0
 5132 005a 9FED241A 		vldr.32	s2, .L312
 5133 005e F7EE002A 		vmov.f32	s5, #1.0e+0
 5134 0062 9FED232A 		vldr.32	s4, .L312+4
 5135 0066 F0EE411A 		vmov.f32	s3, s2
 5136 006a F0EE480A 		vmov.f32	s1, s16
 5137 006e 9FED210A 		vldr.32	s0, .L312+8
 5138 0072 FFF7FEFF 		bl	Control_StrCalculator
 5139              	.LVL350:
1097:Src/motion.c  ****         Control_AngCalculator(0, 0, 0, 0, 1, 0);
 5140              		.loc 1 1097 0
 5141 0076 9FED200A 		vldr.32	s0, .L312+12
 5142 007a F0EE402A 		vmov.f32	s5, s0
 5143 007e B7EE002A 		vmov.f32	s4, #1.0e+0
 5144 0082 F0EE401A 		vmov.f32	s3, s0
 5145 0086 B0EE401A 		vmov.f32	s2, s0
ARM GAS  C:\Users\kotaro\AppData\Local\Temp\cc7z3AXq.s 			page 111


 5146 008a F0EE400A 		vmov.f32	s1, s0
 5147 008e FFF7FEFF 		bl	Control_AngCalculator
 5148              	.LVL351:
 5149              	.L307:
1098:Src/motion.c  ****     }
1099:Src/motion.c  ****     motion_end_flag = FALSE;
 5150              		.loc 1 1099 0
 5151 0092 1A4B     		ldr	r3, .L312+16
 5152 0094 0022     		movs	r2, #0
 5153 0096 1A70     		strb	r2, [r3]
 5154              	.L309:
1100:Src/motion.c  ****     while (motion_end_flag == FALSE)
 5155              		.loc 1 1100 0 discriminator 1
 5156 0098 184B     		ldr	r3, .L312+16
 5157 009a 1B78     		ldrb	r3, [r3]	@ zero_extendqisi2
 5158 009c 002B     		cmp	r3, #0
 5159 009e FBD0     		beq	.L309
1101:Src/motion.c  ****     {
1102:Src/motion.c  ****     }
1103:Src/motion.c  ****     enc.offset = 0.0f;
 5160              		.loc 1 1103 0
 5161 00a0 174B     		ldr	r3, .L312+20
 5162 00a2 0022     		movs	r2, #0
 5163 00a4 9A60     		str	r2, [r3, #8]	@ float
1104:Src/motion.c  **** }
 5164              		.loc 1 1104 0
 5165 00a6 BDEC028B 		vldm	sp!, {d8}
 5166              	.LCFI86:
 5167              		.cfi_remember_state
 5168              		.cfi_restore 80
 5169              		.cfi_restore 81
 5170              		.cfi_def_cfa_offset 8
 5171              	.LVL352:
 5172 00aa 08BD     		pop	{r3, pc}
 5173              	.LVL353:
 5174              	.L311:
 5175              	.LCFI87:
 5176              		.cfi_restore_state
1083:Src/motion.c  ****         Control_StrCalculator(90.0f, velo_s, VELO_EST, VELO_EST, ACCEL_EST, 1);
 5177              		.loc 1 1083 0
 5178 00ac 0220     		movs	r0, #2
 5179              	.LVL354:
 5180 00ae FFF7FEFF 		bl	Control_WallEdgeAble
 5181              	.LVL355:
1084:Src/motion.c  ****         Control_AngCalculator(0, 0, 0, 0, 1, 0);
 5182              		.loc 1 1084 0
 5183 00b2 9FED0E1A 		vldr.32	s2, .L312
 5184 00b6 F7EE002A 		vmov.f32	s5, #1.0e+0
 5185 00ba 9FED0D2A 		vldr.32	s4, .L312+4
 5186 00be F0EE411A 		vmov.f32	s3, s2
 5187 00c2 F0EE480A 		vmov.f32	s1, s16
 5188 00c6 9FED0B0A 		vldr.32	s0, .L312+8
 5189 00ca FFF7FEFF 		bl	Control_StrCalculator
 5190              	.LVL356:
1085:Src/motion.c  ****     }
 5191              		.loc 1 1085 0
 5192 00ce 9FED0A0A 		vldr.32	s0, .L312+12
ARM GAS  C:\Users\kotaro\AppData\Local\Temp\cc7z3AXq.s 			page 112


 5193 00d2 F0EE402A 		vmov.f32	s5, s0
 5194 00d6 B7EE002A 		vmov.f32	s4, #1.0e+0
 5195 00da F0EE401A 		vmov.f32	s3, s0
 5196 00de B0EE401A 		vmov.f32	s2, s0
 5197 00e2 F0EE400A 		vmov.f32	s1, s0
 5198 00e6 FFF7FEFF 		bl	Control_AngCalculator
 5199              	.LVL357:
 5200 00ea D2E7     		b	.L307
 5201              	.L313:
 5202              		.align	2
 5203              	.L312:
 5204 00ec 00009644 		.word	1150681088
 5205 00f0 00409C46 		.word	1184645120
 5206 00f4 0000B442 		.word	1119092736
 5207 00f8 00000000 		.word	0
 5208 00fc 00000000 		.word	motion_end_flag
 5209 0100 00000000 		.word	enc
 5210              		.cfi_endproc
 5211              	.LFE194:
 5213              		.section	.text.Motion_FastestAdjust_R,"ax",%progbits
 5214              		.align	1
 5215              		.global	Motion_FastestAdjust_R
 5216              		.syntax unified
 5217              		.thumb
 5218              		.thumb_func
 5219              		.fpu fpv4-sp-d16
 5221              	Motion_FastestAdjust_R:
 5222              	.LFB195:
1105:Src/motion.c  **** 
1106:Src/motion.c  **** void Motion_FastestAdjust_R(uint16_t step, float velo_s)
1107:Src/motion.c  **** {
 5223              		.loc 1 1107 0
 5224              		.cfi_startproc
 5225              		@ args = 0, pretend = 0, frame = 0
 5226              		@ frame_needed = 0, uses_anonymous_args = 0
 5227              	.LVL358:
 5228 0000 08B5     		push	{r3, lr}
 5229              	.LCFI88:
 5230              		.cfi_def_cfa_offset 8
 5231              		.cfi_offset 3, -8
 5232              		.cfi_offset 14, -4
1108:Src/motion.c  ****     if (step == 1)
 5233              		.loc 1 1108 0
 5234 0002 0128     		cmp	r0, #1
 5235 0004 4CD0     		beq	.L320
1109:Src/motion.c  ****     {
1110:Src/motion.c  ****         Control_WallEdgeAble(0b0001);
1111:Src/motion.c  ****         Control_StrCalculator(90.0f, VELO_EST, VELO_EST, VELO_EST, ACCEL_EST, 1);
1112:Src/motion.c  ****         Control_AngCalculator(0, 0, 0, 0, 1, 0);
1113:Src/motion.c  ****     }
1114:Src/motion.c  ****     else
1115:Src/motion.c  ****     {
1116:Src/motion.c  ****         Control_WallEdgeAble(0b0001);
 5236              		.loc 1 1116 0
 5237 0006 0120     		movs	r0, #1
 5238              	.LVL359:
 5239 0008 FFF7FEFF 		bl	Control_WallEdgeAble
ARM GAS  C:\Users\kotaro\AppData\Local\Temp\cc7z3AXq.s 			page 113


 5240              	.LVL360:
1117:Src/motion.c  ****         Control_StrCalculator(90.0f, VELO_EST, VELO_EST, VELO_EST, ACCEL_EST, 1);
 5241              		.loc 1 1117 0
 5242 000c DFED340A 		vldr.32	s1, .L321
 5243 0010 F7EE002A 		vmov.f32	s5, #1.0e+0
 5244 0014 9FED332A 		vldr.32	s4, .L321+4
 5245 0018 F0EE601A 		vmov.f32	s3, s1
 5246 001c B0EE601A 		vmov.f32	s2, s1
 5247 0020 9FED310A 		vldr.32	s0, .L321+8
 5248 0024 FFF7FEFF 		bl	Control_StrCalculator
 5249              	.LVL361:
1118:Src/motion.c  ****         Control_AngCalculator(0, 0, 0, 0, 1, 0);
 5250              		.loc 1 1118 0
 5251 0028 9FED300A 		vldr.32	s0, .L321+12
 5252 002c F0EE402A 		vmov.f32	s5, s0
 5253 0030 B7EE002A 		vmov.f32	s4, #1.0e+0
 5254 0034 F0EE401A 		vmov.f32	s3, s0
 5255 0038 B0EE401A 		vmov.f32	s2, s0
 5256 003c F0EE400A 		vmov.f32	s1, s0
 5257 0040 FFF7FEFF 		bl	Control_AngCalculator
 5258              	.LVL362:
1119:Src/motion.c  ****         motion_end_flag = FALSE;
 5259              		.loc 1 1119 0
 5260 0044 2A4B     		ldr	r3, .L321+16
 5261 0046 0022     		movs	r2, #0
 5262 0048 1A70     		strb	r2, [r3]
 5263              	.L317:
1120:Src/motion.c  ****         while (motion_end_flag == FALSE)
 5264              		.loc 1 1120 0 discriminator 1
 5265 004a 294B     		ldr	r3, .L321+16
 5266 004c 1B78     		ldrb	r3, [r3]	@ zero_extendqisi2
 5267 004e 002B     		cmp	r3, #0
 5268 0050 FBD0     		beq	.L317
1121:Src/motion.c  ****         {
1122:Src/motion.c  ****         }
1123:Src/motion.c  ****         Control_StrCalculator(90.0f, VELO_EST, VELO_EST, VELO_EST, ACCEL_EST, 1);
 5269              		.loc 1 1123 0
 5270 0052 DFED230A 		vldr.32	s1, .L321
 5271 0056 F7EE002A 		vmov.f32	s5, #1.0e+0
 5272 005a 9FED222A 		vldr.32	s4, .L321+4
 5273 005e F0EE601A 		vmov.f32	s3, s1
 5274 0062 B0EE601A 		vmov.f32	s2, s1
 5275 0066 9FED200A 		vldr.32	s0, .L321+8
 5276 006a FFF7FEFF 		bl	Control_StrCalculator
 5277              	.LVL363:
1124:Src/motion.c  ****         Control_AngCalculator(0, 0, 0, 0, 1, 0);
 5278              		.loc 1 1124 0
 5279 006e 9FED1F0A 		vldr.32	s0, .L321+12
 5280 0072 F0EE402A 		vmov.f32	s5, s0
 5281 0076 B7EE002A 		vmov.f32	s4, #1.0e+0
 5282 007a F0EE401A 		vmov.f32	s3, s0
 5283 007e B0EE401A 		vmov.f32	s2, s0
 5284 0082 F0EE400A 		vmov.f32	s1, s0
 5285 0086 FFF7FEFF 		bl	Control_AngCalculator
 5286              	.LVL364:
 5287              	.L316:
1125:Src/motion.c  ****     }
ARM GAS  C:\Users\kotaro\AppData\Local\Temp\cc7z3AXq.s 			page 114


1126:Src/motion.c  ****     motion_end_flag = FALSE;
 5288              		.loc 1 1126 0
 5289 008a 194B     		ldr	r3, .L321+16
 5290 008c 0022     		movs	r2, #0
 5291 008e 1A70     		strb	r2, [r3]
 5292              	.L318:
1127:Src/motion.c  ****     while (motion_end_flag == FALSE)
 5293              		.loc 1 1127 0 discriminator 1
 5294 0090 174B     		ldr	r3, .L321+16
 5295 0092 1B78     		ldrb	r3, [r3]	@ zero_extendqisi2
 5296 0094 002B     		cmp	r3, #0
 5297 0096 FBD0     		beq	.L318
1128:Src/motion.c  ****     {
1129:Src/motion.c  ****     }
1130:Src/motion.c  ****     enc.offset = 0.0f;
 5298              		.loc 1 1130 0
 5299 0098 164B     		ldr	r3, .L321+20
 5300 009a 0022     		movs	r2, #0
 5301 009c 9A60     		str	r2, [r3, #8]	@ float
1131:Src/motion.c  **** }
 5302              		.loc 1 1131 0
 5303 009e 08BD     		pop	{r3, pc}
 5304              	.LVL365:
 5305              	.L320:
1110:Src/motion.c  ****         Control_StrCalculator(90.0f, VELO_EST, VELO_EST, VELO_EST, ACCEL_EST, 1);
 5306              		.loc 1 1110 0
 5307 00a0 FFF7FEFF 		bl	Control_WallEdgeAble
 5308              	.LVL366:
1111:Src/motion.c  ****         Control_AngCalculator(0, 0, 0, 0, 1, 0);
 5309              		.loc 1 1111 0
 5310 00a4 DFED0E0A 		vldr.32	s1, .L321
 5311 00a8 F7EE002A 		vmov.f32	s5, #1.0e+0
 5312 00ac 9FED0D2A 		vldr.32	s4, .L321+4
 5313 00b0 F0EE601A 		vmov.f32	s3, s1
 5314 00b4 B0EE601A 		vmov.f32	s2, s1
 5315 00b8 9FED0B0A 		vldr.32	s0, .L321+8
 5316 00bc FFF7FEFF 		bl	Control_StrCalculator
 5317              	.LVL367:
1112:Src/motion.c  ****     }
 5318              		.loc 1 1112 0
 5319 00c0 9FED0A0A 		vldr.32	s0, .L321+12
 5320 00c4 F0EE402A 		vmov.f32	s5, s0
 5321 00c8 B7EE002A 		vmov.f32	s4, #1.0e+0
 5322 00cc F0EE401A 		vmov.f32	s3, s0
 5323 00d0 B0EE401A 		vmov.f32	s2, s0
 5324 00d4 F0EE400A 		vmov.f32	s1, s0
 5325 00d8 FFF7FEFF 		bl	Control_AngCalculator
 5326              	.LVL368:
 5327 00dc D5E7     		b	.L316
 5328              	.L322:
 5329 00de 00BF     		.align	2
 5330              	.L321:
 5331 00e0 00009644 		.word	1150681088
 5332 00e4 00409C46 		.word	1184645120
 5333 00e8 0000B442 		.word	1119092736
 5334 00ec 00000000 		.word	0
 5335 00f0 00000000 		.word	motion_end_flag
ARM GAS  C:\Users\kotaro\AppData\Local\Temp\cc7z3AXq.s 			page 115


 5336 00f4 00000000 		.word	enc
 5337              		.cfi_endproc
 5338              	.LFE195:
 5340              		.section	.text.Fastest_StrTurn,"ax",%progbits
 5341              		.align	1
 5342              		.global	Fastest_StrTurn
 5343              		.syntax unified
 5344              		.thumb
 5345              		.thumb_func
 5346              		.fpu fpv4-sp-d16
 5348              	Fastest_StrTurn:
 5349              	.LFB196:
1132:Src/motion.c  **** 
1133:Src/motion.c  **** void Fastest_StrTurn(float offset_in, float offset_out, float velo, float v_end, float deg, float v
1134:Src/motion.c  **** {
 5350              		.loc 1 1134 0
 5351              		.cfi_startproc
 5352              		@ args = 0, pretend = 0, frame = 0
 5353              		@ frame_needed = 0, uses_anonymous_args = 0
 5354              	.LVL369:
 5355 0000 08B5     		push	{r3, lr}
 5356              	.LCFI89:
 5357              		.cfi_def_cfa_offset 8
 5358              		.cfi_offset 3, -8
 5359              		.cfi_offset 14, -4
 5360 0002 2DED088B 		vpush.64	{d8, d9, d10, d11}
 5361              	.LCFI90:
 5362              		.cfi_def_cfa_offset 40
 5363              		.cfi_offset 80, -40
 5364              		.cfi_offset 81, -36
 5365              		.cfi_offset 82, -32
 5366              		.cfi_offset 83, -28
 5367              		.cfi_offset 84, -24
 5368              		.cfi_offset 85, -20
 5369              		.cfi_offset 86, -16
 5370              		.cfi_offset 87, -12
 5371 0006 F0EE608A 		vmov.f32	s17, s1
 5372 000a B0EE418A 		vmov.f32	s16, s2
 5373 000e B0EE619A 		vmov.f32	s18, s3
 5374 0012 F0EE429A 		vmov.f32	s19, s4
 5375 0016 B0EE62AA 		vmov.f32	s20, s5
 5376 001a F0EE43AA 		vmov.f32	s21, s6
 5377 001e 0BEE100A 		vmov	s22, r0	@ int
1135:Src/motion.c  ****     //offset in
1136:Src/motion.c  ****     Control_StrCalculator(offset_in - enc.offset, velo, velo, velo, 1, 1);
 5378              		.loc 1 1136 0
 5379 0022 394B     		ldr	r3, .L328
 5380 0024 D3ED027A 		vldr.32	s15, [r3, #8]
 5381 0028 F7EE002A 		vmov.f32	s5, #1.0e+0
 5382              	.LVL370:
 5383 002c B0EE622A 		vmov.f32	s4, s5
 5384              	.LVL371:
 5385 0030 F0EE411A 		vmov.f32	s3, s2
 5386              	.LVL372:
 5387 0034 F0EE410A 		vmov.f32	s1, s2
 5388              	.LVL373:
 5389 0038 30EE670A 		vsub.f32	s0, s0, s15
ARM GAS  C:\Users\kotaro\AppData\Local\Temp\cc7z3AXq.s 			page 116


 5390              	.LVL374:
 5391 003c FFF7FEFF 		bl	Control_StrCalculator
 5392              	.LVL375:
1137:Src/motion.c  ****     Control_AngCalculator(0, 0, 0, 0, 1, 0);
 5393              		.loc 1 1137 0
 5394 0040 9FED320A 		vldr.32	s0, .L328+4
 5395 0044 F0EE402A 		vmov.f32	s5, s0
 5396 0048 B7EE002A 		vmov.f32	s4, #1.0e+0
 5397 004c F0EE401A 		vmov.f32	s3, s0
 5398 0050 B0EE401A 		vmov.f32	s2, s0
 5399 0054 F0EE400A 		vmov.f32	s1, s0
 5400 0058 FFF7FEFF 		bl	Control_AngCalculator
 5401              	.LVL376:
1138:Src/motion.c  ****     motion_end_flag = FALSE;
 5402              		.loc 1 1138 0
 5403 005c 2C4B     		ldr	r3, .L328+8
 5404 005e 0022     		movs	r2, #0
 5405 0060 1A70     		strb	r2, [r3]
 5406              	.L324:
1139:Src/motion.c  ****     while (motion_end_flag == FALSE)
 5407              		.loc 1 1139 0 discriminator 1
 5408 0062 2B4B     		ldr	r3, .L328+8
 5409 0064 1B78     		ldrb	r3, [r3]	@ zero_extendqisi2
 5410 0066 002B     		cmp	r3, #0
 5411 0068 FBD0     		beq	.L324
1140:Src/motion.c  ****     {
1141:Src/motion.c  ****     }
1142:Src/motion.c  ****     //turn
1143:Src/motion.c  ****     Control_StrCalculator(1200.0f, velo, velo, velo, 1, 1);
 5412              		.loc 1 1143 0
 5413 006a F7EE002A 		vmov.f32	s5, #1.0e+0
 5414 006e B0EE622A 		vmov.f32	s4, s5
 5415 0072 F0EE481A 		vmov.f32	s3, s16
 5416 0076 B0EE481A 		vmov.f32	s2, s16
 5417 007a F0EE480A 		vmov.f32	s1, s16
 5418 007e 9FED250A 		vldr.32	s0, .L328+12
 5419 0082 FFF7FEFF 		bl	Control_StrCalculator
 5420              	.LVL377:
1144:Src/motion.c  ****     Control_AngCalculator(deg, 0, velo_ang, 0, accel_ang, dir);
 5421              		.loc 1 1144 0
 5422 0086 DFED210A 		vldr.32	s1, .L328+4
 5423 008a F8EE4B2A 		vcvt.f32.u32	s5, s22
 5424 008e B0EE6A2A 		vmov.f32	s4, s21
 5425 0092 F0EE601A 		vmov.f32	s3, s1
 5426 0096 B0EE4A1A 		vmov.f32	s2, s20
 5427 009a B0EE690A 		vmov.f32	s0, s19
 5428 009e FFF7FEFF 		bl	Control_AngCalculator
 5429              	.LVL378:
1145:Src/motion.c  ****     motion_end_flag = FALSE;
 5430              		.loc 1 1145 0
 5431 00a2 1B4B     		ldr	r3, .L328+8
 5432 00a4 0022     		movs	r2, #0
 5433 00a6 1A70     		strb	r2, [r3]
 5434              	.L325:
1146:Src/motion.c  ****     while (motion_end_flag == FALSE)
 5435              		.loc 1 1146 0 discriminator 1
 5436 00a8 194B     		ldr	r3, .L328+8
ARM GAS  C:\Users\kotaro\AppData\Local\Temp\cc7z3AXq.s 			page 117


 5437 00aa 1B78     		ldrb	r3, [r3]	@ zero_extendqisi2
 5438 00ac 002B     		cmp	r3, #0
 5439 00ae FBD0     		beq	.L325
1147:Src/motion.c  ****     {
1148:Src/motion.c  ****     }
1149:Src/motion.c  ****     //offset out
1150:Src/motion.c  ****     Control_WallEdgeAble(0b0011);
 5440              		.loc 1 1150 0
 5441 00b0 0320     		movs	r0, #3
 5442 00b2 FFF7FEFF 		bl	Control_WallEdgeAble
 5443              	.LVL379:
1151:Src/motion.c  ****     Control_StrCalculator(offset_out, velo, velo, v_end, 20000.0f, 1);
 5444              		.loc 1 1151 0
 5445 00b6 F7EE002A 		vmov.f32	s5, #1.0e+0
 5446 00ba 9FED172A 		vldr.32	s4, .L328+16
 5447 00be F0EE491A 		vmov.f32	s3, s18
 5448 00c2 B0EE481A 		vmov.f32	s2, s16
 5449 00c6 F0EE480A 		vmov.f32	s1, s16
 5450 00ca B0EE680A 		vmov.f32	s0, s17
 5451 00ce FFF7FEFF 		bl	Control_StrCalculator
 5452              	.LVL380:
1152:Src/motion.c  ****     Control_AngCalculator(0, 0, 0, 0, 1, 0);
 5453              		.loc 1 1152 0
 5454 00d2 9FED0E0A 		vldr.32	s0, .L328+4
 5455 00d6 F0EE402A 		vmov.f32	s5, s0
 5456 00da B7EE002A 		vmov.f32	s4, #1.0e+0
 5457 00de F0EE401A 		vmov.f32	s3, s0
 5458 00e2 B0EE401A 		vmov.f32	s2, s0
 5459 00e6 F0EE400A 		vmov.f32	s1, s0
 5460 00ea FFF7FEFF 		bl	Control_AngCalculator
 5461              	.LVL381:
1153:Src/motion.c  ****     motion_end_flag = FALSE;
 5462              		.loc 1 1153 0
 5463 00ee 084B     		ldr	r3, .L328+8
 5464 00f0 0022     		movs	r2, #0
 5465 00f2 1A70     		strb	r2, [r3]
 5466              	.L326:
1154:Src/motion.c  ****     while (motion_end_flag == FALSE)
 5467              		.loc 1 1154 0 discriminator 1
 5468 00f4 064B     		ldr	r3, .L328+8
 5469 00f6 1B78     		ldrb	r3, [r3]	@ zero_extendqisi2
 5470 00f8 002B     		cmp	r3, #0
 5471 00fa FBD0     		beq	.L326
1155:Src/motion.c  ****     {
1156:Src/motion.c  ****     }
1157:Src/motion.c  ****     enc.offset = 0.0f;
 5472              		.loc 1 1157 0
 5473 00fc 024B     		ldr	r3, .L328
 5474 00fe 0022     		movs	r2, #0
 5475 0100 9A60     		str	r2, [r3, #8]	@ float
1158:Src/motion.c  **** }
 5476              		.loc 1 1158 0
 5477 0102 BDEC088B 		vldm	sp!, {d8-d11}
 5478              	.LCFI91:
 5479              		.cfi_restore 86
 5480              		.cfi_restore 87
 5481              		.cfi_restore 84
ARM GAS  C:\Users\kotaro\AppData\Local\Temp\cc7z3AXq.s 			page 118


 5482              		.cfi_restore 85
 5483              		.cfi_restore 82
 5484              		.cfi_restore 83
 5485              		.cfi_restore 80
 5486              		.cfi_restore 81
 5487              		.cfi_def_cfa_offset 8
 5488              	.LVL382:
 5489 0106 08BD     		pop	{r3, pc}
 5490              	.L329:
 5491              		.align	2
 5492              	.L328:
 5493 0108 00000000 		.word	enc
 5494 010c 00000000 		.word	0
 5495 0110 00000000 		.word	motion_end_flag
 5496 0114 00009644 		.word	1150681088
 5497 0118 00409C46 		.word	1184645120
 5498              		.cfi_endproc
 5499              	.LFE196:
 5501              		.section	.text.Fastest_DgnInTurn,"ax",%progbits
 5502              		.align	1
 5503              		.global	Fastest_DgnInTurn
 5504              		.syntax unified
 5505              		.thumb
 5506              		.thumb_func
 5507              		.fpu fpv4-sp-d16
 5509              	Fastest_DgnInTurn:
 5510              	.LFB197:
1159:Src/motion.c  **** 
1160:Src/motion.c  **** void Fastest_DgnInTurn(float offset_in, float offset_out, float velo, float v_end, float deg, float
1161:Src/motion.c  **** {
 5511              		.loc 1 1161 0
 5512              		.cfi_startproc
 5513              		@ args = 0, pretend = 0, frame = 0
 5514              		@ frame_needed = 0, uses_anonymous_args = 0
 5515              	.LVL383:
 5516 0000 10B5     		push	{r4, lr}
 5517              	.LCFI92:
 5518              		.cfi_def_cfa_offset 8
 5519              		.cfi_offset 4, -8
 5520              		.cfi_offset 14, -4
 5521 0002 2DED068B 		vpush.64	{d8, d9, d10}
 5522              	.LCFI93:
 5523              		.cfi_def_cfa_offset 32
 5524              		.cfi_offset 80, -32
 5525              		.cfi_offset 81, -28
 5526              		.cfi_offset 82, -24
 5527              		.cfi_offset 83, -20
 5528              		.cfi_offset 84, -16
 5529              		.cfi_offset 85, -12
 5530 0006 F0EE608A 		vmov.f32	s17, s1
 5531 000a B0EE418A 		vmov.f32	s16, s2
 5532 000e B0EE429A 		vmov.f32	s18, s4
 5533 0012 F0EE629A 		vmov.f32	s19, s5
 5534 0016 B0EE43AA 		vmov.f32	s20, s6
 5535 001a 0446     		mov	r4, r0
1162:Src/motion.c  ****     //offset in
1163:Src/motion.c  ****     Control_StrCalculator(offset_in - enc.offset, velo, velo, velo, 1, 1);
ARM GAS  C:\Users\kotaro\AppData\Local\Temp\cc7z3AXq.s 			page 119


 5536              		.loc 1 1163 0
 5537 001c 3E4B     		ldr	r3, .L337
 5538 001e D3ED027A 		vldr.32	s15, [r3, #8]
 5539 0022 F7EE002A 		vmov.f32	s5, #1.0e+0
 5540              	.LVL384:
 5541 0026 B0EE622A 		vmov.f32	s4, s5
 5542              	.LVL385:
 5543 002a F0EE411A 		vmov.f32	s3, s2
 5544              	.LVL386:
 5545 002e F0EE410A 		vmov.f32	s1, s2
 5546              	.LVL387:
 5547 0032 30EE670A 		vsub.f32	s0, s0, s15
 5548              	.LVL388:
 5549 0036 FFF7FEFF 		bl	Control_StrCalculator
 5550              	.LVL389:
1164:Src/motion.c  ****     Control_AngCalculator(0, 0, 0, 0, 1, 0);
 5551              		.loc 1 1164 0
 5552 003a 9FED380A 		vldr.32	s0, .L337+4
 5553 003e F0EE402A 		vmov.f32	s5, s0
 5554 0042 B7EE002A 		vmov.f32	s4, #1.0e+0
 5555 0046 F0EE401A 		vmov.f32	s3, s0
 5556 004a B0EE401A 		vmov.f32	s2, s0
 5557 004e F0EE400A 		vmov.f32	s1, s0
 5558 0052 FFF7FEFF 		bl	Control_AngCalculator
 5559              	.LVL390:
1165:Src/motion.c  ****     motion_end_flag = FALSE;
 5560              		.loc 1 1165 0
 5561 0056 324B     		ldr	r3, .L337+8
 5562 0058 0022     		movs	r2, #0
 5563 005a 1A70     		strb	r2, [r3]
 5564              	.L331:
1166:Src/motion.c  ****     while (motion_end_flag == FALSE)
 5565              		.loc 1 1166 0 discriminator 1
 5566 005c 304B     		ldr	r3, .L337+8
 5567 005e 1B78     		ldrb	r3, [r3]	@ zero_extendqisi2
 5568 0060 002B     		cmp	r3, #0
 5569 0062 FBD0     		beq	.L331
1167:Src/motion.c  ****     {
1168:Src/motion.c  ****     }
1169:Src/motion.c  ****     //turn
1170:Src/motion.c  ****     Control_StrCalculator(1200.0f, velo, velo, velo, 1, 1);
 5570              		.loc 1 1170 0
 5571 0064 F7EE002A 		vmov.f32	s5, #1.0e+0
 5572 0068 B0EE622A 		vmov.f32	s4, s5
 5573 006c F0EE481A 		vmov.f32	s3, s16
 5574 0070 B0EE481A 		vmov.f32	s2, s16
 5575 0074 F0EE480A 		vmov.f32	s1, s16
 5576 0078 9FED2A0A 		vldr.32	s0, .L337+12
 5577 007c FFF7FEFF 		bl	Control_StrCalculator
 5578              	.LVL391:
1171:Src/motion.c  ****     Control_AngCalculator(deg, 0, velo_ang, 0, accel_ang, dir);
 5579              		.loc 1 1171 0
 5580 0080 DFED260A 		vldr.32	s1, .L337+4
 5581 0084 07EE904A 		vmov	s15, r4	@ int
 5582 0088 F8EE672A 		vcvt.f32.u32	s5, s15
 5583 008c B0EE4A2A 		vmov.f32	s4, s20
 5584 0090 F0EE601A 		vmov.f32	s3, s1
ARM GAS  C:\Users\kotaro\AppData\Local\Temp\cc7z3AXq.s 			page 120


 5585 0094 B0EE691A 		vmov.f32	s2, s19
 5586 0098 B0EE490A 		vmov.f32	s0, s18
 5587 009c FFF7FEFF 		bl	Control_AngCalculator
 5588              	.LVL392:
1172:Src/motion.c  ****     motion_end_flag = FALSE;
 5589              		.loc 1 1172 0
 5590 00a0 1F4B     		ldr	r3, .L337+8
 5591 00a2 0022     		movs	r2, #0
 5592 00a4 1A70     		strb	r2, [r3]
 5593              	.L332:
1173:Src/motion.c  ****     while (motion_end_flag == FALSE)
 5594              		.loc 1 1173 0 discriminator 1
 5595 00a6 1E4B     		ldr	r3, .L337+8
 5596 00a8 1B78     		ldrb	r3, [r3]	@ zero_extendqisi2
 5597 00aa 002B     		cmp	r3, #0
 5598 00ac FBD0     		beq	.L332
1174:Src/motion.c  ****     {
1175:Src/motion.c  ****     }
1176:Src/motion.c  ****     //offset out
1177:Src/motion.c  ****     control_wall_flag = 0;
 5599              		.loc 1 1177 0
 5600 00ae 1E4B     		ldr	r3, .L337+16
 5601 00b0 0022     		movs	r2, #0
 5602 00b2 1A70     		strb	r2, [r3]
1178:Src/motion.c  ****     if (dir == 1)
 5603              		.loc 1 1178 0
 5604 00b4 012C     		cmp	r4, #1
 5605 00b6 2BD0     		beq	.L336
 5606              	.L333:
1179:Src/motion.c  ****     {
1180:Src/motion.c  ****         Control_WallEdgeAble(0b0100);
1181:Src/motion.c  ****     }
1182:Src/motion.c  ****     else if (dir == -1)
1183:Src/motion.c  ****     {
1184:Src/motion.c  ****         Control_WallEdgeAble(0b1000);
1185:Src/motion.c  ****     }
1186:Src/motion.c  ****     Control_StrCalculator(offset_out, VELO_EST, VELO_EST, VELO_EST, ACCEL_EST, 1); //26
 5607              		.loc 1 1186 0
 5608 00b8 DFED1A0A 		vldr.32	s1, .L337+12
 5609 00bc F7EE002A 		vmov.f32	s5, #1.0e+0
 5610 00c0 9FED1A2A 		vldr.32	s4, .L337+20
 5611 00c4 F0EE601A 		vmov.f32	s3, s1
 5612 00c8 B0EE601A 		vmov.f32	s2, s1
 5613 00cc B0EE680A 		vmov.f32	s0, s17
 5614 00d0 FFF7FEFF 		bl	Control_StrCalculator
 5615              	.LVL393:
1187:Src/motion.c  ****     Control_AngCalculator(0, 0, 0, 0, 1, 0);
 5616              		.loc 1 1187 0
 5617 00d4 9FED110A 		vldr.32	s0, .L337+4
 5618 00d8 F0EE402A 		vmov.f32	s5, s0
 5619 00dc B7EE002A 		vmov.f32	s4, #1.0e+0
 5620 00e0 F0EE401A 		vmov.f32	s3, s0
 5621 00e4 B0EE401A 		vmov.f32	s2, s0
 5622 00e8 F0EE400A 		vmov.f32	s1, s0
 5623 00ec FFF7FEFF 		bl	Control_AngCalculator
 5624              	.LVL394:
1188:Src/motion.c  ****     motion_end_flag = FALSE;
ARM GAS  C:\Users\kotaro\AppData\Local\Temp\cc7z3AXq.s 			page 121


 5625              		.loc 1 1188 0
 5626 00f0 0B4B     		ldr	r3, .L337+8
 5627 00f2 0022     		movs	r2, #0
 5628 00f4 1A70     		strb	r2, [r3]
 5629              	.L334:
1189:Src/motion.c  ****     while (motion_end_flag == FALSE)
 5630              		.loc 1 1189 0 discriminator 1
 5631 00f6 0A4B     		ldr	r3, .L337+8
 5632 00f8 1B78     		ldrb	r3, [r3]	@ zero_extendqisi2
 5633 00fa 002B     		cmp	r3, #0
 5634 00fc FBD0     		beq	.L334
1190:Src/motion.c  ****     {
1191:Src/motion.c  ****     }
1192:Src/motion.c  ****     control_wall_flag = 3;
 5635              		.loc 1 1192 0
 5636 00fe 0A4B     		ldr	r3, .L337+16
 5637 0100 0322     		movs	r2, #3
 5638 0102 1A70     		strb	r2, [r3]
1193:Src/motion.c  ****     enc.offset = 0.0f;
 5639              		.loc 1 1193 0
 5640 0104 044B     		ldr	r3, .L337
 5641 0106 0022     		movs	r2, #0
 5642 0108 9A60     		str	r2, [r3, #8]	@ float
1194:Src/motion.c  **** }
 5643              		.loc 1 1194 0
 5644 010a BDEC068B 		vldm	sp!, {d8-d10}
 5645              	.LCFI94:
 5646              		.cfi_remember_state
 5647              		.cfi_restore 84
 5648              		.cfi_restore 85
 5649              		.cfi_restore 82
 5650              		.cfi_restore 83
 5651              		.cfi_restore 80
 5652              		.cfi_restore 81
 5653              		.cfi_def_cfa_offset 8
 5654              	.LVL395:
 5655 010e 10BD     		pop	{r4, pc}
 5656              	.LVL396:
 5657              	.L336:
 5658              	.LCFI95:
 5659              		.cfi_restore_state
1180:Src/motion.c  ****     }
 5660              		.loc 1 1180 0
 5661 0110 0420     		movs	r0, #4
 5662 0112 FFF7FEFF 		bl	Control_WallEdgeAble
 5663              	.LVL397:
 5664 0116 CFE7     		b	.L333
 5665              	.L338:
 5666              		.align	2
 5667              	.L337:
 5668 0118 00000000 		.word	enc
 5669 011c 00000000 		.word	0
 5670 0120 00000000 		.word	motion_end_flag
 5671 0124 00009644 		.word	1150681088
 5672 0128 00000000 		.word	control_wall_flag
 5673 012c 00409C46 		.word	1184645120
 5674              		.cfi_endproc
ARM GAS  C:\Users\kotaro\AppData\Local\Temp\cc7z3AXq.s 			page 122


 5675              	.LFE197:
 5677              		.section	.text.Fastest_DgnOutTurn,"ax",%progbits
 5678              		.align	1
 5679              		.global	Fastest_DgnOutTurn
 5680              		.syntax unified
 5681              		.thumb
 5682              		.thumb_func
 5683              		.fpu fpv4-sp-d16
 5685              	Fastest_DgnOutTurn:
 5686              	.LFB198:
1195:Src/motion.c  **** 
1196:Src/motion.c  **** void Fastest_DgnOutTurn(float offset_in, float offset_out, float velo, float v_end, float deg, floa
1197:Src/motion.c  **** {
 5687              		.loc 1 1197 0
 5688              		.cfi_startproc
 5689              		@ args = 0, pretend = 0, frame = 0
 5690              		@ frame_needed = 0, uses_anonymous_args = 0
 5691              	.LVL398:
 5692 0000 10B5     		push	{r4, lr}
 5693              	.LCFI96:
 5694              		.cfi_def_cfa_offset 8
 5695              		.cfi_offset 4, -8
 5696              		.cfi_offset 14, -4
 5697 0002 2DED088B 		vpush.64	{d8, d9, d10, d11}
 5698              	.LCFI97:
 5699              		.cfi_def_cfa_offset 40
 5700              		.cfi_offset 80, -40
 5701              		.cfi_offset 81, -36
 5702              		.cfi_offset 82, -32
 5703              		.cfi_offset 83, -28
 5704              		.cfi_offset 84, -24
 5705              		.cfi_offset 85, -20
 5706              		.cfi_offset 86, -16
 5707              		.cfi_offset 87, -12
 5708 0006 F0EE608A 		vmov.f32	s17, s1
 5709 000a B0EE418A 		vmov.f32	s16, s2
 5710 000e B0EE619A 		vmov.f32	s18, s3
 5711 0012 F0EE429A 		vmov.f32	s19, s4
 5712 0016 B0EE62AA 		vmov.f32	s20, s5
 5713 001a F0EE43AA 		vmov.f32	s21, s6
 5714 001e 0BEE100A 		vmov	s22, r0	@ int
1198:Src/motion.c  ****     //offset in
1199:Src/motion.c  ****     control_wall_flag = 0;
 5715              		.loc 1 1199 0
 5716 0022 0024     		movs	r4, #0
 5717 0024 3B4B     		ldr	r3, .L344
 5718 0026 1C70     		strb	r4, [r3]
1200:Src/motion.c  ****     Control_StrCalculator(offset_in - enc.offset, velo, velo, velo, 1, 1);
 5719              		.loc 1 1200 0
 5720 0028 3B4B     		ldr	r3, .L344+4
 5721 002a D3ED027A 		vldr.32	s15, [r3, #8]
 5722 002e F7EE002A 		vmov.f32	s5, #1.0e+0
 5723              	.LVL399:
 5724 0032 B0EE622A 		vmov.f32	s4, s5
 5725              	.LVL400:
 5726 0036 F0EE411A 		vmov.f32	s3, s2
 5727              	.LVL401:
ARM GAS  C:\Users\kotaro\AppData\Local\Temp\cc7z3AXq.s 			page 123


 5728 003a F0EE410A 		vmov.f32	s1, s2
 5729              	.LVL402:
 5730 003e 30EE670A 		vsub.f32	s0, s0, s15
 5731              	.LVL403:
 5732 0042 FFF7FEFF 		bl	Control_StrCalculator
 5733              	.LVL404:
1201:Src/motion.c  ****     Control_AngCalculator(0, 0, 0, 0, 1, 0);
 5734              		.loc 1 1201 0
 5735 0046 9FED350A 		vldr.32	s0, .L344+8
 5736 004a F0EE402A 		vmov.f32	s5, s0
 5737 004e B7EE002A 		vmov.f32	s4, #1.0e+0
 5738 0052 F0EE401A 		vmov.f32	s3, s0
 5739 0056 B0EE401A 		vmov.f32	s2, s0
 5740 005a F0EE400A 		vmov.f32	s1, s0
 5741 005e FFF7FEFF 		bl	Control_AngCalculator
 5742              	.LVL405:
1202:Src/motion.c  ****     motion_end_flag = FALSE;
 5743              		.loc 1 1202 0
 5744 0062 2F4B     		ldr	r3, .L344+12
 5745 0064 1C70     		strb	r4, [r3]
 5746              	.L340:
1203:Src/motion.c  ****     while (motion_end_flag == FALSE)
 5747              		.loc 1 1203 0 discriminator 1
 5748 0066 2E4B     		ldr	r3, .L344+12
 5749 0068 1B78     		ldrb	r3, [r3]	@ zero_extendqisi2
 5750 006a 002B     		cmp	r3, #0
 5751 006c FBD0     		beq	.L340
1204:Src/motion.c  ****     {
1205:Src/motion.c  ****     }
1206:Src/motion.c  ****     //turn
1207:Src/motion.c  ****     Control_StrCalculator(1200.0f, velo, velo, velo, 1, 1);
 5752              		.loc 1 1207 0
 5753 006e F7EE002A 		vmov.f32	s5, #1.0e+0
 5754 0072 B0EE622A 		vmov.f32	s4, s5
 5755 0076 F0EE481A 		vmov.f32	s3, s16
 5756 007a B0EE481A 		vmov.f32	s2, s16
 5757 007e F0EE480A 		vmov.f32	s1, s16
 5758 0082 9FED280A 		vldr.32	s0, .L344+16
 5759 0086 FFF7FEFF 		bl	Control_StrCalculator
 5760              	.LVL406:
1208:Src/motion.c  ****     Control_AngCalculator(deg, 0, velo_ang, 0, accel_ang, dir);
 5761              		.loc 1 1208 0
 5762 008a DFED240A 		vldr.32	s1, .L344+8
 5763 008e F8EE4B2A 		vcvt.f32.u32	s5, s22
 5764 0092 B0EE6A2A 		vmov.f32	s4, s21
 5765 0096 F0EE601A 		vmov.f32	s3, s1
 5766 009a B0EE4A1A 		vmov.f32	s2, s20
 5767 009e B0EE690A 		vmov.f32	s0, s19
 5768 00a2 FFF7FEFF 		bl	Control_AngCalculator
 5769              	.LVL407:
1209:Src/motion.c  ****     motion_end_flag = FALSE;
 5770              		.loc 1 1209 0
 5771 00a6 1E4B     		ldr	r3, .L344+12
 5772 00a8 0022     		movs	r2, #0
 5773 00aa 1A70     		strb	r2, [r3]
 5774              	.L341:
1210:Src/motion.c  ****     while (motion_end_flag == FALSE)
ARM GAS  C:\Users\kotaro\AppData\Local\Temp\cc7z3AXq.s 			page 124


 5775              		.loc 1 1210 0 discriminator 1
 5776 00ac 1C4B     		ldr	r3, .L344+12
 5777 00ae 1B78     		ldrb	r3, [r3]	@ zero_extendqisi2
 5778 00b0 002B     		cmp	r3, #0
 5779 00b2 FBD0     		beq	.L341
1211:Src/motion.c  ****     {
1212:Src/motion.c  ****     }
1213:Src/motion.c  ****     //offset out
1214:Src/motion.c  ****     control_wall_flag = 4;
 5780              		.loc 1 1214 0
 5781 00b4 174B     		ldr	r3, .L344
 5782 00b6 0422     		movs	r2, #4
 5783 00b8 1A70     		strb	r2, [r3]
1215:Src/motion.c  ****     Control_WallEdgeAble(0b0011);
 5784              		.loc 1 1215 0
 5785 00ba 0320     		movs	r0, #3
 5786 00bc FFF7FEFF 		bl	Control_WallEdgeAble
 5787              	.LVL408:
1216:Src/motion.c  ****     Control_StrCalculator(offset_out, velo, velo, v_end, 20000.0f, 1);
 5788              		.loc 1 1216 0
 5789 00c0 F7EE002A 		vmov.f32	s5, #1.0e+0
 5790 00c4 9FED182A 		vldr.32	s4, .L344+20
 5791 00c8 F0EE491A 		vmov.f32	s3, s18
 5792 00cc B0EE481A 		vmov.f32	s2, s16
 5793 00d0 F0EE480A 		vmov.f32	s1, s16
 5794 00d4 B0EE680A 		vmov.f32	s0, s17
 5795 00d8 FFF7FEFF 		bl	Control_StrCalculator
 5796              	.LVL409:
1217:Src/motion.c  ****     Control_AngCalculator(0, 0, 0, 0, 1, 0);
 5797              		.loc 1 1217 0
 5798 00dc 9FED0F0A 		vldr.32	s0, .L344+8
 5799 00e0 F0EE402A 		vmov.f32	s5, s0
 5800 00e4 B7EE002A 		vmov.f32	s4, #1.0e+0
 5801 00e8 F0EE401A 		vmov.f32	s3, s0
 5802 00ec B0EE401A 		vmov.f32	s2, s0
 5803 00f0 F0EE400A 		vmov.f32	s1, s0
 5804 00f4 FFF7FEFF 		bl	Control_AngCalculator
 5805              	.LVL410:
1218:Src/motion.c  ****     motion_end_flag = FALSE;
 5806              		.loc 1 1218 0
 5807 00f8 094B     		ldr	r3, .L344+12
 5808 00fa 0022     		movs	r2, #0
 5809 00fc 1A70     		strb	r2, [r3]
 5810              	.L342:
1219:Src/motion.c  ****     while (motion_end_flag == FALSE)
 5811              		.loc 1 1219 0 discriminator 1
 5812 00fe 084B     		ldr	r3, .L344+12
 5813 0100 1B78     		ldrb	r3, [r3]	@ zero_extendqisi2
 5814 0102 002B     		cmp	r3, #0
 5815 0104 FBD0     		beq	.L342
1220:Src/motion.c  ****     {
1221:Src/motion.c  ****     }
1222:Src/motion.c  ****     enc.offset = 0.0f;
 5816              		.loc 1 1222 0
 5817 0106 044B     		ldr	r3, .L344+4
 5818 0108 0022     		movs	r2, #0
 5819 010a 9A60     		str	r2, [r3, #8]	@ float
ARM GAS  C:\Users\kotaro\AppData\Local\Temp\cc7z3AXq.s 			page 125


1223:Src/motion.c  **** }
 5820              		.loc 1 1223 0
 5821 010c BDEC088B 		vldm	sp!, {d8-d11}
 5822              	.LCFI98:
 5823              		.cfi_restore 86
 5824              		.cfi_restore 87
 5825              		.cfi_restore 84
 5826              		.cfi_restore 85
 5827              		.cfi_restore 82
 5828              		.cfi_restore 83
 5829              		.cfi_restore 80
 5830              		.cfi_restore 81
 5831              		.cfi_def_cfa_offset 8
 5832              	.LVL411:
 5833 0110 10BD     		pop	{r4, pc}
 5834              	.L345:
 5835 0112 00BF     		.align	2
 5836              	.L344:
 5837 0114 00000000 		.word	control_wall_flag
 5838 0118 00000000 		.word	enc
 5839 011c 00000000 		.word	0
 5840 0120 00000000 		.word	motion_end_flag
 5841 0124 00009644 		.word	1150681088
 5842 0128 00409C46 		.word	1184645120
 5843              		.cfi_endproc
 5844              	.LFE198:
 5846              		.section	.text.Fastest_DgnTurn,"ax",%progbits
 5847              		.align	1
 5848              		.global	Fastest_DgnTurn
 5849              		.syntax unified
 5850              		.thumb
 5851              		.thumb_func
 5852              		.fpu fpv4-sp-d16
 5854              	Fastest_DgnTurn:
 5855              	.LFB199:
1224:Src/motion.c  **** 
1225:Src/motion.c  **** void Fastest_DgnTurn(float offset_in, float offset_out, float velo, float v_end, float deg, float v
1226:Src/motion.c  **** {
 5856              		.loc 1 1226 0
 5857              		.cfi_startproc
 5858              		@ args = 0, pretend = 0, frame = 0
 5859              		@ frame_needed = 0, uses_anonymous_args = 0
 5860              	.LVL412:
 5861 0000 38B5     		push	{r3, r4, r5, lr}
 5862              	.LCFI99:
 5863              		.cfi_def_cfa_offset 16
 5864              		.cfi_offset 3, -16
 5865              		.cfi_offset 4, -12
 5866              		.cfi_offset 5, -8
 5867              		.cfi_offset 14, -4
 5868 0002 2DED068B 		vpush.64	{d8, d9, d10}
 5869              	.LCFI100:
 5870              		.cfi_def_cfa_offset 40
 5871              		.cfi_offset 80, -40
 5872              		.cfi_offset 81, -36
 5873              		.cfi_offset 82, -32
 5874              		.cfi_offset 83, -28
ARM GAS  C:\Users\kotaro\AppData\Local\Temp\cc7z3AXq.s 			page 126


 5875              		.cfi_offset 84, -24
 5876              		.cfi_offset 85, -20
 5877 0006 F0EE608A 		vmov.f32	s17, s1
 5878 000a B0EE418A 		vmov.f32	s16, s2
 5879 000e B0EE429A 		vmov.f32	s18, s4
 5880 0012 F0EE629A 		vmov.f32	s19, s5
 5881 0016 B0EE43AA 		vmov.f32	s20, s6
 5882 001a 0446     		mov	r4, r0
1227:Src/motion.c  ****     //offset in
1228:Src/motion.c  ****     control_wall_flag = 0;
 5883              		.loc 1 1228 0
 5884 001c 0025     		movs	r5, #0
 5885 001e 3E4B     		ldr	r3, .L353
 5886 0020 1D70     		strb	r5, [r3]
1229:Src/motion.c  ****     Control_StrCalculator(offset_in - enc.offset, velo, velo, velo, 1, 1);
 5887              		.loc 1 1229 0
 5888 0022 3E4B     		ldr	r3, .L353+4
 5889 0024 D3ED027A 		vldr.32	s15, [r3, #8]
 5890 0028 F7EE002A 		vmov.f32	s5, #1.0e+0
 5891              	.LVL413:
 5892 002c B0EE622A 		vmov.f32	s4, s5
 5893              	.LVL414:
 5894 0030 F0EE411A 		vmov.f32	s3, s2
 5895              	.LVL415:
 5896 0034 F0EE410A 		vmov.f32	s1, s2
 5897              	.LVL416:
 5898 0038 30EE670A 		vsub.f32	s0, s0, s15
 5899              	.LVL417:
 5900 003c FFF7FEFF 		bl	Control_StrCalculator
 5901              	.LVL418:
1230:Src/motion.c  ****     Control_AngCalculator(0, 0, 0, 0, 1, 0);
 5902              		.loc 1 1230 0
 5903 0040 9FED370A 		vldr.32	s0, .L353+8
 5904 0044 F0EE402A 		vmov.f32	s5, s0
 5905 0048 B7EE002A 		vmov.f32	s4, #1.0e+0
 5906 004c F0EE401A 		vmov.f32	s3, s0
 5907 0050 B0EE401A 		vmov.f32	s2, s0
 5908 0054 F0EE400A 		vmov.f32	s1, s0
 5909 0058 FFF7FEFF 		bl	Control_AngCalculator
 5910              	.LVL419:
1231:Src/motion.c  ****     motion_end_flag = FALSE;
 5911              		.loc 1 1231 0
 5912 005c 314B     		ldr	r3, .L353+12
 5913 005e 1D70     		strb	r5, [r3]
 5914              	.L347:
1232:Src/motion.c  ****     while (motion_end_flag == FALSE)
 5915              		.loc 1 1232 0 discriminator 1
 5916 0060 304B     		ldr	r3, .L353+12
 5917 0062 1B78     		ldrb	r3, [r3]	@ zero_extendqisi2
 5918 0064 002B     		cmp	r3, #0
 5919 0066 FBD0     		beq	.L347
1233:Src/motion.c  ****     {
1234:Src/motion.c  ****     }
1235:Src/motion.c  ****     //turn
1236:Src/motion.c  ****     Control_StrCalculator(1200.0f, velo, velo, velo, 1, 1);
 5920              		.loc 1 1236 0
 5921 0068 F7EE002A 		vmov.f32	s5, #1.0e+0
ARM GAS  C:\Users\kotaro\AppData\Local\Temp\cc7z3AXq.s 			page 127


 5922 006c B0EE622A 		vmov.f32	s4, s5
 5923 0070 F0EE481A 		vmov.f32	s3, s16
 5924 0074 B0EE481A 		vmov.f32	s2, s16
 5925 0078 F0EE480A 		vmov.f32	s1, s16
 5926 007c 9FED2A0A 		vldr.32	s0, .L353+16
 5927 0080 FFF7FEFF 		bl	Control_StrCalculator
 5928              	.LVL420:
1237:Src/motion.c  ****     Control_AngCalculator(deg, 0, velo_ang, 0, accel_ang, dir);
 5929              		.loc 1 1237 0
 5930 0084 DFED260A 		vldr.32	s1, .L353+8
 5931 0088 07EE904A 		vmov	s15, r4	@ int
 5932 008c F8EE672A 		vcvt.f32.u32	s5, s15
 5933 0090 B0EE4A2A 		vmov.f32	s4, s20
 5934 0094 F0EE601A 		vmov.f32	s3, s1
 5935 0098 B0EE691A 		vmov.f32	s2, s19
 5936 009c B0EE490A 		vmov.f32	s0, s18
 5937 00a0 FFF7FEFF 		bl	Control_AngCalculator
 5938              	.LVL421:
1238:Src/motion.c  ****     motion_end_flag = FALSE;
 5939              		.loc 1 1238 0
 5940 00a4 1F4B     		ldr	r3, .L353+12
 5941 00a6 0022     		movs	r2, #0
 5942 00a8 1A70     		strb	r2, [r3]
 5943              	.L348:
1239:Src/motion.c  ****     while (motion_end_flag == FALSE)
 5944              		.loc 1 1239 0 discriminator 1
 5945 00aa 1E4B     		ldr	r3, .L353+12
 5946 00ac 1B78     		ldrb	r3, [r3]	@ zero_extendqisi2
 5947 00ae 002B     		cmp	r3, #0
 5948 00b0 FBD0     		beq	.L348
1240:Src/motion.c  ****     {
1241:Src/motion.c  ****     }
1242:Src/motion.c  ****     //offset out
1243:Src/motion.c  ****     if (dir == 1)
 5949              		.loc 1 1243 0
 5950 00b2 012C     		cmp	r4, #1
 5951 00b4 2BD0     		beq	.L352
 5952              	.L349:
1244:Src/motion.c  ****     {
1245:Src/motion.c  ****         Control_WallEdgeAble(0b0100);
1246:Src/motion.c  ****     }
1247:Src/motion.c  ****     else if (dir == -1)
1248:Src/motion.c  ****     {
1249:Src/motion.c  ****         Control_WallEdgeAble(0b1000);
1250:Src/motion.c  ****     }
1251:Src/motion.c  ****     Control_StrCalculator(offset_out, VELO_EST, VELO_EST, VELO_EST, ACCEL_EST, 1); //26
 5953              		.loc 1 1251 0
 5954 00b6 DFED1C0A 		vldr.32	s1, .L353+16
 5955 00ba F7EE002A 		vmov.f32	s5, #1.0e+0
 5956 00be 9FED1B2A 		vldr.32	s4, .L353+20
 5957 00c2 F0EE601A 		vmov.f32	s3, s1
 5958 00c6 B0EE601A 		vmov.f32	s2, s1
 5959 00ca B0EE680A 		vmov.f32	s0, s17
 5960 00ce FFF7FEFF 		bl	Control_StrCalculator
 5961              	.LVL422:
1252:Src/motion.c  ****     Control_AngCalculator(0, 0, 0, 0, 1, 0);
 5962              		.loc 1 1252 0
ARM GAS  C:\Users\kotaro\AppData\Local\Temp\cc7z3AXq.s 			page 128


 5963 00d2 9FED130A 		vldr.32	s0, .L353+8
 5964 00d6 F0EE402A 		vmov.f32	s5, s0
 5965 00da B7EE002A 		vmov.f32	s4, #1.0e+0
 5966 00de F0EE401A 		vmov.f32	s3, s0
 5967 00e2 B0EE401A 		vmov.f32	s2, s0
 5968 00e6 F0EE400A 		vmov.f32	s1, s0
 5969 00ea FFF7FEFF 		bl	Control_AngCalculator
 5970              	.LVL423:
1253:Src/motion.c  ****     motion_end_flag = FALSE;
 5971              		.loc 1 1253 0
 5972 00ee 0D4B     		ldr	r3, .L353+12
 5973 00f0 0022     		movs	r2, #0
 5974 00f2 1A70     		strb	r2, [r3]
 5975              	.L350:
1254:Src/motion.c  ****     while (motion_end_flag == FALSE)
 5976              		.loc 1 1254 0 discriminator 1
 5977 00f4 0B4B     		ldr	r3, .L353+12
 5978 00f6 1B78     		ldrb	r3, [r3]	@ zero_extendqisi2
 5979 00f8 002B     		cmp	r3, #0
 5980 00fa FBD0     		beq	.L350
1255:Src/motion.c  ****     {
1256:Src/motion.c  ****     }
1257:Src/motion.c  ****     enc.offset = 0.0f;
 5981              		.loc 1 1257 0
 5982 00fc 074B     		ldr	r3, .L353+4
 5983 00fe 0022     		movs	r2, #0
 5984 0100 9A60     		str	r2, [r3, #8]	@ float
1258:Src/motion.c  ****     control_wall_flag = 3;
 5985              		.loc 1 1258 0
 5986 0102 054B     		ldr	r3, .L353
 5987 0104 0322     		movs	r2, #3
 5988 0106 1A70     		strb	r2, [r3]
1259:Src/motion.c  **** }
 5989              		.loc 1 1259 0
 5990 0108 BDEC068B 		vldm	sp!, {d8-d10}
 5991              	.LCFI101:
 5992              		.cfi_remember_state
 5993              		.cfi_restore 84
 5994              		.cfi_restore 85
 5995              		.cfi_restore 82
 5996              		.cfi_restore 83
 5997              		.cfi_restore 80
 5998              		.cfi_restore 81
 5999              		.cfi_def_cfa_offset 16
 6000              	.LVL424:
 6001 010c 38BD     		pop	{r3, r4, r5, pc}
 6002              	.LVL425:
 6003              	.L352:
 6004              	.LCFI102:
 6005              		.cfi_restore_state
1245:Src/motion.c  ****     }
 6006              		.loc 1 1245 0
 6007 010e 0420     		movs	r0, #4
 6008 0110 FFF7FEFF 		bl	Control_WallEdgeAble
 6009              	.LVL426:
 6010 0114 CFE7     		b	.L349
 6011              	.L354:
ARM GAS  C:\Users\kotaro\AppData\Local\Temp\cc7z3AXq.s 			page 129


 6012 0116 00BF     		.align	2
 6013              	.L353:
 6014 0118 00000000 		.word	control_wall_flag
 6015 011c 00000000 		.word	enc
 6016 0120 00000000 		.word	0
 6017 0124 00000000 		.word	motion_end_flag
 6018 0128 00009644 		.word	1150681088
 6019 012c 00409C46 		.word	1184645120
 6020              		.cfi_endproc
 6021              	.LFE199:
 6023              		.section	.text.Motion_FastestLeftSearch,"ax",%progbits
 6024              		.align	1
 6025              		.global	Motion_FastestLeftSearch
 6026              		.syntax unified
 6027              		.thumb
 6028              		.thumb_func
 6029              		.fpu fpv4-sp-d16
 6031              	Motion_FastestLeftSearch:
 6032              	.LFB200:
1260:Src/motion.c  **** 
1261:Src/motion.c  **** void Motion_FastestLeftSearch(void)
1262:Src/motion.c  **** {
 6033              		.loc 1 1262 0
 6034              		.cfi_startproc
 6035              		@ args = 0, pretend = 0, frame = 0
 6036              		@ frame_needed = 0, uses_anonymous_args = 0
 6037 0000 08B5     		push	{r3, lr}
 6038              	.LCFI103:
 6039              		.cfi_def_cfa_offset 8
 6040              		.cfi_offset 3, -8
 6041              		.cfi_offset 14, -4
1263:Src/motion.c  ****     //offset in
1264:Src/motion.c  ****     if (sen_front.is_wall == TRUE)
 6042              		.loc 1 1264 0
 6043 0002 3E4B     		ldr	r3, .L363
 6044 0004 1B7F     		ldrb	r3, [r3, #28]	@ zero_extendqisi2
 6045 0006 012B     		cmp	r3, #1
 6046 0008 4ED1     		bne	.L356
 6047              	.L357:
1265:Src/motion.c  ****     {
1266:Src/motion.c  ****         while (sen_front.now < 115)
 6048              		.loc 1 1266 0 discriminator 1
 6049 000a 3C4B     		ldr	r3, .L363
 6050 000c B3F90030 		ldrsh	r3, [r3]
 6051 0010 722B     		cmp	r3, #114
 6052 0012 FADD     		ble	.L357
 6053              	.L358:
1267:Src/motion.c  ****             ;
1268:Src/motion.c  ****     }
1269:Src/motion.c  ****     else
1270:Src/motion.c  ****     {
1271:Src/motion.c  ****         Control_StrCalculator(16.5 - enc.offset, 1200.0f, 1200.0f, 1200.0f, 1, 1);
1272:Src/motion.c  ****         Control_AngCalculator(0, 0, 0, 0, 1, 0);
1273:Src/motion.c  ****         motion_end_flag = FALSE;
1274:Src/motion.c  ****         while (motion_end_flag == FALSE)
1275:Src/motion.c  ****         {
1276:Src/motion.c  ****         }
ARM GAS  C:\Users\kotaro\AppData\Local\Temp\cc7z3AXq.s 			page 130


1277:Src/motion.c  ****     }
1278:Src/motion.c  ****     //turn
1279:Src/motion.c  ****     Control_StrCalculator(1200.0f, 1200.0f, 1200.0f, 1200.0f, 1, 1);
 6054              		.loc 1 1279 0
 6055 0014 9FED3A0A 		vldr.32	s0, .L363+4
 6056 0018 F7EE002A 		vmov.f32	s5, #1.0e+0
 6057 001c B0EE622A 		vmov.f32	s4, s5
 6058 0020 F0EE401A 		vmov.f32	s3, s0
 6059 0024 B0EE401A 		vmov.f32	s2, s0
 6060 0028 F0EE400A 		vmov.f32	s1, s0
 6061 002c FFF7FEFF 		bl	Control_StrCalculator
 6062              	.LVL427:
1280:Src/motion.c  ****     Control_AngCalculator(90.0f, 0, 1500.0f, 0, 50000.0f, 1);
 6063              		.loc 1 1280 0
 6064 0030 DFED340A 		vldr.32	s1, .L363+8
 6065 0034 F7EE002A 		vmov.f32	s5, #1.0e+0
 6066 0038 9FED332A 		vldr.32	s4, .L363+12
 6067 003c F0EE601A 		vmov.f32	s3, s1
 6068 0040 9FED321A 		vldr.32	s2, .L363+16
 6069 0044 9FED320A 		vldr.32	s0, .L363+20
 6070 0048 FFF7FEFF 		bl	Control_AngCalculator
 6071              	.LVL428:
1281:Src/motion.c  ****     motion_end_flag = FALSE;
 6072              		.loc 1 1281 0
 6073 004c 314B     		ldr	r3, .L363+24
 6074 004e 0022     		movs	r2, #0
 6075 0050 1A70     		strb	r2, [r3]
 6076              	.L360:
1282:Src/motion.c  ****     while (motion_end_flag == FALSE)
 6077              		.loc 1 1282 0 discriminator 1
 6078 0052 304B     		ldr	r3, .L363+24
 6079 0054 1B78     		ldrb	r3, [r3]	@ zero_extendqisi2
 6080 0056 002B     		cmp	r3, #0
 6081 0058 FBD0     		beq	.L360
1283:Src/motion.c  ****     {
1284:Src/motion.c  ****     }
1285:Src/motion.c  ****     //offset out
1286:Src/motion.c  ****     Control_StrCalculator(52.5f, 1200.0f, 1200.0f, 1200.0f, 1, 1);
 6082              		.loc 1 1286 0
 6083 005a DFED290A 		vldr.32	s1, .L363+4
 6084 005e F7EE002A 		vmov.f32	s5, #1.0e+0
 6085 0062 B0EE622A 		vmov.f32	s4, s5
 6086 0066 F0EE601A 		vmov.f32	s3, s1
 6087 006a B0EE601A 		vmov.f32	s2, s1
 6088 006e 9FED2A0A 		vldr.32	s0, .L363+28
 6089 0072 FFF7FEFF 		bl	Control_StrCalculator
 6090              	.LVL429:
1287:Src/motion.c  ****     Control_AngCalculator(0, 0, 0, 0, 1, 0);
 6091              		.loc 1 1287 0
 6092 0076 9FED230A 		vldr.32	s0, .L363+8
 6093 007a F0EE402A 		vmov.f32	s5, s0
 6094 007e B7EE002A 		vmov.f32	s4, #1.0e+0
 6095 0082 F0EE401A 		vmov.f32	s3, s0
 6096 0086 B0EE401A 		vmov.f32	s2, s0
 6097 008a F0EE400A 		vmov.f32	s1, s0
 6098 008e FFF7FEFF 		bl	Control_AngCalculator
 6099              	.LVL430:
ARM GAS  C:\Users\kotaro\AppData\Local\Temp\cc7z3AXq.s 			page 131


1288:Src/motion.c  ****     motion_end_flag = FALSE;
 6100              		.loc 1 1288 0
 6101 0092 204B     		ldr	r3, .L363+24
 6102 0094 0022     		movs	r2, #0
 6103 0096 1A70     		strb	r2, [r3]
 6104              	.L361:
1289:Src/motion.c  ****     while (motion_end_flag == FALSE)
 6105              		.loc 1 1289 0 discriminator 1
 6106 0098 1E4B     		ldr	r3, .L363+24
 6107 009a 1B78     		ldrb	r3, [r3]	@ zero_extendqisi2
 6108 009c 002B     		cmp	r3, #0
 6109 009e FBD0     		beq	.L361
1290:Src/motion.c  ****     {
1291:Src/motion.c  ****     }
1292:Src/motion.c  ****     enc.offset = 0.0f;
 6110              		.loc 1 1292 0
 6111 00a0 1E4B     		ldr	r3, .L363+32
 6112 00a2 0022     		movs	r2, #0
 6113 00a4 9A60     		str	r2, [r3, #8]	@ float
1293:Src/motion.c  **** }
 6114              		.loc 1 1293 0
 6115 00a6 08BD     		pop	{r3, pc}
 6116              	.L356:
1271:Src/motion.c  ****         Control_AngCalculator(0, 0, 0, 0, 1, 0);
 6117              		.loc 1 1271 0
 6118 00a8 1C4B     		ldr	r3, .L363+32
 6119 00aa D3ED027A 		vldr.32	s15, [r3, #8]
 6120 00ae DFED140A 		vldr.32	s1, .L363+4
 6121 00b2 F7EE002A 		vmov.f32	s5, #1.0e+0
 6122 00b6 B0EE622A 		vmov.f32	s4, s5
 6123 00ba F0EE601A 		vmov.f32	s3, s1
 6124 00be B0EE601A 		vmov.f32	s2, s1
 6125 00c2 9FED170A 		vldr.32	s0, .L363+36
 6126 00c6 30EE670A 		vsub.f32	s0, s0, s15
 6127 00ca FFF7FEFF 		bl	Control_StrCalculator
 6128              	.LVL431:
1272:Src/motion.c  ****         motion_end_flag = FALSE;
 6129              		.loc 1 1272 0
 6130 00ce 9FED0D0A 		vldr.32	s0, .L363+8
 6131 00d2 F0EE402A 		vmov.f32	s5, s0
 6132 00d6 B7EE002A 		vmov.f32	s4, #1.0e+0
 6133 00da F0EE401A 		vmov.f32	s3, s0
 6134 00de B0EE401A 		vmov.f32	s2, s0
 6135 00e2 F0EE400A 		vmov.f32	s1, s0
 6136 00e6 FFF7FEFF 		bl	Control_AngCalculator
 6137              	.LVL432:
1273:Src/motion.c  ****         while (motion_end_flag == FALSE)
 6138              		.loc 1 1273 0
 6139 00ea 0A4B     		ldr	r3, .L363+24
 6140 00ec 0022     		movs	r2, #0
 6141 00ee 1A70     		strb	r2, [r3]
 6142              	.L359:
1274:Src/motion.c  ****         {
 6143              		.loc 1 1274 0 discriminator 1
 6144 00f0 084B     		ldr	r3, .L363+24
 6145 00f2 1B78     		ldrb	r3, [r3]	@ zero_extendqisi2
 6146 00f4 002B     		cmp	r3, #0
ARM GAS  C:\Users\kotaro\AppData\Local\Temp\cc7z3AXq.s 			page 132


 6147 00f6 FBD0     		beq	.L359
 6148 00f8 8CE7     		b	.L358
 6149              	.L364:
 6150 00fa 00BF     		.align	2
 6151              	.L363:
 6152 00fc 00000000 		.word	sen_front
 6153 0100 00009644 		.word	1150681088
 6154 0104 00000000 		.word	0
 6155 0108 00504347 		.word	1195593728
 6156 010c 0080BB44 		.word	1153138688
 6157 0110 0000B442 		.word	1119092736
 6158 0114 00000000 		.word	motion_end_flag
 6159 0118 00005242 		.word	1112670208
 6160 011c 00000000 		.word	enc
 6161 0120 00008441 		.word	1099169792
 6162              		.cfi_endproc
 6163              	.LFE200:
 6165              		.section	.text.Motion_FastestRightSearch,"ax",%progbits
 6166              		.align	1
 6167              		.global	Motion_FastestRightSearch
 6168              		.syntax unified
 6169              		.thumb
 6170              		.thumb_func
 6171              		.fpu fpv4-sp-d16
 6173              	Motion_FastestRightSearch:
 6174              	.LFB201:
1294:Src/motion.c  **** 
1295:Src/motion.c  **** void Motion_FastestRightSearch(void)
1296:Src/motion.c  **** {
 6175              		.loc 1 1296 0
 6176              		.cfi_startproc
 6177              		@ args = 0, pretend = 0, frame = 0
 6178              		@ frame_needed = 0, uses_anonymous_args = 0
 6179 0000 08B5     		push	{r3, lr}
 6180              	.LCFI104:
 6181              		.cfi_def_cfa_offset 8
 6182              		.cfi_offset 3, -8
 6183              		.cfi_offset 14, -4
1297:Src/motion.c  ****     //offset in
1298:Src/motion.c  ****     if (sen_front.is_wall == TRUE)
 6184              		.loc 1 1298 0
 6185 0002 3E4B     		ldr	r3, .L373
 6186 0004 1B7F     		ldrb	r3, [r3, #28]	@ zero_extendqisi2
 6187 0006 012B     		cmp	r3, #1
 6188 0008 4ED1     		bne	.L366
 6189              	.L367:
1299:Src/motion.c  ****     {
1300:Src/motion.c  ****         while (sen_front.now < 115)
 6190              		.loc 1 1300 0 discriminator 1
 6191 000a 3C4B     		ldr	r3, .L373
 6192 000c B3F90030 		ldrsh	r3, [r3]
 6193 0010 722B     		cmp	r3, #114
 6194 0012 FADD     		ble	.L367
 6195              	.L368:
1301:Src/motion.c  ****             ;
1302:Src/motion.c  ****     }
1303:Src/motion.c  ****     else
ARM GAS  C:\Users\kotaro\AppData\Local\Temp\cc7z3AXq.s 			page 133


1304:Src/motion.c  ****     {
1305:Src/motion.c  ****         Control_StrCalculator(16.0 - enc.offset, 1200.0f, 1200.0f, 1200.0f, 1, 1);
1306:Src/motion.c  ****         Control_AngCalculator(0, 0, 0, 0, 1, 0);
1307:Src/motion.c  ****         motion_end_flag = FALSE;
1308:Src/motion.c  ****         while (motion_end_flag == FALSE)
1309:Src/motion.c  ****         {
1310:Src/motion.c  ****         }
1311:Src/motion.c  ****     }
1312:Src/motion.c  ****     //turn
1313:Src/motion.c  ****     Control_StrCalculator(1200.0f, 1200.0f, 1200.0f, 1200.0f, 1, 1);
 6196              		.loc 1 1313 0
 6197 0014 9FED3A0A 		vldr.32	s0, .L373+4
 6198 0018 F7EE002A 		vmov.f32	s5, #1.0e+0
 6199 001c B0EE622A 		vmov.f32	s4, s5
 6200 0020 F0EE401A 		vmov.f32	s3, s0
 6201 0024 B0EE401A 		vmov.f32	s2, s0
 6202 0028 F0EE400A 		vmov.f32	s1, s0
 6203 002c FFF7FEFF 		bl	Control_StrCalculator
 6204              	.LVL433:
1314:Src/motion.c  ****     Control_AngCalculator(90.0f, 0, 1500.0f, 0, 50000.0f, -1);
 6205              		.loc 1 1314 0
 6206 0030 DFED340A 		vldr.32	s1, .L373+8
 6207 0034 FFEE002A 		vmov.f32	s5, #-1.0e+0
 6208 0038 9FED332A 		vldr.32	s4, .L373+12
 6209 003c F0EE601A 		vmov.f32	s3, s1
 6210 0040 9FED321A 		vldr.32	s2, .L373+16
 6211 0044 9FED320A 		vldr.32	s0, .L373+20
 6212 0048 FFF7FEFF 		bl	Control_AngCalculator
 6213              	.LVL434:
1315:Src/motion.c  ****     motion_end_flag = FALSE;
 6214              		.loc 1 1315 0
 6215 004c 314B     		ldr	r3, .L373+24
 6216 004e 0022     		movs	r2, #0
 6217 0050 1A70     		strb	r2, [r3]
 6218              	.L370:
1316:Src/motion.c  ****     while (motion_end_flag == FALSE)
 6219              		.loc 1 1316 0 discriminator 1
 6220 0052 304B     		ldr	r3, .L373+24
 6221 0054 1B78     		ldrb	r3, [r3]	@ zero_extendqisi2
 6222 0056 002B     		cmp	r3, #0
 6223 0058 FBD0     		beq	.L370
1317:Src/motion.c  ****     {
1318:Src/motion.c  ****     }
1319:Src/motion.c  ****     //offset out
1320:Src/motion.c  ****     Control_StrCalculator(60.0f, 1200.0f, 1200.0f, 1200.0f, 1, 1);
 6224              		.loc 1 1320 0
 6225 005a DFED290A 		vldr.32	s1, .L373+4
 6226 005e F7EE002A 		vmov.f32	s5, #1.0e+0
 6227 0062 B0EE622A 		vmov.f32	s4, s5
 6228 0066 F0EE601A 		vmov.f32	s3, s1
 6229 006a B0EE601A 		vmov.f32	s2, s1
 6230 006e 9FED2A0A 		vldr.32	s0, .L373+28
 6231 0072 FFF7FEFF 		bl	Control_StrCalculator
 6232              	.LVL435:
1321:Src/motion.c  ****     Control_AngCalculator(0, 0, 0, 0, 1, 0);
 6233              		.loc 1 1321 0
 6234 0076 9FED230A 		vldr.32	s0, .L373+8
ARM GAS  C:\Users\kotaro\AppData\Local\Temp\cc7z3AXq.s 			page 134


 6235 007a F0EE402A 		vmov.f32	s5, s0
 6236 007e B7EE002A 		vmov.f32	s4, #1.0e+0
 6237 0082 F0EE401A 		vmov.f32	s3, s0
 6238 0086 B0EE401A 		vmov.f32	s2, s0
 6239 008a F0EE400A 		vmov.f32	s1, s0
 6240 008e FFF7FEFF 		bl	Control_AngCalculator
 6241              	.LVL436:
1322:Src/motion.c  ****     motion_end_flag = FALSE;
 6242              		.loc 1 1322 0
 6243 0092 204B     		ldr	r3, .L373+24
 6244 0094 0022     		movs	r2, #0
 6245 0096 1A70     		strb	r2, [r3]
 6246              	.L371:
1323:Src/motion.c  ****     while (motion_end_flag == FALSE)
 6247              		.loc 1 1323 0 discriminator 1
 6248 0098 1E4B     		ldr	r3, .L373+24
 6249 009a 1B78     		ldrb	r3, [r3]	@ zero_extendqisi2
 6250 009c 002B     		cmp	r3, #0
 6251 009e FBD0     		beq	.L371
1324:Src/motion.c  ****     {
1325:Src/motion.c  ****     }
1326:Src/motion.c  ****     enc.offset = 0.0f;
 6252              		.loc 1 1326 0
 6253 00a0 1E4B     		ldr	r3, .L373+32
 6254 00a2 0022     		movs	r2, #0
 6255 00a4 9A60     		str	r2, [r3, #8]	@ float
1327:Src/motion.c  **** }
 6256              		.loc 1 1327 0
 6257 00a6 08BD     		pop	{r3, pc}
 6258              	.L366:
1305:Src/motion.c  ****         Control_AngCalculator(0, 0, 0, 0, 1, 0);
 6259              		.loc 1 1305 0
 6260 00a8 1C4B     		ldr	r3, .L373+32
 6261 00aa D3ED027A 		vldr.32	s15, [r3, #8]
 6262 00ae DFED140A 		vldr.32	s1, .L373+4
 6263 00b2 F7EE002A 		vmov.f32	s5, #1.0e+0
 6264 00b6 B0EE622A 		vmov.f32	s4, s5
 6265 00ba F0EE601A 		vmov.f32	s3, s1
 6266 00be B0EE601A 		vmov.f32	s2, s1
 6267 00c2 B3EE000A 		vmov.f32	s0, #1.6e+1
 6268 00c6 30EE670A 		vsub.f32	s0, s0, s15
 6269 00ca FFF7FEFF 		bl	Control_StrCalculator
 6270              	.LVL437:
1306:Src/motion.c  ****         motion_end_flag = FALSE;
 6271              		.loc 1 1306 0
 6272 00ce 9FED0D0A 		vldr.32	s0, .L373+8
 6273 00d2 F0EE402A 		vmov.f32	s5, s0
 6274 00d6 B7EE002A 		vmov.f32	s4, #1.0e+0
 6275 00da F0EE401A 		vmov.f32	s3, s0
 6276 00de B0EE401A 		vmov.f32	s2, s0
 6277 00e2 F0EE400A 		vmov.f32	s1, s0
 6278 00e6 FFF7FEFF 		bl	Control_AngCalculator
 6279              	.LVL438:
1307:Src/motion.c  ****         while (motion_end_flag == FALSE)
 6280              		.loc 1 1307 0
 6281 00ea 0A4B     		ldr	r3, .L373+24
 6282 00ec 0022     		movs	r2, #0
ARM GAS  C:\Users\kotaro\AppData\Local\Temp\cc7z3AXq.s 			page 135


 6283 00ee 1A70     		strb	r2, [r3]
 6284              	.L369:
1308:Src/motion.c  ****         {
 6285              		.loc 1 1308 0 discriminator 1
 6286 00f0 084B     		ldr	r3, .L373+24
 6287 00f2 1B78     		ldrb	r3, [r3]	@ zero_extendqisi2
 6288 00f4 002B     		cmp	r3, #0
 6289 00f6 FBD0     		beq	.L369
 6290 00f8 8CE7     		b	.L368
 6291              	.L374:
 6292 00fa 00BF     		.align	2
 6293              	.L373:
 6294 00fc 00000000 		.word	sen_front
 6295 0100 00009644 		.word	1150681088
 6296 0104 00000000 		.word	0
 6297 0108 00504347 		.word	1195593728
 6298 010c 0080BB44 		.word	1153138688
 6299 0110 0000B442 		.word	1119092736
 6300 0114 00000000 		.word	motion_end_flag
 6301 0118 00007042 		.word	1114636288
 6302 011c 00000000 		.word	enc
 6303              		.cfi_endproc
 6304              	.LFE201:
 6306              		.section	.text.Motion_FastestLeftTurn,"ax",%progbits
 6307              		.align	1
 6308              		.global	Motion_FastestLeftTurn
 6309              		.syntax unified
 6310              		.thumb
 6311              		.thumb_func
 6312              		.fpu fpv4-sp-d16
 6314              	Motion_FastestLeftTurn:
 6315              	.LFB202:
1328:Src/motion.c  **** 
1329:Src/motion.c  **** void Motion_FastestLeftTurn(uint8_t type, float v_end)
1330:Src/motion.c  **** {
 6316              		.loc 1 1330 0
 6317              		.cfi_startproc
 6318              		@ args = 0, pretend = 0, frame = 0
 6319              		@ frame_needed = 0, uses_anonymous_args = 0
 6320              	.LVL439:
 6321 0000 08B5     		push	{r3, lr}
 6322              	.LCFI105:
 6323              		.cfi_def_cfa_offset 8
 6324              		.cfi_offset 3, -8
 6325              		.cfi_offset 14, -4
1331:Src/motion.c  ****     //K=24000
1332:Src/motion.c  ****     switch (type)
 6326              		.loc 1 1332 0
 6327 0002 0728     		cmp	r0, #7
 6328 0004 07D8     		bhi	.L375
 6329 0006 DFE800F0 		tbb	[pc, r0]
 6330              	.L378:
 6331 000a 04       		.byte	(.L377-.L378)/2
 6332 000b 2B       		.byte	(.L379-.L378)/2
 6333 000c 4F       		.byte	(.L380-.L378)/2
 6334 000d 07       		.byte	(.L381-.L378)/2
 6335 000e 19       		.byte	(.L382-.L378)/2
ARM GAS  C:\Users\kotaro\AppData\Local\Temp\cc7z3AXq.s 			page 136


 6336 000f 3D       		.byte	(.L383-.L378)/2
 6337 0010 61       		.byte	(.L384-.L378)/2
 6338 0011 73       		.byte	(.L385-.L378)/2
 6339              		.p2align 1
 6340              	.L377:
1333:Src/motion.c  ****     {
1334:Src/motion.c  ****     case SEARCH:
1335:Src/motion.c  ****         Motion_FastestLeftSearch(); //16.5f, 55.0f, 1200.0f, 1200.0f, 90.0f, 1500.0f, 50000.0f, 1, 
 6341              		.loc 1 1335 0
 6342 0012 FFF7FEFF 		bl	Motion_FastestLeftSearch
 6343              	.LVL440:
 6344              	.L375:
1336:Src/motion.c  ****         break;
1337:Src/motion.c  ****     case T_90:
1338:Src/motion.c  ****         Fastest_StrTurn(36.0f, 57.0f, 1200.0f, v_end, 90.0f, 600.0f, 20000.0f, 1);
1339:Src/motion.c  ****         break;
1340:Src/motion.c  ****     case T_180:
1341:Src/motion.c  ****         Fastest_StrTurn(50.0f, 70.0f, 1200.0f, v_end, 180.0f, 760.0f, 20000.0f, 1);
1342:Src/motion.c  ****         break;
1343:Src/motion.c  ****     case T_45IN:
1344:Src/motion.c  ****         Fastest_DgnInTurn(21.0f, 99.0f, 1200.0f, 1200.0, 45.0f, 800.0f, 40000.0f, 1);
1345:Src/motion.c  ****         break;
1346:Src/motion.c  ****     case T_45OUT:
1347:Src/motion.c  ****         Fastest_DgnOutTurn(64.0f, 55.0f, 1200.0f, v_end, 45.0f, 800.0f, 40000.0f, 1);
1348:Src/motion.c  ****         break;
1349:Src/motion.c  ****     case T_135IN:
1350:Src/motion.c  ****         Fastest_DgnInTurn(28.0f, 44.0f, 1200.0f, 1200.0f, 135.0f, 800.0f, 20000.0f, 1);
1351:Src/motion.c  ****         break;
1352:Src/motion.c  ****     case T_135OUT:
1353:Src/motion.c  ****         Fastest_DgnOutTurn(10.0f, 54.0f, 1200.0f, v_end, 135.0f, 800.0f, 20000.0f, 1);
1354:Src/motion.c  ****         break;
1355:Src/motion.c  ****     case T_V90:
1356:Src/motion.c  ****         Fastest_DgnTurn(29.0f, 60.0f, 1200.0f, 1200.0f, 90.0f, 1000.0f, 40000.0f, 1);
1357:Src/motion.c  ****         break;
1358:Src/motion.c  ****     }
1359:Src/motion.c  **** }
 6345              		.loc 1 1359 0
 6346 0016 08BD     		pop	{r3, pc}
 6347              	.LVL441:
 6348              	.L381:
1338:Src/motion.c  ****         break;
 6349              		.loc 1 1338 0
 6350 0018 0120     		movs	r0, #1
 6351              	.LVL442:
 6352 001a 9FED3E3A 		vldr.32	s6, .L387
 6353 001e DFED3E2A 		vldr.32	s5, .L387+4
 6354 0022 9FED3E2A 		vldr.32	s4, .L387+8
 6355 0026 F0EE401A 		vmov.f32	s3, s0
 6356 002a 9FED3D1A 		vldr.32	s2, .L387+12
 6357 002e DFED3D0A 		vldr.32	s1, .L387+16
 6358 0032 9FED3D0A 		vldr.32	s0, .L387+20
 6359              	.LVL443:
 6360 0036 FFF7FEFF 		bl	Fastest_StrTurn
 6361              	.LVL444:
1339:Src/motion.c  ****     case T_180:
 6362              		.loc 1 1339 0
 6363 003a ECE7     		b	.L375
ARM GAS  C:\Users\kotaro\AppData\Local\Temp\cc7z3AXq.s 			page 137


 6364              	.LVL445:
 6365              	.L382:
1341:Src/motion.c  ****         break;
 6366              		.loc 1 1341 0
 6367 003c 0120     		movs	r0, #1
 6368              	.LVL446:
 6369 003e 9FED353A 		vldr.32	s6, .L387
 6370 0042 DFED3A2A 		vldr.32	s5, .L387+24
 6371 0046 9FED3A2A 		vldr.32	s4, .L387+28
 6372 004a F0EE401A 		vmov.f32	s3, s0
 6373 004e 9FED341A 		vldr.32	s2, .L387+12
 6374 0052 DFED380A 		vldr.32	s1, .L387+32
 6375 0056 9FED380A 		vldr.32	s0, .L387+36
 6376              	.LVL447:
 6377 005a FFF7FEFF 		bl	Fastest_StrTurn
 6378              	.LVL448:
1342:Src/motion.c  ****     case T_45IN:
 6379              		.loc 1 1342 0
 6380 005e DAE7     		b	.L375
 6381              	.LVL449:
 6382              	.L379:
1344:Src/motion.c  ****         break;
 6383              		.loc 1 1344 0
 6384 0060 9FED2F1A 		vldr.32	s2, .L387+12
 6385 0064 0120     		movs	r0, #1
 6386              	.LVL450:
 6387 0066 9FED353A 		vldr.32	s6, .L387+40
 6388 006a DFED352A 		vldr.32	s5, .L387+44
 6389 006e 9FED352A 		vldr.32	s4, .L387+48
 6390 0072 F0EE411A 		vmov.f32	s3, s2
 6391 0076 DFED340A 		vldr.32	s1, .L387+52
 6392 007a B3EE050A 		vmov.f32	s0, #2.1e+1
 6393              	.LVL451:
 6394 007e FFF7FEFF 		bl	Fastest_DgnInTurn
 6395              	.LVL452:
1345:Src/motion.c  ****     case T_45OUT:
 6396              		.loc 1 1345 0
 6397 0082 C8E7     		b	.L375
 6398              	.LVL453:
 6399              	.L383:
1347:Src/motion.c  ****         break;
 6400              		.loc 1 1347 0
 6401 0084 0120     		movs	r0, #1
 6402              	.LVL454:
 6403 0086 9FED2D3A 		vldr.32	s6, .L387+40
 6404 008a DFED2D2A 		vldr.32	s5, .L387+44
 6405 008e 9FED2D2A 		vldr.32	s4, .L387+48
 6406 0092 F0EE401A 		vmov.f32	s3, s0
 6407 0096 9FED221A 		vldr.32	s2, .L387+12
 6408 009a DFED2C0A 		vldr.32	s1, .L387+56
 6409 009e 9FED2C0A 		vldr.32	s0, .L387+60
 6410              	.LVL455:
 6411 00a2 FFF7FEFF 		bl	Fastest_DgnOutTurn
 6412              	.LVL456:
1348:Src/motion.c  ****     case T_135IN:
 6413              		.loc 1 1348 0
 6414 00a6 B6E7     		b	.L375
ARM GAS  C:\Users\kotaro\AppData\Local\Temp\cc7z3AXq.s 			page 138


 6415              	.LVL457:
 6416              	.L380:
1350:Src/motion.c  ****         break;
 6417              		.loc 1 1350 0
 6418 00a8 9FED1D1A 		vldr.32	s2, .L387+12
 6419 00ac 0120     		movs	r0, #1
 6420              	.LVL458:
 6421 00ae 9FED193A 		vldr.32	s6, .L387
 6422 00b2 DFED232A 		vldr.32	s5, .L387+44
 6423 00b6 9FED272A 		vldr.32	s4, .L387+64
 6424 00ba F0EE411A 		vmov.f32	s3, s2
 6425 00be DFED260A 		vldr.32	s1, .L387+68
 6426 00c2 B3EE0C0A 		vmov.f32	s0, #2.8e+1
 6427              	.LVL459:
 6428 00c6 FFF7FEFF 		bl	Fastest_DgnInTurn
 6429              	.LVL460:
1351:Src/motion.c  ****     case T_135OUT:
 6430              		.loc 1 1351 0
 6431 00ca A4E7     		b	.L375
 6432              	.LVL461:
 6433              	.L384:
1353:Src/motion.c  ****         break;
 6434              		.loc 1 1353 0
 6435 00cc 0120     		movs	r0, #1
 6436              	.LVL462:
 6437 00ce 9FED113A 		vldr.32	s6, .L387
 6438 00d2 DFED1B2A 		vldr.32	s5, .L387+44
 6439 00d6 9FED1F2A 		vldr.32	s4, .L387+64
 6440 00da F0EE401A 		vmov.f32	s3, s0
 6441 00de 9FED101A 		vldr.32	s2, .L387+12
 6442 00e2 DFED1E0A 		vldr.32	s1, .L387+72
 6443 00e6 B2EE040A 		vmov.f32	s0, #1.0e+1
 6444              	.LVL463:
 6445 00ea FFF7FEFF 		bl	Fastest_DgnOutTurn
 6446              	.LVL464:
1354:Src/motion.c  ****     case T_V90:
 6447              		.loc 1 1354 0
 6448 00ee 92E7     		b	.L375
 6449              	.LVL465:
 6450              	.L385:
1356:Src/motion.c  ****         break;
 6451              		.loc 1 1356 0
 6452 00f0 9FED0B1A 		vldr.32	s2, .L387+12
 6453 00f4 0120     		movs	r0, #1
 6454              	.LVL466:
 6455 00f6 9FED113A 		vldr.32	s6, .L387+40
 6456 00fa DFED192A 		vldr.32	s5, .L387+76
 6457 00fe 9FED072A 		vldr.32	s4, .L387+8
 6458 0102 F0EE411A 		vmov.f32	s3, s2
 6459 0106 DFED170A 		vldr.32	s1, .L387+80
 6460 010a B3EE0D0A 		vmov.f32	s0, #2.9e+1
 6461              	.LVL467:
 6462 010e FFF7FEFF 		bl	Fastest_DgnTurn
 6463              	.LVL468:
 6464              		.loc 1 1359 0
 6465 0112 80E7     		b	.L375
 6466              	.L388:
ARM GAS  C:\Users\kotaro\AppData\Local\Temp\cc7z3AXq.s 			page 139


 6467              		.align	2
 6468              	.L387:
 6469 0114 00409C46 		.word	1184645120
 6470 0118 00001644 		.word	1142292480
 6471 011c 0000B442 		.word	1119092736
 6472 0120 00009644 		.word	1150681088
 6473 0124 00006442 		.word	1113849856
 6474 0128 00001042 		.word	1108344832
 6475 012c 00003E44 		.word	1144913920
 6476 0130 00003443 		.word	1127481344
 6477 0134 00008C42 		.word	1116471296
 6478 0138 00004842 		.word	1112014848
 6479 013c 00401C47 		.word	1193033728
 6480 0140 00004844 		.word	1145569280
 6481 0144 00003442 		.word	1110704128
 6482 0148 0000C642 		.word	1120272384
 6483 014c 00005C42 		.word	1113325568
 6484 0150 00008042 		.word	1115684864
 6485 0154 00000743 		.word	1124532224
 6486 0158 00003042 		.word	1110441984
 6487 015c 00005842 		.word	1113063424
 6488 0160 00007A44 		.word	1148846080
 6489 0164 00007042 		.word	1114636288
 6490              		.cfi_endproc
 6491              	.LFE202:
 6493              		.section	.text.Motion_FastestRightTurn,"ax",%progbits
 6494              		.align	1
 6495              		.global	Motion_FastestRightTurn
 6496              		.syntax unified
 6497              		.thumb
 6498              		.thumb_func
 6499              		.fpu fpv4-sp-d16
 6501              	Motion_FastestRightTurn:
 6502              	.LFB203:
1360:Src/motion.c  **** 
1361:Src/motion.c  **** void Motion_FastestRightTurn(uint8_t type, float v_end)
1362:Src/motion.c  **** {
 6503              		.loc 1 1362 0
 6504              		.cfi_startproc
 6505              		@ args = 0, pretend = 0, frame = 0
 6506              		@ frame_needed = 0, uses_anonymous_args = 0
 6507              	.LVL469:
 6508 0000 08B5     		push	{r3, lr}
 6509              	.LCFI106:
 6510              		.cfi_def_cfa_offset 8
 6511              		.cfi_offset 3, -8
 6512              		.cfi_offset 14, -4
1363:Src/motion.c  ****     switch (type)
 6513              		.loc 1 1363 0
 6514 0002 0728     		cmp	r0, #7
 6515 0004 07D8     		bhi	.L389
 6516 0006 DFE800F0 		tbb	[pc, r0]
 6517              	.L392:
 6518 000a 04       		.byte	(.L391-.L392)/2
 6519 000b 2B       		.byte	(.L393-.L392)/2
 6520 000c 4F       		.byte	(.L394-.L392)/2
 6521 000d 07       		.byte	(.L395-.L392)/2
ARM GAS  C:\Users\kotaro\AppData\Local\Temp\cc7z3AXq.s 			page 140


 6522 000e 19       		.byte	(.L396-.L392)/2
 6523 000f 3D       		.byte	(.L397-.L392)/2
 6524 0010 61       		.byte	(.L398-.L392)/2
 6525 0011 73       		.byte	(.L399-.L392)/2
 6526              		.p2align 1
 6527              	.L391:
1364:Src/motion.c  ****     {
1365:Src/motion.c  ****     case SEARCH:
1366:Src/motion.c  ****         Motion_FastestRightSearch(); //16.0f, 63.5f, 1200.0f, 1200.0f, 90.0f, 1500.0f, 50000.0f, -1
 6528              		.loc 1 1366 0
 6529 0012 FFF7FEFF 		bl	Motion_FastestRightSearch
 6530              	.LVL470:
 6531              	.L389:
1367:Src/motion.c  ****         break;
1368:Src/motion.c  ****     case T_90:
1369:Src/motion.c  ****         Fastest_StrTurn(38.0f, 62.0f, 1200.0f, v_end, 90.0f, 600.0f, 20000.0f, -1);
1370:Src/motion.c  ****         break;
1371:Src/motion.c  ****     case T_180:
1372:Src/motion.c  ****         Fastest_StrTurn(50.0f, 70.0f, 1200.0f, v_end, 180.0f, 745.0f, 20000.0f, -1);
1373:Src/motion.c  ****         break;
1374:Src/motion.c  ****     case T_45IN:
1375:Src/motion.c  ****         Fastest_DgnInTurn(30.0f, 89.0f, 1200.0f, 1200.0f, 45.0f, 800.0f, 40000.0f, -1);
1376:Src/motion.c  ****         break;
1377:Src/motion.c  ****     case T_45OUT:
1378:Src/motion.c  ****         Fastest_DgnOutTurn(74.0f, 52.0f, 1200.0f, v_end, 45.0f, 800.0f, 40000.0f, -1);
1379:Src/motion.c  ****         break;
1380:Src/motion.c  ****     case T_135IN:
1381:Src/motion.c  ****         Fastest_DgnInTurn(28.0f, 42.0f, 1200.0f, 1200.0f, 135.0f, 800.0f, 20000.0f, -1); //in:41 ou
1382:Src/motion.c  ****         break;
1383:Src/motion.c  ****     case T_135OUT:
1384:Src/motion.c  ****         Fastest_DgnOutTurn(28.0f, 65.0f, 1200.0f, v_end, 135.0f, 800.0f, 20000.0f, -1);
1385:Src/motion.c  ****         break;
1386:Src/motion.c  ****     case T_V90:
1387:Src/motion.c  ****         Fastest_DgnTurn(30.0f, 62.0f, 1200.0f, 1200.0f, 90.0f, 1000.0f, 40000.0f, -1);
1388:Src/motion.c  ****         break;
1389:Src/motion.c  ****     }
1390:Src/motion.c  **** }
 6532              		.loc 1 1390 0
 6533 0016 08BD     		pop	{r3, pc}
 6534              	.LVL471:
 6535              	.L395:
1369:Src/motion.c  ****         break;
 6536              		.loc 1 1369 0
 6537 0018 FF20     		movs	r0, #255
 6538              	.LVL472:
 6539 001a 9FED3E3A 		vldr.32	s6, .L401
 6540 001e DFED3E2A 		vldr.32	s5, .L401+4
 6541 0022 9FED3E2A 		vldr.32	s4, .L401+8
 6542 0026 F0EE401A 		vmov.f32	s3, s0
 6543 002a 9FED3D1A 		vldr.32	s2, .L401+12
 6544 002e DFED3D0A 		vldr.32	s1, .L401+16
 6545 0032 9FED3D0A 		vldr.32	s0, .L401+20
 6546              	.LVL473:
 6547 0036 FFF7FEFF 		bl	Fastest_StrTurn
 6548              	.LVL474:
1370:Src/motion.c  ****     case T_180:
 6549              		.loc 1 1370 0
ARM GAS  C:\Users\kotaro\AppData\Local\Temp\cc7z3AXq.s 			page 141


 6550 003a ECE7     		b	.L389
 6551              	.LVL475:
 6552              	.L396:
1372:Src/motion.c  ****         break;
 6553              		.loc 1 1372 0
 6554 003c FF20     		movs	r0, #255
 6555              	.LVL476:
 6556 003e 9FED353A 		vldr.32	s6, .L401
 6557 0042 DFED3A2A 		vldr.32	s5, .L401+24
 6558 0046 9FED3A2A 		vldr.32	s4, .L401+28
 6559 004a F0EE401A 		vmov.f32	s3, s0
 6560 004e 9FED341A 		vldr.32	s2, .L401+12
 6561 0052 DFED380A 		vldr.32	s1, .L401+32
 6562 0056 9FED380A 		vldr.32	s0, .L401+36
 6563              	.LVL477:
 6564 005a FFF7FEFF 		bl	Fastest_StrTurn
 6565              	.LVL478:
1373:Src/motion.c  ****     case T_45IN:
 6566              		.loc 1 1373 0
 6567 005e DAE7     		b	.L389
 6568              	.LVL479:
 6569              	.L393:
1375:Src/motion.c  ****         break;
 6570              		.loc 1 1375 0
 6571 0060 9FED2F1A 		vldr.32	s2, .L401+12
 6572 0064 FF20     		movs	r0, #255
 6573              	.LVL480:
 6574 0066 9FED353A 		vldr.32	s6, .L401+40
 6575 006a DFED352A 		vldr.32	s5, .L401+44
 6576 006e 9FED352A 		vldr.32	s4, .L401+48
 6577 0072 F0EE411A 		vmov.f32	s3, s2
 6578 0076 DFED340A 		vldr.32	s1, .L401+52
 6579 007a B3EE0E0A 		vmov.f32	s0, #3.0e+1
 6580              	.LVL481:
 6581 007e FFF7FEFF 		bl	Fastest_DgnInTurn
 6582              	.LVL482:
1376:Src/motion.c  ****     case T_45OUT:
 6583              		.loc 1 1376 0
 6584 0082 C8E7     		b	.L389
 6585              	.LVL483:
 6586              	.L397:
1378:Src/motion.c  ****         break;
 6587              		.loc 1 1378 0
 6588 0084 FF20     		movs	r0, #255
 6589              	.LVL484:
 6590 0086 9FED2D3A 		vldr.32	s6, .L401+40
 6591 008a DFED2D2A 		vldr.32	s5, .L401+44
 6592 008e 9FED2D2A 		vldr.32	s4, .L401+48
 6593 0092 F0EE401A 		vmov.f32	s3, s0
 6594 0096 9FED221A 		vldr.32	s2, .L401+12
 6595 009a DFED2C0A 		vldr.32	s1, .L401+56
 6596 009e 9FED2C0A 		vldr.32	s0, .L401+60
 6597              	.LVL485:
 6598 00a2 FFF7FEFF 		bl	Fastest_DgnOutTurn
 6599              	.LVL486:
1379:Src/motion.c  ****     case T_135IN:
 6600              		.loc 1 1379 0
ARM GAS  C:\Users\kotaro\AppData\Local\Temp\cc7z3AXq.s 			page 142


 6601 00a6 B6E7     		b	.L389
 6602              	.LVL487:
 6603              	.L394:
1381:Src/motion.c  ****         break;
 6604              		.loc 1 1381 0
 6605 00a8 9FED1D1A 		vldr.32	s2, .L401+12
 6606 00ac FF20     		movs	r0, #255
 6607              	.LVL488:
 6608 00ae 9FED193A 		vldr.32	s6, .L401
 6609 00b2 DFED232A 		vldr.32	s5, .L401+44
 6610 00b6 9FED272A 		vldr.32	s4, .L401+64
 6611 00ba F0EE411A 		vmov.f32	s3, s2
 6612 00be DFED260A 		vldr.32	s1, .L401+68
 6613 00c2 B3EE0C0A 		vmov.f32	s0, #2.8e+1
 6614              	.LVL489:
 6615 00c6 FFF7FEFF 		bl	Fastest_DgnInTurn
 6616              	.LVL490:
1382:Src/motion.c  ****     case T_135OUT:
 6617              		.loc 1 1382 0
 6618 00ca A4E7     		b	.L389
 6619              	.LVL491:
 6620              	.L398:
1384:Src/motion.c  ****         break;
 6621              		.loc 1 1384 0
 6622 00cc FF20     		movs	r0, #255
 6623              	.LVL492:
 6624 00ce 9FED113A 		vldr.32	s6, .L401
 6625 00d2 DFED1B2A 		vldr.32	s5, .L401+44
 6626 00d6 9FED1F2A 		vldr.32	s4, .L401+64
 6627 00da F0EE401A 		vmov.f32	s3, s0
 6628 00de 9FED101A 		vldr.32	s2, .L401+12
 6629 00e2 DFED1E0A 		vldr.32	s1, .L401+72
 6630 00e6 B3EE0C0A 		vmov.f32	s0, #2.8e+1
 6631              	.LVL493:
 6632 00ea FFF7FEFF 		bl	Fastest_DgnOutTurn
 6633              	.LVL494:
1385:Src/motion.c  ****     case T_V90:
 6634              		.loc 1 1385 0
 6635 00ee 92E7     		b	.L389
 6636              	.LVL495:
 6637              	.L399:
1387:Src/motion.c  ****         break;
 6638              		.loc 1 1387 0
 6639 00f0 9FED0B1A 		vldr.32	s2, .L401+12
 6640 00f4 FF20     		movs	r0, #255
 6641              	.LVL496:
 6642 00f6 9FED113A 		vldr.32	s6, .L401+40
 6643 00fa DFED192A 		vldr.32	s5, .L401+76
 6644 00fe 9FED072A 		vldr.32	s4, .L401+8
 6645 0102 F0EE411A 		vmov.f32	s3, s2
 6646 0106 DFED070A 		vldr.32	s1, .L401+16
 6647 010a B3EE0E0A 		vmov.f32	s0, #3.0e+1
 6648              	.LVL497:
 6649 010e FFF7FEFF 		bl	Fastest_DgnTurn
 6650              	.LVL498:
 6651              		.loc 1 1390 0
 6652 0112 80E7     		b	.L389
ARM GAS  C:\Users\kotaro\AppData\Local\Temp\cc7z3AXq.s 			page 143


 6653              	.L402:
 6654              		.align	2
 6655              	.L401:
 6656 0114 00409C46 		.word	1184645120
 6657 0118 00001644 		.word	1142292480
 6658 011c 0000B442 		.word	1119092736
 6659 0120 00009644 		.word	1150681088
 6660 0124 00007842 		.word	1115160576
 6661 0128 00001842 		.word	1108869120
 6662 012c 00403A44 		.word	1144668160
 6663 0130 00003443 		.word	1127481344
 6664 0134 00008C42 		.word	1116471296
 6665 0138 00004842 		.word	1112014848
 6666 013c 00401C47 		.word	1193033728
 6667 0140 00004844 		.word	1145569280
 6668 0144 00003442 		.word	1110704128
 6669 0148 0000B242 		.word	1118961664
 6670 014c 00005042 		.word	1112539136
 6671 0150 00009442 		.word	1116995584
 6672 0154 00000743 		.word	1124532224
 6673 0158 00002842 		.word	1109917696
 6674 015c 00008242 		.word	1115815936
 6675 0160 00007A44 		.word	1148846080
 6676              		.cfi_endproc
 6677              	.LFE203:
 6679              		.section	.text.Motion_FastestDiagonalLeft,"ax",%progbits
 6680              		.align	1
 6681              		.global	Motion_FastestDiagonalLeft
 6682              		.syntax unified
 6683              		.thumb
 6684              		.thumb_func
 6685              		.fpu fpv4-sp-d16
 6687              	Motion_FastestDiagonalLeft:
 6688              	.LFB204:
1391:Src/motion.c  **** void Motion_FastestDiagonalLeft(uint8_t step)
1392:Src/motion.c  **** {
 6689              		.loc 1 1392 0
 6690              		.cfi_startproc
 6691              		@ args = 0, pretend = 0, frame = 0
 6692              		@ frame_needed = 0, uses_anonymous_args = 0
 6693              	.LVL499:
 6694 0000 08B5     		push	{r3, lr}
 6695              	.LCFI107:
 6696              		.cfi_def_cfa_offset 8
 6697              		.cfi_offset 3, -8
 6698              		.cfi_offset 14, -4
1393:Src/motion.c  ****     if (step > 1)
 6699              		.loc 1 1393 0
 6700 0002 0128     		cmp	r0, #1
 6701 0004 42D9     		bls	.L404
 6702              	.LBB5:
1394:Src/motion.c  ****     {
1395:Src/motion.c  ****         step--;
 6703              		.loc 1 1395 0
 6704 0006 0138     		subs	r0, r0, #1
 6705              	.LVL500:
 6706 0008 C3B2     		uxtb	r3, r0
ARM GAS  C:\Users\kotaro\AppData\Local\Temp\cc7z3AXq.s 			page 144


 6707 000a 00EE103A 		vmov	s0, r3	@ int
 6708              	.LVL501:
1396:Src/motion.c  ****         float velo = VELO_EST + gain_velo * step;
 6709              		.loc 1 1396 0
 6710 000e B8EEC01A 		vcvt.f32.s32	s2, s0
 6711 0012 344B     		ldr	r3, .L410
 6712 0014 D3ED007A 		vldr.32	s15, [r3]
 6713 0018 21EE271A 		vmul.f32	s2, s2, s15
 6714 001c DFED327A 		vldr.32	s15, .L410+4
 6715 0020 31EE271A 		vadd.f32	s2, s2, s15
 6716              	.LVL502:
1397:Src/motion.c  ****         if (velo > 2400.0f)
 6717              		.loc 1 1397 0
 6718 0024 DFED317A 		vldr.32	s15, .L410+8
 6719 0028 B4EEE71A 		vcmpe.f32	s2, s15
 6720 002c F1EE10FA 		vmrs	APSR_nzcv, FPSCR
 6721 0030 01DD     		ble	.L405
1398:Src/motion.c  ****         {
1399:Src/motion.c  ****             velo = 2400.0f;
 6722              		.loc 1 1399 0
 6723 0032 B0EE671A 		vmov.f32	s2, s15
 6724              	.LVL503:
 6725              	.L405:
1400:Src/motion.c  ****         }
1401:Src/motion.c  ****         Control_StrCalculator(diagonal_step * (float)step - enc.offset, VELO_EST, velo, VELO_EST, A
 6726              		.loc 1 1401 0
 6727 0036 B8EE400A 		vcvt.f32.u32	s0, s0
 6728 003a 2D4B     		ldr	r3, .L410+12
 6729 003c D3ED007A 		vldr.32	s15, [r3]
 6730 0040 20EE270A 		vmul.f32	s0, s0, s15
 6731 0044 2B4B     		ldr	r3, .L410+16
 6732 0046 D3ED027A 		vldr.32	s15, [r3, #8]
 6733 004a DFED270A 		vldr.32	s1, .L410+4
 6734 004e F7EE002A 		vmov.f32	s5, #1.0e+0
 6735 0052 9FED292A 		vldr.32	s4, .L410+20
 6736 0056 F0EE601A 		vmov.f32	s3, s1
 6737 005a 30EE670A 		vsub.f32	s0, s0, s15
 6738 005e FFF7FEFF 		bl	Control_StrCalculator
 6739              	.LVL504:
1402:Src/motion.c  ****         Control_AngCalculator(0, 0, 0, 0, 1, 0);
 6740              		.loc 1 1402 0
 6741 0062 9FED260A 		vldr.32	s0, .L410+24
 6742 0066 F0EE402A 		vmov.f32	s5, s0
 6743 006a B7EE002A 		vmov.f32	s4, #1.0e+0
 6744 006e F0EE401A 		vmov.f32	s3, s0
 6745 0072 B0EE401A 		vmov.f32	s2, s0
 6746 0076 F0EE400A 		vmov.f32	s1, s0
 6747 007a FFF7FEFF 		bl	Control_AngCalculator
 6748              	.LVL505:
1403:Src/motion.c  ****         motion_end_flag = FALSE;
 6749              		.loc 1 1403 0
 6750 007e 204B     		ldr	r3, .L410+28
 6751 0080 0022     		movs	r2, #0
 6752 0082 1A70     		strb	r2, [r3]
 6753              	.L406:
1404:Src/motion.c  ****         while (motion_end_flag == FALSE)
 6754              		.loc 1 1404 0 discriminator 1
ARM GAS  C:\Users\kotaro\AppData\Local\Temp\cc7z3AXq.s 			page 145


 6755 0084 1E4B     		ldr	r3, .L410+28
 6756 0086 1B78     		ldrb	r3, [r3]	@ zero_extendqisi2
 6757 0088 002B     		cmp	r3, #0
 6758 008a FBD0     		beq	.L406
 6759              	.L404:
 6760              	.LBE5:
1405:Src/motion.c  ****         {
1406:Src/motion.c  ****         }
1407:Src/motion.c  ****     }
1408:Src/motion.c  ****     Control_WallEdgeAble(0b1000);
 6761              		.loc 1 1408 0
 6762 008c 0820     		movs	r0, #8
 6763 008e FFF7FEFF 		bl	Control_WallEdgeAble
 6764              	.LVL506:
1409:Src/motion.c  ****     Control_StrCalculator(diagonal_step, VELO_EST, VELO_EST, VELO_EST, ACCEL_EST, 1); //26
 6765              		.loc 1 1409 0
 6766 0092 DFED150A 		vldr.32	s1, .L410+4
 6767 0096 F7EE002A 		vmov.f32	s5, #1.0e+0
 6768 009a 9FED172A 		vldr.32	s4, .L410+20
 6769 009e F0EE601A 		vmov.f32	s3, s1
 6770 00a2 B0EE601A 		vmov.f32	s2, s1
 6771 00a6 124B     		ldr	r3, .L410+12
 6772 00a8 93ED000A 		vldr.32	s0, [r3]
 6773 00ac FFF7FEFF 		bl	Control_StrCalculator
 6774              	.LVL507:
1410:Src/motion.c  ****     Control_AngCalculator(0, 0, 0, 0, 1, 0);
 6775              		.loc 1 1410 0
 6776 00b0 9FED120A 		vldr.32	s0, .L410+24
 6777 00b4 F0EE402A 		vmov.f32	s5, s0
 6778 00b8 B7EE002A 		vmov.f32	s4, #1.0e+0
 6779 00bc F0EE401A 		vmov.f32	s3, s0
 6780 00c0 B0EE401A 		vmov.f32	s2, s0
 6781 00c4 F0EE400A 		vmov.f32	s1, s0
 6782 00c8 FFF7FEFF 		bl	Control_AngCalculator
 6783              	.LVL508:
1411:Src/motion.c  ****     motion_end_flag = FALSE;
 6784              		.loc 1 1411 0
 6785 00cc 0C4B     		ldr	r3, .L410+28
 6786 00ce 0022     		movs	r2, #0
 6787 00d0 1A70     		strb	r2, [r3]
 6788              	.L407:
1412:Src/motion.c  ****     while (motion_end_flag == FALSE)
 6789              		.loc 1 1412 0 discriminator 1
 6790 00d2 0B4B     		ldr	r3, .L410+28
 6791 00d4 1B78     		ldrb	r3, [r3]	@ zero_extendqisi2
 6792 00d6 002B     		cmp	r3, #0
 6793 00d8 FBD0     		beq	.L407
1413:Src/motion.c  ****     {
1414:Src/motion.c  ****     }
1415:Src/motion.c  ****     enc.offset = 0;
 6794              		.loc 1 1415 0
 6795 00da 064B     		ldr	r3, .L410+16
 6796 00dc 0022     		movs	r2, #0
 6797 00de 9A60     		str	r2, [r3, #8]	@ float
1416:Src/motion.c  **** }
 6798              		.loc 1 1416 0
 6799 00e0 08BD     		pop	{r3, pc}
ARM GAS  C:\Users\kotaro\AppData\Local\Temp\cc7z3AXq.s 			page 146


 6800              	.L411:
 6801 00e2 00BF     		.align	2
 6802              	.L410:
 6803 00e4 00000000 		.word	.LANCHOR0
 6804 00e8 00009644 		.word	1150681088
 6805 00ec 00001645 		.word	1159069696
 6806 00f0 00000000 		.word	.LANCHOR2
 6807 00f4 00000000 		.word	enc
 6808 00f8 00409C46 		.word	1184645120
 6809 00fc 00000000 		.word	0
 6810 0100 00000000 		.word	motion_end_flag
 6811              		.cfi_endproc
 6812              	.LFE204:
 6814              		.section	.text.Motion_FastestDiagonalRight,"ax",%progbits
 6815              		.align	1
 6816              		.global	Motion_FastestDiagonalRight
 6817              		.syntax unified
 6818              		.thumb
 6819              		.thumb_func
 6820              		.fpu fpv4-sp-d16
 6822              	Motion_FastestDiagonalRight:
 6823              	.LFB205:
1417:Src/motion.c  **** 
1418:Src/motion.c  **** void Motion_FastestDiagonalRight(uint8_t step)
1419:Src/motion.c  **** {
 6824              		.loc 1 1419 0
 6825              		.cfi_startproc
 6826              		@ args = 0, pretend = 0, frame = 0
 6827              		@ frame_needed = 0, uses_anonymous_args = 0
 6828              	.LVL509:
 6829 0000 08B5     		push	{r3, lr}
 6830              	.LCFI108:
 6831              		.cfi_def_cfa_offset 8
 6832              		.cfi_offset 3, -8
 6833              		.cfi_offset 14, -4
1420:Src/motion.c  ****     if (step > 1)
 6834              		.loc 1 1420 0
 6835 0002 0128     		cmp	r0, #1
 6836 0004 40D9     		bls	.L413
 6837              	.LBB6:
1421:Src/motion.c  ****     {
1422:Src/motion.c  ****         step--;
 6838              		.loc 1 1422 0
 6839 0006 0138     		subs	r0, r0, #1
 6840              	.LVL510:
 6841 0008 C0B2     		uxtb	r0, r0
 6842              	.LVL511:
1423:Src/motion.c  ****         float velo = VELO_EST + gain_velo * (float)step;
 6843              		.loc 1 1423 0
 6844 000a 07EE900A 		vmov	s15, r0	@ int
 6845 000e B8EE670A 		vcvt.f32.u32	s0, s15
 6846 0012 334B     		ldr	r3, .L419
 6847 0014 93ED001A 		vldr.32	s2, [r3]
 6848 0018 20EE011A 		vmul.f32	s2, s0, s2
 6849 001c DFED317A 		vldr.32	s15, .L419+4
 6850 0020 31EE271A 		vadd.f32	s2, s2, s15
 6851              	.LVL512:
ARM GAS  C:\Users\kotaro\AppData\Local\Temp\cc7z3AXq.s 			page 147


1424:Src/motion.c  ****         if (velo > 2400.0f)
 6852              		.loc 1 1424 0
 6853 0024 DFED307A 		vldr.32	s15, .L419+8
 6854 0028 B4EEE71A 		vcmpe.f32	s2, s15
 6855 002c F1EE10FA 		vmrs	APSR_nzcv, FPSCR
 6856 0030 01DD     		ble	.L414
1425:Src/motion.c  ****         {
1426:Src/motion.c  ****             velo = 2400.0f;
 6857              		.loc 1 1426 0
 6858 0032 B0EE671A 		vmov.f32	s2, s15
 6859              	.LVL513:
 6860              	.L414:
1427:Src/motion.c  ****         }
1428:Src/motion.c  ****         Control_StrCalculator(diagonal_step * (float)step - enc.offset, VELO_EST, velo, VELO_EST, A
 6861              		.loc 1 1428 0
 6862 0036 2D4B     		ldr	r3, .L419+12
 6863 0038 D3ED007A 		vldr.32	s15, [r3]
 6864 003c 20EE270A 		vmul.f32	s0, s0, s15
 6865 0040 2B4B     		ldr	r3, .L419+16
 6866 0042 D3ED027A 		vldr.32	s15, [r3, #8]
 6867 0046 DFED270A 		vldr.32	s1, .L419+4
 6868 004a F7EE002A 		vmov.f32	s5, #1.0e+0
 6869 004e 9FED292A 		vldr.32	s4, .L419+20
 6870 0052 F0EE601A 		vmov.f32	s3, s1
 6871 0056 30EE670A 		vsub.f32	s0, s0, s15
 6872 005a FFF7FEFF 		bl	Control_StrCalculator
 6873              	.LVL514:
1429:Src/motion.c  ****         Control_AngCalculator(0, 0, 0, 0, 1, 0);
 6874              		.loc 1 1429 0
 6875 005e 9FED260A 		vldr.32	s0, .L419+24
 6876 0062 F0EE402A 		vmov.f32	s5, s0
 6877 0066 B7EE002A 		vmov.f32	s4, #1.0e+0
 6878 006a F0EE401A 		vmov.f32	s3, s0
 6879 006e B0EE401A 		vmov.f32	s2, s0
 6880 0072 F0EE400A 		vmov.f32	s1, s0
 6881 0076 FFF7FEFF 		bl	Control_AngCalculator
 6882              	.LVL515:
1430:Src/motion.c  ****         motion_end_flag = FALSE;
 6883              		.loc 1 1430 0
 6884 007a 204B     		ldr	r3, .L419+28
 6885 007c 0022     		movs	r2, #0
 6886 007e 1A70     		strb	r2, [r3]
 6887              	.L415:
1431:Src/motion.c  ****         while (motion_end_flag == FALSE)
 6888              		.loc 1 1431 0 discriminator 1
 6889 0080 1E4B     		ldr	r3, .L419+28
 6890 0082 1B78     		ldrb	r3, [r3]	@ zero_extendqisi2
 6891 0084 002B     		cmp	r3, #0
 6892 0086 FBD0     		beq	.L415
 6893              	.L413:
 6894              	.LBE6:
1432:Src/motion.c  ****         {
1433:Src/motion.c  ****         }
1434:Src/motion.c  ****     }
1435:Src/motion.c  ****     Control_WallEdgeAble(0b0100);
 6895              		.loc 1 1435 0
 6896 0088 0420     		movs	r0, #4
ARM GAS  C:\Users\kotaro\AppData\Local\Temp\cc7z3AXq.s 			page 148


 6897 008a FFF7FEFF 		bl	Control_WallEdgeAble
 6898              	.LVL516:
1436:Src/motion.c  ****     Control_StrCalculator(diagonal_step, VELO_EST, VELO_EST, VELO_EST, ACCEL_EST, 1); //20
 6899              		.loc 1 1436 0
 6900 008e DFED150A 		vldr.32	s1, .L419+4
 6901 0092 F7EE002A 		vmov.f32	s5, #1.0e+0
 6902 0096 9FED172A 		vldr.32	s4, .L419+20
 6903 009a F0EE601A 		vmov.f32	s3, s1
 6904 009e B0EE601A 		vmov.f32	s2, s1
 6905 00a2 124B     		ldr	r3, .L419+12
 6906 00a4 93ED000A 		vldr.32	s0, [r3]
 6907 00a8 FFF7FEFF 		bl	Control_StrCalculator
 6908              	.LVL517:
1437:Src/motion.c  ****     Control_AngCalculator(0, 0, 0, 0, 1, 0);
 6909              		.loc 1 1437 0
 6910 00ac 9FED120A 		vldr.32	s0, .L419+24
 6911 00b0 F0EE402A 		vmov.f32	s5, s0
 6912 00b4 B7EE002A 		vmov.f32	s4, #1.0e+0
 6913 00b8 F0EE401A 		vmov.f32	s3, s0
 6914 00bc B0EE401A 		vmov.f32	s2, s0
 6915 00c0 F0EE400A 		vmov.f32	s1, s0
 6916 00c4 FFF7FEFF 		bl	Control_AngCalculator
 6917              	.LVL518:
1438:Src/motion.c  ****     motion_end_flag = FALSE;
 6918              		.loc 1 1438 0
 6919 00c8 0C4B     		ldr	r3, .L419+28
 6920 00ca 0022     		movs	r2, #0
 6921 00cc 1A70     		strb	r2, [r3]
 6922              	.L416:
1439:Src/motion.c  ****     while (motion_end_flag == FALSE)
 6923              		.loc 1 1439 0 discriminator 1
 6924 00ce 0B4B     		ldr	r3, .L419+28
 6925 00d0 1B78     		ldrb	r3, [r3]	@ zero_extendqisi2
 6926 00d2 002B     		cmp	r3, #0
 6927 00d4 FBD0     		beq	.L416
1440:Src/motion.c  ****     {
1441:Src/motion.c  ****     }
1442:Src/motion.c  ****     enc.offset = 0;
 6928              		.loc 1 1442 0
 6929 00d6 064B     		ldr	r3, .L419+16
 6930 00d8 0022     		movs	r2, #0
 6931 00da 9A60     		str	r2, [r3, #8]	@ float
1443:Src/motion.c  **** }...
 6932              		.loc 1 1443 0
 6933 00dc 08BD     		pop	{r3, pc}
 6934              	.L420:
 6935 00de 00BF     		.align	2
 6936              	.L419:
 6937 00e0 00000000 		.word	.LANCHOR0
 6938 00e4 00009644 		.word	1150681088
 6939 00e8 00001645 		.word	1159069696
 6940 00ec 00000000 		.word	.LANCHOR2
 6941 00f0 00000000 		.word	enc
 6942 00f4 00409C46 		.word	1184645120
 6943 00f8 00000000 		.word	0
 6944 00fc 00000000 		.word	motion_end_flag
 6945              		.cfi_endproc
ARM GAS  C:\Users\kotaro\AppData\Local\Temp\cc7z3AXq.s 			page 149


 6946              	.LFE205:
 6948              		.global	prefront_flag
 6949              		.global	diagonal_step
 6950              		.global	gain_velo
 6951              		.comm	motion_end_flag,1,1
 6952              		.section	.bss.diagonal_step,"aw",%nobits
 6953              		.align	2
 6954              		.set	.LANCHOR2,. + 0
 6957              	diagonal_step:
 6958 0000 00000000 		.space	4
 6959              		.section	.bss.gain_velo,"aw",%nobits
 6960              		.align	2
 6961              		.set	.LANCHOR0,. + 0
 6964              	gain_velo:
 6965 0000 00000000 		.space	4
 6966              		.section	.bss.prefront_flag,"aw",%nobits
 6967              		.align	1
 6968              		.set	.LANCHOR1,. + 0
 6971              	prefront_flag:
 6972 0000 0000     		.space	2
 6973              		.text
 6974              	.Letext0:
 6975              		.file 2 "c:\\program files (x86)\\gnu tools arm embedded\\7 2017-q4-major\\arm-none-eabi\\include\
 6976              		.file 3 "c:\\program files (x86)\\gnu tools arm embedded\\7 2017-q4-major\\arm-none-eabi\\include\
 6977              		.file 4 "Inc/control.h"
 6978              		.file 5 "Drivers/CMSIS/Include/core_cm4.h"
 6979              		.file 6 "Drivers/CMSIS/Device/ST/STM32F4xx/Include/system_stm32f4xx.h"
 6980              		.file 7 "Drivers/CMSIS/Device/ST/STM32F4xx/Include/stm32f405xx.h"
 6981              		.file 8 "c:\\program files (x86)\\gnu tools arm embedded\\7 2017-q4-major\\arm-none-eabi\\include\
 6982              		.file 9 "c:\\program files (x86)\\gnu tools arm embedded\\7 2017-q4-major\\arm-none-eabi\\include\
 6983              		.file 10 "c:\\program files (x86)\\gnu tools arm embedded\\7 2017-q4-major\\lib\\gcc\\arm-none-eab
 6984              		.file 11 "c:\\program files (x86)\\gnu tools arm embedded\\7 2017-q4-major\\arm-none-eabi\\include
 6985              		.file 12 "Drivers/STM32F4xx_HAL_Driver/Inc/stm32f4xx_hal_def.h"
 6986              		.file 13 "Drivers/STM32F4xx_HAL_Driver/Inc/stm32f4xx_hal_dma.h"
 6987              		.file 14 "Drivers/STM32F4xx_HAL_Driver/Inc/stm32f4xx_hal_adc.h"
 6988              		.file 15 "Drivers/STM32F4xx_HAL_Driver/Inc/stm32f4xx_hal_spi.h"
 6989              		.file 16 "Drivers/STM32F4xx_HAL_Driver/Inc/stm32f4xx_hal_tim.h"
 6990              		.file 17 "Inc/tim.h"
 6991              		.file 18 "Inc/spi.h"
 6992              		.file 19 "c:\\program files (x86)\\gnu tools arm embedded\\7 2017-q4-major\\arm-none-eabi\\include
 6993              		.file 20 "Inc/adc.h"
 6994              		.file 21 "Drivers/STM32F4xx_HAL_Driver/Inc/stm32f4xx_hal.h"
ARM GAS  C:\Users\kotaro\AppData\Local\Temp\cc7z3AXq.s 			page 150


DEFINED SYMBOLS
                            *ABS*:00000000 motion.c
C:\Users\kotaro\AppData\Local\Temp\cc7z3AXq.s:18     .text.Motion_MaxVeloSet:00000000 $t
C:\Users\kotaro\AppData\Local\Temp\cc7z3AXq.s:25     .text.Motion_MaxVeloSet:00000000 Motion_MaxVeloSet
C:\Users\kotaro\AppData\Local\Temp\cc7z3AXq.s:42     .text.Motion_MaxVeloSet:00000008 $d
C:\Users\kotaro\AppData\Local\Temp\cc7z3AXq.s:47     .text.Motion_enkai:00000000 $t
C:\Users\kotaro\AppData\Local\Temp\cc7z3AXq.s:54     .text.Motion_enkai:00000000 Motion_enkai
C:\Users\kotaro\AppData\Local\Temp\cc7z3AXq.s:93     .text.Motion_enkai:00000044 $d
C:\Users\kotaro\AppData\Local\Temp\cc7z3AXq.s:98     .text.Motion_TestTurn:00000000 $t
C:\Users\kotaro\AppData\Local\Temp\cc7z3AXq.s:105    .text.Motion_TestTurn:00000000 Motion_TestTurn
C:\Users\kotaro\AppData\Local\Temp\cc7z3AXq.s:180    .text.Motion_TestTurn:00000074 $d
                            *COM*:00000001 motion_end_flag
C:\Users\kotaro\AppData\Local\Temp\cc7z3AXq.s:193    .text.Motion_Start:00000000 $t
C:\Users\kotaro\AppData\Local\Temp\cc7z3AXq.s:200    .text.Motion_Start:00000000 Motion_Start
C:\Users\kotaro\AppData\Local\Temp\cc7z3AXq.s:259    .text.Motion_Start:0000005c $d
C:\Users\kotaro\AppData\Local\Temp\cc7z3AXq.s:269    .text.Motion_Restart:00000000 $t
C:\Users\kotaro\AppData\Local\Temp\cc7z3AXq.s:276    .text.Motion_Restart:00000000 Motion_Restart
C:\Users\kotaro\AppData\Local\Temp\cc7z3AXq.s:513    .text.Motion_Restart:000001d8 $d
C:\Users\kotaro\AppData\Local\Temp\cc7z3AXq.s:538    .text.Motion_End:00000000 $t
C:\Users\kotaro\AppData\Local\Temp\cc7z3AXq.s:545    .text.Motion_End:00000000 Motion_End
C:\Users\kotaro\AppData\Local\Temp\cc7z3AXq.s:616    .text.Motion_End:00000074 $d
C:\Users\kotaro\AppData\Local\Temp\cc7z3AXq.s:630    .text.Motion_Straight:00000000 $t
C:\Users\kotaro\AppData\Local\Temp\cc7z3AXq.s:637    .text.Motion_Straight:00000000 Motion_Straight
C:\Users\kotaro\AppData\Local\Temp\cc7z3AXq.s:790    .text.Motion_Straight:00000138 $d
C:\Users\kotaro\AppData\Local\Temp\cc7z3AXq.s:801    .text.Motion_SpinTurn:00000000 $t
C:\Users\kotaro\AppData\Local\Temp\cc7z3AXq.s:808    .text.Motion_SpinTurn:00000000 Motion_SpinTurn
C:\Users\kotaro\AppData\Local\Temp\cc7z3AXq.s:1015   .text.Motion_SpinTurn:000001b8 $d
C:\Users\kotaro\AppData\Local\Temp\cc7z3AXq.s:1038   .text.Motion_WallSpinTurn:00000000 $t
C:\Users\kotaro\AppData\Local\Temp\cc7z3AXq.s:1045   .text.Motion_WallSpinTurn:00000000 Motion_WallSpinTurn
C:\Users\kotaro\AppData\Local\Temp\cc7z3AXq.s:1284   .text.Motion_WallSpinTurn:000001e8 $d
C:\Users\kotaro\AppData\Local\Temp\cc7z3AXq.s:1309   .text.Motion_LeftTurn:00000000 $t
C:\Users\kotaro\AppData\Local\Temp\cc7z3AXq.s:1316   .text.Motion_LeftTurn:00000000 Motion_LeftTurn
C:\Users\kotaro\AppData\Local\Temp\cc7z3AXq.s:1470   .text.Motion_LeftTurn:0000014c $d
C:\Users\kotaro\AppData\Local\Temp\cc7z3AXq.s:1486   .text.Motion_RightTurn:00000000 $t
C:\Users\kotaro\AppData\Local\Temp\cc7z3AXq.s:1493   .text.Motion_RightTurn:00000000 Motion_RightTurn
C:\Users\kotaro\AppData\Local\Temp\cc7z3AXq.s:1647   .text.Motion_RightTurn:0000014c $d
C:\Users\kotaro\AppData\Local\Temp\cc7z3AXq.s:1663   .text.Motion_Switch:00000000 $t
C:\Users\kotaro\AppData\Local\Temp\cc7z3AXq.s:1670   .text.Motion_Switch:00000000 Motion_Switch
C:\Users\kotaro\AppData\Local\Temp\cc7z3AXq.s:1688   .text.Motion_Switch:0000000e $d
C:\Users\kotaro\AppData\Local\Temp\cc7z3AXq.s:1742   .text.Motion_Switch:0000003c $d
C:\Users\kotaro\AppData\Local\Temp\cc7z3AXq.s:1747   .text.Motion_FastStart:00000000 $t
C:\Users\kotaro\AppData\Local\Temp\cc7z3AXq.s:1754   .text.Motion_FastStart:00000000 Motion_FastStart
C:\Users\kotaro\AppData\Local\Temp\cc7z3AXq.s:1858   .text.Motion_FastStart:000000b4 $d
C:\Users\kotaro\AppData\Local\Temp\cc7z3AXq.s:1873   .text.Motion_FastStraight:00000000 $t
C:\Users\kotaro\AppData\Local\Temp\cc7z3AXq.s:1880   .text.Motion_FastStraight:00000000 Motion_FastStraight
C:\Users\kotaro\AppData\Local\Temp\cc7z3AXq.s:1952   .text.Motion_FastStraight:00000088 $d
C:\Users\kotaro\AppData\Local\Temp\cc7z3AXq.s:1964   .text.Motion_Adjust:00000000 $t
C:\Users\kotaro\AppData\Local\Temp\cc7z3AXq.s:1971   .text.Motion_Adjust:00000000 Motion_Adjust
C:\Users\kotaro\AppData\Local\Temp\cc7z3AXq.s:2053   .text.Motion_Adjust:000000a4 $d
C:\Users\kotaro\AppData\Local\Temp\cc7z3AXq.s:2065   .text.Motion_Adjust_L:00000000 $t
C:\Users\kotaro\AppData\Local\Temp\cc7z3AXq.s:2072   .text.Motion_Adjust_L:00000000 Motion_Adjust_L
C:\Users\kotaro\AppData\Local\Temp\cc7z3AXq.s:2198   .text.Motion_Adjust_L:000000ec $d
C:\Users\kotaro\AppData\Local\Temp\cc7z3AXq.s:2209   .text.Motion_Adjust_R:00000000 $t
C:\Users\kotaro\AppData\Local\Temp\cc7z3AXq.s:2216   .text.Motion_Adjust_R:00000000 Motion_Adjust_R
C:\Users\kotaro\AppData\Local\Temp\cc7z3AXq.s:2340   .text.Motion_Adjust_R:000000ec $d
C:\Users\kotaro\AppData\Local\Temp\cc7z3AXq.s:2351   .text.Motion_FastGoal:00000000 $t
C:\Users\kotaro\AppData\Local\Temp\cc7z3AXq.s:2358   .text.Motion_FastGoal:00000000 Motion_FastGoal
ARM GAS  C:\Users\kotaro\AppData\Local\Temp\cc7z3AXq.s 			page 151


C:\Users\kotaro\AppData\Local\Temp\cc7z3AXq.s:2464   .text.Motion_FastGoal:000000b8 $d
C:\Users\kotaro\AppData\Local\Temp\cc7z3AXq.s:2478   .text.Motion_Diagonal:00000000 $t
C:\Users\kotaro\AppData\Local\Temp\cc7z3AXq.s:2485   .text.Motion_Diagonal:00000000 Motion_Diagonal
C:\Users\kotaro\AppData\Local\Temp\cc7z3AXq.s:2541   .text.Motion_Diagonal:00000068 $d
C:\Users\kotaro\AppData\Local\Temp\cc7z3AXq.s:2551   .text.Motion_DiagonalLeft:00000000 $t
C:\Users\kotaro\AppData\Local\Temp\cc7z3AXq.s:2558   .text.Motion_DiagonalLeft:00000000 Motion_DiagonalLeft
C:\Users\kotaro\AppData\Local\Temp\cc7z3AXq.s:2676   .text.Motion_DiagonalLeft:000000ec $d
C:\Users\kotaro\AppData\Local\Temp\cc7z3AXq.s:2688   .text.Motion_DiagonalRight:00000000 $t
C:\Users\kotaro\AppData\Local\Temp\cc7z3AXq.s:2695   .text.Motion_DiagonalRight:00000000 Motion_DiagonalRight
C:\Users\kotaro\AppData\Local\Temp\cc7z3AXq.s:2812   .text.Motion_DiagonalRight:000000e8 $d
C:\Users\kotaro\AppData\Local\Temp\cc7z3AXq.s:2824   .text.Motion_DiagonalStart:00000000 $t
C:\Users\kotaro\AppData\Local\Temp\cc7z3AXq.s:2831   .text.Motion_DiagonalStart:00000000 Motion_DiagonalStart
C:\Users\kotaro\AppData\Local\Temp\cc7z3AXq.s:2897   .text.Motion_DiagonalStart:00000068 $d
C:\Users\kotaro\AppData\Local\Temp\cc7z3AXq.s:2909   .text.Motion_DiagonalStop:00000000 $t
C:\Users\kotaro\AppData\Local\Temp\cc7z3AXq.s:2916   .text.Motion_DiagonalStop:00000000 Motion_DiagonalStop
C:\Users\kotaro\AppData\Local\Temp\cc7z3AXq.s:2993   .text.Motion_DiagonalStop:00000080 $d
C:\Users\kotaro\AppData\Local\Temp\cc7z3AXq.s:3007   .text.Motion_InLeft45Turn:00000000 $t
C:\Users\kotaro\AppData\Local\Temp\cc7z3AXq.s:3014   .text.Motion_InLeft45Turn:00000000 Motion_InLeft45Turn
C:\Users\kotaro\AppData\Local\Temp\cc7z3AXq.s:3129   .text.Motion_InLeft45Turn:000000f4 $d
C:\Users\kotaro\AppData\Local\Temp\cc7z3AXq.s:3144   .text.Motion_InRight45Turn:00000000 $t
C:\Users\kotaro\AppData\Local\Temp\cc7z3AXq.s:3151   .text.Motion_InRight45Turn:00000000 Motion_InRight45Turn
C:\Users\kotaro\AppData\Local\Temp\cc7z3AXq.s:3266   .text.Motion_InRight45Turn:000000f4 $d
C:\Users\kotaro\AppData\Local\Temp\cc7z3AXq.s:3281   .text.Motion_OutLeft45Turn:00000000 $t
C:\Users\kotaro\AppData\Local\Temp\cc7z3AXq.s:3288   .text.Motion_OutLeft45Turn:00000000 Motion_OutLeft45Turn
C:\Users\kotaro\AppData\Local\Temp\cc7z3AXq.s:3472   .text.Motion_OutLeft45Turn:0000016c $d
C:\Users\kotaro\AppData\Local\Temp\cc7z3AXq.s:3489   .text.Motion_OutRight45Turn:00000000 $t
C:\Users\kotaro\AppData\Local\Temp\cc7z3AXq.s:3496   .text.Motion_OutRight45Turn:00000000 Motion_OutRight45Turn
C:\Users\kotaro\AppData\Local\Temp\cc7z3AXq.s:3680   .text.Motion_OutRight45Turn:0000016c $d
C:\Users\kotaro\AppData\Local\Temp\cc7z3AXq.s:3697   .text.Motion_Left90Turn:00000000 $t
C:\Users\kotaro\AppData\Local\Temp\cc7z3AXq.s:3704   .text.Motion_Left90Turn:00000000 Motion_Left90Turn
C:\Users\kotaro\AppData\Local\Temp\cc7z3AXq.s:3891   .text.Motion_Left90Turn:00000170 $d
C:\Users\kotaro\AppData\Local\Temp\cc7z3AXq.s:3909   .text.Motion_Right90Turn:00000000 $t
C:\Users\kotaro\AppData\Local\Temp\cc7z3AXq.s:3916   .text.Motion_Right90Turn:00000000 Motion_Right90Turn
C:\Users\kotaro\AppData\Local\Temp\cc7z3AXq.s:4096   .text.Motion_Right90Turn:00000164 $d
C:\Users\kotaro\AppData\Local\Temp\cc7z3AXq.s:4113   .text.Turn:00000000 $t
C:\Users\kotaro\AppData\Local\Temp\cc7z3AXq.s:4120   .text.Turn:00000000 Turn
C:\Users\kotaro\AppData\Local\Temp\cc7z3AXq.s:4374   .text.Turn:000001e0 $d
C:\Users\kotaro\AppData\Local\Temp\cc7z3AXq.s:4387   .text.Motion_FastLeftTurn:00000000 $t
C:\Users\kotaro\AppData\Local\Temp\cc7z3AXq.s:4394   .text.Motion_FastLeftTurn:00000000 Motion_FastLeftTurn
C:\Users\kotaro\AppData\Local\Temp\cc7z3AXq.s:4411   .text.Motion_FastLeftTurn:0000000a $d
C:\Users\kotaro\AppData\Local\Temp\cc7z3AXq.s:4419   .text.Motion_FastLeftTurn:00000012 $t
C:\Users\kotaro\AppData\Local\Temp\cc7z3AXq.s:4538   .text.Motion_FastLeftTurn:000000dc $d
C:\Users\kotaro\AppData\Local\Temp\cc7z3AXq.s:4558   .text.Motion_FastRightTurn:00000000 $t
C:\Users\kotaro\AppData\Local\Temp\cc7z3AXq.s:4565   .text.Motion_FastRightTurn:00000000 Motion_FastRightTurn
C:\Users\kotaro\AppData\Local\Temp\cc7z3AXq.s:4582   .text.Motion_FastRightTurn:0000000a $d
C:\Users\kotaro\AppData\Local\Temp\cc7z3AXq.s:4590   .text.Motion_FastRightTurn:00000012 $t
C:\Users\kotaro\AppData\Local\Temp\cc7z3AXq.s:4709   .text.Motion_FastRightTurn:000000dc $d
C:\Users\kotaro\AppData\Local\Temp\cc7z3AXq.s:4729   .text.Motion_FastestStart:00000000 $t
C:\Users\kotaro\AppData\Local\Temp\cc7z3AXq.s:4736   .text.Motion_FastestStart:00000000 Motion_FastestStart
C:\Users\kotaro\AppData\Local\Temp\cc7z3AXq.s:4837   .text.Motion_FastestStart:000000ac $d
C:\Users\kotaro\AppData\Local\Temp\cc7z3AXq.s:4852   .text.Motion_FastestStraight:00000000 $t
C:\Users\kotaro\AppData\Local\Temp\cc7z3AXq.s:4859   .text.Motion_FastestStraight:00000000 Motion_FastestStraight
C:\Users\kotaro\AppData\Local\Temp\cc7z3AXq.s:4931   .text.Motion_FastestStraight:00000088 $d
C:\Users\kotaro\AppData\Local\Temp\cc7z3AXq.s:4943   .text.Motion_FastestGoal:00000000 $t
C:\Users\kotaro\AppData\Local\Temp\cc7z3AXq.s:4950   .text.Motion_FastestGoal:00000000 Motion_FastestGoal
C:\Users\kotaro\AppData\Local\Temp\cc7z3AXq.s:5056   .text.Motion_FastestGoal:000000b4 $d
C:\Users\kotaro\AppData\Local\Temp\cc7z3AXq.s:5070   .text.Motion_FastestAdjust_L:00000000 $t
ARM GAS  C:\Users\kotaro\AppData\Local\Temp\cc7z3AXq.s 			page 152


C:\Users\kotaro\AppData\Local\Temp\cc7z3AXq.s:5077   .text.Motion_FastestAdjust_L:00000000 Motion_FastestAdjust_L
C:\Users\kotaro\AppData\Local\Temp\cc7z3AXq.s:5204   .text.Motion_FastestAdjust_L:000000ec $d
C:\Users\kotaro\AppData\Local\Temp\cc7z3AXq.s:5214   .text.Motion_FastestAdjust_R:00000000 $t
C:\Users\kotaro\AppData\Local\Temp\cc7z3AXq.s:5221   .text.Motion_FastestAdjust_R:00000000 Motion_FastestAdjust_R
C:\Users\kotaro\AppData\Local\Temp\cc7z3AXq.s:5331   .text.Motion_FastestAdjust_R:000000e0 $d
C:\Users\kotaro\AppData\Local\Temp\cc7z3AXq.s:5341   .text.Fastest_StrTurn:00000000 $t
C:\Users\kotaro\AppData\Local\Temp\cc7z3AXq.s:5348   .text.Fastest_StrTurn:00000000 Fastest_StrTurn
C:\Users\kotaro\AppData\Local\Temp\cc7z3AXq.s:5493   .text.Fastest_StrTurn:00000108 $d
C:\Users\kotaro\AppData\Local\Temp\cc7z3AXq.s:5502   .text.Fastest_DgnInTurn:00000000 $t
C:\Users\kotaro\AppData\Local\Temp\cc7z3AXq.s:5509   .text.Fastest_DgnInTurn:00000000 Fastest_DgnInTurn
C:\Users\kotaro\AppData\Local\Temp\cc7z3AXq.s:5668   .text.Fastest_DgnInTurn:00000118 $d
C:\Users\kotaro\AppData\Local\Temp\cc7z3AXq.s:5678   .text.Fastest_DgnOutTurn:00000000 $t
C:\Users\kotaro\AppData\Local\Temp\cc7z3AXq.s:5685   .text.Fastest_DgnOutTurn:00000000 Fastest_DgnOutTurn
C:\Users\kotaro\AppData\Local\Temp\cc7z3AXq.s:5837   .text.Fastest_DgnOutTurn:00000114 $d
C:\Users\kotaro\AppData\Local\Temp\cc7z3AXq.s:5847   .text.Fastest_DgnTurn:00000000 $t
C:\Users\kotaro\AppData\Local\Temp\cc7z3AXq.s:5854   .text.Fastest_DgnTurn:00000000 Fastest_DgnTurn
C:\Users\kotaro\AppData\Local\Temp\cc7z3AXq.s:6014   .text.Fastest_DgnTurn:00000118 $d
C:\Users\kotaro\AppData\Local\Temp\cc7z3AXq.s:6024   .text.Motion_FastestLeftSearch:00000000 $t
C:\Users\kotaro\AppData\Local\Temp\cc7z3AXq.s:6031   .text.Motion_FastestLeftSearch:00000000 Motion_FastestLeftSearch
C:\Users\kotaro\AppData\Local\Temp\cc7z3AXq.s:6152   .text.Motion_FastestLeftSearch:000000fc $d
C:\Users\kotaro\AppData\Local\Temp\cc7z3AXq.s:6166   .text.Motion_FastestRightSearch:00000000 $t
C:\Users\kotaro\AppData\Local\Temp\cc7z3AXq.s:6173   .text.Motion_FastestRightSearch:00000000 Motion_FastestRightSearch
C:\Users\kotaro\AppData\Local\Temp\cc7z3AXq.s:6294   .text.Motion_FastestRightSearch:000000fc $d
C:\Users\kotaro\AppData\Local\Temp\cc7z3AXq.s:6307   .text.Motion_FastestLeftTurn:00000000 $t
C:\Users\kotaro\AppData\Local\Temp\cc7z3AXq.s:6314   .text.Motion_FastestLeftTurn:00000000 Motion_FastestLeftTurn
C:\Users\kotaro\AppData\Local\Temp\cc7z3AXq.s:6331   .text.Motion_FastestLeftTurn:0000000a $d
C:\Users\kotaro\AppData\Local\Temp\cc7z3AXq.s:6339   .text.Motion_FastestLeftTurn:00000012 $t
C:\Users\kotaro\AppData\Local\Temp\cc7z3AXq.s:6469   .text.Motion_FastestLeftTurn:00000114 $d
C:\Users\kotaro\AppData\Local\Temp\cc7z3AXq.s:6494   .text.Motion_FastestRightTurn:00000000 $t
C:\Users\kotaro\AppData\Local\Temp\cc7z3AXq.s:6501   .text.Motion_FastestRightTurn:00000000 Motion_FastestRightTurn
C:\Users\kotaro\AppData\Local\Temp\cc7z3AXq.s:6518   .text.Motion_FastestRightTurn:0000000a $d
C:\Users\kotaro\AppData\Local\Temp\cc7z3AXq.s:6526   .text.Motion_FastestRightTurn:00000012 $t
C:\Users\kotaro\AppData\Local\Temp\cc7z3AXq.s:6656   .text.Motion_FastestRightTurn:00000114 $d
C:\Users\kotaro\AppData\Local\Temp\cc7z3AXq.s:6680   .text.Motion_FastestDiagonalLeft:00000000 $t
C:\Users\kotaro\AppData\Local\Temp\cc7z3AXq.s:6687   .text.Motion_FastestDiagonalLeft:00000000 Motion_FastestDiagonalLeft
C:\Users\kotaro\AppData\Local\Temp\cc7z3AXq.s:6803   .text.Motion_FastestDiagonalLeft:000000e4 $d
C:\Users\kotaro\AppData\Local\Temp\cc7z3AXq.s:6815   .text.Motion_FastestDiagonalRight:00000000 $t
C:\Users\kotaro\AppData\Local\Temp\cc7z3AXq.s:6822   .text.Motion_FastestDiagonalRight:00000000 Motion_FastestDiagonalRight
C:\Users\kotaro\AppData\Local\Temp\cc7z3AXq.s:6937   .text.Motion_FastestDiagonalRight:000000e0 $d
C:\Users\kotaro\AppData\Local\Temp\cc7z3AXq.s:6971   .bss.prefront_flag:00000000 prefront_flag
C:\Users\kotaro\AppData\Local\Temp\cc7z3AXq.s:6957   .bss.diagonal_step:00000000 diagonal_step
C:\Users\kotaro\AppData\Local\Temp\cc7z3AXq.s:6964   .bss.gain_velo:00000000 gain_velo
C:\Users\kotaro\AppData\Local\Temp\cc7z3AXq.s:6953   .bss.diagonal_step:00000000 $d
C:\Users\kotaro\AppData\Local\Temp\cc7z3AXq.s:6960   .bss.gain_velo:00000000 $d
C:\Users\kotaro\AppData\Local\Temp\cc7z3AXq.s:6967   .bss.prefront_flag:00000000 $d
C:\Users\kotaro\AppData\Local\Temp\cc7z3AXq.s:1693   .text.Motion_Switch:00000013 $d
C:\Users\kotaro\AppData\Local\Temp\cc7z3AXq.s:1693   .text.Motion_Switch:00000014 $t

UNDEFINED SYMBOLS
Control_ResetVelo
Control_StrCalculator
Control_AngCalculator
HAL_Delay
straight
angle
error_ang_sum
error_ang_old
ARM GAS  C:\Users\kotaro\AppData\Local\Temp\cc7z3AXq.s 			page 153


enc
front_wall_flag
error_sum
error_old
Control_WallEdgeAble
sen_front
motor_flag
control_wall_flag
