ARM GAS  C:\Users\kotaro\AppData\Local\Temp\ccTjQSLT.s 			page 1


   1              		.cpu cortex-m4
   2              		.eabi_attribute 27, 1
   3              		.eabi_attribute 28, 1
   4              		.eabi_attribute 20, 1
   5              		.eabi_attribute 21, 1
   6              		.eabi_attribute 23, 3
   7              		.eabi_attribute 24, 1
   8              		.eabi_attribute 25, 1
   9              		.eabi_attribute 26, 1
  10              		.eabi_attribute 30, 1
  11              		.eabi_attribute 34, 1
  12              		.eabi_attribute 18, 4
  13              		.file	"motion.c"
  14              		.text
  15              	.Ltext0:
  16              		.cfi_sections	.debug_frame
  17              		.section	.text.Motion_MaxVeloSet,"ax",%progbits
  18              		.align	1
  19              		.global	Motion_MaxVeloSet
  20              		.syntax unified
  21              		.thumb
  22              		.thumb_func
  23              		.fpu fpv4-sp-d16
  25              	Motion_MaxVeloSet:
  26              	.LFB159:
  27              		.file 1 "Src/motion.c"
   1:Src/motion.c  **** #include "motion.h"
   2:Src/motion.c  **** #include "stdint.h"
   3:Src/motion.c  **** #include "control.h"
   4:Src/motion.c  **** #include "tim.h"
   5:Src/motion.c  **** #include "spi.h"
   6:Src/motion.c  **** #include "MazeCon.h"
   7:Src/motion.c  **** #include "arm_math.h"
   8:Src/motion.c  **** #include "adc.h"
   9:Src/motion.c  **** 
  10:Src/motion.c  **** #define TRUE 1
  11:Src/motion.c  **** #define FALSE 0
  12:Src/motion.c  **** 
  13:Src/motion.c  **** #define VELO_ANG_B 380.0f
  14:Src/motion.c  **** #define ACCEL_ANG_B 4000.0f
  15:Src/motion.c  **** 
  16:Src/motion.c  **** #define OFFSET_IN 31.0f
  17:Src/motion.c  **** #define OFFSET_OUT 47.0f
  18:Src/motion.c  **** 
  19:Src/motion.c  **** #define OFFSET_SEN 135
  20:Src/motion.c  **** 
  21:Src/motion.c  **** extern enc_t enc;
  22:Src/motion.c  **** extern volatile uint8_t motor_flag;
  23:Src/motion.c  **** extern target_t straight, angle;
  24:Src/motion.c  **** extern volatile accel_t accel;
  25:Src/motion.c  **** extern sensor_t sen_front;
  26:Src/motion.c  **** extern sensor_t sen_l;
  27:Src/motion.c  **** extern sensor_t sen_r;
  28:Src/motion.c  **** extern int16_t sen_front_reference_f;
  29:Src/motion.c  **** 
  30:Src/motion.c  **** extern float error_sum;
  31:Src/motion.c  **** extern float error_old;
ARM GAS  C:\Users\kotaro\AppData\Local\Temp\ccTjQSLT.s 			page 2


  32:Src/motion.c  **** 
  33:Src/motion.c  **** extern float error_ang_sum;
  34:Src/motion.c  **** extern float error_ang_old;
  35:Src/motion.c  **** 
  36:Src/motion.c  **** extern volatile uint8_t control_wall_flag;
  37:Src/motion.c  **** 
  38:Src/motion.c  **** extern volatile uint8_t front_wall_flag;
  39:Src/motion.c  **** 
  40:Src/motion.c  **** volatile uint8_t motion_end_flag;
  41:Src/motion.c  **** float gain_velo = 0;
  42:Src/motion.c  **** float diagonal_step = 0;
  43:Src/motion.c  **** uint16_t prefront_flag = 0;
  44:Src/motion.c  **** float velocity_now = VELO_S;
  45:Src/motion.c  **** 
  46:Src/motion.c  **** walledge_t walledge600 = {-8,-8,0,0,17.0f,19.0f,0,0};
  47:Src/motion.c  **** walledge_t walledge800 = {-10,-10,-10,-10,13.0f,13.0f,20.0f,21.0f};
  48:Src/motion.c  **** walledge_t walledgeRestart = {-8,-8,0,0,107.0f,109.0f,0,0};
  49:Src/motion.c  **** 
  50:Src/motion.c  **** void Motion_MaxVeloSet(float gain)
  51:Src/motion.c  **** {
  28              		.loc 1 51 0
  29              		.cfi_startproc
  30              		@ args = 0, pretend = 0, frame = 0
  31              		@ frame_needed = 0, uses_anonymous_args = 0
  32              		@ link register save eliminated.
  33              	.LVL0:
  52:Src/motion.c  ****     //0~160
  53:Src/motion.c  ****     gain_velo = gain;
  34              		.loc 1 53 0
  35 0000 014B     		ldr	r3, .L2
  36 0002 83ED000A 		vstr.32	s0, [r3]
  54:Src/motion.c  **** }
  37              		.loc 1 54 0
  38 0006 7047     		bx	lr
  39              	.L3:
  40              		.align	2
  41              	.L2:
  42 0008 00000000 		.word	.LANCHOR0
  43              		.cfi_endproc
  44              	.LFE159:
  46              		.section	.text.Motion_enkai,"ax",%progbits
  47              		.align	1
  48              		.global	Motion_enkai
  49              		.syntax unified
  50              		.thumb
  51              		.thumb_func
  52              		.fpu fpv4-sp-d16
  54              	Motion_enkai:
  55              	.LFB160:
  55:Src/motion.c  **** 
  56:Src/motion.c  **** void Motion_enkai(void)
  57:Src/motion.c  **** {
  56              		.loc 1 57 0
  57              		.cfi_startproc
  58              		@ Volatile: function does not return.
  59              		@ args = 0, pretend = 0, frame = 0
  60              		@ frame_needed = 0, uses_anonymous_args = 0
ARM GAS  C:\Users\kotaro\AppData\Local\Temp\ccTjQSLT.s 			page 3


  61 0000 08B5     		push	{r3, lr}
  62              	.LCFI0:
  63              		.cfi_def_cfa_offset 8
  64              		.cfi_offset 3, -8
  65              		.cfi_offset 14, -4
  58:Src/motion.c  ****     Control_ResetVelo();
  66              		.loc 1 58 0
  67 0002 FFF7FEFF 		bl	Control_ResetVelo
  68              	.LVL1:
  59:Src/motion.c  ****     Control_StrCalculator(0, 0, 0, 0, 1, 0);
  69              		.loc 1 59 0
  70 0006 9FED0F8A 		vldr.32	s16, .L7
  71 000a F0EE482A 		vmov.f32	s5, s16
  72 000e B7EE002A 		vmov.f32	s4, #1.0e+0
  73 0012 F0EE481A 		vmov.f32	s3, s16
  74 0016 B0EE481A 		vmov.f32	s2, s16
  75 001a F0EE480A 		vmov.f32	s1, s16
  76 001e B0EE480A 		vmov.f32	s0, s16
  77 0022 FFF7FEFF 		bl	Control_StrCalculator
  78              	.LVL2:
  60:Src/motion.c  ****     Control_AngCalculator(0, 0, 0, 0, 1, 0);
  79              		.loc 1 60 0
  80 0026 F0EE482A 		vmov.f32	s5, s16
  81 002a B7EE002A 		vmov.f32	s4, #1.0e+0
  82 002e F0EE481A 		vmov.f32	s3, s16
  83 0032 B0EE481A 		vmov.f32	s2, s16
  84 0036 F0EE480A 		vmov.f32	s1, s16
  85 003a B0EE480A 		vmov.f32	s0, s16
  86 003e FFF7FEFF 		bl	Control_AngCalculator
  87              	.LVL3:
  88              	.L5:
  89 0042 FEE7     		b	.L5
  90              	.L8:
  91              		.align	2
  92              	.L7:
  93 0044 00000000 		.word	0
  94              		.cfi_endproc
  95              	.LFE160:
  97              		.section	.text.Motion_TestTurn,"ax",%progbits
  98              		.align	1
  99              		.global	Motion_TestTurn
 100              		.syntax unified
 101              		.thumb
 102              		.thumb_func
 103              		.fpu fpv4-sp-d16
 105              	Motion_TestTurn:
 106              	.LFB161:
  61:Src/motion.c  ****     while (1)
  62:Src/motion.c  ****     {
  63:Src/motion.c  ****     }
  64:Src/motion.c  **** }
  65:Src/motion.c  **** 
  66:Src/motion.c  **** void Motion_TestTurn(void)
  67:Src/motion.c  **** {
 107              		.loc 1 67 0
 108              		.cfi_startproc
 109              		@ args = 0, pretend = 0, frame = 0
ARM GAS  C:\Users\kotaro\AppData\Local\Temp\ccTjQSLT.s 			page 4


 110              		@ frame_needed = 0, uses_anonymous_args = 0
 111 0000 08B5     		push	{r3, lr}
 112              	.LCFI1:
 113              		.cfi_def_cfa_offset 8
 114              		.cfi_offset 3, -8
 115              		.cfi_offset 14, -4
 116 0002 2DED028B 		vpush.64	{d8}
 117              	.LCFI2:
 118              		.cfi_def_cfa_offset 16
 119              		.cfi_offset 80, -16
 120              		.cfi_offset 81, -12
  68:Src/motion.c  ****     Control_ResetVelo();
 121              		.loc 1 68 0
 122 0006 FFF7FEFF 		bl	Control_ResetVelo
 123              	.LVL4:
  69:Src/motion.c  ****     Control_StrCalculator(0, 0, 0, 0, 1, 0);
 124              		.loc 1 69 0
 125 000a 9FED1A8A 		vldr.32	s16, .L12
 126 000e F0EE482A 		vmov.f32	s5, s16
 127 0012 B7EE002A 		vmov.f32	s4, #1.0e+0
 128 0016 F0EE481A 		vmov.f32	s3, s16
 129 001a B0EE481A 		vmov.f32	s2, s16
 130 001e F0EE480A 		vmov.f32	s1, s16
 131 0022 B0EE480A 		vmov.f32	s0, s16
 132 0026 FFF7FEFF 		bl	Control_StrCalculator
 133              	.LVL5:
  70:Src/motion.c  ****     Control_AngCalculator(180.0f, 0.0f, VELO_ANG_S, 0.0f, ACCEL_ANG_S, 1);
 134              		.loc 1 70 0
 135 002a F7EE002A 		vmov.f32	s5, #1.0e+0
 136 002e 9FED122A 		vldr.32	s4, .L12+4
 137 0032 F0EE481A 		vmov.f32	s3, s16
 138 0036 9FED111A 		vldr.32	s2, .L12+8
 139 003a F0EE480A 		vmov.f32	s1, s16
 140 003e 9FED100A 		vldr.32	s0, .L12+12
 141 0042 FFF7FEFF 		bl	Control_AngCalculator
 142              	.LVL6:
  71:Src/motion.c  ****     motion_end_flag = FALSE;
 143              		.loc 1 71 0
 144 0046 0F4B     		ldr	r3, .L12+16
 145 0048 0022     		movs	r2, #0
 146 004a 1A70     		strb	r2, [r3]
 147              	.L10:
  72:Src/motion.c  ****     while (motion_end_flag == FALSE)
 148              		.loc 1 72 0 discriminator 1
 149 004c 0D4B     		ldr	r3, .L12+16
 150 004e 1B78     		ldrb	r3, [r3]	@ zero_extendqisi2
 151 0050 002B     		cmp	r3, #0
 152 0052 FBD0     		beq	.L10
  73:Src/motion.c  ****     {
  74:Src/motion.c  ****     }
  75:Src/motion.c  ****     straight.v_now = 0;
 153              		.loc 1 75 0
 154 0054 0023     		movs	r3, #0
 155 0056 0C4A     		ldr	r2, .L12+20
 156 0058 D360     		str	r3, [r2, #12]	@ float
  76:Src/motion.c  ****     angle.v_now = 0;
 157              		.loc 1 76 0
ARM GAS  C:\Users\kotaro\AppData\Local\Temp\ccTjQSLT.s 			page 5


 158 005a 0C4A     		ldr	r2, .L12+24
 159 005c D360     		str	r3, [r2, #12]	@ float
  77:Src/motion.c  ****     error_ang_sum = 0.0f;
 160              		.loc 1 77 0
 161 005e 0C4A     		ldr	r2, .L12+28
 162 0060 1360     		str	r3, [r2]	@ float
  78:Src/motion.c  ****     error_ang_old = 0.0f;
 163              		.loc 1 78 0
 164 0062 0C4A     		ldr	r2, .L12+32
 165 0064 1360     		str	r3, [r2]	@ float
  79:Src/motion.c  ****     //Tim_MotorPwm(0, 0);
  80:Src/motion.c  ****     HAL_Delay(500);
 166              		.loc 1 80 0
 167 0066 4FF4FA70 		mov	r0, #500
 168 006a FFF7FEFF 		bl	HAL_Delay
 169              	.LVL7:
  81:Src/motion.c  **** }
 170              		.loc 1 81 0
 171 006e BDEC028B 		vldm	sp!, {d8}
 172              	.LCFI3:
 173              		.cfi_restore 80
 174              		.cfi_restore 81
 175              		.cfi_def_cfa_offset 8
 176 0072 08BD     		pop	{r3, pc}
 177              	.L13:
 178              		.align	2
 179              	.L12:
 180 0074 00000000 		.word	0
 181 0078 0000FA45 		.word	1174011904
 182 007c 0000C843 		.word	1137180672
 183 0080 00003443 		.word	1127481344
 184 0084 00000000 		.word	motion_end_flag
 185 0088 00000000 		.word	straight
 186 008c 00000000 		.word	angle
 187 0090 00000000 		.word	error_ang_sum
 188 0094 00000000 		.word	error_ang_old
 189              		.cfi_endproc
 190              	.LFE161:
 192              		.section	.text.Motion_Start,"ax",%progbits
 193              		.align	1
 194              		.global	Motion_Start
 195              		.syntax unified
 196              		.thumb
 197              		.thumb_func
 198              		.fpu fpv4-sp-d16
 200              	Motion_Start:
 201              	.LFB162:
  82:Src/motion.c  **** 
  83:Src/motion.c  **** void Motion_Start(void)
  84:Src/motion.c  **** {
 202              		.loc 1 84 0
 203              		.cfi_startproc
 204              		@ args = 0, pretend = 0, frame = 0
 205              		@ frame_needed = 0, uses_anonymous_args = 0
 206 0000 08B5     		push	{r3, lr}
 207              	.LCFI4:
 208              		.cfi_def_cfa_offset 8
ARM GAS  C:\Users\kotaro\AppData\Local\Temp\ccTjQSLT.s 			page 6


 209              		.cfi_offset 3, -8
 210              		.cfi_offset 14, -4
 211 0002 2DED028B 		vpush.64	{d8}
 212              	.LCFI5:
 213              		.cfi_def_cfa_offset 16
 214              		.cfi_offset 80, -16
 215              		.cfi_offset 81, -12
  85:Src/motion.c  ****     Control_StrCalculator(130.0f, 0.0f, VELO_S, VELO_S, ACCEL_S, 1);
 216              		.loc 1 85 0
 217 0006 9FED151A 		vldr.32	s2, .L17
 218 000a 9FED158A 		vldr.32	s16, .L17+4
 219 000e F7EE002A 		vmov.f32	s5, #1.0e+0
 220 0012 9FED142A 		vldr.32	s4, .L17+8
 221 0016 F0EE411A 		vmov.f32	s3, s2
 222 001a F0EE480A 		vmov.f32	s1, s16
 223 001e 9FED120A 		vldr.32	s0, .L17+12
 224 0022 FFF7FEFF 		bl	Control_StrCalculator
 225              	.LVL8:
  86:Src/motion.c  ****     Control_AngCalculator(0, 0, 0, 0, 1, 0);
 226              		.loc 1 86 0
 227 0026 F0EE482A 		vmov.f32	s5, s16
 228 002a B7EE002A 		vmov.f32	s4, #1.0e+0
 229 002e F0EE481A 		vmov.f32	s3, s16
 230 0032 B0EE481A 		vmov.f32	s2, s16
 231 0036 F0EE480A 		vmov.f32	s1, s16
 232 003a B0EE480A 		vmov.f32	s0, s16
 233 003e FFF7FEFF 		bl	Control_AngCalculator
 234              	.LVL9:
  87:Src/motion.c  ****     motion_end_flag = FALSE;
 235              		.loc 1 87 0
 236 0042 0A4B     		ldr	r3, .L17+16
 237 0044 0022     		movs	r2, #0
 238 0046 1A70     		strb	r2, [r3]
 239              	.L15:
  88:Src/motion.c  ****     while (motion_end_flag == FALSE)
 240              		.loc 1 88 0 discriminator 1
 241 0048 084B     		ldr	r3, .L17+16
 242 004a 1B78     		ldrb	r3, [r3]	@ zero_extendqisi2
 243 004c 002B     		cmp	r3, #0
 244 004e FBD0     		beq	.L15
  89:Src/motion.c  ****     {
  90:Src/motion.c  ****     }
  91:Src/motion.c  ****     enc.offset = 0.0f;
 245              		.loc 1 91 0
 246 0050 074B     		ldr	r3, .L17+20
 247 0052 0022     		movs	r2, #0
 248 0054 9A60     		str	r2, [r3, #8]	@ float
  92:Src/motion.c  ****     //prefront_flag = TRUE;
  93:Src/motion.c  **** }
 249              		.loc 1 93 0
 250 0056 BDEC028B 		vldm	sp!, {d8}
 251              	.LCFI6:
 252              		.cfi_restore 80
 253              		.cfi_restore 81
 254              		.cfi_def_cfa_offset 8
 255 005a 08BD     		pop	{r3, pc}
 256              	.L18:
ARM GAS  C:\Users\kotaro\AppData\Local\Temp\ccTjQSLT.s 			page 7


 257              		.align	2
 258              	.L17:
 259 005c 00001644 		.word	1142292480
 260 0060 00000000 		.word	0
 261 0064 0080BB45 		.word	1169915904
 262 0068 00000243 		.word	1124204544
 263 006c 00000000 		.word	motion_end_flag
 264 0070 00000000 		.word	enc
 265              		.cfi_endproc
 266              	.LFE162:
 268              		.section	.text.Motion_Restart,"ax",%progbits
 269              		.align	1
 270              		.global	Motion_Restart
 271              		.syntax unified
 272              		.thumb
 273              		.thumb_func
 274              		.fpu fpv4-sp-d16
 276              	Motion_Restart:
 277              	.LFB163:
  94:Src/motion.c  **** 
  95:Src/motion.c  **** void Motion_Restart(uint8_t wall_is)
  96:Src/motion.c  **** {
 278              		.loc 1 96 0
 279              		.cfi_startproc
 280              		@ args = 0, pretend = 0, frame = 0
 281              		@ frame_needed = 0, uses_anonymous_args = 0
 282              	.LVL10:
 283 0000 10B5     		push	{r4, lr}
 284              	.LCFI7:
 285              		.cfi_def_cfa_offset 8
 286              		.cfi_offset 4, -8
 287              		.cfi_offset 14, -4
 288 0002 2DED028B 		vpush.64	{d8}
 289              	.LCFI8:
 290              		.cfi_def_cfa_offset 16
 291              		.cfi_offset 80, -16
 292              		.cfi_offset 81, -12
 293 0006 0446     		mov	r4, r0
  97:Src/motion.c  ****     Control_ResetVelo();
 294              		.loc 1 97 0
 295 0008 FFF7FEFF 		bl	Control_ResetVelo
 296              	.LVL11:
  98:Src/motion.c  ****     if (wall_is == FALSE)
 297              		.loc 1 98 0
 298 000c 002C     		cmp	r4, #0
 299 000e 00F0B680 		beq	.L28
  99:Src/motion.c  ****     {
 100:Src/motion.c  ****         Control_StrCalculator(90.0f, 0.0f, VELO_S, VELO_S, ACCEL_S, 1);
 101:Src/motion.c  ****         Control_AngCalculator(0, 0, 0, 0, 1, 0);
 102:Src/motion.c  ****         motion_end_flag = FALSE;
 103:Src/motion.c  ****         while (motion_end_flag == FALSE)
 104:Src/motion.c  ****         {
 105:Src/motion.c  ****         }
 106:Src/motion.c  ****         enc.offset = 0;
 107:Src/motion.c  ****         prefront_flag = TRUE;
 108:Src/motion.c  ****     }
 109:Src/motion.c  ****     else
ARM GAS  C:\Users\kotaro\AppData\Local\Temp\ccTjQSLT.s 			page 8


 110:Src/motion.c  ****     {
 111:Src/motion.c  ****         front_wall_flag = TRUE;
 300              		.loc 1 111 0
 301 0012 714B     		ldr	r3, .L29
 302 0014 0122     		movs	r2, #1
 303 0016 1A70     		strb	r2, [r3]
 304              	.L23:
 112:Src/motion.c  ****         while (front_wall_flag == TRUE)
 305              		.loc 1 112 0 discriminator 1
 306 0018 6F4B     		ldr	r3, .L29
 307 001a 1B78     		ldrb	r3, [r3]	@ zero_extendqisi2
 308 001c DBB2     		uxtb	r3, r3
 309 001e 012B     		cmp	r3, #1
 310 0020 FAD0     		beq	.L23
 113:Src/motion.c  ****         {
 114:Src/motion.c  ****         }
 115:Src/motion.c  ****         straight.v_now = 0;
 311              		.loc 1 115 0
 312 0022 9FED6E8A 		vldr.32	s16, .L29+4
 313 0026 6E4B     		ldr	r3, .L29+8
 314 0028 83ED038A 		vstr.32	s16, [r3, #12]
 116:Src/motion.c  ****         angle.v_now = 0;
 315              		.loc 1 116 0
 316 002c 6D4B     		ldr	r3, .L29+12
 317 002e 83ED038A 		vstr.32	s16, [r3, #12]
 117:Src/motion.c  ****         error_ang_sum = 0.0f;
 318              		.loc 1 117 0
 319 0032 6D4B     		ldr	r3, .L29+16
 320 0034 83ED008A 		vstr.32	s16, [r3]
 118:Src/motion.c  ****         error_ang_old = 0.0f;
 321              		.loc 1 118 0
 322 0038 6C4B     		ldr	r3, .L29+20
 323 003a 83ED008A 		vstr.32	s16, [r3]
 119:Src/motion.c  ****         HAL_Delay(500);
 324              		.loc 1 119 0
 325 003e 4FF4FA70 		mov	r0, #500
 326 0042 FFF7FEFF 		bl	HAL_Delay
 327              	.LVL12:
 120:Src/motion.c  **** 
 121:Src/motion.c  ****         Control_StrCalculator(0, 0, 0, 0, 1, 0);
 328              		.loc 1 121 0
 329 0046 F0EE482A 		vmov.f32	s5, s16
 330 004a B7EE002A 		vmov.f32	s4, #1.0e+0
 331 004e F0EE481A 		vmov.f32	s3, s16
 332 0052 B0EE481A 		vmov.f32	s2, s16
 333 0056 F0EE480A 		vmov.f32	s1, s16
 334 005a B0EE480A 		vmov.f32	s0, s16
 335 005e FFF7FEFF 		bl	Control_StrCalculator
 336              	.LVL13:
 122:Src/motion.c  ****         Control_AngCalculator(184.0f, 0.0f, VELO_ANG_S, 0.0f, ACCEL_ANG_S, 1);
 337              		.loc 1 122 0
 338 0062 F7EE002A 		vmov.f32	s5, #1.0e+0
 339 0066 9FED622A 		vldr.32	s4, .L29+24
 340 006a F0EE481A 		vmov.f32	s3, s16
 341 006e 9FED611A 		vldr.32	s2, .L29+28
 342 0072 F0EE480A 		vmov.f32	s1, s16
 343 0076 9FED600A 		vldr.32	s0, .L29+32
ARM GAS  C:\Users\kotaro\AppData\Local\Temp\ccTjQSLT.s 			page 9


 344 007a FFF7FEFF 		bl	Control_AngCalculator
 345              	.LVL14:
 123:Src/motion.c  ****         motion_end_flag = FALSE;
 346              		.loc 1 123 0
 347 007e 5F4B     		ldr	r3, .L29+36
 348 0080 0022     		movs	r2, #0
 349 0082 1A70     		strb	r2, [r3]
 350              	.L24:
 124:Src/motion.c  ****         while (motion_end_flag == FALSE)
 351              		.loc 1 124 0 discriminator 1
 352 0084 5D4B     		ldr	r3, .L29+36
 353 0086 1B78     		ldrb	r3, [r3]	@ zero_extendqisi2
 354 0088 002B     		cmp	r3, #0
 355 008a FBD0     		beq	.L24
 125:Src/motion.c  ****         {
 126:Src/motion.c  ****         }
 127:Src/motion.c  ****         straight.v_now = 0;
 356              		.loc 1 127 0
 357 008c 9FED538A 		vldr.32	s16, .L29+4
 358 0090 534B     		ldr	r3, .L29+8
 359 0092 83ED038A 		vstr.32	s16, [r3, #12]
 128:Src/motion.c  ****         angle.v_now = 0;
 360              		.loc 1 128 0
 361 0096 534B     		ldr	r3, .L29+12
 362 0098 83ED038A 		vstr.32	s16, [r3, #12]
 129:Src/motion.c  ****         error_ang_sum = 0.0f;
 363              		.loc 1 129 0
 364 009c 524B     		ldr	r3, .L29+16
 365 009e 83ED008A 		vstr.32	s16, [r3]
 130:Src/motion.c  ****         error_ang_old = 0.0f;
 366              		.loc 1 130 0
 367 00a2 524B     		ldr	r3, .L29+20
 368 00a4 83ED008A 		vstr.32	s16, [r3]
 131:Src/motion.c  ****         HAL_Delay(500);
 369              		.loc 1 131 0
 370 00a8 4FF4FA70 		mov	r0, #500
 371 00ac FFF7FEFF 		bl	HAL_Delay
 372              	.LVL15:
 132:Src/motion.c  **** 
 133:Src/motion.c  ****         Control_StrCalculator(52.0f, 0, 100.0f, 0, 1000.0f, -1);
 373              		.loc 1 133 0
 374 00b0 FFEE002A 		vmov.f32	s5, #-1.0e+0
 375 00b4 9FED522A 		vldr.32	s4, .L29+40
 376 00b8 F0EE481A 		vmov.f32	s3, s16
 377 00bc 9FED511A 		vldr.32	s2, .L29+44
 378 00c0 F0EE480A 		vmov.f32	s1, s16
 379 00c4 9FED500A 		vldr.32	s0, .L29+48
 380 00c8 FFF7FEFF 		bl	Control_StrCalculator
 381              	.LVL16:
 134:Src/motion.c  ****         Control_AngCalculator(0, 0, 0, 0, 1, 0);
 382              		.loc 1 134 0
 383 00cc F0EE482A 		vmov.f32	s5, s16
 384 00d0 B7EE002A 		vmov.f32	s4, #1.0e+0
 385 00d4 F0EE481A 		vmov.f32	s3, s16
 386 00d8 B0EE481A 		vmov.f32	s2, s16
 387 00dc F0EE480A 		vmov.f32	s1, s16
 388 00e0 B0EE480A 		vmov.f32	s0, s16
ARM GAS  C:\Users\kotaro\AppData\Local\Temp\ccTjQSLT.s 			page 10


 389 00e4 FFF7FEFF 		bl	Control_AngCalculator
 390              	.LVL17:
 135:Src/motion.c  ****         motion_end_flag = FALSE;
 391              		.loc 1 135 0
 392 00e8 444B     		ldr	r3, .L29+36
 393 00ea 0022     		movs	r2, #0
 394 00ec 1A70     		strb	r2, [r3]
 395              	.L25:
 136:Src/motion.c  ****         while (motion_end_flag == FALSE)
 396              		.loc 1 136 0 discriminator 1
 397 00ee 434B     		ldr	r3, .L29+36
 398 00f0 1B78     		ldrb	r3, [r3]	@ zero_extendqisi2
 399 00f2 002B     		cmp	r3, #0
 400 00f4 FBD0     		beq	.L25
 137:Src/motion.c  ****         {
 138:Src/motion.c  ****         }
 139:Src/motion.c  ****         straight.v_now = 0;
 401              		.loc 1 139 0
 402 00f6 9FED398A 		vldr.32	s16, .L29+4
 403 00fa 394B     		ldr	r3, .L29+8
 404 00fc 83ED038A 		vstr.32	s16, [r3, #12]
 140:Src/motion.c  ****         angle.v_now = 0;
 405              		.loc 1 140 0
 406 0100 384B     		ldr	r3, .L29+12
 407 0102 83ED038A 		vstr.32	s16, [r3, #12]
 141:Src/motion.c  ****         error_sum = 0.0f;
 408              		.loc 1 141 0
 409 0106 414B     		ldr	r3, .L29+52
 410 0108 83ED008A 		vstr.32	s16, [r3]
 142:Src/motion.c  ****         error_old = 0.0f;
 411              		.loc 1 142 0
 412 010c 404B     		ldr	r3, .L29+56
 413 010e 83ED008A 		vstr.32	s16, [r3]
 143:Src/motion.c  ****         error_ang_sum = 0.0f;
 414              		.loc 1 143 0
 415 0112 354B     		ldr	r3, .L29+16
 416 0114 83ED008A 		vstr.32	s16, [r3]
 144:Src/motion.c  ****         error_ang_old = 0.0f;
 417              		.loc 1 144 0
 418 0118 344B     		ldr	r3, .L29+20
 419 011a 83ED008A 		vstr.32	s16, [r3]
 145:Src/motion.c  ****         HAL_Delay(500);
 420              		.loc 1 145 0
 421 011e 4FF4FA70 		mov	r0, #500
 422 0122 FFF7FEFF 		bl	HAL_Delay
 423              	.LVL18:
 146:Src/motion.c  **** 
 147:Src/motion.c  ****         Control_StrCalculator(130.0f, 0, VELO_S, VELO_S, ACCEL_S, 1);
 424              		.loc 1 147 0
 425 0126 9FED3B1A 		vldr.32	s2, .L29+60
 426 012a F7EE002A 		vmov.f32	s5, #1.0e+0
 427 012e 9FED3A2A 		vldr.32	s4, .L29+64
 428 0132 F0EE411A 		vmov.f32	s3, s2
 429 0136 F0EE480A 		vmov.f32	s1, s16
 430 013a 9FED380A 		vldr.32	s0, .L29+68
 431 013e FFF7FEFF 		bl	Control_StrCalculator
 432              	.LVL19:
ARM GAS  C:\Users\kotaro\AppData\Local\Temp\ccTjQSLT.s 			page 11


 148:Src/motion.c  ****         Control_AngCalculator(0, 0, 0, 0, 1, 0);
 433              		.loc 1 148 0
 434 0142 F0EE482A 		vmov.f32	s5, s16
 435 0146 B7EE002A 		vmov.f32	s4, #1.0e+0
 436 014a F0EE481A 		vmov.f32	s3, s16
 437 014e B0EE481A 		vmov.f32	s2, s16
 438 0152 F0EE480A 		vmov.f32	s1, s16
 439 0156 B0EE480A 		vmov.f32	s0, s16
 440 015a FFF7FEFF 		bl	Control_AngCalculator
 441              	.LVL20:
 149:Src/motion.c  ****         motion_end_flag = FALSE;
 442              		.loc 1 149 0
 443 015e 274B     		ldr	r3, .L29+36
 444 0160 0022     		movs	r2, #0
 445 0162 1A70     		strb	r2, [r3]
 446              	.L26:
 150:Src/motion.c  ****         while (motion_end_flag == FALSE)
 447              		.loc 1 150 0 discriminator 1
 448 0164 254B     		ldr	r3, .L29+36
 449 0166 1B78     		ldrb	r3, [r3]	@ zero_extendqisi2
 450 0168 002B     		cmp	r3, #0
 451 016a FBD0     		beq	.L26
 151:Src/motion.c  ****         {
 152:Src/motion.c  ****         }
 153:Src/motion.c  ****         enc.offset = 0;
 452              		.loc 1 153 0
 453 016c 2C4B     		ldr	r3, .L29+72
 454 016e 0022     		movs	r2, #0
 455 0170 9A60     		str	r2, [r3, #8]	@ float
 154:Src/motion.c  ****         prefront_flag = TRUE;
 456              		.loc 1 154 0
 457 0172 2C4B     		ldr	r3, .L29+76
 458 0174 0122     		movs	r2, #1
 459 0176 1A80     		strh	r2, [r3]	@ movhi
 460              	.L19:
 155:Src/motion.c  ****     }
 156:Src/motion.c  **** }
 461              		.loc 1 156 0
 462 0178 BDEC028B 		vldm	sp!, {d8}
 463              	.LCFI9:
 464              		.cfi_remember_state
 465              		.cfi_restore 80
 466              		.cfi_restore 81
 467              		.cfi_def_cfa_offset 8
 468 017c 10BD     		pop	{r4, pc}
 469              	.L28:
 470              	.LCFI10:
 471              		.cfi_restore_state
 100:Src/motion.c  ****         Control_AngCalculator(0, 0, 0, 0, 1, 0);
 472              		.loc 1 100 0
 473 017e 9FED251A 		vldr.32	s2, .L29+60
 474 0182 9FED168A 		vldr.32	s16, .L29+4
 475 0186 F7EE002A 		vmov.f32	s5, #1.0e+0
 476 018a 9FED232A 		vldr.32	s4, .L29+64
 477 018e F0EE411A 		vmov.f32	s3, s2
 478 0192 F0EE480A 		vmov.f32	s1, s16
 479 0196 9FED240A 		vldr.32	s0, .L29+80
ARM GAS  C:\Users\kotaro\AppData\Local\Temp\ccTjQSLT.s 			page 12


 480 019a FFF7FEFF 		bl	Control_StrCalculator
 481              	.LVL21:
 101:Src/motion.c  ****         motion_end_flag = FALSE;
 482              		.loc 1 101 0
 483 019e F0EE482A 		vmov.f32	s5, s16
 484 01a2 B7EE002A 		vmov.f32	s4, #1.0e+0
 485 01a6 F0EE481A 		vmov.f32	s3, s16
 486 01aa B0EE481A 		vmov.f32	s2, s16
 487 01ae F0EE480A 		vmov.f32	s1, s16
 488 01b2 B0EE480A 		vmov.f32	s0, s16
 489 01b6 FFF7FEFF 		bl	Control_AngCalculator
 490              	.LVL22:
 102:Src/motion.c  ****         while (motion_end_flag == FALSE)
 491              		.loc 1 102 0
 492 01ba 104B     		ldr	r3, .L29+36
 493 01bc 0022     		movs	r2, #0
 494 01be 1A70     		strb	r2, [r3]
 495              	.L21:
 103:Src/motion.c  ****         {
 496              		.loc 1 103 0 discriminator 1
 497 01c0 0E4B     		ldr	r3, .L29+36
 498 01c2 1B78     		ldrb	r3, [r3]	@ zero_extendqisi2
 499 01c4 002B     		cmp	r3, #0
 500 01c6 FBD0     		beq	.L21
 106:Src/motion.c  ****         prefront_flag = TRUE;
 501              		.loc 1 106 0
 502 01c8 154B     		ldr	r3, .L29+72
 503 01ca 0022     		movs	r2, #0
 504 01cc 9A60     		str	r2, [r3, #8]	@ float
 107:Src/motion.c  ****     }
 505              		.loc 1 107 0
 506 01ce 154B     		ldr	r3, .L29+76
 507 01d0 0122     		movs	r2, #1
 508 01d2 1A80     		strh	r2, [r3]	@ movhi
 509 01d4 D0E7     		b	.L19
 510              	.L30:
 511 01d6 00BF     		.align	2
 512              	.L29:
 513 01d8 00000000 		.word	front_wall_flag
 514 01dc 00000000 		.word	0
 515 01e0 00000000 		.word	straight
 516 01e4 00000000 		.word	angle
 517 01e8 00000000 		.word	error_ang_sum
 518 01ec 00000000 		.word	error_ang_old
 519 01f0 0000FA45 		.word	1174011904
 520 01f4 0000C843 		.word	1137180672
 521 01f8 00003843 		.word	1127743488
 522 01fc 00000000 		.word	motion_end_flag
 523 0200 00007A44 		.word	1148846080
 524 0204 0000C842 		.word	1120403456
 525 0208 00005042 		.word	1112539136
 526 020c 00000000 		.word	error_sum
 527 0210 00000000 		.word	error_old
 528 0214 00001644 		.word	1142292480
 529 0218 0080BB45 		.word	1169915904
 530 021c 00000243 		.word	1124204544
 531 0220 00000000 		.word	enc
ARM GAS  C:\Users\kotaro\AppData\Local\Temp\ccTjQSLT.s 			page 13


 532 0224 00000000 		.word	.LANCHOR1
 533 0228 0000B442 		.word	1119092736
 534              		.cfi_endproc
 535              	.LFE163:
 537              		.section	.text.Motion_End,"ax",%progbits
 538              		.align	1
 539              		.global	Motion_End
 540              		.syntax unified
 541              		.thumb
 542              		.thumb_func
 543              		.fpu fpv4-sp-d16
 545              	Motion_End:
 546              	.LFB164:
 157:Src/motion.c  **** 
 158:Src/motion.c  **** void Motion_End(void)
 159:Src/motion.c  **** {
 547              		.loc 1 159 0
 548              		.cfi_startproc
 549              		@ args = 0, pretend = 0, frame = 0
 550              		@ frame_needed = 0, uses_anonymous_args = 0
 551 0000 08B5     		push	{r3, lr}
 552              	.LCFI11:
 553              		.cfi_def_cfa_offset 8
 554              		.cfi_offset 3, -8
 555              		.cfi_offset 14, -4
 556 0002 2DED028B 		vpush.64	{d8}
 557              	.LCFI12:
 558              		.cfi_def_cfa_offset 16
 559              		.cfi_offset 80, -16
 560              		.cfi_offset 81, -12
 160:Src/motion.c  ****     Control_StrCalculator(90.0f - enc.offset, VELO_S, VELO_S, 0.0f, ACCEL_S, 1);
 561              		.loc 1 160 0
 562 0006 1B4B     		ldr	r3, .L34
 563 0008 D3ED027A 		vldr.32	s15, [r3, #8]
 564 000c 9FED1A8A 		vldr.32	s16, .L34+4
 565 0010 DFED1A0A 		vldr.32	s1, .L34+8
 566 0014 F7EE002A 		vmov.f32	s5, #1.0e+0
 567 0018 9FED192A 		vldr.32	s4, .L34+12
 568 001c F0EE481A 		vmov.f32	s3, s16
 569 0020 B0EE601A 		vmov.f32	s2, s1
 570 0024 9FED170A 		vldr.32	s0, .L34+16
 571 0028 30EE670A 		vsub.f32	s0, s0, s15
 572 002c FFF7FEFF 		bl	Control_StrCalculator
 573              	.LVL23:
 161:Src/motion.c  ****     Control_AngCalculator(0, 0, 0, 0, 1, 0);
 574              		.loc 1 161 0
 575 0030 F0EE482A 		vmov.f32	s5, s16
 576 0034 B7EE002A 		vmov.f32	s4, #1.0e+0
 577 0038 F0EE481A 		vmov.f32	s3, s16
 578 003c B0EE481A 		vmov.f32	s2, s16
 579 0040 F0EE480A 		vmov.f32	s1, s16
 580 0044 B0EE480A 		vmov.f32	s0, s16
 581 0048 FFF7FEFF 		bl	Control_AngCalculator
 582              	.LVL24:
 162:Src/motion.c  ****     motion_end_flag = FALSE;
 583              		.loc 1 162 0
 584 004c 0E4B     		ldr	r3, .L34+20
ARM GAS  C:\Users\kotaro\AppData\Local\Temp\ccTjQSLT.s 			page 14


 585 004e 0022     		movs	r2, #0
 586 0050 1A70     		strb	r2, [r3]
 587              	.L32:
 163:Src/motion.c  ****     while (motion_end_flag == FALSE)
 588              		.loc 1 163 0 discriminator 1
 589 0052 0D4B     		ldr	r3, .L34+20
 590 0054 1B78     		ldrb	r3, [r3]	@ zero_extendqisi2
 591 0056 002B     		cmp	r3, #0
 592 0058 FBD0     		beq	.L32
 164:Src/motion.c  ****     {
 165:Src/motion.c  ****     }
 166:Src/motion.c  ****     straight.v_now = 0;
 593              		.loc 1 166 0
 594 005a 0023     		movs	r3, #0
 595 005c 0B4A     		ldr	r2, .L34+24
 596 005e D360     		str	r3, [r2, #12]	@ float
 167:Src/motion.c  ****     angle.v_now = 0;
 597              		.loc 1 167 0
 598 0060 0B4A     		ldr	r2, .L34+28
 599 0062 D360     		str	r3, [r2, #12]	@ float
 168:Src/motion.c  ****     error_ang_sum = 0.0f;
 600              		.loc 1 168 0
 601 0064 0B4A     		ldr	r2, .L34+32
 602 0066 1360     		str	r3, [r2]	@ float
 169:Src/motion.c  ****     error_ang_old = 0.0f;
 603              		.loc 1 169 0
 604 0068 0B4A     		ldr	r2, .L34+36
 605 006a 1360     		str	r3, [r2]	@ float
 170:Src/motion.c  **** }
 606              		.loc 1 170 0
 607 006c BDEC028B 		vldm	sp!, {d8}
 608              	.LCFI13:
 609              		.cfi_restore 80
 610              		.cfi_restore 81
 611              		.cfi_def_cfa_offset 8
 612 0070 08BD     		pop	{r3, pc}
 613              	.L35:
 614 0072 00BF     		.align	2
 615              	.L34:
 616 0074 00000000 		.word	enc
 617 0078 00000000 		.word	0
 618 007c 00001644 		.word	1142292480
 619 0080 0080BB45 		.word	1169915904
 620 0084 0000B442 		.word	1119092736
 621 0088 00000000 		.word	motion_end_flag
 622 008c 00000000 		.word	straight
 623 0090 00000000 		.word	angle
 624 0094 00000000 		.word	error_ang_sum
 625 0098 00000000 		.word	error_ang_old
 626              		.cfi_endproc
 627              	.LFE164:
 629              		.section	.text.Motion_Straight,"ax",%progbits
 630              		.align	1
 631              		.global	Motion_Straight
 632              		.syntax unified
 633              		.thumb
 634              		.thumb_func
ARM GAS  C:\Users\kotaro\AppData\Local\Temp\ccTjQSLT.s 			page 15


 635              		.fpu fpv4-sp-d16
 637              	Motion_Straight:
 638              	.LFB165:
 171:Src/motion.c  **** 
 172:Src/motion.c  **** void Motion_Straight(uint16_t step)
 173:Src/motion.c  **** {
 639              		.loc 1 173 0
 640              		.cfi_startproc
 641              		@ args = 0, pretend = 0, frame = 0
 642              		@ frame_needed = 0, uses_anonymous_args = 0
 643              	.LVL25:
 644 0000 08B5     		push	{r3, lr}
 645              	.LCFI14:
 646              		.cfi_def_cfa_offset 8
 647              		.cfi_offset 3, -8
 648              		.cfi_offset 14, -4
 174:Src/motion.c  ****     if (step < 2)
 649              		.loc 1 174 0
 650 0002 0128     		cmp	r0, #1
 651 0004 6BD9     		bls	.L45
 652              	.LBB2:
 175:Src/motion.c  ****     {
 176:Src/motion.c  ****         //if (prefront_flag)
 177:Src/motion.c  ****         //{
 178:Src/motion.c  ****         Control_WallEdgeAble(0b11);
 179:Src/motion.c  ****         //}
 180:Src/motion.c  ****         Control_StrCalculator(180.0f - enc.offset, VELO_S, VELO_S, VELO_S, ACCEL_S, 1);
 181:Src/motion.c  ****         Control_AngCalculator(0, 0, 0, 0, 1, 0);
 182:Src/motion.c  ****         motion_end_flag = FALSE;
 183:Src/motion.c  ****         while (motion_end_flag == FALSE)
 184:Src/motion.c  ****         {
 185:Src/motion.c  ****         }
 186:Src/motion.c  ****     }
 187:Src/motion.c  ****     else
 188:Src/motion.c  ****     {
 189:Src/motion.c  ****         step--;
 653              		.loc 1 189 0
 654 0006 0138     		subs	r0, r0, #1
 655              	.LVL26:
 656 0008 80B2     		uxth	r0, r0
 657              	.LVL27:
 190:Src/motion.c  ****         float velo = VELO_S + (float)(120 * step);
 658              		.loc 1 190 0
 659 000a C0EB0012 		rsb	r2, r0, r0, lsl #4
 660 000e D300     		lsls	r3, r2, #3
 661 0010 07EE903A 		vmov	s15, r3	@ int
 662 0014 B8EEE71A 		vcvt.f32.s32	s2, s15
 663 0018 DFED477A 		vldr.32	s15, .L46
 664 001c 31EE271A 		vadd.f32	s2, s2, s15
 665              	.LVL28:
 191:Src/motion.c  ****         if (velo > 2400)
 666              		.loc 1 191 0
 667 0020 DFED467A 		vldr.32	s15, .L46+4
 668 0024 B4EEE71A 		vcmpe.f32	s2, s15
 669 0028 F1EE10FA 		vmrs	APSR_nzcv, FPSCR
 670 002c 01DD     		ble	.L40
 192:Src/motion.c  ****         {
ARM GAS  C:\Users\kotaro\AppData\Local\Temp\ccTjQSLT.s 			page 16


 193:Src/motion.c  ****             velo = 2400;
 671              		.loc 1 193 0
 672 002e B0EE671A 		vmov.f32	s2, s15
 673              	.LVL29:
 674              	.L40:
 194:Src/motion.c  ****         }
 195:Src/motion.c  ****         Control_StrCalculator(180.0f * (float)step - enc.offset, VELO_S, velo, VELO_S, ACCEL_S, 1);
 675              		.loc 1 195 0
 676 0032 07EE900A 		vmov	s15, r0	@ int
 677 0036 F8EE677A 		vcvt.f32.u32	s15, s15
 678 003a 9FED410A 		vldr.32	s0, .L46+8
 679 003e 67EE807A 		vmul.f32	s15, s15, s0
 680 0042 404B     		ldr	r3, .L46+12
 681 0044 93ED020A 		vldr.32	s0, [r3, #8]
 682 0048 DFED3B0A 		vldr.32	s1, .L46
 683 004c F7EE002A 		vmov.f32	s5, #1.0e+0
 684 0050 9FED3D2A 		vldr.32	s4, .L46+16
 685 0054 F0EE601A 		vmov.f32	s3, s1
 686 0058 37EEC00A 		vsub.f32	s0, s15, s0
 687 005c FFF7FEFF 		bl	Control_StrCalculator
 688              	.LVL30:
 196:Src/motion.c  ****         Control_AngCalculator(0, 0, 0, 0, 1, 0);
 689              		.loc 1 196 0
 690 0060 9FED3A0A 		vldr.32	s0, .L46+20
 691 0064 F0EE402A 		vmov.f32	s5, s0
 692 0068 B7EE002A 		vmov.f32	s4, #1.0e+0
 693 006c F0EE401A 		vmov.f32	s3, s0
 694 0070 B0EE401A 		vmov.f32	s2, s0
 695 0074 F0EE400A 		vmov.f32	s1, s0
 696 0078 FFF7FEFF 		bl	Control_AngCalculator
 697              	.LVL31:
 197:Src/motion.c  ****         motion_end_flag = FALSE;
 698              		.loc 1 197 0
 699 007c 344B     		ldr	r3, .L46+24
 700 007e 0022     		movs	r2, #0
 701 0080 1A70     		strb	r2, [r3]
 702              	.L41:
 198:Src/motion.c  ****         while (motion_end_flag == FALSE)
 703              		.loc 1 198 0 discriminator 1
 704 0082 334B     		ldr	r3, .L46+24
 705 0084 1B78     		ldrb	r3, [r3]	@ zero_extendqisi2
 706 0086 002B     		cmp	r3, #0
 707 0088 FBD0     		beq	.L41
 199:Src/motion.c  ****         {
 200:Src/motion.c  ****         }
 201:Src/motion.c  ****         Control_WallEdgeAble(0b11);
 708              		.loc 1 201 0
 709 008a 0320     		movs	r0, #3
 710 008c FFF7FEFF 		bl	Control_WallEdgeAble
 711              	.LVL32:
 202:Src/motion.c  ****         Control_StrCalculator(180.0f, VELO_S, VELO_S, VELO_S, ACCEL_S, 1);
 712              		.loc 1 202 0
 713 0090 DFED290A 		vldr.32	s1, .L46
 714 0094 F7EE002A 		vmov.f32	s5, #1.0e+0
 715 0098 9FED2B2A 		vldr.32	s4, .L46+16
 716 009c F0EE601A 		vmov.f32	s3, s1
 717 00a0 B0EE601A 		vmov.f32	s2, s1
ARM GAS  C:\Users\kotaro\AppData\Local\Temp\ccTjQSLT.s 			page 17


 718 00a4 9FED260A 		vldr.32	s0, .L46+8
 719 00a8 FFF7FEFF 		bl	Control_StrCalculator
 720              	.LVL33:
 203:Src/motion.c  ****         Control_AngCalculator(0, 0, 0, 0, 1, 0);
 721              		.loc 1 203 0
 722 00ac 9FED270A 		vldr.32	s0, .L46+20
 723 00b0 F0EE402A 		vmov.f32	s5, s0
 724 00b4 B7EE002A 		vmov.f32	s4, #1.0e+0
 725 00b8 F0EE401A 		vmov.f32	s3, s0
 726 00bc B0EE401A 		vmov.f32	s2, s0
 727 00c0 F0EE400A 		vmov.f32	s1, s0
 728 00c4 FFF7FEFF 		bl	Control_AngCalculator
 729              	.LVL34:
 204:Src/motion.c  ****         motion_end_flag = FALSE;
 730              		.loc 1 204 0
 731 00c8 214B     		ldr	r3, .L46+24
 732 00ca 0022     		movs	r2, #0
 733 00cc 1A70     		strb	r2, [r3]
 734              	.L42:
 205:Src/motion.c  ****         while (motion_end_flag == FALSE)
 735              		.loc 1 205 0 discriminator 1
 736 00ce 204B     		ldr	r3, .L46+24
 737 00d0 1B78     		ldrb	r3, [r3]	@ zero_extendqisi2
 738 00d2 002B     		cmp	r3, #0
 739 00d4 FBD0     		beq	.L42
 740              	.L39:
 741              	.LBE2:
 206:Src/motion.c  ****         {
 207:Src/motion.c  ****         }
 208:Src/motion.c  ****     }
 209:Src/motion.c  ****     enc.offset = 0;
 742              		.loc 1 209 0
 743 00d6 1B4B     		ldr	r3, .L46+12
 744 00d8 0022     		movs	r2, #0
 745 00da 9A60     		str	r2, [r3, #8]	@ float
 210:Src/motion.c  ****     //prefront_flag = TRUE;
 211:Src/motion.c  **** }
 746              		.loc 1 211 0
 747 00dc 08BD     		pop	{r3, pc}
 748              	.LVL35:
 749              	.L45:
 178:Src/motion.c  ****         //}
 750              		.loc 1 178 0
 751 00de 0320     		movs	r0, #3
 752              	.LVL36:
 753 00e0 FFF7FEFF 		bl	Control_WallEdgeAble
 754              	.LVL37:
 180:Src/motion.c  ****         Control_AngCalculator(0, 0, 0, 0, 1, 0);
 755              		.loc 1 180 0
 756 00e4 174B     		ldr	r3, .L46+12
 757 00e6 D3ED027A 		vldr.32	s15, [r3, #8]
 758 00ea DFED130A 		vldr.32	s1, .L46
 759 00ee F7EE002A 		vmov.f32	s5, #1.0e+0
 760 00f2 9FED152A 		vldr.32	s4, .L46+16
 761 00f6 F0EE601A 		vmov.f32	s3, s1
 762 00fa B0EE601A 		vmov.f32	s2, s1
 763 00fe 9FED100A 		vldr.32	s0, .L46+8
ARM GAS  C:\Users\kotaro\AppData\Local\Temp\ccTjQSLT.s 			page 18


 764 0102 30EE670A 		vsub.f32	s0, s0, s15
 765 0106 FFF7FEFF 		bl	Control_StrCalculator
 766              	.LVL38:
 181:Src/motion.c  ****         motion_end_flag = FALSE;
 767              		.loc 1 181 0
 768 010a 9FED100A 		vldr.32	s0, .L46+20
 769 010e F0EE402A 		vmov.f32	s5, s0
 770 0112 B7EE002A 		vmov.f32	s4, #1.0e+0
 771 0116 F0EE401A 		vmov.f32	s3, s0
 772 011a B0EE401A 		vmov.f32	s2, s0
 773 011e F0EE400A 		vmov.f32	s1, s0
 774 0122 FFF7FEFF 		bl	Control_AngCalculator
 775              	.LVL39:
 182:Src/motion.c  ****         while (motion_end_flag == FALSE)
 776              		.loc 1 182 0
 777 0126 0A4B     		ldr	r3, .L46+24
 778 0128 0022     		movs	r2, #0
 779 012a 1A70     		strb	r2, [r3]
 780              	.L38:
 183:Src/motion.c  ****         {
 781              		.loc 1 183 0 discriminator 1
 782 012c 084B     		ldr	r3, .L46+24
 783 012e 1B78     		ldrb	r3, [r3]	@ zero_extendqisi2
 784 0130 002B     		cmp	r3, #0
 785 0132 FBD0     		beq	.L38
 786 0134 CFE7     		b	.L39
 787              	.L47:
 788 0136 00BF     		.align	2
 789              	.L46:
 790 0138 00001644 		.word	1142292480
 791 013c 00001645 		.word	1159069696
 792 0140 00003443 		.word	1127481344
 793 0144 00000000 		.word	enc
 794 0148 0080BB45 		.word	1169915904
 795 014c 00000000 		.word	0
 796 0150 00000000 		.word	motion_end_flag
 797              		.cfi_endproc
 798              	.LFE165:
 800              		.section	.text.Motion_SearchStraight,"ax",%progbits
 801              		.align	1
 802              		.global	Motion_SearchStraight
 803              		.syntax unified
 804              		.thumb
 805              		.thumb_func
 806              		.fpu fpv4-sp-d16
 808              	Motion_SearchStraight:
 809              	.LFB166:
 212:Src/motion.c  **** 
 213:Src/motion.c  **** void Motion_SearchStraight(uint16_t step)
 214:Src/motion.c  **** {
 810              		.loc 1 214 0
 811              		.cfi_startproc
 812              		@ args = 0, pretend = 0, frame = 0
 813              		@ frame_needed = 0, uses_anonymous_args = 0
 814              	.LVL40:
 815 0000 10B5     		push	{r4, lr}
 816              	.LCFI15:
ARM GAS  C:\Users\kotaro\AppData\Local\Temp\ccTjQSLT.s 			page 19


 817              		.cfi_def_cfa_offset 8
 818              		.cfi_offset 4, -8
 819              		.cfi_offset 14, -4
 820 0002 2DED028B 		vpush.64	{d8}
 821              	.LCFI16:
 822              		.cfi_def_cfa_offset 16
 823              		.cfi_offset 80, -16
 824              		.cfi_offset 81, -12
 825 0006 82B0     		sub	sp, sp, #8
 826              	.LCFI17:
 827              		.cfi_def_cfa_offset 24
 215:Src/motion.c  ****     if (step < 2)
 828              		.loc 1 215 0
 829 0008 0128     		cmp	r0, #1
 830 000a 40F2C780 		bls	.L63
 831              	.LBB3:
 216:Src/motion.c  ****     {
 217:Src/motion.c  ****         //if (prefront_flag)
 218:Src/motion.c  ****         //{
 219:Src/motion.c  ****         Control_WallEdgeAble(0b11);
 220:Src/motion.c  ****         //}
 221:Src/motion.c  ****         Control_StrCalculator(90.0f - enc.offset, velocity_now, velocity_now, velocity_now, ACCEL_S
 222:Src/motion.c  ****         Control_AngCalculator(0, 0, 0, 0, 1, 0);
 223:Src/motion.c  ****         motion_end_flag = FALSE;
 224:Src/motion.c  ****         while (motion_end_flag == FALSE)
 225:Src/motion.c  ****         {
 226:Src/motion.c  ****         }
 227:Src/motion.c  ****         enc.offset = 0;
 228:Src/motion.c  ****         if (sen_front.now < 84 && Maze_GetAfterNextMotion()==FRONT)
 229:Src/motion.c  ****         {
 230:Src/motion.c  ****             Control_StrCalculator(90.0f - enc.offset, velocity_now, VELO_S+200.0f, VELO_S+200.0f, 5
 231:Src/motion.c  ****             Control_AngCalculator(0, 0, 0, 0, 1, 0);
 232:Src/motion.c  ****             motion_end_flag = FALSE;
 233:Src/motion.c  ****             while (motion_end_flag == FALSE)
 234:Src/motion.c  ****             {
 235:Src/motion.c  ****             }
 236:Src/motion.c  ****             enc.offset = 0;
 237:Src/motion.c  ****             velocity_now = 800.0f;
 238:Src/motion.c  ****             Control_WallEdgeSet(walledge800);
 239:Src/motion.c  ****         }else{
 240:Src/motion.c  ****             Control_StrCalculator(90.0f - enc.offset, velocity_now, velocity_now, VELO_S, 5000.0f, 
 241:Src/motion.c  ****             Control_AngCalculator(0, 0, 0, 0, 1, 0);
 242:Src/motion.c  ****             motion_end_flag = FALSE;
 243:Src/motion.c  ****             while (motion_end_flag == FALSE)
 244:Src/motion.c  ****             {
 245:Src/motion.c  ****             }
 246:Src/motion.c  ****             enc.offset = 0;
 247:Src/motion.c  ****             velocity_now = VELO_S;
 248:Src/motion.c  ****             Control_WallEdgeSet(walledge600);
 249:Src/motion.c  ****         }
 250:Src/motion.c  ****     }
 251:Src/motion.c  ****     else
 252:Src/motion.c  ****     {
 253:Src/motion.c  ****         step--;
 832              		.loc 1 253 0
 833 000e 0138     		subs	r0, r0, #1
 834              	.LVL41:
ARM GAS  C:\Users\kotaro\AppData\Local\Temp\ccTjQSLT.s 			page 20


 835 0010 84B2     		uxth	r4, r0
 836              	.LVL42:
 254:Src/motion.c  ****         float velo = VELO_S + (float)(200 * step);
 837              		.loc 1 254 0
 838 0012 C823     		movs	r3, #200
 839 0014 03FB04F3 		mul	r3, r3, r4
 840 0018 08EE103A 		vmov	s16, r3	@ int
 841 001c B8EEC88A 		vcvt.f32.s32	s16, s16
 842 0020 DFEDB47A 		vldr.32	s15, .L66
 843 0024 38EE278A 		vadd.f32	s16, s16, s15
 844              	.LVL43:
 255:Src/motion.c  ****         if (velo > 3000.0f)
 845              		.loc 1 255 0
 846 0028 DFEDB37A 		vldr.32	s15, .L66+4
 847 002c B4EEE78A 		vcmpe.f32	s16, s15
 848 0030 F1EE10FA 		vmrs	APSR_nzcv, FPSCR
 849 0034 01DD     		ble	.L55
 256:Src/motion.c  ****         {
 257:Src/motion.c  ****             velo = 3000.0f;
 850              		.loc 1 257 0
 851 0036 B0EE678A 		vmov.f32	s16, s15
 852              	.LVL44:
 853              	.L55:
 258:Src/motion.c  ****         }
 259:Src/motion.c  ****         Control_WallEdgeSet(walledge800);
 854              		.loc 1 259 0
 855 003a B04B     		ldr	r3, .L66+8
 856 003c 03F11002 		add	r2, r3, #16
 857 0040 92E80300 		ldm	r2, {r0, r1}
 858 0044 8DE80300 		stm	sp, {r0, r1}
 859 0048 0FCB     		ldm	r3, {r0, r1, r2, r3}
 860 004a FFF7FEFF 		bl	Control_WallEdgeSet
 861              	.LVL45:
 260:Src/motion.c  ****         Control_StrCalculator(180.0f * (float)step - enc.offset, velocity_now, velo, 800.0f, 5000.0
 862              		.loc 1 260 0
 863 004e 07EE904A 		vmov	s15, r4	@ int
 864 0052 F8EE677A 		vcvt.f32.u32	s15, s15
 865 0056 9FEDAA0A 		vldr.32	s0, .L66+12
 866 005a 67EE807A 		vmul.f32	s15, s15, s0
 867 005e A94B     		ldr	r3, .L66+16
 868 0060 93ED020A 		vldr.32	s0, [r3, #8]
 869 0064 F7EE002A 		vmov.f32	s5, #1.0e+0
 870 0068 9FEDA72A 		vldr.32	s4, .L66+20
 871 006c DFEDA71A 		vldr.32	s3, .L66+24
 872 0070 B0EE481A 		vmov.f32	s2, s16
 873 0074 A64B     		ldr	r3, .L66+28
 874 0076 D3ED000A 		vldr.32	s1, [r3]
 875 007a 37EEC00A 		vsub.f32	s0, s15, s0
 876 007e FFF7FEFF 		bl	Control_StrCalculator
 877              	.LVL46:
 261:Src/motion.c  ****         Control_AngCalculator(0, 0, 0, 0, 1, 0);
 878              		.loc 1 261 0
 879 0082 9FEDA40A 		vldr.32	s0, .L66+32
 880 0086 F0EE402A 		vmov.f32	s5, s0
 881 008a B7EE002A 		vmov.f32	s4, #1.0e+0
 882 008e F0EE401A 		vmov.f32	s3, s0
 883 0092 B0EE401A 		vmov.f32	s2, s0
ARM GAS  C:\Users\kotaro\AppData\Local\Temp\ccTjQSLT.s 			page 21


 884 0096 F0EE400A 		vmov.f32	s1, s0
 885 009a FFF7FEFF 		bl	Control_AngCalculator
 886              	.LVL47:
 262:Src/motion.c  ****         motion_end_flag = FALSE;
 887              		.loc 1 262 0
 888 009e 9E4B     		ldr	r3, .L66+36
 889 00a0 0022     		movs	r2, #0
 890 00a2 1A70     		strb	r2, [r3]
 891              	.L56:
 263:Src/motion.c  ****         while (motion_end_flag == FALSE)
 892              		.loc 1 263 0 discriminator 1
 893 00a4 9C4B     		ldr	r3, .L66+36
 894 00a6 1B78     		ldrb	r3, [r3]	@ zero_extendqisi2
 895 00a8 002B     		cmp	r3, #0
 896 00aa FBD0     		beq	.L56
 264:Src/motion.c  ****         {
 265:Src/motion.c  ****         }
 266:Src/motion.c  ****         enc.offset=0;
 897              		.loc 1 266 0
 898 00ac 954C     		ldr	r4, .L66+16
 899              	.LVL48:
 900 00ae 9FED998A 		vldr.32	s16, .L66+32
 901              	.LVL49:
 902 00b2 84ED028A 		vstr.32	s16, [r4, #8]
 267:Src/motion.c  ****         Control_WallEdgeAble(0b11);
 903              		.loc 1 267 0
 904 00b6 0320     		movs	r0, #3
 905 00b8 FFF7FEFF 		bl	Control_WallEdgeAble
 906              	.LVL50:
 268:Src/motion.c  ****         Control_StrCalculator(90.0f-enc.offset, 800.0f, 800.0f, 800.0f, ACCEL_S, 1);
 907              		.loc 1 268 0
 908 00bc D4ED027A 		vldr.32	s15, [r4, #8]
 909 00c0 DFED920A 		vldr.32	s1, .L66+24
 910 00c4 F7EE002A 		vmov.f32	s5, #1.0e+0
 911 00c8 9FED942A 		vldr.32	s4, .L66+40
 912 00cc F0EE601A 		vmov.f32	s3, s1
 913 00d0 B0EE601A 		vmov.f32	s2, s1
 914 00d4 9FED920A 		vldr.32	s0, .L66+44
 915 00d8 30EE670A 		vsub.f32	s0, s0, s15
 916 00dc FFF7FEFF 		bl	Control_StrCalculator
 917              	.LVL51:
 269:Src/motion.c  ****         Control_AngCalculator(0, 0, 0, 0, 1, 0);
 918              		.loc 1 269 0
 919 00e0 F0EE482A 		vmov.f32	s5, s16
 920 00e4 B7EE002A 		vmov.f32	s4, #1.0e+0
 921 00e8 F0EE481A 		vmov.f32	s3, s16
 922 00ec B0EE481A 		vmov.f32	s2, s16
 923 00f0 F0EE480A 		vmov.f32	s1, s16
 924 00f4 B0EE480A 		vmov.f32	s0, s16
 925 00f8 FFF7FEFF 		bl	Control_AngCalculator
 926              	.LVL52:
 270:Src/motion.c  ****         motion_end_flag = FALSE;
 927              		.loc 1 270 0
 928 00fc 864B     		ldr	r3, .L66+36
 929 00fe 0022     		movs	r2, #0
 930 0100 1A70     		strb	r2, [r3]
 931              	.L57:
ARM GAS  C:\Users\kotaro\AppData\Local\Temp\ccTjQSLT.s 			page 22


 271:Src/motion.c  ****         while (motion_end_flag == FALSE)
 932              		.loc 1 271 0 discriminator 1
 933 0102 854B     		ldr	r3, .L66+36
 934 0104 1B78     		ldrb	r3, [r3]	@ zero_extendqisi2
 935 0106 002B     		cmp	r3, #0
 936 0108 FBD0     		beq	.L57
 272:Src/motion.c  ****         {
 273:Src/motion.c  ****         }
 274:Src/motion.c  ****         enc.offset = 0;
 937              		.loc 1 274 0
 938 010a 7E4B     		ldr	r3, .L66+16
 939 010c 0022     		movs	r2, #0
 940 010e 9A60     		str	r2, [r3, #8]	@ float
 941              	.LBB4:
 275:Src/motion.c  ****         if (sen_front.now < 84 && Maze_GetAfterNextMotion()==FRONT)
 942              		.loc 1 275 0
 943 0110 844B     		ldr	r3, .L66+48
 944 0112 B3F90030 		ldrsh	r3, [r3]
 945 0116 532B     		cmp	r3, #83
 946 0118 04DC     		bgt	.L58
 947              		.loc 1 275 0 is_stmt 0 discriminator 1
 948 011a FFF7FEFF 		bl	Maze_GetAfterNextMotion
 949              	.LVL53:
 950 011e 0028     		cmp	r0, #0
 951 0120 00F00881 		beq	.L64
 952              	.L58:
 276:Src/motion.c  ****         {
 277:Src/motion.c  ****             Control_StrCalculator(90.0f - enc.offset, 800.0f, 800.0f, 800.0f, 5000.0f, 1);
 278:Src/motion.c  ****             Control_AngCalculator(0, 0, 0, 0, 1, 0);
 279:Src/motion.c  ****             motion_end_flag = FALSE;
 280:Src/motion.c  ****             while (motion_end_flag == FALSE)
 281:Src/motion.c  ****             {
 282:Src/motion.c  ****             }
 283:Src/motion.c  ****             enc.offset = 0;
 284:Src/motion.c  ****             velocity_now = 800.0f;
 285:Src/motion.c  ****             Control_WallEdgeSet(walledge800);
 286:Src/motion.c  ****         }else{
 287:Src/motion.c  ****             Control_StrCalculator(90.0f - enc.offset, 800.0f, 800.0f, VELO_S, 5000.0f, 1);
 953              		.loc 1 287 0 is_stmt 1
 954 0124 774B     		ldr	r3, .L66+16
 955 0126 D3ED027A 		vldr.32	s15, [r3, #8]
 956 012a DFED780A 		vldr.32	s1, .L66+24
 957 012e F7EE002A 		vmov.f32	s5, #1.0e+0
 958 0132 9FED752A 		vldr.32	s4, .L66+20
 959 0136 DFED6F1A 		vldr.32	s3, .L66
 960 013a B0EE601A 		vmov.f32	s2, s1
 961 013e 9FED780A 		vldr.32	s0, .L66+44
 962 0142 30EE670A 		vsub.f32	s0, s0, s15
 963 0146 FFF7FEFF 		bl	Control_StrCalculator
 964              	.LVL54:
 288:Src/motion.c  ****             Control_AngCalculator(0, 0, 0, 0, 1, 0);
 965              		.loc 1 288 0
 966 014a 9FED720A 		vldr.32	s0, .L66+32
 967 014e F0EE402A 		vmov.f32	s5, s0
 968 0152 B7EE002A 		vmov.f32	s4, #1.0e+0
 969 0156 F0EE401A 		vmov.f32	s3, s0
 970 015a B0EE401A 		vmov.f32	s2, s0
ARM GAS  C:\Users\kotaro\AppData\Local\Temp\ccTjQSLT.s 			page 23


 971 015e F0EE400A 		vmov.f32	s1, s0
 972 0162 FFF7FEFF 		bl	Control_AngCalculator
 973              	.LVL55:
 289:Src/motion.c  ****             motion_end_flag = FALSE;
 974              		.loc 1 289 0
 975 0166 6C4B     		ldr	r3, .L66+36
 976 0168 0022     		movs	r2, #0
 977 016a 1A70     		strb	r2, [r3]
 978              	.L60:
 290:Src/motion.c  ****             while (motion_end_flag == FALSE)
 979              		.loc 1 290 0 discriminator 1
 980 016c 6A4B     		ldr	r3, .L66+36
 981 016e 1B78     		ldrb	r3, [r3]	@ zero_extendqisi2
 982 0170 002B     		cmp	r3, #0
 983 0172 FBD0     		beq	.L60
 291:Src/motion.c  ****             {
 292:Src/motion.c  ****             }
 293:Src/motion.c  ****             enc.offset = 0;
 984              		.loc 1 293 0
 985 0174 634B     		ldr	r3, .L66+16
 986 0176 0022     		movs	r2, #0
 987 0178 9A60     		str	r2, [r3, #8]	@ float
 294:Src/motion.c  ****             velocity_now = VELO_S;
 988              		.loc 1 294 0
 989 017a 654B     		ldr	r3, .L66+28
 990 017c 6A4A     		ldr	r2, .L66+52
 991 017e 1A60     		str	r2, [r3]	@ float
 295:Src/motion.c  ****             Control_WallEdgeSet(walledge600);
 992              		.loc 1 295 0
 993 0180 6A4B     		ldr	r3, .L66+56
 994 0182 03F11002 		add	r2, r3, #16
 995 0186 92E80300 		ldm	r2, {r0, r1}
 996 018a 8DE80300 		stm	sp, {r0, r1}
 997 018e 0FCB     		ldm	r3, {r0, r1, r2, r3}
 998 0190 FFF7FEFF 		bl	Control_WallEdgeSet
 999              	.LVL56:
 1000              	.L48:
 1001              	.LBE4:
 1002              	.LBE3:
 296:Src/motion.c  ****         }
 297:Src/motion.c  ****     }
 298:Src/motion.c  ****     //prefront_flag = TRUE;
 299:Src/motion.c  **** }
 1003              		.loc 1 299 0
 1004 0194 02B0     		add	sp, sp, #8
 1005              	.LCFI18:
 1006              		.cfi_remember_state
 1007              		.cfi_def_cfa_offset 16
 1008              		@ sp needed
 1009 0196 BDEC028B 		vldm	sp!, {d8}
 1010              	.LCFI19:
 1011              		.cfi_restore 80
 1012              		.cfi_restore 81
 1013              		.cfi_def_cfa_offset 8
 1014 019a 10BD     		pop	{r4, pc}
 1015              	.LVL57:
 1016              	.L63:
ARM GAS  C:\Users\kotaro\AppData\Local\Temp\ccTjQSLT.s 			page 24


 1017              	.LCFI20:
 1018              		.cfi_restore_state
 219:Src/motion.c  ****         //}
 1019              		.loc 1 219 0
 1020 019c 0320     		movs	r0, #3
 1021              	.LVL58:
 1022 019e FFF7FEFF 		bl	Control_WallEdgeAble
 1023              	.LVL59:
 221:Src/motion.c  ****         Control_AngCalculator(0, 0, 0, 0, 1, 0);
 1024              		.loc 1 221 0
 1025 01a2 584B     		ldr	r3, .L66+16
 1026 01a4 D3ED027A 		vldr.32	s15, [r3, #8]
 1027 01a8 594B     		ldr	r3, .L66+28
 1028 01aa D3ED000A 		vldr.32	s1, [r3]
 1029 01ae F7EE002A 		vmov.f32	s5, #1.0e+0
 1030 01b2 9FED5A2A 		vldr.32	s4, .L66+40
 1031 01b6 F0EE601A 		vmov.f32	s3, s1
 1032 01ba B0EE601A 		vmov.f32	s2, s1
 1033 01be 9FED580A 		vldr.32	s0, .L66+44
 1034 01c2 30EE670A 		vsub.f32	s0, s0, s15
 1035 01c6 FFF7FEFF 		bl	Control_StrCalculator
 1036              	.LVL60:
 222:Src/motion.c  ****         motion_end_flag = FALSE;
 1037              		.loc 1 222 0
 1038 01ca 9FED520A 		vldr.32	s0, .L66+32
 1039 01ce F0EE402A 		vmov.f32	s5, s0
 1040 01d2 B7EE002A 		vmov.f32	s4, #1.0e+0
 1041 01d6 F0EE401A 		vmov.f32	s3, s0
 1042 01da B0EE401A 		vmov.f32	s2, s0
 1043 01de F0EE400A 		vmov.f32	s1, s0
 1044 01e2 FFF7FEFF 		bl	Control_AngCalculator
 1045              	.LVL61:
 223:Src/motion.c  ****         while (motion_end_flag == FALSE)
 1046              		.loc 1 223 0
 1047 01e6 4C4B     		ldr	r3, .L66+36
 1048 01e8 0022     		movs	r2, #0
 1049 01ea 1A70     		strb	r2, [r3]
 1050              	.L50:
 224:Src/motion.c  ****         {
 1051              		.loc 1 224 0 discriminator 1
 1052 01ec 4A4B     		ldr	r3, .L66+36
 1053 01ee 1B78     		ldrb	r3, [r3]	@ zero_extendqisi2
 1054 01f0 002B     		cmp	r3, #0
 1055 01f2 FBD0     		beq	.L50
 227:Src/motion.c  ****         if (sen_front.now < 84 && Maze_GetAfterNextMotion()==FRONT)
 1056              		.loc 1 227 0
 1057 01f4 434B     		ldr	r3, .L66+16
 1058 01f6 0022     		movs	r2, #0
 1059 01f8 9A60     		str	r2, [r3, #8]	@ float
 1060              	.LBB6:
 228:Src/motion.c  ****         {
 1061              		.loc 1 228 0
 1062 01fa 4A4B     		ldr	r3, .L66+48
 1063 01fc B3F90030 		ldrsh	r3, [r3]
 1064 0200 532B     		cmp	r3, #83
 1065 0202 03DC     		bgt	.L51
 228:Src/motion.c  ****         {
ARM GAS  C:\Users\kotaro\AppData\Local\Temp\ccTjQSLT.s 			page 25


 1066              		.loc 1 228 0 is_stmt 0 discriminator 1
 1067 0204 FFF7FEFF 		bl	Maze_GetAfterNextMotion
 1068              	.LVL62:
 1069 0208 0028     		cmp	r0, #0
 1070 020a 39D0     		beq	.L65
 1071              	.L51:
 240:Src/motion.c  ****             Control_AngCalculator(0, 0, 0, 0, 1, 0);
 1072              		.loc 1 240 0 is_stmt 1
 1073 020c 3D4B     		ldr	r3, .L66+16
 1074 020e D3ED027A 		vldr.32	s15, [r3, #8]
 1075 0212 3F4B     		ldr	r3, .L66+28
 1076 0214 D3ED000A 		vldr.32	s1, [r3]
 1077 0218 F7EE002A 		vmov.f32	s5, #1.0e+0
 1078 021c 9FED3A2A 		vldr.32	s4, .L66+20
 1079 0220 DFED341A 		vldr.32	s3, .L66
 1080 0224 B0EE601A 		vmov.f32	s2, s1
 1081 0228 9FED3D0A 		vldr.32	s0, .L66+44
 1082 022c 30EE670A 		vsub.f32	s0, s0, s15
 1083 0230 FFF7FEFF 		bl	Control_StrCalculator
 1084              	.LVL63:
 241:Src/motion.c  ****             motion_end_flag = FALSE;
 1085              		.loc 1 241 0
 1086 0234 9FED370A 		vldr.32	s0, .L66+32
 1087 0238 F0EE402A 		vmov.f32	s5, s0
 1088 023c B7EE002A 		vmov.f32	s4, #1.0e+0
 1089 0240 F0EE401A 		vmov.f32	s3, s0
 1090 0244 B0EE401A 		vmov.f32	s2, s0
 1091 0248 F0EE400A 		vmov.f32	s1, s0
 1092 024c FFF7FEFF 		bl	Control_AngCalculator
 1093              	.LVL64:
 242:Src/motion.c  ****             while (motion_end_flag == FALSE)
 1094              		.loc 1 242 0
 1095 0250 314B     		ldr	r3, .L66+36
 1096 0252 0022     		movs	r2, #0
 1097 0254 1A70     		strb	r2, [r3]
 1098              	.L54:
 243:Src/motion.c  ****             {
 1099              		.loc 1 243 0 discriminator 1
 1100 0256 304B     		ldr	r3, .L66+36
 1101 0258 1B78     		ldrb	r3, [r3]	@ zero_extendqisi2
 1102 025a 002B     		cmp	r3, #0
 1103 025c FBD0     		beq	.L54
 246:Src/motion.c  ****             velocity_now = VELO_S;
 1104              		.loc 1 246 0
 1105 025e 294B     		ldr	r3, .L66+16
 1106 0260 0022     		movs	r2, #0
 1107 0262 9A60     		str	r2, [r3, #8]	@ float
 247:Src/motion.c  ****             Control_WallEdgeSet(walledge600);
 1108              		.loc 1 247 0
 1109 0264 2A4B     		ldr	r3, .L66+28
 1110 0266 304A     		ldr	r2, .L66+52
 1111 0268 1A60     		str	r2, [r3]	@ float
 248:Src/motion.c  ****         }
 1112              		.loc 1 248 0
 1113 026a 304B     		ldr	r3, .L66+56
 1114 026c 03F11002 		add	r2, r3, #16
 1115 0270 92E80300 		ldm	r2, {r0, r1}
ARM GAS  C:\Users\kotaro\AppData\Local\Temp\ccTjQSLT.s 			page 26


 1116 0274 8DE80300 		stm	sp, {r0, r1}
 1117 0278 0FCB     		ldm	r3, {r0, r1, r2, r3}
 1118 027a FFF7FEFF 		bl	Control_WallEdgeSet
 1119              	.LVL65:
 1120 027e 89E7     		b	.L48
 1121              	.L65:
 230:Src/motion.c  ****             Control_AngCalculator(0, 0, 0, 0, 1, 0);
 1122              		.loc 1 230 0
 1123 0280 204B     		ldr	r3, .L66+16
 1124 0282 D3ED027A 		vldr.32	s15, [r3, #8]
 1125 0286 9FED211A 		vldr.32	s2, .L66+24
 1126 028a F7EE002A 		vmov.f32	s5, #1.0e+0
 1127 028e 9FED1E2A 		vldr.32	s4, .L66+20
 1128 0292 F0EE411A 		vmov.f32	s3, s2
 1129 0296 1E4B     		ldr	r3, .L66+28
 1130 0298 D3ED000A 		vldr.32	s1, [r3]
 1131 029c 9FED200A 		vldr.32	s0, .L66+44
 1132 02a0 30EE670A 		vsub.f32	s0, s0, s15
 1133 02a4 FFF7FEFF 		bl	Control_StrCalculator
 1134              	.LVL66:
 231:Src/motion.c  ****             motion_end_flag = FALSE;
 1135              		.loc 1 231 0
 1136 02a8 9FED1A0A 		vldr.32	s0, .L66+32
 1137 02ac F0EE402A 		vmov.f32	s5, s0
 1138 02b0 B7EE002A 		vmov.f32	s4, #1.0e+0
 1139 02b4 F0EE401A 		vmov.f32	s3, s0
 1140 02b8 B0EE401A 		vmov.f32	s2, s0
 1141 02bc F0EE400A 		vmov.f32	s1, s0
 1142 02c0 FFF7FEFF 		bl	Control_AngCalculator
 1143              	.LVL67:
 232:Src/motion.c  ****             while (motion_end_flag == FALSE)
 1144              		.loc 1 232 0
 1145 02c4 144B     		ldr	r3, .L66+36
 1146 02c6 0022     		movs	r2, #0
 1147 02c8 1A70     		strb	r2, [r3]
 1148              	.L52:
 233:Src/motion.c  ****             {
 1149              		.loc 1 233 0 discriminator 1
 1150 02ca 134B     		ldr	r3, .L66+36
 1151 02cc 1B78     		ldrb	r3, [r3]	@ zero_extendqisi2
 1152 02ce 002B     		cmp	r3, #0
 1153 02d0 FBD0     		beq	.L52
 236:Src/motion.c  ****             velocity_now = 800.0f;
 1154              		.loc 1 236 0
 1155 02d2 0C4B     		ldr	r3, .L66+16
 1156 02d4 0022     		movs	r2, #0
 1157 02d6 9A60     		str	r2, [r3, #8]	@ float
 237:Src/motion.c  ****             Control_WallEdgeSet(walledge800);
 1158              		.loc 1 237 0
 1159 02d8 0D4B     		ldr	r3, .L66+28
 1160 02da 154A     		ldr	r2, .L66+60
 1161 02dc 1A60     		str	r2, [r3]	@ float
 238:Src/motion.c  ****         }else{
 1162              		.loc 1 238 0
 1163 02de 074B     		ldr	r3, .L66+8
 1164 02e0 03F11002 		add	r2, r3, #16
 1165 02e4 92E80300 		ldm	r2, {r0, r1}
ARM GAS  C:\Users\kotaro\AppData\Local\Temp\ccTjQSLT.s 			page 27


 1166 02e8 8DE80300 		stm	sp, {r0, r1}
 1167 02ec 0FCB     		ldm	r3, {r0, r1, r2, r3}
 1168 02ee FFF7FEFF 		bl	Control_WallEdgeSet
 1169              	.LVL68:
 1170 02f2 4FE7     		b	.L48
 1171              	.L67:
 1172              		.align	2
 1173              	.L66:
 1174 02f4 00001644 		.word	1142292480
 1175 02f8 00803B45 		.word	1161527296
 1176 02fc 00000000 		.word	.LANCHOR3
 1177 0300 00003443 		.word	1127481344
 1178 0304 00000000 		.word	enc
 1179 0308 00409C45 		.word	1167867904
 1180 030c 00004844 		.word	1145569280
 1181 0310 00000000 		.word	.LANCHOR2
 1182 0314 00000000 		.word	0
 1183 0318 00000000 		.word	motion_end_flag
 1184 031c 0080BB45 		.word	1169915904
 1185 0320 0000B442 		.word	1119092736
 1186 0324 00000000 		.word	sen_front
 1187 0328 00001644 		.word	1142292480
 1188 032c 00000000 		.word	.LANCHOR4
 1189 0330 00004844 		.word	1145569280
 1190              	.LVL69:
 1191              	.L64:
 1192              	.LBE6:
 1193              	.LBB7:
 1194              	.LBB5:
 277:Src/motion.c  ****             Control_AngCalculator(0, 0, 0, 0, 1, 0);
 1195              		.loc 1 277 0
 1196 0334 1C4B     		ldr	r3, .L68
 1197 0336 D3ED027A 		vldr.32	s15, [r3, #8]
 1198 033a DFED1C0A 		vldr.32	s1, .L68+4
 1199 033e F7EE002A 		vmov.f32	s5, #1.0e+0
 1200 0342 9FED1B2A 		vldr.32	s4, .L68+8
 1201 0346 F0EE601A 		vmov.f32	s3, s1
 1202 034a B0EE601A 		vmov.f32	s2, s1
 1203 034e 9FED190A 		vldr.32	s0, .L68+12
 1204 0352 30EE670A 		vsub.f32	s0, s0, s15
 1205 0356 FFF7FEFF 		bl	Control_StrCalculator
 1206              	.LVL70:
 278:Src/motion.c  ****             motion_end_flag = FALSE;
 1207              		.loc 1 278 0
 1208 035a 9FED170A 		vldr.32	s0, .L68+16
 1209 035e F0EE402A 		vmov.f32	s5, s0
 1210 0362 B7EE002A 		vmov.f32	s4, #1.0e+0
 1211 0366 F0EE401A 		vmov.f32	s3, s0
 1212 036a B0EE401A 		vmov.f32	s2, s0
 1213 036e F0EE400A 		vmov.f32	s1, s0
 1214 0372 FFF7FEFF 		bl	Control_AngCalculator
 1215              	.LVL71:
 279:Src/motion.c  ****             while (motion_end_flag == FALSE)
 1216              		.loc 1 279 0
 1217 0376 114B     		ldr	r3, .L68+20
 1218 0378 0022     		movs	r2, #0
 1219 037a 1A70     		strb	r2, [r3]
ARM GAS  C:\Users\kotaro\AppData\Local\Temp\ccTjQSLT.s 			page 28


 1220              	.L59:
 280:Src/motion.c  ****             {
 1221              		.loc 1 280 0 discriminator 1
 1222 037c 0F4B     		ldr	r3, .L68+20
 1223 037e 1B78     		ldrb	r3, [r3]	@ zero_extendqisi2
 1224 0380 002B     		cmp	r3, #0
 1225 0382 FBD0     		beq	.L59
 283:Src/motion.c  ****             velocity_now = 800.0f;
 1226              		.loc 1 283 0
 1227 0384 084B     		ldr	r3, .L68
 1228 0386 0022     		movs	r2, #0
 1229 0388 9A60     		str	r2, [r3, #8]	@ float
 284:Src/motion.c  ****             Control_WallEdgeSet(walledge800);
 1230              		.loc 1 284 0
 1231 038a 0D4B     		ldr	r3, .L68+24
 1232 038c 0D4A     		ldr	r2, .L68+28
 1233 038e 1A60     		str	r2, [r3]	@ float
 285:Src/motion.c  ****         }else{
 1234              		.loc 1 285 0
 1235 0390 0D4B     		ldr	r3, .L68+32
 1236 0392 03F11002 		add	r2, r3, #16
 1237 0396 92E80300 		ldm	r2, {r0, r1}
 1238 039a 8DE80300 		stm	sp, {r0, r1}
 1239 039e 0FCB     		ldm	r3, {r0, r1, r2, r3}
 1240 03a0 FFF7FEFF 		bl	Control_WallEdgeSet
 1241              	.LVL72:
 1242 03a4 F6E6     		b	.L48
 1243              	.L69:
 1244 03a6 00BF     		.align	2
 1245              	.L68:
 1246 03a8 00000000 		.word	enc
 1247 03ac 00004844 		.word	1145569280
 1248 03b0 00409C45 		.word	1167867904
 1249 03b4 0000B442 		.word	1119092736
 1250 03b8 00000000 		.word	0
 1251 03bc 00000000 		.word	motion_end_flag
 1252 03c0 00000000 		.word	.LANCHOR2
 1253 03c4 00004844 		.word	1145569280
 1254 03c8 00000000 		.word	.LANCHOR3
 1255              	.LBE5:
 1256              	.LBE7:
 1257              		.cfi_endproc
 1258              	.LFE166:
 1260              		.section	.text.Motion_SpinTurn,"ax",%progbits
 1261              		.align	1
 1262              		.global	Motion_SpinTurn
 1263              		.syntax unified
 1264              		.thumb
 1265              		.thumb_func
 1266              		.fpu fpv4-sp-d16
 1268              	Motion_SpinTurn:
 1269              	.LFB167:
 300:Src/motion.c  **** 
 301:Src/motion.c  **** void Motion_SpinTurn(void)
 302:Src/motion.c  **** {
 1270              		.loc 1 302 0
 1271              		.cfi_startproc
ARM GAS  C:\Users\kotaro\AppData\Local\Temp\ccTjQSLT.s 			page 29


 1272              		@ args = 0, pretend = 0, frame = 0
 1273              		@ frame_needed = 0, uses_anonymous_args = 0
 1274 0000 00B5     		push	{lr}
 1275              	.LCFI21:
 1276              		.cfi_def_cfa_offset 4
 1277              		.cfi_offset 14, -4
 1278 0002 2DED028B 		vpush.64	{d8}
 1279              	.LCFI22:
 1280              		.cfi_def_cfa_offset 12
 1281              		.cfi_offset 80, -12
 1282              		.cfi_offset 81, -8
 1283 0006 83B0     		sub	sp, sp, #12
 1284              	.LCFI23:
 1285              		.cfi_def_cfa_offset 24
 303:Src/motion.c  ****     Control_StrCalculator(90.0f - enc.offset, VELO_S, VELO_S, 0, ACCEL_S, 1);
 1286              		.loc 1 303 0
 1287 0008 764B     		ldr	r3, .L76
 1288 000a D3ED027A 		vldr.32	s15, [r3, #8]
 1289 000e 9FED768A 		vldr.32	s16, .L76+4
 1290 0012 DFED760A 		vldr.32	s1, .L76+8
 1291 0016 F7EE002A 		vmov.f32	s5, #1.0e+0
 1292 001a 9FED752A 		vldr.32	s4, .L76+12
 1293 001e F0EE481A 		vmov.f32	s3, s16
 1294 0022 B0EE601A 		vmov.f32	s2, s1
 1295 0026 9FED730A 		vldr.32	s0, .L76+16
 1296 002a 30EE670A 		vsub.f32	s0, s0, s15
 1297 002e FFF7FEFF 		bl	Control_StrCalculator
 1298              	.LVL73:
 304:Src/motion.c  ****     Control_AngCalculator(0, 0, 0, 0, 1, 0);
 1299              		.loc 1 304 0
 1300 0032 F0EE482A 		vmov.f32	s5, s16
 1301 0036 B7EE002A 		vmov.f32	s4, #1.0e+0
 1302 003a F0EE481A 		vmov.f32	s3, s16
 1303 003e B0EE481A 		vmov.f32	s2, s16
 1304 0042 F0EE480A 		vmov.f32	s1, s16
 1305 0046 B0EE480A 		vmov.f32	s0, s16
 1306 004a FFF7FEFF 		bl	Control_AngCalculator
 1307              	.LVL74:
 305:Src/motion.c  ****     motion_end_flag = FALSE;
 1308              		.loc 1 305 0
 1309 004e 6A4B     		ldr	r3, .L76+20
 1310 0050 0022     		movs	r2, #0
 1311 0052 1A70     		strb	r2, [r3]
 1312              	.L71:
 306:Src/motion.c  ****     while (motion_end_flag == FALSE)
 1313              		.loc 1 306 0 discriminator 1
 1314 0054 684B     		ldr	r3, .L76+20
 1315 0056 1B78     		ldrb	r3, [r3]	@ zero_extendqisi2
 1316 0058 002B     		cmp	r3, #0
 1317 005a FBD0     		beq	.L71
 307:Src/motion.c  ****     {
 308:Src/motion.c  ****     }
 309:Src/motion.c  ****     straight.v_now = 0.0f;
 1318              		.loc 1 309 0
 1319 005c 9FED628A 		vldr.32	s16, .L76+4
 1320 0060 664B     		ldr	r3, .L76+24
 1321 0062 83ED038A 		vstr.32	s16, [r3, #12]
ARM GAS  C:\Users\kotaro\AppData\Local\Temp\ccTjQSLT.s 			page 30


 310:Src/motion.c  ****     angle.v_now = 0.0f;
 1322              		.loc 1 310 0
 1323 0066 664B     		ldr	r3, .L76+28
 1324 0068 83ED038A 		vstr.32	s16, [r3, #12]
 311:Src/motion.c  ****     error_ang_sum = 0.0f;
 1325              		.loc 1 311 0
 1326 006c 654B     		ldr	r3, .L76+32
 1327 006e 83ED008A 		vstr.32	s16, [r3]
 312:Src/motion.c  ****     error_ang_old = 0.0f;
 1328              		.loc 1 312 0
 1329 0072 654B     		ldr	r3, .L76+36
 1330 0074 83ED008A 		vstr.32	s16, [r3]
 313:Src/motion.c  ****     HAL_Delay(500);
 1331              		.loc 1 313 0
 1332 0078 4FF4FA70 		mov	r0, #500
 1333 007c FFF7FEFF 		bl	HAL_Delay
 1334              	.LVL75:
 314:Src/motion.c  ****     Control_StrCalculator(0, 0, 0, 0, 1, 0);
 1335              		.loc 1 314 0
 1336 0080 F0EE482A 		vmov.f32	s5, s16
 1337 0084 B7EE002A 		vmov.f32	s4, #1.0e+0
 1338 0088 F0EE481A 		vmov.f32	s3, s16
 1339 008c B0EE481A 		vmov.f32	s2, s16
 1340 0090 F0EE480A 		vmov.f32	s1, s16
 1341 0094 B0EE480A 		vmov.f32	s0, s16
 1342 0098 FFF7FEFF 		bl	Control_StrCalculator
 1343              	.LVL76:
 315:Src/motion.c  ****     Control_AngCalculator(184.0f, 0.0f, VELO_ANG_S, 0.0f, ACCEL_ANG_S, 1);
 1344              		.loc 1 315 0
 1345 009c F7EE002A 		vmov.f32	s5, #1.0e+0
 1346 00a0 9FED5A2A 		vldr.32	s4, .L76+40
 1347 00a4 F0EE481A 		vmov.f32	s3, s16
 1348 00a8 9FED591A 		vldr.32	s2, .L76+44
 1349 00ac F0EE480A 		vmov.f32	s1, s16
 1350 00b0 9FED580A 		vldr.32	s0, .L76+48
 1351 00b4 FFF7FEFF 		bl	Control_AngCalculator
 1352              	.LVL77:
 316:Src/motion.c  ****     motion_end_flag = FALSE;
 1353              		.loc 1 316 0
 1354 00b8 4F4B     		ldr	r3, .L76+20
 1355 00ba 0022     		movs	r2, #0
 1356 00bc 1A70     		strb	r2, [r3]
 1357              	.L72:
 317:Src/motion.c  ****     while (motion_end_flag == FALSE)
 1358              		.loc 1 317 0 discriminator 1
 1359 00be 4E4B     		ldr	r3, .L76+20
 1360 00c0 1B78     		ldrb	r3, [r3]	@ zero_extendqisi2
 1361 00c2 002B     		cmp	r3, #0
 1362 00c4 FBD0     		beq	.L72
 318:Src/motion.c  ****     {
 319:Src/motion.c  ****     }
 320:Src/motion.c  ****     straight.v_now = 0.0f;
 1363              		.loc 1 320 0
 1364 00c6 9FED488A 		vldr.32	s16, .L76+4
 1365 00ca 4C4B     		ldr	r3, .L76+24
 1366 00cc 83ED038A 		vstr.32	s16, [r3, #12]
 321:Src/motion.c  ****     angle.v_now = 0.0f;
ARM GAS  C:\Users\kotaro\AppData\Local\Temp\ccTjQSLT.s 			page 31


 1367              		.loc 1 321 0
 1368 00d0 4B4B     		ldr	r3, .L76+28
 1369 00d2 83ED038A 		vstr.32	s16, [r3, #12]
 322:Src/motion.c  ****     error_ang_sum = 0.0f;
 1370              		.loc 1 322 0
 1371 00d6 4B4B     		ldr	r3, .L76+32
 1372 00d8 83ED008A 		vstr.32	s16, [r3]
 323:Src/motion.c  ****     error_ang_old = 0.0f;
 1373              		.loc 1 323 0
 1374 00dc 4A4B     		ldr	r3, .L76+36
 1375 00de 83ED008A 		vstr.32	s16, [r3]
 324:Src/motion.c  ****     HAL_Delay(500);
 1376              		.loc 1 324 0
 1377 00e2 4FF4FA70 		mov	r0, #500
 1378 00e6 FFF7FEFF 		bl	HAL_Delay
 1379              	.LVL78:
 325:Src/motion.c  **** 
 326:Src/motion.c  ****     Control_StrCalculator(60.0f, 0, 100, 0, 1000, -1);
 1380              		.loc 1 326 0
 1381 00ea FFEE002A 		vmov.f32	s5, #-1.0e+0
 1382 00ee 9FED4A2A 		vldr.32	s4, .L76+52
 1383 00f2 F0EE481A 		vmov.f32	s3, s16
 1384 00f6 9FED491A 		vldr.32	s2, .L76+56
 1385 00fa F0EE480A 		vmov.f32	s1, s16
 1386 00fe 9FED480A 		vldr.32	s0, .L76+60
 1387 0102 FFF7FEFF 		bl	Control_StrCalculator
 1388              	.LVL79:
 327:Src/motion.c  ****     Control_AngCalculator(0, 0, 0, 0, 1, 0);
 1389              		.loc 1 327 0
 1390 0106 F0EE482A 		vmov.f32	s5, s16
 1391 010a B7EE002A 		vmov.f32	s4, #1.0e+0
 1392 010e F0EE481A 		vmov.f32	s3, s16
 1393 0112 B0EE481A 		vmov.f32	s2, s16
 1394 0116 F0EE480A 		vmov.f32	s1, s16
 1395 011a B0EE480A 		vmov.f32	s0, s16
 1396 011e FFF7FEFF 		bl	Control_AngCalculator
 1397              	.LVL80:
 328:Src/motion.c  ****     motion_end_flag = FALSE;
 1398              		.loc 1 328 0
 1399 0122 354B     		ldr	r3, .L76+20
 1400 0124 0022     		movs	r2, #0
 1401 0126 1A70     		strb	r2, [r3]
 1402              	.L73:
 329:Src/motion.c  ****     while (motion_end_flag == FALSE)
 1403              		.loc 1 329 0 discriminator 1
 1404 0128 334B     		ldr	r3, .L76+20
 1405 012a 1B78     		ldrb	r3, [r3]	@ zero_extendqisi2
 1406 012c 002B     		cmp	r3, #0
 1407 012e FBD0     		beq	.L73
 330:Src/motion.c  ****     {
 331:Src/motion.c  ****     }
 332:Src/motion.c  ****     straight.v_now = 0;
 1408              		.loc 1 332 0
 1409 0130 9FED2D8A 		vldr.32	s16, .L76+4
 1410 0134 314B     		ldr	r3, .L76+24
 1411 0136 83ED038A 		vstr.32	s16, [r3, #12]
 333:Src/motion.c  ****     angle.v_now = 0;
ARM GAS  C:\Users\kotaro\AppData\Local\Temp\ccTjQSLT.s 			page 32


 1412              		.loc 1 333 0
 1413 013a 314B     		ldr	r3, .L76+28
 1414 013c 83ED038A 		vstr.32	s16, [r3, #12]
 334:Src/motion.c  ****     error_sum = 0.0f;
 1415              		.loc 1 334 0
 1416 0140 384B     		ldr	r3, .L76+64
 1417 0142 83ED008A 		vstr.32	s16, [r3]
 335:Src/motion.c  ****     error_old = 0.0f;
 1418              		.loc 1 335 0
 1419 0146 384B     		ldr	r3, .L76+68
 1420 0148 83ED008A 		vstr.32	s16, [r3]
 336:Src/motion.c  ****     error_ang_sum = 0.0f;
 1421              		.loc 1 336 0
 1422 014c 2D4B     		ldr	r3, .L76+32
 1423 014e 83ED008A 		vstr.32	s16, [r3]
 337:Src/motion.c  ****     error_ang_old = 0.0f;
 1424              		.loc 1 337 0
 1425 0152 2D4B     		ldr	r3, .L76+36
 1426 0154 83ED008A 		vstr.32	s16, [r3]
 338:Src/motion.c  ****     Control_WallEdgeSet(walledgeRestart);
 1427              		.loc 1 338 0
 1428 0158 344B     		ldr	r3, .L76+72
 1429 015a 03F11002 		add	r2, r3, #16
 1430 015e 92E80300 		ldm	r2, {r0, r1}
 1431 0162 8DE80300 		stm	sp, {r0, r1}
 1432 0166 0FCB     		ldm	r3, {r0, r1, r2, r3}
 1433 0168 FFF7FEFF 		bl	Control_WallEdgeSet
 1434              	.LVL81:
 339:Src/motion.c  ****     HAL_Delay(500);
 1435              		.loc 1 339 0
 1436 016c 4FF4FA70 		mov	r0, #500
 1437 0170 FFF7FEFF 		bl	HAL_Delay
 1438              	.LVL82:
 340:Src/motion.c  **** 
 341:Src/motion.c  ****     Control_WallEdgeAble(0b11);
 1439              		.loc 1 341 0
 1440 0174 0320     		movs	r0, #3
 1441 0176 FFF7FEFF 		bl	Control_WallEdgeAble
 1442              	.LVL83:
 342:Src/motion.c  ****     Control_StrCalculator(150.0f, 0, VELO_S, VELO_S, ACCEL_S, 1);//130
 1443              		.loc 1 342 0
 1444 017a 9FED1C1A 		vldr.32	s2, .L76+8
 1445 017e F7EE002A 		vmov.f32	s5, #1.0e+0
 1446 0182 9FED1B2A 		vldr.32	s4, .L76+12
 1447 0186 F0EE411A 		vmov.f32	s3, s2
 1448 018a F0EE480A 		vmov.f32	s1, s16
 1449 018e 9FED280A 		vldr.32	s0, .L76+76
 1450 0192 FFF7FEFF 		bl	Control_StrCalculator
 1451              	.LVL84:
 343:Src/motion.c  ****     Control_AngCalculator(0, 0, 0, 0, 1, 0);
 1452              		.loc 1 343 0
 1453 0196 F0EE482A 		vmov.f32	s5, s16
 1454 019a B7EE002A 		vmov.f32	s4, #1.0e+0
 1455 019e F0EE481A 		vmov.f32	s3, s16
 1456 01a2 B0EE481A 		vmov.f32	s2, s16
 1457 01a6 F0EE480A 		vmov.f32	s1, s16
 1458 01aa B0EE480A 		vmov.f32	s0, s16
ARM GAS  C:\Users\kotaro\AppData\Local\Temp\ccTjQSLT.s 			page 33


 1459 01ae FFF7FEFF 		bl	Control_AngCalculator
 1460              	.LVL85:
 344:Src/motion.c  ****     motion_end_flag = FALSE;
 1461              		.loc 1 344 0
 1462 01b2 114B     		ldr	r3, .L76+20
 1463 01b4 0022     		movs	r2, #0
 1464 01b6 1A70     		strb	r2, [r3]
 1465              	.L74:
 345:Src/motion.c  ****     while (motion_end_flag == FALSE)
 1466              		.loc 1 345 0 discriminator 1
 1467 01b8 0F4B     		ldr	r3, .L76+20
 1468 01ba 1B78     		ldrb	r3, [r3]	@ zero_extendqisi2
 1469 01bc 002B     		cmp	r3, #0
 1470 01be FBD0     		beq	.L74
 346:Src/motion.c  ****     {
 347:Src/motion.c  ****     }
 348:Src/motion.c  ****     enc.offset = 0;
 1471              		.loc 1 348 0
 1472 01c0 084B     		ldr	r3, .L76
 1473 01c2 0022     		movs	r2, #0
 1474 01c4 9A60     		str	r2, [r3, #8]	@ float
 349:Src/motion.c  ****     Control_WallEdgeSet(walledge600);
 1475              		.loc 1 349 0
 1476 01c6 1B4B     		ldr	r3, .L76+80
 1477 01c8 03F11002 		add	r2, r3, #16
 1478 01cc 92E80300 		ldm	r2, {r0, r1}
 1479 01d0 8DE80300 		stm	sp, {r0, r1}
 1480 01d4 0FCB     		ldm	r3, {r0, r1, r2, r3}
 1481 01d6 FFF7FEFF 		bl	Control_WallEdgeSet
 1482              	.LVL86:
 350:Src/motion.c  ****     //prefront_flag = TRUE;
 351:Src/motion.c  **** }
 1483              		.loc 1 351 0
 1484 01da 03B0     		add	sp, sp, #12
 1485              	.LCFI24:
 1486              		.cfi_def_cfa_offset 12
 1487              		@ sp needed
 1488 01dc BDEC028B 		vldm	sp!, {d8}
 1489              	.LCFI25:
 1490              		.cfi_restore 80
 1491              		.cfi_restore 81
 1492              		.cfi_def_cfa_offset 4
 1493 01e0 5DF804FB 		ldr	pc, [sp], #4
 1494              	.L77:
 1495              		.align	2
 1496              	.L76:
 1497 01e4 00000000 		.word	enc
 1498 01e8 00000000 		.word	0
 1499 01ec 00001644 		.word	1142292480
 1500 01f0 0080BB45 		.word	1169915904
 1501 01f4 0000B442 		.word	1119092736
 1502 01f8 00000000 		.word	motion_end_flag
 1503 01fc 00000000 		.word	straight
 1504 0200 00000000 		.word	angle
 1505 0204 00000000 		.word	error_ang_sum
 1506 0208 00000000 		.word	error_ang_old
 1507 020c 0000FA45 		.word	1174011904
ARM GAS  C:\Users\kotaro\AppData\Local\Temp\ccTjQSLT.s 			page 34


 1508 0210 0000C843 		.word	1137180672
 1509 0214 00003843 		.word	1127743488
 1510 0218 00007A44 		.word	1148846080
 1511 021c 0000C842 		.word	1120403456
 1512 0220 00007042 		.word	1114636288
 1513 0224 00000000 		.word	error_sum
 1514 0228 00000000 		.word	error_old
 1515 022c 00000000 		.word	.LANCHOR5
 1516 0230 00001643 		.word	1125515264
 1517 0234 00000000 		.word	.LANCHOR4
 1518              		.cfi_endproc
 1519              	.LFE167:
 1521              		.section	.text.Motion_WallSpinTurn,"ax",%progbits
 1522              		.align	1
 1523              		.global	Motion_WallSpinTurn
 1524              		.syntax unified
 1525              		.thumb
 1526              		.thumb_func
 1527              		.fpu fpv4-sp-d16
 1529              	Motion_WallSpinTurn:
 1530              	.LFB168:
 352:Src/motion.c  **** 
 353:Src/motion.c  **** void Motion_WallSpinTurn(void)
 354:Src/motion.c  **** {
 1531              		.loc 1 354 0
 1532              		.cfi_startproc
 1533              		@ args = 0, pretend = 0, frame = 0
 1534              		@ frame_needed = 0, uses_anonymous_args = 0
 1535 0000 00B5     		push	{lr}
 1536              	.LCFI26:
 1537              		.cfi_def_cfa_offset 4
 1538              		.cfi_offset 14, -4
 1539 0002 2DED028B 		vpush.64	{d8}
 1540              	.LCFI27:
 1541              		.cfi_def_cfa_offset 12
 1542              		.cfi_offset 80, -12
 1543              		.cfi_offset 81, -8
 1544 0006 83B0     		sub	sp, sp, #12
 1545              	.LCFI28:
 1546              		.cfi_def_cfa_offset 24
 355:Src/motion.c  ****     Control_StrCalculator(90.0f - enc.offset, VELO_S, VELO_S, 0, ACCEL_S, 1);
 1547              		.loc 1 355 0
 1548 0008 814B     		ldr	r3, .L85
 1549 000a D3ED027A 		vldr.32	s15, [r3, #8]
 1550 000e 9FED818A 		vldr.32	s16, .L85+4
 1551 0012 DFED810A 		vldr.32	s1, .L85+8
 1552 0016 F7EE002A 		vmov.f32	s5, #1.0e+0
 1553 001a 9FED802A 		vldr.32	s4, .L85+12
 1554 001e F0EE481A 		vmov.f32	s3, s16
 1555 0022 B0EE601A 		vmov.f32	s2, s1
 1556 0026 9FED7E0A 		vldr.32	s0, .L85+16
 1557 002a 30EE670A 		vsub.f32	s0, s0, s15
 1558 002e FFF7FEFF 		bl	Control_StrCalculator
 1559              	.LVL87:
 356:Src/motion.c  ****     Control_AngCalculator(0, 0, 0, 0, 1, 0);
 1560              		.loc 1 356 0
 1561 0032 F0EE482A 		vmov.f32	s5, s16
ARM GAS  C:\Users\kotaro\AppData\Local\Temp\ccTjQSLT.s 			page 35


 1562 0036 B7EE002A 		vmov.f32	s4, #1.0e+0
 1563 003a F0EE481A 		vmov.f32	s3, s16
 1564 003e B0EE481A 		vmov.f32	s2, s16
 1565 0042 F0EE480A 		vmov.f32	s1, s16
 1566 0046 B0EE480A 		vmov.f32	s0, s16
 1567 004a FFF7FEFF 		bl	Control_AngCalculator
 1568              	.LVL88:
 357:Src/motion.c  ****     motion_end_flag = FALSE;
 1569              		.loc 1 357 0
 1570 004e 754B     		ldr	r3, .L85+20
 1571 0050 0022     		movs	r2, #0
 1572 0052 1A70     		strb	r2, [r3]
 1573              	.L79:
 358:Src/motion.c  ****     while (motion_end_flag == FALSE)
 1574              		.loc 1 358 0 discriminator 1
 1575 0054 734B     		ldr	r3, .L85+20
 1576 0056 1B78     		ldrb	r3, [r3]	@ zero_extendqisi2
 1577 0058 002B     		cmp	r3, #0
 1578 005a FBD0     		beq	.L79
 359:Src/motion.c  ****     {
 360:Src/motion.c  ****     }
 361:Src/motion.c  **** 
 362:Src/motion.c  ****     straight.v_now = 0;
 1579              		.loc 1 362 0
 1580 005c 0023     		movs	r3, #0
 1581 005e 724A     		ldr	r2, .L85+24
 1582 0060 D360     		str	r3, [r2, #12]	@ float
 363:Src/motion.c  ****     angle.v_now = 0;
 1583              		.loc 1 363 0
 1584 0062 724A     		ldr	r2, .L85+28
 1585 0064 D360     		str	r3, [r2, #12]	@ float
 364:Src/motion.c  ****     error_ang_sum = 0.0f;
 1586              		.loc 1 364 0
 1587 0066 724A     		ldr	r2, .L85+32
 1588 0068 1360     		str	r3, [r2]	@ float
 365:Src/motion.c  ****     error_ang_old = 0.0f;
 1589              		.loc 1 365 0
 1590 006a 724A     		ldr	r2, .L85+36
 1591 006c 1360     		str	r3, [r2]	@ float
 366:Src/motion.c  ****     HAL_Delay(500);
 1592              		.loc 1 366 0
 1593 006e 4FF4FA70 		mov	r0, #500
 1594 0072 FFF7FEFF 		bl	HAL_Delay
 1595              	.LVL89:
 367:Src/motion.c  **** 
 368:Src/motion.c  ****     front_wall_flag = TRUE;
 1596              		.loc 1 368 0
 1597 0076 704B     		ldr	r3, .L85+40
 1598 0078 0122     		movs	r2, #1
 1599 007a 1A70     		strb	r2, [r3]
 1600              	.L80:
 369:Src/motion.c  ****     while (front_wall_flag == TRUE)
 1601              		.loc 1 369 0 discriminator 1
 1602 007c 6E4B     		ldr	r3, .L85+40
 1603 007e 1B78     		ldrb	r3, [r3]	@ zero_extendqisi2
 1604 0080 DBB2     		uxtb	r3, r3
 1605 0082 012B     		cmp	r3, #1
ARM GAS  C:\Users\kotaro\AppData\Local\Temp\ccTjQSLT.s 			page 36


 1606 0084 FAD0     		beq	.L80
 370:Src/motion.c  ****     {
 371:Src/motion.c  ****     }
 372:Src/motion.c  **** 
 373:Src/motion.c  ****     straight.v_now = 0;
 1607              		.loc 1 373 0
 1608 0086 9FED638A 		vldr.32	s16, .L85+4
 1609 008a 674B     		ldr	r3, .L85+24
 1610 008c 83ED038A 		vstr.32	s16, [r3, #12]
 374:Src/motion.c  ****     angle.v_now = 0;
 1611              		.loc 1 374 0
 1612 0090 664B     		ldr	r3, .L85+28
 1613 0092 83ED038A 		vstr.32	s16, [r3, #12]
 375:Src/motion.c  ****     error_ang_sum = 0.0f;
 1614              		.loc 1 375 0
 1615 0096 664B     		ldr	r3, .L85+32
 1616 0098 83ED008A 		vstr.32	s16, [r3]
 376:Src/motion.c  ****     error_ang_old = 0.0f;
 1617              		.loc 1 376 0
 1618 009c 654B     		ldr	r3, .L85+36
 1619 009e 83ED008A 		vstr.32	s16, [r3]
 377:Src/motion.c  ****     HAL_Delay(500);
 1620              		.loc 1 377 0
 1621 00a2 4FF4FA70 		mov	r0, #500
 1622 00a6 FFF7FEFF 		bl	HAL_Delay
 1623              	.LVL90:
 378:Src/motion.c  **** 
 379:Src/motion.c  ****     Control_StrCalculator(0, 0, 0, 0, 1, 0);
 1624              		.loc 1 379 0
 1625 00aa F0EE482A 		vmov.f32	s5, s16
 1626 00ae B7EE002A 		vmov.f32	s4, #1.0e+0
 1627 00b2 F0EE481A 		vmov.f32	s3, s16
 1628 00b6 B0EE481A 		vmov.f32	s2, s16
 1629 00ba F0EE480A 		vmov.f32	s1, s16
 1630 00be B0EE480A 		vmov.f32	s0, s16
 1631 00c2 FFF7FEFF 		bl	Control_StrCalculator
 1632              	.LVL91:
 380:Src/motion.c  ****     Control_AngCalculator(184.0f, 0.0f, VELO_ANG_S, 0.0f, ACCEL_ANG_S, 1);
 1633              		.loc 1 380 0
 1634 00c6 F7EE002A 		vmov.f32	s5, #1.0e+0
 1635 00ca 9FED5C2A 		vldr.32	s4, .L85+44
 1636 00ce F0EE481A 		vmov.f32	s3, s16
 1637 00d2 9FED5B1A 		vldr.32	s2, .L85+48
 1638 00d6 F0EE480A 		vmov.f32	s1, s16
 1639 00da 9FED5A0A 		vldr.32	s0, .L85+52
 1640 00de FFF7FEFF 		bl	Control_AngCalculator
 1641              	.LVL92:
 381:Src/motion.c  ****     motion_end_flag = FALSE;
 1642              		.loc 1 381 0
 1643 00e2 504B     		ldr	r3, .L85+20
 1644 00e4 0022     		movs	r2, #0
 1645 00e6 1A70     		strb	r2, [r3]
 1646              	.L81:
 382:Src/motion.c  ****     while (motion_end_flag == FALSE)
 1647              		.loc 1 382 0 discriminator 1
 1648 00e8 4E4B     		ldr	r3, .L85+20
 1649 00ea 1B78     		ldrb	r3, [r3]	@ zero_extendqisi2
ARM GAS  C:\Users\kotaro\AppData\Local\Temp\ccTjQSLT.s 			page 37


 1650 00ec 002B     		cmp	r3, #0
 1651 00ee FBD0     		beq	.L81
 383:Src/motion.c  ****     {
 384:Src/motion.c  ****     }
 385:Src/motion.c  ****     straight.v_now = 0;
 1652              		.loc 1 385 0
 1653 00f0 9FED488A 		vldr.32	s16, .L85+4
 1654 00f4 4C4B     		ldr	r3, .L85+24
 1655 00f6 83ED038A 		vstr.32	s16, [r3, #12]
 386:Src/motion.c  ****     angle.v_now = 0;
 1656              		.loc 1 386 0
 1657 00fa 4C4B     		ldr	r3, .L85+28
 1658 00fc 83ED038A 		vstr.32	s16, [r3, #12]
 387:Src/motion.c  ****     error_ang_sum = 0.0f;
 1659              		.loc 1 387 0
 1660 0100 4B4B     		ldr	r3, .L85+32
 1661 0102 83ED008A 		vstr.32	s16, [r3]
 388:Src/motion.c  ****     error_ang_old = 0.0f;
 1662              		.loc 1 388 0
 1663 0106 4B4B     		ldr	r3, .L85+36
 1664 0108 83ED008A 		vstr.32	s16, [r3]
 389:Src/motion.c  ****     HAL_Delay(500);
 1665              		.loc 1 389 0
 1666 010c 4FF4FA70 		mov	r0, #500
 1667 0110 FFF7FEFF 		bl	HAL_Delay
 1668              	.LVL93:
 390:Src/motion.c  **** 
 391:Src/motion.c  ****     Control_StrCalculator(52.0f, 0, 100, 0, 1000, -1);
 1669              		.loc 1 391 0
 1670 0114 FFEE002A 		vmov.f32	s5, #-1.0e+0
 1671 0118 9FED4B2A 		vldr.32	s4, .L85+56
 1672 011c F0EE481A 		vmov.f32	s3, s16
 1673 0120 9FED4A1A 		vldr.32	s2, .L85+60
 1674 0124 F0EE480A 		vmov.f32	s1, s16
 1675 0128 9FED490A 		vldr.32	s0, .L85+64
 1676 012c FFF7FEFF 		bl	Control_StrCalculator
 1677              	.LVL94:
 392:Src/motion.c  ****     Control_AngCalculator(0, 0, 0, 0, 1, 0);
 1678              		.loc 1 392 0
 1679 0130 F0EE482A 		vmov.f32	s5, s16
 1680 0134 B7EE002A 		vmov.f32	s4, #1.0e+0
 1681 0138 F0EE481A 		vmov.f32	s3, s16
 1682 013c B0EE481A 		vmov.f32	s2, s16
 1683 0140 F0EE480A 		vmov.f32	s1, s16
 1684 0144 B0EE480A 		vmov.f32	s0, s16
 1685 0148 FFF7FEFF 		bl	Control_AngCalculator
 1686              	.LVL95:
 393:Src/motion.c  ****     motion_end_flag = FALSE;
 1687              		.loc 1 393 0
 1688 014c 354B     		ldr	r3, .L85+20
 1689 014e 0022     		movs	r2, #0
 1690 0150 1A70     		strb	r2, [r3]
 1691              	.L82:
 394:Src/motion.c  ****     while (motion_end_flag == FALSE)
 1692              		.loc 1 394 0 discriminator 1
 1693 0152 344B     		ldr	r3, .L85+20
 1694 0154 1B78     		ldrb	r3, [r3]	@ zero_extendqisi2
ARM GAS  C:\Users\kotaro\AppData\Local\Temp\ccTjQSLT.s 			page 38


 1695 0156 002B     		cmp	r3, #0
 1696 0158 FBD0     		beq	.L82
 395:Src/motion.c  ****     {
 396:Src/motion.c  ****     }
 397:Src/motion.c  ****     straight.v_now = 0;
 1697              		.loc 1 397 0
 1698 015a 9FED2E8A 		vldr.32	s16, .L85+4
 1699 015e 324B     		ldr	r3, .L85+24
 1700 0160 83ED038A 		vstr.32	s16, [r3, #12]
 398:Src/motion.c  ****     angle.v_now = 0;
 1701              		.loc 1 398 0
 1702 0164 314B     		ldr	r3, .L85+28
 1703 0166 83ED038A 		vstr.32	s16, [r3, #12]
 399:Src/motion.c  ****     error_sum = 0.0f;
 1704              		.loc 1 399 0
 1705 016a 3A4B     		ldr	r3, .L85+68
 1706 016c 83ED008A 		vstr.32	s16, [r3]
 400:Src/motion.c  ****     error_old = 0.0f;
 1707              		.loc 1 400 0
 1708 0170 394B     		ldr	r3, .L85+72
 1709 0172 83ED008A 		vstr.32	s16, [r3]
 401:Src/motion.c  ****     error_ang_sum = 0.0f;
 1710              		.loc 1 401 0
 1711 0176 2E4B     		ldr	r3, .L85+32
 1712 0178 83ED008A 		vstr.32	s16, [r3]
 402:Src/motion.c  ****     error_ang_old = 0.0f;
 1713              		.loc 1 402 0
 1714 017c 2D4B     		ldr	r3, .L85+36
 1715 017e 83ED008A 		vstr.32	s16, [r3]
 403:Src/motion.c  ****     Control_WallEdgeSet(walledgeRestart);
 1716              		.loc 1 403 0
 1717 0182 364B     		ldr	r3, .L85+76
 1718 0184 03F11002 		add	r2, r3, #16
 1719 0188 92E80300 		ldm	r2, {r0, r1}
 1720 018c 8DE80300 		stm	sp, {r0, r1}
 1721 0190 0FCB     		ldm	r3, {r0, r1, r2, r3}
 1722 0192 FFF7FEFF 		bl	Control_WallEdgeSet
 1723              	.LVL96:
 404:Src/motion.c  ****     HAL_Delay(500);
 1724              		.loc 1 404 0
 1725 0196 4FF4FA70 		mov	r0, #500
 1726 019a FFF7FEFF 		bl	HAL_Delay
 1727              	.LVL97:
 405:Src/motion.c  ****     Control_WallEdgeAble(0b11);
 1728              		.loc 1 405 0
 1729 019e 0320     		movs	r0, #3
 1730 01a0 FFF7FEFF 		bl	Control_WallEdgeAble
 1731              	.LVL98:
 406:Src/motion.c  ****     Control_StrCalculator(130.0f, 0, VELO_S, VELO_S, ACCEL_S, 1);
 1732              		.loc 1 406 0
 1733 01a4 9FED1C1A 		vldr.32	s2, .L85+8
 1734 01a8 F7EE002A 		vmov.f32	s5, #1.0e+0
 1735 01ac 9FED1B2A 		vldr.32	s4, .L85+12
 1736 01b0 F0EE411A 		vmov.f32	s3, s2
 1737 01b4 F0EE480A 		vmov.f32	s1, s16
 1738 01b8 9FED290A 		vldr.32	s0, .L85+80
 1739 01bc FFF7FEFF 		bl	Control_StrCalculator
ARM GAS  C:\Users\kotaro\AppData\Local\Temp\ccTjQSLT.s 			page 39


 1740              	.LVL99:
 407:Src/motion.c  ****     Control_AngCalculator(0, 0, 0, 0, 1, 0);
 1741              		.loc 1 407 0
 1742 01c0 F0EE482A 		vmov.f32	s5, s16
 1743 01c4 B7EE002A 		vmov.f32	s4, #1.0e+0
 1744 01c8 F0EE481A 		vmov.f32	s3, s16
 1745 01cc B0EE481A 		vmov.f32	s2, s16
 1746 01d0 F0EE480A 		vmov.f32	s1, s16
 1747 01d4 B0EE480A 		vmov.f32	s0, s16
 1748 01d8 FFF7FEFF 		bl	Control_AngCalculator
 1749              	.LVL100:
 408:Src/motion.c  ****     motion_end_flag = FALSE;
 1750              		.loc 1 408 0
 1751 01dc 114B     		ldr	r3, .L85+20
 1752 01de 0022     		movs	r2, #0
 1753 01e0 1A70     		strb	r2, [r3]
 1754              	.L83:
 409:Src/motion.c  ****     while (motion_end_flag == FALSE)
 1755              		.loc 1 409 0 discriminator 1
 1756 01e2 104B     		ldr	r3, .L85+20
 1757 01e4 1B78     		ldrb	r3, [r3]	@ zero_extendqisi2
 1758 01e6 002B     		cmp	r3, #0
 1759 01e8 FBD0     		beq	.L83
 410:Src/motion.c  ****     {
 411:Src/motion.c  ****     }
 412:Src/motion.c  ****     Control_WallEdgeSet(walledge600);
 1760              		.loc 1 412 0
 1761 01ea 1E4B     		ldr	r3, .L85+84
 1762 01ec 03F11002 		add	r2, r3, #16
 1763 01f0 92E80300 		ldm	r2, {r0, r1}
 1764 01f4 8DE80300 		stm	sp, {r0, r1}
 1765 01f8 0FCB     		ldm	r3, {r0, r1, r2, r3}
 1766 01fa FFF7FEFF 		bl	Control_WallEdgeSet
 1767              	.LVL101:
 413:Src/motion.c  ****     enc.offset = 0.0f;
 1768              		.loc 1 413 0
 1769 01fe 044B     		ldr	r3, .L85
 1770 0200 0022     		movs	r2, #0
 1771 0202 9A60     		str	r2, [r3, #8]	@ float
 414:Src/motion.c  **** }
 1772              		.loc 1 414 0
 1773 0204 03B0     		add	sp, sp, #12
 1774              	.LCFI29:
 1775              		.cfi_def_cfa_offset 12
 1776              		@ sp needed
 1777 0206 BDEC028B 		vldm	sp!, {d8}
 1778              	.LCFI30:
 1779              		.cfi_restore 80
 1780              		.cfi_restore 81
 1781              		.cfi_def_cfa_offset 4
 1782 020a 5DF804FB 		ldr	pc, [sp], #4
 1783              	.L86:
 1784 020e 00BF     		.align	2
 1785              	.L85:
 1786 0210 00000000 		.word	enc
 1787 0214 00000000 		.word	0
 1788 0218 00001644 		.word	1142292480
ARM GAS  C:\Users\kotaro\AppData\Local\Temp\ccTjQSLT.s 			page 40


 1789 021c 0080BB45 		.word	1169915904
 1790 0220 0000B442 		.word	1119092736
 1791 0224 00000000 		.word	motion_end_flag
 1792 0228 00000000 		.word	straight
 1793 022c 00000000 		.word	angle
 1794 0230 00000000 		.word	error_ang_sum
 1795 0234 00000000 		.word	error_ang_old
 1796 0238 00000000 		.word	front_wall_flag
 1797 023c 0000FA45 		.word	1174011904
 1798 0240 0000C843 		.word	1137180672
 1799 0244 00003843 		.word	1127743488
 1800 0248 00007A44 		.word	1148846080
 1801 024c 0000C842 		.word	1120403456
 1802 0250 00005042 		.word	1112539136
 1803 0254 00000000 		.word	error_sum
 1804 0258 00000000 		.word	error_old
 1805 025c 00000000 		.word	.LANCHOR5
 1806 0260 00000243 		.word	1124204544
 1807 0264 00000000 		.word	.LANCHOR4
 1808              		.cfi_endproc
 1809              	.LFE168:
 1811              		.section	.text.Motion_LeftTurn,"ax",%progbits
 1812              		.align	1
 1813              		.global	Motion_LeftTurn
 1814              		.syntax unified
 1815              		.thumb
 1816              		.thumb_func
 1817              		.fpu fpv4-sp-d16
 1819              	Motion_LeftTurn:
 1820              	.LFB169:
 415:Src/motion.c  **** 
 416:Src/motion.c  **** void Motion_LeftTurn(void)
 417:Src/motion.c  **** {
 1821              		.loc 1 417 0
 1822              		.cfi_startproc
 1823              		@ args = 0, pretend = 0, frame = 0
 1824              		@ frame_needed = 0, uses_anonymous_args = 0
 1825 0000 08B5     		push	{r3, lr}
 1826              	.LCFI31:
 1827              		.cfi_def_cfa_offset 8
 1828              		.cfi_offset 3, -8
 1829              		.cfi_offset 14, -4
 418:Src/motion.c  ****     //offset in
 419:Src/motion.c  ****     if (sen_front.is_wall == TRUE)
 1830              		.loc 1 419 0
 1831 0002 524B     		ldr	r3, .L96
 1832 0004 1B7F     		ldrb	r3, [r3, #28]	@ zero_extendqisi2
 1833 0006 012B     		cmp	r3, #1
 1834 0008 74D0     		beq	.L95
 420:Src/motion.c  ****     {
 421:Src/motion.c  ****         /*while (sen_front.now < 122)
 422:Src/motion.c  ****             ;*/
 423:Src/motion.c  ****         Control_WallEdgeAble(0b10000);
 424:Src/motion.c  ****         Control_StrCalculator(90.0f - enc.offset, VELO_S, VELO_S, VELO_S, 1, 1);
 425:Src/motion.c  ****         Control_AngCalculator(0, 0, 0, 0, 1, 0);
 426:Src/motion.c  ****         motion_end_flag = FALSE;
 427:Src/motion.c  ****         while (motion_end_flag == FALSE)
ARM GAS  C:\Users\kotaro\AppData\Local\Temp\ccTjQSLT.s 			page 41


 428:Src/motion.c  ****         {
 429:Src/motion.c  ****         }
 430:Src/motion.c  ****     }
 431:Src/motion.c  ****     else
 432:Src/motion.c  ****     {
 433:Src/motion.c  ****         Control_StrCalculator(35.0f - enc.offset, VELO_S, VELO_S, VELO_S, 1, 1);
 1835              		.loc 1 433 0
 1836 000a 514B     		ldr	r3, .L96+4
 1837 000c D3ED027A 		vldr.32	s15, [r3, #8]
 1838 0010 DFED500A 		vldr.32	s1, .L96+8
 1839 0014 F7EE002A 		vmov.f32	s5, #1.0e+0
 1840 0018 B0EE622A 		vmov.f32	s4, s5
 1841 001c F0EE601A 		vmov.f32	s3, s1
 1842 0020 B0EE601A 		vmov.f32	s2, s1
 1843 0024 9FED4C0A 		vldr.32	s0, .L96+12
 1844 0028 30EE670A 		vsub.f32	s0, s0, s15
 1845 002c FFF7FEFF 		bl	Control_StrCalculator
 1846              	.LVL102:
 434:Src/motion.c  ****         Control_AngCalculator(0, 0, 0, 0, 1, 0);
 1847              		.loc 1 434 0
 1848 0030 9FED4A0A 		vldr.32	s0, .L96+16
 1849 0034 F0EE402A 		vmov.f32	s5, s0
 1850 0038 B7EE002A 		vmov.f32	s4, #1.0e+0
 1851 003c F0EE401A 		vmov.f32	s3, s0
 1852 0040 B0EE401A 		vmov.f32	s2, s0
 1853 0044 F0EE400A 		vmov.f32	s1, s0
 1854 0048 FFF7FEFF 		bl	Control_AngCalculator
 1855              	.LVL103:
 435:Src/motion.c  ****         motion_end_flag = FALSE;
 1856              		.loc 1 435 0
 1857 004c 444B     		ldr	r3, .L96+20
 1858 004e 0022     		movs	r2, #0
 1859 0050 1A70     		strb	r2, [r3]
 1860              	.L91:
 436:Src/motion.c  ****         while (motion_end_flag == FALSE)
 1861              		.loc 1 436 0 discriminator 1
 1862 0052 434B     		ldr	r3, .L96+20
 1863 0054 1B78     		ldrb	r3, [r3]	@ zero_extendqisi2
 1864 0056 002B     		cmp	r3, #0
 1865 0058 FBD0     		beq	.L91
 1866              	.L90:
 437:Src/motion.c  ****         {
 438:Src/motion.c  ****         }
 439:Src/motion.c  ****     }
 440:Src/motion.c  ****     //turn
 441:Src/motion.c  ****     Control_StrCalculator(300.0f, VELO_S, VELO_S, VELO_S, 1, 1);
 1867              		.loc 1 441 0
 1868 005a DFED3E0A 		vldr.32	s1, .L96+8
 1869 005e F7EE002A 		vmov.f32	s5, #1.0e+0
 1870 0062 B0EE622A 		vmov.f32	s4, s5
 1871 0066 F0EE601A 		vmov.f32	s3, s1
 1872 006a B0EE601A 		vmov.f32	s2, s1
 1873 006e 9FED3D0A 		vldr.32	s0, .L96+24
 1874 0072 FFF7FEFF 		bl	Control_StrCalculator
 1875              	.LVL104:
 442:Src/motion.c  ****     Control_AngCalculator(90.0f, 0, 800.0, 0, 20000.0, 1); //90.125f
 1876              		.loc 1 442 0
ARM GAS  C:\Users\kotaro\AppData\Local\Temp\ccTjQSLT.s 			page 42


 1877 0076 DFED390A 		vldr.32	s1, .L96+16
 1878 007a F7EE002A 		vmov.f32	s5, #1.0e+0
 1879 007e 9FED3A2A 		vldr.32	s4, .L96+28
 1880 0082 F0EE601A 		vmov.f32	s3, s1
 1881 0086 9FED391A 		vldr.32	s2, .L96+32
 1882 008a 9FED390A 		vldr.32	s0, .L96+36
 1883 008e FFF7FEFF 		bl	Control_AngCalculator
 1884              	.LVL105:
 443:Src/motion.c  ****     motion_end_flag = FALSE;
 1885              		.loc 1 443 0
 1886 0092 334B     		ldr	r3, .L96+20
 1887 0094 0022     		movs	r2, #0
 1888 0096 1A70     		strb	r2, [r3]
 1889              	.L92:
 444:Src/motion.c  ****     while (motion_end_flag == FALSE)
 1890              		.loc 1 444 0 discriminator 1
 1891 0098 314B     		ldr	r3, .L96+20
 1892 009a 1B78     		ldrb	r3, [r3]	@ zero_extendqisi2
 1893 009c 002B     		cmp	r3, #0
 1894 009e FBD0     		beq	.L92
 445:Src/motion.c  ****     {
 446:Src/motion.c  ****     }
 447:Src/motion.c  ****     //offset out
 448:Src/motion.c  ****     Control_StrCalculator(44.0f, VELO_S, VELO_S, VELO_S, 1, 1);
 1895              		.loc 1 448 0
 1896 00a0 DFED2C0A 		vldr.32	s1, .L96+8
 1897 00a4 F7EE002A 		vmov.f32	s5, #1.0e+0
 1898 00a8 B0EE622A 		vmov.f32	s4, s5
 1899 00ac F0EE601A 		vmov.f32	s3, s1
 1900 00b0 B0EE601A 		vmov.f32	s2, s1
 1901 00b4 9FED2F0A 		vldr.32	s0, .L96+40
 1902 00b8 FFF7FEFF 		bl	Control_StrCalculator
 1903              	.LVL106:
 449:Src/motion.c  ****     Control_AngCalculator(0, 0, 0, 0, 1, 0);
 1904              		.loc 1 449 0
 1905 00bc 9FED270A 		vldr.32	s0, .L96+16
 1906 00c0 F0EE402A 		vmov.f32	s5, s0
 1907 00c4 B7EE002A 		vmov.f32	s4, #1.0e+0
 1908 00c8 F0EE401A 		vmov.f32	s3, s0
 1909 00cc B0EE401A 		vmov.f32	s2, s0
 1910 00d0 F0EE400A 		vmov.f32	s1, s0
 1911 00d4 FFF7FEFF 		bl	Control_AngCalculator
 1912              	.LVL107:
 450:Src/motion.c  ****     motion_end_flag = FALSE;
 1913              		.loc 1 450 0
 1914 00d8 214B     		ldr	r3, .L96+20
 1915 00da 0022     		movs	r2, #0
 1916 00dc 1A70     		strb	r2, [r3]
 1917              	.L93:
 451:Src/motion.c  ****     while (motion_end_flag == FALSE)
 1918              		.loc 1 451 0 discriminator 1
 1919 00de 204B     		ldr	r3, .L96+20
 1920 00e0 1B78     		ldrb	r3, [r3]	@ zero_extendqisi2
 1921 00e2 002B     		cmp	r3, #0
 1922 00e4 FBD0     		beq	.L93
 452:Src/motion.c  ****     {
 453:Src/motion.c  ****     }
ARM GAS  C:\Users\kotaro\AppData\Local\Temp\ccTjQSLT.s 			page 43


 454:Src/motion.c  ****     enc.offset = 0.0f;
 1923              		.loc 1 454 0
 1924 00e6 1A4B     		ldr	r3, .L96+4
 1925 00e8 0022     		movs	r2, #0
 1926 00ea 9A60     		str	r2, [r3, #8]	@ float
 455:Src/motion.c  ****     prefront_flag = FALSE;
 1927              		.loc 1 455 0
 1928 00ec 224B     		ldr	r3, .L96+44
 1929 00ee 0022     		movs	r2, #0
 1930 00f0 1A80     		strh	r2, [r3]	@ movhi
 456:Src/motion.c  **** }
 1931              		.loc 1 456 0
 1932 00f2 08BD     		pop	{r3, pc}
 1933              	.L95:
 423:Src/motion.c  ****         Control_StrCalculator(90.0f - enc.offset, VELO_S, VELO_S, VELO_S, 1, 1);
 1934              		.loc 1 423 0
 1935 00f4 1020     		movs	r0, #16
 1936 00f6 FFF7FEFF 		bl	Control_WallEdgeAble
 1937              	.LVL108:
 424:Src/motion.c  ****         Control_AngCalculator(0, 0, 0, 0, 1, 0);
 1938              		.loc 1 424 0
 1939 00fa 154B     		ldr	r3, .L96+4
 1940 00fc D3ED027A 		vldr.32	s15, [r3, #8]
 1941 0100 DFED140A 		vldr.32	s1, .L96+8
 1942 0104 F7EE002A 		vmov.f32	s5, #1.0e+0
 1943 0108 B0EE622A 		vmov.f32	s4, s5
 1944 010c F0EE601A 		vmov.f32	s3, s1
 1945 0110 B0EE601A 		vmov.f32	s2, s1
 1946 0114 9FED160A 		vldr.32	s0, .L96+36
 1947 0118 30EE670A 		vsub.f32	s0, s0, s15
 1948 011c FFF7FEFF 		bl	Control_StrCalculator
 1949              	.LVL109:
 425:Src/motion.c  ****         motion_end_flag = FALSE;
 1950              		.loc 1 425 0
 1951 0120 9FED0E0A 		vldr.32	s0, .L96+16
 1952 0124 F0EE402A 		vmov.f32	s5, s0
 1953 0128 B7EE002A 		vmov.f32	s4, #1.0e+0
 1954 012c F0EE401A 		vmov.f32	s3, s0
 1955 0130 B0EE401A 		vmov.f32	s2, s0
 1956 0134 F0EE400A 		vmov.f32	s1, s0
 1957 0138 FFF7FEFF 		bl	Control_AngCalculator
 1958              	.LVL110:
 426:Src/motion.c  ****         while (motion_end_flag == FALSE)
 1959              		.loc 1 426 0
 1960 013c 084B     		ldr	r3, .L96+20
 1961 013e 0022     		movs	r2, #0
 1962 0140 1A70     		strb	r2, [r3]
 1963              	.L89:
 427:Src/motion.c  ****         {
 1964              		.loc 1 427 0 discriminator 1
 1965 0142 074B     		ldr	r3, .L96+20
 1966 0144 1B78     		ldrb	r3, [r3]	@ zero_extendqisi2
 1967 0146 002B     		cmp	r3, #0
 1968 0148 FBD0     		beq	.L89
 1969 014a 86E7     		b	.L90
 1970              	.L97:
 1971              		.align	2
ARM GAS  C:\Users\kotaro\AppData\Local\Temp\ccTjQSLT.s 			page 44


 1972              	.L96:
 1973 014c 00000000 		.word	sen_front
 1974 0150 00000000 		.word	enc
 1975 0154 00001644 		.word	1142292480
 1976 0158 00000C42 		.word	1108082688
 1977 015c 00000000 		.word	0
 1978 0160 00000000 		.word	motion_end_flag
 1979 0164 00009643 		.word	1133903872
 1980 0168 00409C46 		.word	1184645120
 1981 016c 00004844 		.word	1145569280
 1982 0170 0000B442 		.word	1119092736
 1983 0174 00003042 		.word	1110441984
 1984 0178 00000000 		.word	.LANCHOR1
 1985              		.cfi_endproc
 1986              	.LFE169:
 1988              		.section	.text.Motion_RightTurn,"ax",%progbits
 1989              		.align	1
 1990              		.global	Motion_RightTurn
 1991              		.syntax unified
 1992              		.thumb
 1993              		.thumb_func
 1994              		.fpu fpv4-sp-d16
 1996              	Motion_RightTurn:
 1997              	.LFB170:
 457:Src/motion.c  **** 
 458:Src/motion.c  **** void Motion_RightTurn(void)
 459:Src/motion.c  **** {
 1998              		.loc 1 459 0
 1999              		.cfi_startproc
 2000              		@ args = 0, pretend = 0, frame = 0
 2001              		@ frame_needed = 0, uses_anonymous_args = 0
 2002 0000 08B5     		push	{r3, lr}
 2003              	.LCFI32:
 2004              		.cfi_def_cfa_offset 8
 2005              		.cfi_offset 3, -8
 2006              		.cfi_offset 14, -4
 460:Src/motion.c  ****     //offset in
 461:Src/motion.c  ****     if (sen_front.is_wall == TRUE)
 2007              		.loc 1 461 0
 2008 0002 524B     		ldr	r3, .L107
 2009 0004 1B7F     		ldrb	r3, [r3, #28]	@ zero_extendqisi2
 2010 0006 012B     		cmp	r3, #1
 2011 0008 74D0     		beq	.L106
 462:Src/motion.c  ****     {
 463:Src/motion.c  ****         /*
 464:Src/motion.c  ****         while (sen_front.now < 122)
 465:Src/motion.c  ****             ;*/
 466:Src/motion.c  ****         Control_WallEdgeAble(0b10000);
 467:Src/motion.c  ****         Control_StrCalculator(90.0f - enc.offset, VELO_S, VELO_S, VELO_S, 1, 1);
 468:Src/motion.c  ****         Control_AngCalculator(0, 0, 0, 0, 1, 0);
 469:Src/motion.c  ****         motion_end_flag = FALSE;
 470:Src/motion.c  ****         while (motion_end_flag == FALSE)
 471:Src/motion.c  ****         {
 472:Src/motion.c  ****         }
 473:Src/motion.c  ****     }
 474:Src/motion.c  ****     else
 475:Src/motion.c  ****     {
ARM GAS  C:\Users\kotaro\AppData\Local\Temp\ccTjQSLT.s 			page 45


 476:Src/motion.c  ****         Control_StrCalculator(34.0f - enc.offset, VELO_S, VELO_S, VELO_S, 1, 1);
 2012              		.loc 1 476 0
 2013 000a 514B     		ldr	r3, .L107+4
 2014 000c D3ED027A 		vldr.32	s15, [r3, #8]
 2015 0010 DFED500A 		vldr.32	s1, .L107+8
 2016 0014 F7EE002A 		vmov.f32	s5, #1.0e+0
 2017 0018 B0EE622A 		vmov.f32	s4, s5
 2018 001c F0EE601A 		vmov.f32	s3, s1
 2019 0020 B0EE601A 		vmov.f32	s2, s1
 2020 0024 9FED4C0A 		vldr.32	s0, .L107+12
 2021 0028 30EE670A 		vsub.f32	s0, s0, s15
 2022 002c FFF7FEFF 		bl	Control_StrCalculator
 2023              	.LVL111:
 477:Src/motion.c  ****         Control_AngCalculator(0, 0, 0, 0, 1, 0);
 2024              		.loc 1 477 0
 2025 0030 9FED4A0A 		vldr.32	s0, .L107+16
 2026 0034 F0EE402A 		vmov.f32	s5, s0
 2027 0038 B7EE002A 		vmov.f32	s4, #1.0e+0
 2028 003c F0EE401A 		vmov.f32	s3, s0
 2029 0040 B0EE401A 		vmov.f32	s2, s0
 2030 0044 F0EE400A 		vmov.f32	s1, s0
 2031 0048 FFF7FEFF 		bl	Control_AngCalculator
 2032              	.LVL112:
 478:Src/motion.c  ****         motion_end_flag = FALSE;
 2033              		.loc 1 478 0
 2034 004c 444B     		ldr	r3, .L107+20
 2035 004e 0022     		movs	r2, #0
 2036 0050 1A70     		strb	r2, [r3]
 2037              	.L102:
 479:Src/motion.c  ****         while (motion_end_flag == FALSE)
 2038              		.loc 1 479 0 discriminator 1
 2039 0052 434B     		ldr	r3, .L107+20
 2040 0054 1B78     		ldrb	r3, [r3]	@ zero_extendqisi2
 2041 0056 002B     		cmp	r3, #0
 2042 0058 FBD0     		beq	.L102
 2043              	.L101:
 480:Src/motion.c  ****         {
 481:Src/motion.c  ****         }
 482:Src/motion.c  ****     }
 483:Src/motion.c  ****     //turn
 484:Src/motion.c  ****     Control_StrCalculator(300.0f, VELO_S, VELO_S, VELO_S, 1, 1);
 2044              		.loc 1 484 0
 2045 005a DFED3E0A 		vldr.32	s1, .L107+8
 2046 005e F7EE002A 		vmov.f32	s5, #1.0e+0
 2047 0062 B0EE622A 		vmov.f32	s4, s5
 2048 0066 F0EE601A 		vmov.f32	s3, s1
 2049 006a B0EE601A 		vmov.f32	s2, s1
 2050 006e 9FED3D0A 		vldr.32	s0, .L107+24
 2051 0072 FFF7FEFF 		bl	Control_StrCalculator
 2052              	.LVL113:
 485:Src/motion.c  ****     Control_AngCalculator(90.0f, 0, 800.0, 0, 20000.0, -1); //90.125f
 2053              		.loc 1 485 0
 2054 0076 DFED390A 		vldr.32	s1, .L107+16
 2055 007a FFEE002A 		vmov.f32	s5, #-1.0e+0
 2056 007e 9FED3A2A 		vldr.32	s4, .L107+28
 2057 0082 F0EE601A 		vmov.f32	s3, s1
 2058 0086 9FED391A 		vldr.32	s2, .L107+32
ARM GAS  C:\Users\kotaro\AppData\Local\Temp\ccTjQSLT.s 			page 46


 2059 008a 9FED390A 		vldr.32	s0, .L107+36
 2060 008e FFF7FEFF 		bl	Control_AngCalculator
 2061              	.LVL114:
 486:Src/motion.c  ****     motion_end_flag = FALSE;
 2062              		.loc 1 486 0
 2063 0092 334B     		ldr	r3, .L107+20
 2064 0094 0022     		movs	r2, #0
 2065 0096 1A70     		strb	r2, [r3]
 2066              	.L103:
 487:Src/motion.c  ****     while (motion_end_flag == FALSE)
 2067              		.loc 1 487 0 discriminator 1
 2068 0098 314B     		ldr	r3, .L107+20
 2069 009a 1B78     		ldrb	r3, [r3]	@ zero_extendqisi2
 2070 009c 002B     		cmp	r3, #0
 2071 009e FBD0     		beq	.L103
 488:Src/motion.c  ****     {
 489:Src/motion.c  ****     }
 490:Src/motion.c  ****     //offset out
 491:Src/motion.c  ****     Control_StrCalculator(46.0f, VELO_S, VELO_S, VELO_S, 1, 1);
 2072              		.loc 1 491 0
 2073 00a0 DFED2C0A 		vldr.32	s1, .L107+8
 2074 00a4 F7EE002A 		vmov.f32	s5, #1.0e+0
 2075 00a8 B0EE622A 		vmov.f32	s4, s5
 2076 00ac F0EE601A 		vmov.f32	s3, s1
 2077 00b0 B0EE601A 		vmov.f32	s2, s1
 2078 00b4 9FED2F0A 		vldr.32	s0, .L107+40
 2079 00b8 FFF7FEFF 		bl	Control_StrCalculator
 2080              	.LVL115:
 492:Src/motion.c  ****     Control_AngCalculator(0, 0, 0, 0, 1, 0);
 2081              		.loc 1 492 0
 2082 00bc 9FED270A 		vldr.32	s0, .L107+16
 2083 00c0 F0EE402A 		vmov.f32	s5, s0
 2084 00c4 B7EE002A 		vmov.f32	s4, #1.0e+0
 2085 00c8 F0EE401A 		vmov.f32	s3, s0
 2086 00cc B0EE401A 		vmov.f32	s2, s0
 2087 00d0 F0EE400A 		vmov.f32	s1, s0
 2088 00d4 FFF7FEFF 		bl	Control_AngCalculator
 2089              	.LVL116:
 493:Src/motion.c  ****     motion_end_flag = FALSE;
 2090              		.loc 1 493 0
 2091 00d8 214B     		ldr	r3, .L107+20
 2092 00da 0022     		movs	r2, #0
 2093 00dc 1A70     		strb	r2, [r3]
 2094              	.L104:
 494:Src/motion.c  ****     while (motion_end_flag == FALSE)
 2095              		.loc 1 494 0 discriminator 1
 2096 00de 204B     		ldr	r3, .L107+20
 2097 00e0 1B78     		ldrb	r3, [r3]	@ zero_extendqisi2
 2098 00e2 002B     		cmp	r3, #0
 2099 00e4 FBD0     		beq	.L104
 495:Src/motion.c  ****     {
 496:Src/motion.c  ****     }
 497:Src/motion.c  ****     enc.offset = 0.0f;
 2100              		.loc 1 497 0
 2101 00e6 1A4B     		ldr	r3, .L107+4
 2102 00e8 0022     		movs	r2, #0
 2103 00ea 9A60     		str	r2, [r3, #8]	@ float
ARM GAS  C:\Users\kotaro\AppData\Local\Temp\ccTjQSLT.s 			page 47


 498:Src/motion.c  ****     prefront_flag = FALSE;
 2104              		.loc 1 498 0
 2105 00ec 224B     		ldr	r3, .L107+44
 2106 00ee 0022     		movs	r2, #0
 2107 00f0 1A80     		strh	r2, [r3]	@ movhi
 499:Src/motion.c  **** }
 2108              		.loc 1 499 0
 2109 00f2 08BD     		pop	{r3, pc}
 2110              	.L106:
 466:Src/motion.c  ****         Control_StrCalculator(90.0f - enc.offset, VELO_S, VELO_S, VELO_S, 1, 1);
 2111              		.loc 1 466 0
 2112 00f4 1020     		movs	r0, #16
 2113 00f6 FFF7FEFF 		bl	Control_WallEdgeAble
 2114              	.LVL117:
 467:Src/motion.c  ****         Control_AngCalculator(0, 0, 0, 0, 1, 0);
 2115              		.loc 1 467 0
 2116 00fa 154B     		ldr	r3, .L107+4
 2117 00fc D3ED027A 		vldr.32	s15, [r3, #8]
 2118 0100 DFED140A 		vldr.32	s1, .L107+8
 2119 0104 F7EE002A 		vmov.f32	s5, #1.0e+0
 2120 0108 B0EE622A 		vmov.f32	s4, s5
 2121 010c F0EE601A 		vmov.f32	s3, s1
 2122 0110 B0EE601A 		vmov.f32	s2, s1
 2123 0114 9FED160A 		vldr.32	s0, .L107+36
 2124 0118 30EE670A 		vsub.f32	s0, s0, s15
 2125 011c FFF7FEFF 		bl	Control_StrCalculator
 2126              	.LVL118:
 468:Src/motion.c  ****         motion_end_flag = FALSE;
 2127              		.loc 1 468 0
 2128 0120 9FED0E0A 		vldr.32	s0, .L107+16
 2129 0124 F0EE402A 		vmov.f32	s5, s0
 2130 0128 B7EE002A 		vmov.f32	s4, #1.0e+0
 2131 012c F0EE401A 		vmov.f32	s3, s0
 2132 0130 B0EE401A 		vmov.f32	s2, s0
 2133 0134 F0EE400A 		vmov.f32	s1, s0
 2134 0138 FFF7FEFF 		bl	Control_AngCalculator
 2135              	.LVL119:
 469:Src/motion.c  ****         while (motion_end_flag == FALSE)
 2136              		.loc 1 469 0
 2137 013c 084B     		ldr	r3, .L107+20
 2138 013e 0022     		movs	r2, #0
 2139 0140 1A70     		strb	r2, [r3]
 2140              	.L100:
 470:Src/motion.c  ****         {
 2141              		.loc 1 470 0 discriminator 1
 2142 0142 074B     		ldr	r3, .L107+20
 2143 0144 1B78     		ldrb	r3, [r3]	@ zero_extendqisi2
 2144 0146 002B     		cmp	r3, #0
 2145 0148 FBD0     		beq	.L100
 2146 014a 86E7     		b	.L101
 2147              	.L108:
 2148              		.align	2
 2149              	.L107:
 2150 014c 00000000 		.word	sen_front
 2151 0150 00000000 		.word	enc
 2152 0154 00001644 		.word	1142292480
 2153 0158 00000842 		.word	1107820544
ARM GAS  C:\Users\kotaro\AppData\Local\Temp\ccTjQSLT.s 			page 48


 2154 015c 00000000 		.word	0
 2155 0160 00000000 		.word	motion_end_flag
 2156 0164 00009643 		.word	1133903872
 2157 0168 00409C46 		.word	1184645120
 2158 016c 00004844 		.word	1145569280
 2159 0170 0000B442 		.word	1119092736
 2160 0174 00003842 		.word	1110966272
 2161 0178 00000000 		.word	.LANCHOR1
 2162              		.cfi_endproc
 2163              	.LFE170:
 2165              		.section	.text.Motion_Switch,"ax",%progbits
 2166              		.align	1
 2167              		.global	Motion_Switch
 2168              		.syntax unified
 2169              		.thumb
 2170              		.thumb_func
 2171              		.fpu fpv4-sp-d16
 2173              	Motion_Switch:
 2174              	.LFB171:
 500:Src/motion.c  **** 
 501:Src/motion.c  **** void Motion_Switch(uint8_t motion)
 502:Src/motion.c  **** {
 2175              		.loc 1 502 0
 2176              		.cfi_startproc
 2177              		@ args = 0, pretend = 0, frame = 0
 2178              		@ frame_needed = 0, uses_anonymous_args = 0
 2179              	.LVL120:
 2180 0000 08B5     		push	{r3, lr}
 2181              	.LCFI33:
 2182              		.cfi_def_cfa_offset 8
 2183              		.cfi_offset 3, -8
 2184              		.cfi_offset 14, -4
 503:Src/motion.c  ****     switch (motion & 0xf)
 2185              		.loc 1 503 0
 2186 0002 00F00F03 		and	r3, r0, #15
 2187 0006 042B     		cmp	r3, #4
 2188 0008 14D8     		bhi	.L110
 2189 000a DFE803F0 		tbb	[pc, r3]
 2190              	.L112:
 2191 000e 03       		.byte	(.L111-.L112)/2
 2192 000f 0A       		.byte	(.L113-.L112)/2
 2193 0010 07       		.byte	(.L114-.L112)/2
 2194 0011 0D       		.byte	(.L115-.L112)/2
 2195 0012 10       		.byte	(.L116-.L112)/2
 2196 0013 00       		.p2align 1
 2197              	.L111:
 504:Src/motion.c  ****     {
 505:Src/motion.c  ****     case FRONT:
 506:Src/motion.c  ****         Motion_SearchStraight(motion >> 4);
 2198              		.loc 1 506 0
 2199 0014 0009     		lsrs	r0, r0, #4
 2200              	.LVL121:
 2201 0016 FFF7FEFF 		bl	Motion_SearchStraight
 2202              	.LVL122:
 2203              	.L109:
 507:Src/motion.c  ****         break;
 508:Src/motion.c  ****     case RIGHT:
ARM GAS  C:\Users\kotaro\AppData\Local\Temp\ccTjQSLT.s 			page 49


 509:Src/motion.c  ****         Motion_RightTurn();
 510:Src/motion.c  ****         break;
 511:Src/motion.c  ****     case LEFT:
 512:Src/motion.c  ****         Motion_LeftTurn();
 513:Src/motion.c  ****         break;
 514:Src/motion.c  ****     case REAR:
 515:Src/motion.c  ****         Motion_SpinTurn();
 516:Src/motion.c  ****         break;
 517:Src/motion.c  ****     case PIVO_REAR:
 518:Src/motion.c  ****         Motion_WallSpinTurn();
 519:Src/motion.c  ****         break;
 520:Src/motion.c  ****     default:
 521:Src/motion.c  ****         motor_flag = FALSE;
 522:Src/motion.c  ****         break;
 523:Src/motion.c  ****     }
 524:Src/motion.c  **** }
 2204              		.loc 1 524 0
 2205 001a 08BD     		pop	{r3, pc}
 2206              	.LVL123:
 2207              	.L114:
 509:Src/motion.c  ****         break;
 2208              		.loc 1 509 0
 2209 001c FFF7FEFF 		bl	Motion_RightTurn
 2210              	.LVL124:
 510:Src/motion.c  ****     case LEFT:
 2211              		.loc 1 510 0
 2212 0020 FBE7     		b	.L109
 2213              	.LVL125:
 2214              	.L113:
 512:Src/motion.c  ****         break;
 2215              		.loc 1 512 0
 2216 0022 FFF7FEFF 		bl	Motion_LeftTurn
 2217              	.LVL126:
 513:Src/motion.c  ****     case REAR:
 2218              		.loc 1 513 0
 2219 0026 F8E7     		b	.L109
 2220              	.LVL127:
 2221              	.L115:
 515:Src/motion.c  ****         break;
 2222              		.loc 1 515 0
 2223 0028 FFF7FEFF 		bl	Motion_SpinTurn
 2224              	.LVL128:
 516:Src/motion.c  ****     case PIVO_REAR:
 2225              		.loc 1 516 0
 2226 002c F5E7     		b	.L109
 2227              	.LVL129:
 2228              	.L116:
 518:Src/motion.c  ****         break;
 2229              		.loc 1 518 0
 2230 002e FFF7FEFF 		bl	Motion_WallSpinTurn
 2231              	.LVL130:
 519:Src/motion.c  ****     default:
 2232              		.loc 1 519 0
 2233 0032 F2E7     		b	.L109
 2234              	.LVL131:
 2235              	.L110:
 521:Src/motion.c  ****         break;
ARM GAS  C:\Users\kotaro\AppData\Local\Temp\ccTjQSLT.s 			page 50


 2236              		.loc 1 521 0
 2237 0034 014B     		ldr	r3, .L119
 2238 0036 0022     		movs	r2, #0
 2239 0038 1A70     		strb	r2, [r3]
 2240              		.loc 1 524 0
 2241 003a EEE7     		b	.L109
 2242              	.L120:
 2243              		.align	2
 2244              	.L119:
 2245 003c 00000000 		.word	motor_flag
 2246              		.cfi_endproc
 2247              	.LFE171:
 2249              		.section	.text.Motion_FastStart,"ax",%progbits
 2250              		.align	1
 2251              		.global	Motion_FastStart
 2252              		.syntax unified
 2253              		.thumb
 2254              		.thumb_func
 2255              		.fpu fpv4-sp-d16
 2257              	Motion_FastStart:
 2258              	.LFB172:
 525:Src/motion.c  **** 
 526:Src/motion.c  **** void Motion_FastStart(uint8_t step, float velo_end)
 527:Src/motion.c  **** {
 2259              		.loc 1 527 0
 2260              		.cfi_startproc
 2261              		@ args = 0, pretend = 0, frame = 0
 2262              		@ frame_needed = 0, uses_anonymous_args = 0
 2263              	.LVL132:
 2264 0000 10B5     		push	{r4, lr}
 2265              	.LCFI34:
 2266              		.cfi_def_cfa_offset 8
 2267              		.cfi_offset 4, -8
 2268              		.cfi_offset 14, -4
 2269 0002 2DED028B 		vpush.64	{d8}
 2270              	.LCFI35:
 2271              		.cfi_def_cfa_offset 16
 2272              		.cfi_offset 80, -16
 2273              		.cfi_offset 81, -12
 2274 0006 0446     		mov	r4, r0
 2275 0008 F0EE408A 		vmov.f32	s17, s0
 528:Src/motion.c  ****     diagonal_step = 90.0f * (float)sqrt(2);
 2276              		.loc 1 528 0
 2277 000c 294B     		ldr	r3, .L128
 2278 000e 2A4A     		ldr	r2, .L128+4
 2279 0010 1A60     		str	r2, [r3]	@ float
 529:Src/motion.c  ****     Control_ResetVelo();
 2280              		.loc 1 529 0
 2281 0012 FFF7FEFF 		bl	Control_ResetVelo
 2282              	.LVL133:
 530:Src/motion.c  ****     float velo = VELO_F;
 531:Src/motion.c  ****     if (step > 1)
 2283              		.loc 1 531 0
 2284 0016 012C     		cmp	r4, #1
 2285 0018 49D9     		bls	.L125
 532:Src/motion.c  ****     {
 533:Src/motion.c  ****         velo = VELO_F + gain_velo * (float)(step - 1);
ARM GAS  C:\Users\kotaro\AppData\Local\Temp\ccTjQSLT.s 			page 51


 2286              		.loc 1 533 0
 2287 001a 631E     		subs	r3, r4, #1
 2288 001c 01EE103A 		vmov	s2, r3	@ int
 2289 0020 B8EEC11A 		vcvt.f32.s32	s2, s2
 2290 0024 254B     		ldr	r3, .L128+8
 2291 0026 D3ED007A 		vldr.32	s15, [r3]
 2292 002a 21EE271A 		vmul.f32	s2, s2, s15
 2293 002e DFED247A 		vldr.32	s15, .L128+12
 2294 0032 31EE271A 		vadd.f32	s2, s2, s15
 2295              	.LVL134:
 2296              	.L122:
 534:Src/motion.c  ****     }
 535:Src/motion.c  ****     if (velo > 2400)
 2297              		.loc 1 535 0
 2298 0036 DFED237A 		vldr.32	s15, .L128+16
 2299 003a B4EEE71A 		vcmpe.f32	s2, s15
 2300 003e F1EE10FA 		vmrs	APSR_nzcv, FPSCR
 2301 0042 01DD     		ble	.L123
 536:Src/motion.c  ****     {
 537:Src/motion.c  ****         velo = 2400;
 2302              		.loc 1 537 0
 2303 0044 B0EE671A 		vmov.f32	s2, s15
 2304              	.LVL135:
 2305              	.L123:
 538:Src/motion.c  ****     }
 539:Src/motion.c  ****     Control_StrCalculator(40.0f + 90.0f * (float)step, 0.0f, velo, velo_end, ACCEL_F, 1);
 2306              		.loc 1 539 0
 2307 0048 07EE904A 		vmov	s15, r4	@ int
 2308 004c F8EE677A 		vcvt.f32.u32	s15, s15
 2309 0050 9FED1D0A 		vldr.32	s0, .L128+20
 2310 0054 67EE807A 		vmul.f32	s15, s15, s0
 2311 0058 9FED1C8A 		vldr.32	s16, .L128+24
 2312 005c F7EE002A 		vmov.f32	s5, #1.0e+0
 2313 0060 9FED1B2A 		vldr.32	s4, .L128+28
 2314 0064 F0EE681A 		vmov.f32	s3, s17
 2315 0068 F0EE480A 		vmov.f32	s1, s16
 2316 006c 9FED190A 		vldr.32	s0, .L128+32
 2317 0070 37EE800A 		vadd.f32	s0, s15, s0
 2318 0074 FFF7FEFF 		bl	Control_StrCalculator
 2319              	.LVL136:
 540:Src/motion.c  ****     Control_AngCalculator(0, 0, 0, 0, 1, 0);
 2320              		.loc 1 540 0
 2321 0078 F0EE482A 		vmov.f32	s5, s16
 2322 007c B7EE002A 		vmov.f32	s4, #1.0e+0
 2323 0080 F0EE481A 		vmov.f32	s3, s16
 2324 0084 B0EE481A 		vmov.f32	s2, s16
 2325 0088 F0EE480A 		vmov.f32	s1, s16
 2326 008c B0EE480A 		vmov.f32	s0, s16
 2327 0090 FFF7FEFF 		bl	Control_AngCalculator
 2328              	.LVL137:
 541:Src/motion.c  ****     motion_end_flag = FALSE;
 2329              		.loc 1 541 0
 2330 0094 104B     		ldr	r3, .L128+36
 2331 0096 0022     		movs	r2, #0
 2332 0098 1A70     		strb	r2, [r3]
 2333              	.L124:
 542:Src/motion.c  ****     while (motion_end_flag == FALSE)
ARM GAS  C:\Users\kotaro\AppData\Local\Temp\ccTjQSLT.s 			page 52


 2334              		.loc 1 542 0 discriminator 1
 2335 009a 0F4B     		ldr	r3, .L128+36
 2336 009c 1B78     		ldrb	r3, [r3]	@ zero_extendqisi2
 2337 009e 002B     		cmp	r3, #0
 2338 00a0 FBD0     		beq	.L124
 543:Src/motion.c  ****     {
 544:Src/motion.c  ****     }
 545:Src/motion.c  ****     enc.offset = 0.0f;
 2339              		.loc 1 545 0
 2340 00a2 0E4B     		ldr	r3, .L128+40
 2341 00a4 0022     		movs	r2, #0
 2342 00a6 9A60     		str	r2, [r3, #8]	@ float
 546:Src/motion.c  **** }
 2343              		.loc 1 546 0
 2344 00a8 BDEC028B 		vldm	sp!, {d8}
 2345              	.LCFI36:
 2346              		.cfi_remember_state
 2347              		.cfi_restore 80
 2348              		.cfi_restore 81
 2349              		.cfi_def_cfa_offset 8
 2350 00ac 10BD     		pop	{r4, pc}
 2351              	.LVL138:
 2352              	.L125:
 2353              	.LCFI37:
 2354              		.cfi_restore_state
 530:Src/motion.c  ****     if (step > 1)
 2355              		.loc 1 530 0
 2356 00ae 9FED041A 		vldr.32	s2, .L128+12
 2357 00b2 C0E7     		b	.L122
 2358              	.L129:
 2359              		.align	2
 2360              	.L128:
 2361 00b4 00000000 		.word	.LANCHOR6
 2362 00b8 F68EFE42 		.word	1123978998
 2363 00bc 00000000 		.word	.LANCHOR0
 2364 00c0 00004844 		.word	1145569280
 2365 00c4 00001645 		.word	1159069696
 2366 00c8 0000B442 		.word	1119092736
 2367 00cc 00000000 		.word	0
 2368 00d0 0000FA45 		.word	1174011904
 2369 00d4 00002042 		.word	1109393408
 2370 00d8 00000000 		.word	motion_end_flag
 2371 00dc 00000000 		.word	enc
 2372              		.cfi_endproc
 2373              	.LFE172:
 2375              		.section	.text.Motion_FastStraight,"ax",%progbits
 2376              		.align	1
 2377              		.global	Motion_FastStraight
 2378              		.syntax unified
 2379              		.thumb
 2380              		.thumb_func
 2381              		.fpu fpv4-sp-d16
 2383              	Motion_FastStraight:
 2384              	.LFB173:
 547:Src/motion.c  **** 
 548:Src/motion.c  **** void Motion_FastStraight(uint8_t step, float v_start, float v_end)
 549:Src/motion.c  **** {
ARM GAS  C:\Users\kotaro\AppData\Local\Temp\ccTjQSLT.s 			page 53


 2385              		.loc 1 549 0
 2386              		.cfi_startproc
 2387              		@ args = 0, pretend = 0, frame = 0
 2388              		@ frame_needed = 0, uses_anonymous_args = 0
 2389              	.LVL139:
 2390 0000 08B5     		push	{r3, lr}
 2391              	.LCFI38:
 2392              		.cfi_def_cfa_offset 8
 2393              		.cfi_offset 3, -8
 2394              		.cfi_offset 14, -4
 2395 0002 F0EE601A 		vmov.f32	s3, s1
 550:Src/motion.c  ****     float velo = VELO_F + gain_velo * (float)step;
 2396              		.loc 1 550 0
 2397 0006 07EE900A 		vmov	s15, r0	@ int
 2398 000a F8EE677A 		vcvt.f32.u32	s15, s15
 2399 000e 1E4B     		ldr	r3, .L135
 2400 0010 93ED001A 		vldr.32	s2, [r3]
 2401 0014 27EE811A 		vmul.f32	s2, s15, s2
 2402 0018 9FED1C7A 		vldr.32	s14, .L135+4
 2403 001c 31EE071A 		vadd.f32	s2, s2, s14
 2404              	.LVL140:
 551:Src/motion.c  ****     if (velo > 2400)
 2405              		.loc 1 551 0
 2406 0020 9FED1B7A 		vldr.32	s14, .L135+8
 2407 0024 B4EEC71A 		vcmpe.f32	s2, s14
 2408 0028 F1EE10FA 		vmrs	APSR_nzcv, FPSCR
 2409 002c 01DD     		ble	.L131
 552:Src/motion.c  ****     {
 553:Src/motion.c  ****         velo = 2400;
 2410              		.loc 1 553 0
 2411 002e B0EE471A 		vmov.f32	s2, s14
 2412              	.LVL141:
 2413              	.L131:
 554:Src/motion.c  ****     }
 555:Src/motion.c  ****     Control_StrCalculator(90.0f * (float)step - enc.offset, v_start, velo, v_end, ACCEL_F, 1);
 2414              		.loc 1 555 0
 2415 0032 9FED187A 		vldr.32	s14, .L135+12
 2416 0036 67EE877A 		vmul.f32	s15, s15, s14
 2417 003a 174B     		ldr	r3, .L135+16
 2418 003c 93ED027A 		vldr.32	s14, [r3, #8]
 2419 0040 F7EE002A 		vmov.f32	s5, #1.0e+0
 2420 0044 9FED152A 		vldr.32	s4, .L135+20
 2421 0048 F0EE400A 		vmov.f32	s1, s0
 2422              	.LVL142:
 2423 004c 37EEC70A 		vsub.f32	s0, s15, s14
 2424              	.LVL143:
 2425 0050 FFF7FEFF 		bl	Control_StrCalculator
 2426              	.LVL144:
 556:Src/motion.c  ****     Control_AngCalculator(0, 0, 0, 0, 1, 0);
 2427              		.loc 1 556 0
 2428 0054 9FED120A 		vldr.32	s0, .L135+24
 2429 0058 F0EE402A 		vmov.f32	s5, s0
 2430 005c B7EE002A 		vmov.f32	s4, #1.0e+0
 2431 0060 F0EE401A 		vmov.f32	s3, s0
 2432 0064 B0EE401A 		vmov.f32	s2, s0
 2433 0068 F0EE400A 		vmov.f32	s1, s0
 2434 006c FFF7FEFF 		bl	Control_AngCalculator
ARM GAS  C:\Users\kotaro\AppData\Local\Temp\ccTjQSLT.s 			page 54


 2435              	.LVL145:
 557:Src/motion.c  ****     motion_end_flag = FALSE;
 2436              		.loc 1 557 0
 2437 0070 0C4B     		ldr	r3, .L135+28
 2438 0072 0022     		movs	r2, #0
 2439 0074 1A70     		strb	r2, [r3]
 2440              	.L132:
 558:Src/motion.c  ****     while (motion_end_flag == FALSE)
 2441              		.loc 1 558 0 discriminator 1
 2442 0076 0B4B     		ldr	r3, .L135+28
 2443 0078 1B78     		ldrb	r3, [r3]	@ zero_extendqisi2
 2444 007a 002B     		cmp	r3, #0
 2445 007c FBD0     		beq	.L132
 559:Src/motion.c  ****     {
 560:Src/motion.c  ****     }
 561:Src/motion.c  ****     enc.offset = 0.0f;
 2446              		.loc 1 561 0
 2447 007e 064B     		ldr	r3, .L135+16
 2448 0080 0022     		movs	r2, #0
 2449 0082 9A60     		str	r2, [r3, #8]	@ float
 562:Src/motion.c  **** }
 2450              		.loc 1 562 0
 2451 0084 08BD     		pop	{r3, pc}
 2452              	.L136:
 2453 0086 00BF     		.align	2
 2454              	.L135:
 2455 0088 00000000 		.word	.LANCHOR0
 2456 008c 00004844 		.word	1145569280
 2457 0090 00001645 		.word	1159069696
 2458 0094 0000B442 		.word	1119092736
 2459 0098 00000000 		.word	enc
 2460 009c 0000FA45 		.word	1174011904
 2461 00a0 00000000 		.word	0
 2462 00a4 00000000 		.word	motion_end_flag
 2463              		.cfi_endproc
 2464              	.LFE173:
 2466              		.section	.text.Motion_Adjust,"ax",%progbits
 2467              		.align	1
 2468              		.global	Motion_Adjust
 2469              		.syntax unified
 2470              		.thumb
 2471              		.thumb_func
 2472              		.fpu fpv4-sp-d16
 2474              	Motion_Adjust:
 2475              	.LFB174:
 563:Src/motion.c  **** 
 564:Src/motion.c  **** void Motion_Adjust(uint16_t step, float velo_s)
 565:Src/motion.c  **** {
 2476              		.loc 1 565 0
 2477              		.cfi_startproc
 2478              		@ args = 0, pretend = 0, frame = 0
 2479              		@ frame_needed = 0, uses_anonymous_args = 0
 2480              	.LVL146:
 2481 0000 08B5     		push	{r3, lr}
 2482              	.LCFI39:
 2483              		.cfi_def_cfa_offset 8
 2484              		.cfi_offset 3, -8
ARM GAS  C:\Users\kotaro\AppData\Local\Temp\ccTjQSLT.s 			page 55


 2485              		.cfi_offset 14, -4
 566:Src/motion.c  ****     if (step == 1)
 2486              		.loc 1 566 0
 2487 0002 0128     		cmp	r0, #1
 2488 0004 2BD0     		beq	.L142
 567:Src/motion.c  ****     {
 568:Src/motion.c  ****         Control_StrCalculator(110.0f - enc.offset, velo_s, VELO_F, VELO_F, ACCEL_F, 1); //110
 569:Src/motion.c  ****         Control_AngCalculator(0, 0, 0, 0, 1, 0);
 570:Src/motion.c  ****     }
 571:Src/motion.c  ****     else
 572:Src/motion.c  ****     {
 573:Src/motion.c  ****         Control_StrCalculator(180.0f - enc.offset, VELO_S, VELO_S, VELO_S, 1, 1);
 2489              		.loc 1 573 0
 2490 0006 274B     		ldr	r3, .L143
 2491 0008 D3ED027A 		vldr.32	s15, [r3, #8]
 2492 000c DFED260A 		vldr.32	s1, .L143+4
 2493 0010 F7EE002A 		vmov.f32	s5, #1.0e+0
 2494 0014 B0EE622A 		vmov.f32	s4, s5
 2495 0018 F0EE601A 		vmov.f32	s3, s1
 2496 001c B0EE601A 		vmov.f32	s2, s1
 2497 0020 9FED220A 		vldr.32	s0, .L143+8
 2498              	.LVL147:
 2499 0024 30EE670A 		vsub.f32	s0, s0, s15
 2500 0028 FFF7FEFF 		bl	Control_StrCalculator
 2501              	.LVL148:
 574:Src/motion.c  ****         Control_AngCalculator(0, 0, 0, 0, 1, 0);
 2502              		.loc 1 574 0
 2503 002c 9FED200A 		vldr.32	s0, .L143+12
 2504 0030 F0EE402A 		vmov.f32	s5, s0
 2505 0034 B7EE002A 		vmov.f32	s4, #1.0e+0
 2506 0038 F0EE401A 		vmov.f32	s3, s0
 2507 003c B0EE401A 		vmov.f32	s2, s0
 2508 0040 F0EE400A 		vmov.f32	s1, s0
 2509 0044 FFF7FEFF 		bl	Control_AngCalculator
 2510              	.LVL149:
 2511              	.L139:
 575:Src/motion.c  ****     }
 576:Src/motion.c  ****     motion_end_flag = FALSE;
 2512              		.loc 1 576 0
 2513 0048 1A4B     		ldr	r3, .L143+16
 2514 004a 0022     		movs	r2, #0
 2515 004c 1A70     		strb	r2, [r3]
 2516              	.L140:
 577:Src/motion.c  ****     while (motion_end_flag == FALSE)
 2517              		.loc 1 577 0 discriminator 1
 2518 004e 194B     		ldr	r3, .L143+16
 2519 0050 1B78     		ldrb	r3, [r3]	@ zero_extendqisi2
 2520 0052 002B     		cmp	r3, #0
 2521 0054 FBD0     		beq	.L140
 578:Src/motion.c  ****     {
 579:Src/motion.c  ****     }
 580:Src/motion.c  ****     enc.offset = 0.0f;
 2522              		.loc 1 580 0
 2523 0056 134B     		ldr	r3, .L143
 2524 0058 0022     		movs	r2, #0
 2525 005a 9A60     		str	r2, [r3, #8]	@ float
 581:Src/motion.c  **** }
ARM GAS  C:\Users\kotaro\AppData\Local\Temp\ccTjQSLT.s 			page 56


 2526              		.loc 1 581 0
 2527 005c 08BD     		pop	{r3, pc}
 2528              	.LVL150:
 2529              	.L142:
 568:Src/motion.c  ****         Control_AngCalculator(0, 0, 0, 0, 1, 0);
 2530              		.loc 1 568 0
 2531 005e 114B     		ldr	r3, .L143
 2532 0060 D3ED027A 		vldr.32	s15, [r3, #8]
 2533 0064 9FED141A 		vldr.32	s2, .L143+20
 2534 0068 F7EE002A 		vmov.f32	s5, #1.0e+0
 2535 006c 9FED132A 		vldr.32	s4, .L143+24
 2536 0070 F0EE411A 		vmov.f32	s3, s2
 2537 0074 F0EE400A 		vmov.f32	s1, s0
 2538 0078 9FED110A 		vldr.32	s0, .L143+28
 2539              	.LVL151:
 2540 007c 30EE670A 		vsub.f32	s0, s0, s15
 2541 0080 FFF7FEFF 		bl	Control_StrCalculator
 2542              	.LVL152:
 569:Src/motion.c  ****     }
 2543              		.loc 1 569 0
 2544 0084 9FED0A0A 		vldr.32	s0, .L143+12
 2545 0088 F0EE402A 		vmov.f32	s5, s0
 2546 008c B7EE002A 		vmov.f32	s4, #1.0e+0
 2547 0090 F0EE401A 		vmov.f32	s3, s0
 2548 0094 B0EE401A 		vmov.f32	s2, s0
 2549 0098 F0EE400A 		vmov.f32	s1, s0
 2550 009c FFF7FEFF 		bl	Control_AngCalculator
 2551              	.LVL153:
 2552 00a0 D2E7     		b	.L139
 2553              	.L144:
 2554 00a2 00BF     		.align	2
 2555              	.L143:
 2556 00a4 00000000 		.word	enc
 2557 00a8 00001644 		.word	1142292480
 2558 00ac 00003443 		.word	1127481344
 2559 00b0 00000000 		.word	0
 2560 00b4 00000000 		.word	motion_end_flag
 2561 00b8 00004844 		.word	1145569280
 2562 00bc 0000FA45 		.word	1174011904
 2563 00c0 0000DC42 		.word	1121714176
 2564              		.cfi_endproc
 2565              	.LFE174:
 2567              		.section	.text.Motion_Adjust_L,"ax",%progbits
 2568              		.align	1
 2569              		.global	Motion_Adjust_L
 2570              		.syntax unified
 2571              		.thumb
 2572              		.thumb_func
 2573              		.fpu fpv4-sp-d16
 2575              	Motion_Adjust_L:
 2576              	.LFB175:
 582:Src/motion.c  **** 
 583:Src/motion.c  **** void Motion_Adjust_L(uint16_t step, float velo_s)
 584:Src/motion.c  **** {
 2577              		.loc 1 584 0
 2578              		.cfi_startproc
 2579              		@ args = 0, pretend = 0, frame = 0
ARM GAS  C:\Users\kotaro\AppData\Local\Temp\ccTjQSLT.s 			page 57


 2580              		@ frame_needed = 0, uses_anonymous_args = 0
 2581              	.LVL154:
 2582 0000 08B5     		push	{r3, lr}
 2583              	.LCFI40:
 2584              		.cfi_def_cfa_offset 8
 2585              		.cfi_offset 3, -8
 2586              		.cfi_offset 14, -4
 2587 0002 2DED028B 		vpush.64	{d8}
 2588              	.LCFI41:
 2589              		.cfi_def_cfa_offset 16
 2590              		.cfi_offset 80, -16
 2591              		.cfi_offset 81, -12
 585:Src/motion.c  ****     if (step == 1)
 2592              		.loc 1 585 0
 2593 0006 0128     		cmp	r0, #1
 2594 0008 4ED0     		beq	.L151
 586:Src/motion.c  ****     {
 587:Src/motion.c  ****         Control_WallEdgeAble(0b10);
 588:Src/motion.c  ****         Control_StrCalculator(90.0f, velo_s, VELO_F, VELO_F, ACCEL_F, 1);
 589:Src/motion.c  ****         Control_AngCalculator(0, 0, 0, 0, 1, 0);
 590:Src/motion.c  ****     }
 591:Src/motion.c  ****     else
 592:Src/motion.c  ****     {
 593:Src/motion.c  ****         Control_WallEdgeAble(0b10);
 2595              		.loc 1 593 0
 2596 000a 0220     		movs	r0, #2
 2597              	.LVL155:
 2598 000c FFF7FEFF 		bl	Control_WallEdgeAble
 2599              	.LVL156:
 594:Src/motion.c  ****         Control_StrCalculator(90.0f, VELO_S, VELO_S, VELO_S, 1, 1);
 2600              		.loc 1 594 0
 2601 0010 DFED360A 		vldr.32	s1, .L152
 2602 0014 F7EE002A 		vmov.f32	s5, #1.0e+0
 2603 0018 B0EE622A 		vmov.f32	s4, s5
 2604 001c F0EE601A 		vmov.f32	s3, s1
 2605 0020 B0EE601A 		vmov.f32	s2, s1
 2606 0024 9FED320A 		vldr.32	s0, .L152+4
 2607 0028 FFF7FEFF 		bl	Control_StrCalculator
 2608              	.LVL157:
 595:Src/motion.c  ****         Control_AngCalculator(0, 0, 0, 0, 1, 0);
 2609              		.loc 1 595 0
 2610 002c 9FED310A 		vldr.32	s0, .L152+8
 2611 0030 F0EE402A 		vmov.f32	s5, s0
 2612 0034 B7EE002A 		vmov.f32	s4, #1.0e+0
 2613 0038 F0EE401A 		vmov.f32	s3, s0
 2614 003c B0EE401A 		vmov.f32	s2, s0
 2615 0040 F0EE400A 		vmov.f32	s1, s0
 2616 0044 FFF7FEFF 		bl	Control_AngCalculator
 2617              	.LVL158:
 596:Src/motion.c  ****         motion_end_flag = FALSE;
 2618              		.loc 1 596 0
 2619 0048 2B4B     		ldr	r3, .L152+12
 2620 004a 0022     		movs	r2, #0
 2621 004c 1A70     		strb	r2, [r3]
 2622              	.L148:
 597:Src/motion.c  ****         while (motion_end_flag == FALSE)
 2623              		.loc 1 597 0 discriminator 1
ARM GAS  C:\Users\kotaro\AppData\Local\Temp\ccTjQSLT.s 			page 58


 2624 004e 2A4B     		ldr	r3, .L152+12
 2625 0050 1B78     		ldrb	r3, [r3]	@ zero_extendqisi2
 2626 0052 002B     		cmp	r3, #0
 2627 0054 FBD0     		beq	.L148
 598:Src/motion.c  ****         {
 599:Src/motion.c  ****         }
 600:Src/motion.c  ****         Control_StrCalculator(90.0f, VELO_S, VELO_S, VELO_S, 1, 1);
 2628              		.loc 1 600 0
 2629 0056 DFED250A 		vldr.32	s1, .L152
 2630 005a F7EE002A 		vmov.f32	s5, #1.0e+0
 2631 005e B0EE622A 		vmov.f32	s4, s5
 2632 0062 F0EE601A 		vmov.f32	s3, s1
 2633 0066 B0EE601A 		vmov.f32	s2, s1
 2634 006a 9FED210A 		vldr.32	s0, .L152+4
 2635 006e FFF7FEFF 		bl	Control_StrCalculator
 2636              	.LVL159:
 601:Src/motion.c  ****         Control_AngCalculator(0, 0, 0, 0, 1, 0);
 2637              		.loc 1 601 0
 2638 0072 9FED200A 		vldr.32	s0, .L152+8
 2639 0076 F0EE402A 		vmov.f32	s5, s0
 2640 007a B7EE002A 		vmov.f32	s4, #1.0e+0
 2641 007e F0EE401A 		vmov.f32	s3, s0
 2642 0082 B0EE401A 		vmov.f32	s2, s0
 2643 0086 F0EE400A 		vmov.f32	s1, s0
 2644 008a FFF7FEFF 		bl	Control_AngCalculator
 2645              	.LVL160:
 2646              	.L147:
 602:Src/motion.c  ****     }
 603:Src/motion.c  ****     motion_end_flag = FALSE;
 2647              		.loc 1 603 0
 2648 008e 1A4B     		ldr	r3, .L152+12
 2649 0090 0022     		movs	r2, #0
 2650 0092 1A70     		strb	r2, [r3]
 2651              	.L149:
 604:Src/motion.c  ****     while (motion_end_flag == FALSE)
 2652              		.loc 1 604 0 discriminator 1
 2653 0094 184B     		ldr	r3, .L152+12
 2654 0096 1B78     		ldrb	r3, [r3]	@ zero_extendqisi2
 2655 0098 002B     		cmp	r3, #0
 2656 009a FBD0     		beq	.L149
 605:Src/motion.c  ****     {
 606:Src/motion.c  ****     }
 607:Src/motion.c  ****     enc.offset = 0.0f;
 2657              		.loc 1 607 0
 2658 009c 174B     		ldr	r3, .L152+16
 2659 009e 0022     		movs	r2, #0
 2660 00a0 9A60     		str	r2, [r3, #8]	@ float
 608:Src/motion.c  **** }
 2661              		.loc 1 608 0
 2662 00a2 BDEC028B 		vldm	sp!, {d8}
 2663              	.LCFI42:
 2664              		.cfi_remember_state
 2665              		.cfi_restore 80
 2666              		.cfi_restore 81
 2667              		.cfi_def_cfa_offset 8
 2668 00a6 08BD     		pop	{r3, pc}
 2669              	.LVL161:
ARM GAS  C:\Users\kotaro\AppData\Local\Temp\ccTjQSLT.s 			page 59


 2670              	.L151:
 2671              	.LCFI43:
 2672              		.cfi_restore_state
 2673 00a8 B0EE408A 		vmov.f32	s16, s0
 587:Src/motion.c  ****         Control_StrCalculator(90.0f, velo_s, VELO_F, VELO_F, ACCEL_F, 1);
 2674              		.loc 1 587 0
 2675 00ac 0220     		movs	r0, #2
 2676              	.LVL162:
 2677 00ae FFF7FEFF 		bl	Control_WallEdgeAble
 2678              	.LVL163:
 588:Src/motion.c  ****         Control_AngCalculator(0, 0, 0, 0, 1, 0);
 2679              		.loc 1 588 0
 2680 00b2 9FED131A 		vldr.32	s2, .L152+20
 2681 00b6 F7EE002A 		vmov.f32	s5, #1.0e+0
 2682 00ba 9FED122A 		vldr.32	s4, .L152+24
 2683 00be F0EE411A 		vmov.f32	s3, s2
 2684 00c2 F0EE480A 		vmov.f32	s1, s16
 2685 00c6 9FED0A0A 		vldr.32	s0, .L152+4
 2686 00ca FFF7FEFF 		bl	Control_StrCalculator
 2687              	.LVL164:
 589:Src/motion.c  ****     }
 2688              		.loc 1 589 0
 2689 00ce 9FED090A 		vldr.32	s0, .L152+8
 2690 00d2 F0EE402A 		vmov.f32	s5, s0
 2691 00d6 B7EE002A 		vmov.f32	s4, #1.0e+0
 2692 00da F0EE401A 		vmov.f32	s3, s0
 2693 00de B0EE401A 		vmov.f32	s2, s0
 2694 00e2 F0EE400A 		vmov.f32	s1, s0
 2695 00e6 FFF7FEFF 		bl	Control_AngCalculator
 2696              	.LVL165:
 2697 00ea D0E7     		b	.L147
 2698              	.L153:
 2699              		.align	2
 2700              	.L152:
 2701 00ec 00001644 		.word	1142292480
 2702 00f0 0000B442 		.word	1119092736
 2703 00f4 00000000 		.word	0
 2704 00f8 00000000 		.word	motion_end_flag
 2705 00fc 00000000 		.word	enc
 2706 0100 00004844 		.word	1145569280
 2707 0104 0000FA45 		.word	1174011904
 2708              		.cfi_endproc
 2709              	.LFE175:
 2711              		.section	.text.Motion_Adjust_R,"ax",%progbits
 2712              		.align	1
 2713              		.global	Motion_Adjust_R
 2714              		.syntax unified
 2715              		.thumb
 2716              		.thumb_func
 2717              		.fpu fpv4-sp-d16
 2719              	Motion_Adjust_R:
 2720              	.LFB176:
 609:Src/motion.c  **** 
 610:Src/motion.c  **** void Motion_Adjust_R(uint16_t step, float velo_s)
 611:Src/motion.c  **** {
 2721              		.loc 1 611 0
 2722              		.cfi_startproc
ARM GAS  C:\Users\kotaro\AppData\Local\Temp\ccTjQSLT.s 			page 60


 2723              		@ args = 0, pretend = 0, frame = 0
 2724              		@ frame_needed = 0, uses_anonymous_args = 0
 2725              	.LVL166:
 2726 0000 08B5     		push	{r3, lr}
 2727              	.LCFI44:
 2728              		.cfi_def_cfa_offset 8
 2729              		.cfi_offset 3, -8
 2730              		.cfi_offset 14, -4
 2731 0002 2DED028B 		vpush.64	{d8}
 2732              	.LCFI45:
 2733              		.cfi_def_cfa_offset 16
 2734              		.cfi_offset 80, -16
 2735              		.cfi_offset 81, -12
 612:Src/motion.c  ****     if (step == 1)
 2736              		.loc 1 612 0
 2737 0006 0128     		cmp	r0, #1
 2738 0008 4ED0     		beq	.L160
 613:Src/motion.c  ****     {
 614:Src/motion.c  ****         Control_WallEdgeAble(0b01);
 615:Src/motion.c  ****         Control_StrCalculator(90.0f, velo_s, VELO_F, VELO_F, ACCEL_F, 1);
 616:Src/motion.c  ****         Control_AngCalculator(0, 0, 0, 0, 1, 0);
 617:Src/motion.c  ****     }
 618:Src/motion.c  ****     else
 619:Src/motion.c  ****     {
 620:Src/motion.c  ****         Control_WallEdgeAble(0b01);
 2739              		.loc 1 620 0
 2740 000a 0120     		movs	r0, #1
 2741              	.LVL167:
 2742 000c FFF7FEFF 		bl	Control_WallEdgeAble
 2743              	.LVL168:
 621:Src/motion.c  ****         Control_StrCalculator(90.0f, VELO_S, VELO_S, VELO_S, 1, 1);
 2744              		.loc 1 621 0
 2745 0010 DFED360A 		vldr.32	s1, .L161
 2746 0014 F7EE002A 		vmov.f32	s5, #1.0e+0
 2747 0018 B0EE622A 		vmov.f32	s4, s5
 2748 001c F0EE601A 		vmov.f32	s3, s1
 2749 0020 B0EE601A 		vmov.f32	s2, s1
 2750 0024 9FED320A 		vldr.32	s0, .L161+4
 2751 0028 FFF7FEFF 		bl	Control_StrCalculator
 2752              	.LVL169:
 622:Src/motion.c  ****         Control_AngCalculator(0, 0, 0, 0, 1, 0);
 2753              		.loc 1 622 0
 2754 002c 9FED310A 		vldr.32	s0, .L161+8
 2755 0030 F0EE402A 		vmov.f32	s5, s0
 2756 0034 B7EE002A 		vmov.f32	s4, #1.0e+0
 2757 0038 F0EE401A 		vmov.f32	s3, s0
 2758 003c B0EE401A 		vmov.f32	s2, s0
 2759 0040 F0EE400A 		vmov.f32	s1, s0
 2760 0044 FFF7FEFF 		bl	Control_AngCalculator
 2761              	.LVL170:
 623:Src/motion.c  ****         motion_end_flag = FALSE;
 2762              		.loc 1 623 0
 2763 0048 2B4B     		ldr	r3, .L161+12
 2764 004a 0022     		movs	r2, #0
 2765 004c 1A70     		strb	r2, [r3]
 2766              	.L157:
 624:Src/motion.c  ****         while (motion_end_flag == FALSE)
ARM GAS  C:\Users\kotaro\AppData\Local\Temp\ccTjQSLT.s 			page 61


 2767              		.loc 1 624 0 discriminator 1
 2768 004e 2A4B     		ldr	r3, .L161+12
 2769 0050 1B78     		ldrb	r3, [r3]	@ zero_extendqisi2
 2770 0052 002B     		cmp	r3, #0
 2771 0054 FBD0     		beq	.L157
 625:Src/motion.c  ****         {
 626:Src/motion.c  ****         }
 627:Src/motion.c  ****         Control_StrCalculator(90.0f, VELO_S, VELO_S, VELO_S, 1, 1);
 2772              		.loc 1 627 0
 2773 0056 DFED250A 		vldr.32	s1, .L161
 2774 005a F7EE002A 		vmov.f32	s5, #1.0e+0
 2775 005e B0EE622A 		vmov.f32	s4, s5
 2776 0062 F0EE601A 		vmov.f32	s3, s1
 2777 0066 B0EE601A 		vmov.f32	s2, s1
 2778 006a 9FED210A 		vldr.32	s0, .L161+4
 2779 006e FFF7FEFF 		bl	Control_StrCalculator
 2780              	.LVL171:
 628:Src/motion.c  ****         Control_AngCalculator(0, 0, 0, 0, 1, 0);
 2781              		.loc 1 628 0
 2782 0072 9FED200A 		vldr.32	s0, .L161+8
 2783 0076 F0EE402A 		vmov.f32	s5, s0
 2784 007a B7EE002A 		vmov.f32	s4, #1.0e+0
 2785 007e F0EE401A 		vmov.f32	s3, s0
 2786 0082 B0EE401A 		vmov.f32	s2, s0
 2787 0086 F0EE400A 		vmov.f32	s1, s0
 2788 008a FFF7FEFF 		bl	Control_AngCalculator
 2789              	.LVL172:
 2790              	.L156:
 629:Src/motion.c  ****     }
 630:Src/motion.c  ****     motion_end_flag = FALSE;
 2791              		.loc 1 630 0
 2792 008e 1A4B     		ldr	r3, .L161+12
 2793 0090 0022     		movs	r2, #0
 2794 0092 1A70     		strb	r2, [r3]
 2795              	.L158:
 631:Src/motion.c  ****     while (motion_end_flag == FALSE)
 2796              		.loc 1 631 0 discriminator 1
 2797 0094 184B     		ldr	r3, .L161+12
 2798 0096 1B78     		ldrb	r3, [r3]	@ zero_extendqisi2
 2799 0098 002B     		cmp	r3, #0
 2800 009a FBD0     		beq	.L158
 632:Src/motion.c  ****     {
 633:Src/motion.c  ****     }
 634:Src/motion.c  ****     enc.offset = 0.0f;
 2801              		.loc 1 634 0
 2802 009c 174B     		ldr	r3, .L161+16
 2803 009e 0022     		movs	r2, #0
 2804 00a0 9A60     		str	r2, [r3, #8]	@ float
 635:Src/motion.c  **** }
 2805              		.loc 1 635 0
 2806 00a2 BDEC028B 		vldm	sp!, {d8}
 2807              	.LCFI46:
 2808              		.cfi_remember_state
 2809              		.cfi_restore 80
 2810              		.cfi_restore 81
 2811              		.cfi_def_cfa_offset 8
 2812 00a6 08BD     		pop	{r3, pc}
ARM GAS  C:\Users\kotaro\AppData\Local\Temp\ccTjQSLT.s 			page 62


 2813              	.LVL173:
 2814              	.L160:
 2815              	.LCFI47:
 2816              		.cfi_restore_state
 2817 00a8 B0EE408A 		vmov.f32	s16, s0
 614:Src/motion.c  ****         Control_StrCalculator(90.0f, velo_s, VELO_F, VELO_F, ACCEL_F, 1);
 2818              		.loc 1 614 0
 2819 00ac FFF7FEFF 		bl	Control_WallEdgeAble
 2820              	.LVL174:
 615:Src/motion.c  ****         Control_AngCalculator(0, 0, 0, 0, 1, 0);
 2821              		.loc 1 615 0
 2822 00b0 9FED131A 		vldr.32	s2, .L161+20
 2823 00b4 F7EE002A 		vmov.f32	s5, #1.0e+0
 2824 00b8 9FED122A 		vldr.32	s4, .L161+24
 2825 00bc F0EE411A 		vmov.f32	s3, s2
 2826 00c0 F0EE480A 		vmov.f32	s1, s16
 2827 00c4 9FED0A0A 		vldr.32	s0, .L161+4
 2828 00c8 FFF7FEFF 		bl	Control_StrCalculator
 2829              	.LVL175:
 616:Src/motion.c  ****     }
 2830              		.loc 1 616 0
 2831 00cc 9FED090A 		vldr.32	s0, .L161+8
 2832 00d0 F0EE402A 		vmov.f32	s5, s0
 2833 00d4 B7EE002A 		vmov.f32	s4, #1.0e+0
 2834 00d8 F0EE401A 		vmov.f32	s3, s0
 2835 00dc B0EE401A 		vmov.f32	s2, s0
 2836 00e0 F0EE400A 		vmov.f32	s1, s0
 2837 00e4 FFF7FEFF 		bl	Control_AngCalculator
 2838              	.LVL176:
 2839 00e8 D1E7     		b	.L156
 2840              	.L162:
 2841 00ea 00BF     		.align	2
 2842              	.L161:
 2843 00ec 00001644 		.word	1142292480
 2844 00f0 0000B442 		.word	1119092736
 2845 00f4 00000000 		.word	0
 2846 00f8 00000000 		.word	motion_end_flag
 2847 00fc 00000000 		.word	enc
 2848 0100 00004844 		.word	1145569280
 2849 0104 0000FA45 		.word	1174011904
 2850              		.cfi_endproc
 2851              	.LFE176:
 2853              		.section	.text.Motion_FastGoal,"ax",%progbits
 2854              		.align	1
 2855              		.global	Motion_FastGoal
 2856              		.syntax unified
 2857              		.thumb
 2858              		.thumb_func
 2859              		.fpu fpv4-sp-d16
 2861              	Motion_FastGoal:
 2862              	.LFB177:
 636:Src/motion.c  **** 
 637:Src/motion.c  **** void Motion_FastGoal(uint8_t step, float v_start)
 638:Src/motion.c  **** {
 2863              		.loc 1 638 0
 2864              		.cfi_startproc
 2865              		@ args = 0, pretend = 0, frame = 0
ARM GAS  C:\Users\kotaro\AppData\Local\Temp\ccTjQSLT.s 			page 63


 2866              		@ frame_needed = 0, uses_anonymous_args = 0
 2867              	.LVL177:
 2868 0000 08B5     		push	{r3, lr}
 2869              	.LCFI48:
 2870              		.cfi_def_cfa_offset 8
 2871              		.cfi_offset 3, -8
 2872              		.cfi_offset 14, -4
 2873 0002 2DED028B 		vpush.64	{d8}
 2874              	.LCFI49:
 2875              		.cfi_def_cfa_offset 16
 2876              		.cfi_offset 80, -16
 2877              		.cfi_offset 81, -12
 2878 0006 F0EE400A 		vmov.f32	s1, s0
 2879              	.LVL178:
 639:Src/motion.c  ****     float velo = VELO_F;
 640:Src/motion.c  ****     if (step > 1)
 2880              		.loc 1 640 0
 2881 000a 0128     		cmp	r0, #1
 2882 000c 50D9     		bls	.L167
 641:Src/motion.c  ****     {
 642:Src/motion.c  ****         velo = VELO_F + gain_velo * (step - 1);
 2883              		.loc 1 642 0
 2884 000e 431E     		subs	r3, r0, #1
 2885 0010 01EE103A 		vmov	s2, r3	@ int
 2886 0014 B8EEC11A 		vcvt.f32.s32	s2, s2
 2887 0018 274B     		ldr	r3, .L170
 2888 001a D3ED007A 		vldr.32	s15, [r3]
 2889 001e 21EE271A 		vmul.f32	s2, s2, s15
 2890 0022 DFED267A 		vldr.32	s15, .L170+4
 2891 0026 31EE271A 		vadd.f32	s2, s2, s15
 2892              	.LVL179:
 2893              	.L164:
 643:Src/motion.c  ****     }
 644:Src/motion.c  ****     if (velo > 2400)
 2894              		.loc 1 644 0
 2895 002a DFED257A 		vldr.32	s15, .L170+8
 2896 002e B4EEE71A 		vcmpe.f32	s2, s15
 2897 0032 F1EE10FA 		vmrs	APSR_nzcv, FPSCR
 2898 0036 01DD     		ble	.L165
 645:Src/motion.c  ****     {
 646:Src/motion.c  ****         velo = 2400;
 2899              		.loc 1 646 0
 2900 0038 B0EE671A 		vmov.f32	s2, s15
 2901              	.LVL180:
 2902              	.L165:
 647:Src/motion.c  ****     }
 648:Src/motion.c  ****     Control_StrCalculator(90.0f + 90.0f * (float)step - enc.offset, v_start, velo, 0, ACCEL_F, 1);
 2903              		.loc 1 648 0
 2904 003c 07EE900A 		vmov	s15, r0	@ int
 2905 0040 F8EE677A 		vcvt.f32.u32	s15, s15
 2906 0044 9FED1F7A 		vldr.32	s14, .L170+12
 2907 0048 67EE877A 		vmul.f32	s15, s15, s14
 2908 004c 77EE877A 		vadd.f32	s15, s15, s14
 2909 0050 1D4B     		ldr	r3, .L170+16
 2910 0052 93ED020A 		vldr.32	s0, [r3, #8]
 2911              	.LVL181:
 2912 0056 9FED1D8A 		vldr.32	s16, .L170+20
ARM GAS  C:\Users\kotaro\AppData\Local\Temp\ccTjQSLT.s 			page 64


 2913 005a F7EE002A 		vmov.f32	s5, #1.0e+0
 2914 005e 9FED1C2A 		vldr.32	s4, .L170+24
 2915 0062 F0EE481A 		vmov.f32	s3, s16
 2916 0066 37EEC00A 		vsub.f32	s0, s15, s0
 2917 006a FFF7FEFF 		bl	Control_StrCalculator
 2918              	.LVL182:
 649:Src/motion.c  ****     Control_AngCalculator(0, 0, 0, 0, 1, 0);
 2919              		.loc 1 649 0
 2920 006e F0EE482A 		vmov.f32	s5, s16
 2921 0072 B7EE002A 		vmov.f32	s4, #1.0e+0
 2922 0076 F0EE481A 		vmov.f32	s3, s16
 2923 007a B0EE481A 		vmov.f32	s2, s16
 2924 007e F0EE480A 		vmov.f32	s1, s16
 2925 0082 B0EE480A 		vmov.f32	s0, s16
 2926 0086 FFF7FEFF 		bl	Control_AngCalculator
 2927              	.LVL183:
 650:Src/motion.c  ****     motion_end_flag = FALSE;
 2928              		.loc 1 650 0
 2929 008a 124B     		ldr	r3, .L170+28
 2930 008c 0022     		movs	r2, #0
 2931 008e 1A70     		strb	r2, [r3]
 2932              	.L166:
 651:Src/motion.c  ****     while (motion_end_flag == FALSE)
 2933              		.loc 1 651 0 discriminator 1
 2934 0090 104B     		ldr	r3, .L170+28
 2935 0092 1B78     		ldrb	r3, [r3]	@ zero_extendqisi2
 2936 0094 002B     		cmp	r3, #0
 2937 0096 FBD0     		beq	.L166
 652:Src/motion.c  ****     {
 653:Src/motion.c  ****     }
 654:Src/motion.c  ****     straight.v_now = 0;
 2938              		.loc 1 654 0
 2939 0098 0023     		movs	r3, #0
 2940 009a 0F4A     		ldr	r2, .L170+32
 2941 009c D360     		str	r3, [r2, #12]	@ float
 655:Src/motion.c  ****     angle.v_now = 0;
 2942              		.loc 1 655 0
 2943 009e 0F4A     		ldr	r2, .L170+36
 2944 00a0 D360     		str	r3, [r2, #12]	@ float
 656:Src/motion.c  ****     HAL_Delay(800);
 2945              		.loc 1 656 0
 2946 00a2 4FF44870 		mov	r0, #800
 2947 00a6 FFF7FEFF 		bl	HAL_Delay
 2948              	.LVL184:
 657:Src/motion.c  **** }
 2949              		.loc 1 657 0
 2950 00aa BDEC028B 		vldm	sp!, {d8}
 2951              	.LCFI50:
 2952              		.cfi_remember_state
 2953              		.cfi_restore 80
 2954              		.cfi_restore 81
 2955              		.cfi_def_cfa_offset 8
 2956 00ae 08BD     		pop	{r3, pc}
 2957              	.LVL185:
 2958              	.L167:
 2959              	.LCFI51:
 2960              		.cfi_restore_state
ARM GAS  C:\Users\kotaro\AppData\Local\Temp\ccTjQSLT.s 			page 65


 639:Src/motion.c  ****     if (step > 1)
 2961              		.loc 1 639 0
 2962 00b0 9FED021A 		vldr.32	s2, .L170+4
 2963 00b4 B9E7     		b	.L164
 2964              	.L171:
 2965 00b6 00BF     		.align	2
 2966              	.L170:
 2967 00b8 00000000 		.word	.LANCHOR0
 2968 00bc 00004844 		.word	1145569280
 2969 00c0 00001645 		.word	1159069696
 2970 00c4 0000B442 		.word	1119092736
 2971 00c8 00000000 		.word	enc
 2972 00cc 00000000 		.word	0
 2973 00d0 0000FA45 		.word	1174011904
 2974 00d4 00000000 		.word	motion_end_flag
 2975 00d8 00000000 		.word	straight
 2976 00dc 00000000 		.word	angle
 2977              		.cfi_endproc
 2978              	.LFE177:
 2980              		.section	.text.Motion_Diagonal,"ax",%progbits
 2981              		.align	1
 2982              		.global	Motion_Diagonal
 2983              		.syntax unified
 2984              		.thumb
 2985              		.thumb_func
 2986              		.fpu fpv4-sp-d16
 2988              	Motion_Diagonal:
 2989              	.LFB178:
 658:Src/motion.c  **** 
 659:Src/motion.c  **** void Motion_Diagonal(uint8_t step)
 660:Src/motion.c  **** {
 2990              		.loc 1 660 0
 2991              		.cfi_startproc
 2992              		@ args = 0, pretend = 0, frame = 0
 2993              		@ frame_needed = 0, uses_anonymous_args = 0
 2994              	.LVL186:
 2995 0000 08B5     		push	{r3, lr}
 2996              	.LCFI52:
 2997              		.cfi_def_cfa_offset 8
 2998              		.cfi_offset 3, -8
 2999              		.cfi_offset 14, -4
 661:Src/motion.c  ****     Control_StrCalculator(diagonal_step * (float)step - enc.offset, VELO_F, VELO_F, VELO_F, ACCEL_F
 3000              		.loc 1 661 0
 3001 0002 07EE900A 		vmov	s15, r0	@ int
 3002 0006 F8EE677A 		vcvt.f32.u32	s15, s15
 3003 000a 174B     		ldr	r3, .L175
 3004 000c 93ED000A 		vldr.32	s0, [r3]
 3005 0010 67EE807A 		vmul.f32	s15, s15, s0
 3006 0014 154B     		ldr	r3, .L175+4
 3007 0016 93ED020A 		vldr.32	s0, [r3, #8]
 3008 001a DFED150A 		vldr.32	s1, .L175+8
 3009 001e F7EE002A 		vmov.f32	s5, #1.0e+0
 3010 0022 9FED142A 		vldr.32	s4, .L175+12
 3011 0026 F0EE601A 		vmov.f32	s3, s1
 3012 002a B0EE601A 		vmov.f32	s2, s1
 3013 002e 37EEC00A 		vsub.f32	s0, s15, s0
 3014 0032 FFF7FEFF 		bl	Control_StrCalculator
ARM GAS  C:\Users\kotaro\AppData\Local\Temp\ccTjQSLT.s 			page 66


 3015              	.LVL187:
 662:Src/motion.c  ****     Control_AngCalculator(0, 0, 0, 0, 1, 0);
 3016              		.loc 1 662 0
 3017 0036 9FED100A 		vldr.32	s0, .L175+16
 3018 003a F0EE402A 		vmov.f32	s5, s0
 3019 003e B7EE002A 		vmov.f32	s4, #1.0e+0
 3020 0042 F0EE401A 		vmov.f32	s3, s0
 3021 0046 B0EE401A 		vmov.f32	s2, s0
 3022 004a F0EE400A 		vmov.f32	s1, s0
 3023 004e FFF7FEFF 		bl	Control_AngCalculator
 3024              	.LVL188:
 663:Src/motion.c  ****     motion_end_flag = FALSE;
 3025              		.loc 1 663 0
 3026 0052 0A4B     		ldr	r3, .L175+20
 3027 0054 0022     		movs	r2, #0
 3028 0056 1A70     		strb	r2, [r3]
 3029              	.L173:
 664:Src/motion.c  ****     while (motion_end_flag == FALSE)
 3030              		.loc 1 664 0 discriminator 1
 3031 0058 084B     		ldr	r3, .L175+20
 3032 005a 1B78     		ldrb	r3, [r3]	@ zero_extendqisi2
 3033 005c 002B     		cmp	r3, #0
 3034 005e FBD0     		beq	.L173
 665:Src/motion.c  ****     {
 666:Src/motion.c  ****     }
 667:Src/motion.c  ****     enc.offset = 0.0f;
 3035              		.loc 1 667 0
 3036 0060 024B     		ldr	r3, .L175+4
 3037 0062 0022     		movs	r2, #0
 3038 0064 9A60     		str	r2, [r3, #8]	@ float
 668:Src/motion.c  **** }
 3039              		.loc 1 668 0
 3040 0066 08BD     		pop	{r3, pc}
 3041              	.L176:
 3042              		.align	2
 3043              	.L175:
 3044 0068 00000000 		.word	.LANCHOR6
 3045 006c 00000000 		.word	enc
 3046 0070 00004844 		.word	1145569280
 3047 0074 0000FA45 		.word	1174011904
 3048 0078 00000000 		.word	0
 3049 007c 00000000 		.word	motion_end_flag
 3050              		.cfi_endproc
 3051              	.LFE178:
 3053              		.section	.text.Motion_DiagonalLeft,"ax",%progbits
 3054              		.align	1
 3055              		.global	Motion_DiagonalLeft
 3056              		.syntax unified
 3057              		.thumb
 3058              		.thumb_func
 3059              		.fpu fpv4-sp-d16
 3061              	Motion_DiagonalLeft:
 3062              	.LFB179:
 669:Src/motion.c  **** 
 670:Src/motion.c  **** void Motion_DiagonalLeft(uint8_t step)
 671:Src/motion.c  **** {
 3063              		.loc 1 671 0
ARM GAS  C:\Users\kotaro\AppData\Local\Temp\ccTjQSLT.s 			page 67


 3064              		.cfi_startproc
 3065              		@ args = 0, pretend = 0, frame = 0
 3066              		@ frame_needed = 0, uses_anonymous_args = 0
 3067              	.LVL189:
 3068 0000 08B5     		push	{r3, lr}
 3069              	.LCFI53:
 3070              		.cfi_def_cfa_offset 8
 3071              		.cfi_offset 3, -8
 3072              		.cfi_offset 14, -4
 672:Src/motion.c  ****     if (step > 1)
 3073              		.loc 1 672 0
 3074 0002 0128     		cmp	r0, #1
 3075 0004 46D9     		bls	.L178
 3076              	.LBB8:
 673:Src/motion.c  ****     {
 674:Src/motion.c  ****         step--;
 3077              		.loc 1 674 0
 3078 0006 0138     		subs	r0, r0, #1
 3079              	.LVL190:
 3080 0008 C3B2     		uxtb	r3, r0
 3081 000a 00EE103A 		vmov	s0, r3	@ int
 3082              	.LVL191:
 675:Src/motion.c  ****         float velo = VELO_F + gain_velo * 0.5f * step;
 3083              		.loc 1 675 0
 3084 000e 374B     		ldr	r3, .L184
 3085 0010 93ED001A 		vldr.32	s2, [r3]
 3086 0014 F6EE007A 		vmov.f32	s15, #5.0e-1
 3087 0018 61EE277A 		vmul.f32	s15, s2, s15
 3088 001c B8EEC01A 		vcvt.f32.s32	s2, s0
 3089 0020 21EE271A 		vmul.f32	s2, s2, s15
 3090 0024 DFED327A 		vldr.32	s15, .L184+4
 3091 0028 31EE271A 		vadd.f32	s2, s2, s15
 3092              	.LVL192:
 676:Src/motion.c  ****         if (velo > 2400.0f)
 3093              		.loc 1 676 0
 3094 002c DFED317A 		vldr.32	s15, .L184+8
 3095 0030 B4EEE71A 		vcmpe.f32	s2, s15
 3096 0034 F1EE10FA 		vmrs	APSR_nzcv, FPSCR
 3097 0038 01DD     		ble	.L179
 677:Src/motion.c  ****         {
 678:Src/motion.c  ****             velo = 2400.0f;
 3098              		.loc 1 678 0
 3099 003a B0EE671A 		vmov.f32	s2, s15
 3100              	.LVL193:
 3101              	.L179:
 679:Src/motion.c  ****         }
 680:Src/motion.c  ****         Control_StrCalculator(diagonal_step * (float)step - enc.offset, VELO_F, velo, VELO_F, 6000.
 3102              		.loc 1 680 0
 3103 003e B8EE400A 		vcvt.f32.u32	s0, s0
 3104 0042 2D4B     		ldr	r3, .L184+12
 3105 0044 D3ED007A 		vldr.32	s15, [r3]
 3106 0048 20EE270A 		vmul.f32	s0, s0, s15
 3107 004c 2B4B     		ldr	r3, .L184+16
 3108 004e D3ED027A 		vldr.32	s15, [r3, #8]
 3109 0052 DFED270A 		vldr.32	s1, .L184+4
 3110 0056 F7EE002A 		vmov.f32	s5, #1.0e+0
 3111 005a 9FED292A 		vldr.32	s4, .L184+20
ARM GAS  C:\Users\kotaro\AppData\Local\Temp\ccTjQSLT.s 			page 68


 3112 005e F0EE601A 		vmov.f32	s3, s1
 3113 0062 30EE670A 		vsub.f32	s0, s0, s15
 3114 0066 FFF7FEFF 		bl	Control_StrCalculator
 3115              	.LVL194:
 681:Src/motion.c  ****         Control_AngCalculator(0, 0, 0, 0, 1, 0);
 3116              		.loc 1 681 0
 3117 006a 9FED260A 		vldr.32	s0, .L184+24
 3118 006e F0EE402A 		vmov.f32	s5, s0
 3119 0072 B7EE002A 		vmov.f32	s4, #1.0e+0
 3120 0076 F0EE401A 		vmov.f32	s3, s0
 3121 007a B0EE401A 		vmov.f32	s2, s0
 3122 007e F0EE400A 		vmov.f32	s1, s0
 3123 0082 FFF7FEFF 		bl	Control_AngCalculator
 3124              	.LVL195:
 682:Src/motion.c  ****         motion_end_flag = FALSE;
 3125              		.loc 1 682 0
 3126 0086 204B     		ldr	r3, .L184+28
 3127 0088 0022     		movs	r2, #0
 3128 008a 1A70     		strb	r2, [r3]
 3129              	.L180:
 683:Src/motion.c  ****         while (motion_end_flag == FALSE)
 3130              		.loc 1 683 0 discriminator 1
 3131 008c 1E4B     		ldr	r3, .L184+28
 3132 008e 1B78     		ldrb	r3, [r3]	@ zero_extendqisi2
 3133 0090 002B     		cmp	r3, #0
 3134 0092 FBD0     		beq	.L180
 3135              	.L178:
 3136              	.LBE8:
 684:Src/motion.c  ****         {
 685:Src/motion.c  ****         }
 686:Src/motion.c  ****     }
 687:Src/motion.c  ****     Control_WallEdgeAble(0b1000);
 3137              		.loc 1 687 0
 3138 0094 0820     		movs	r0, #8
 3139 0096 FFF7FEFF 		bl	Control_WallEdgeAble
 3140              	.LVL196:
 688:Src/motion.c  ****     Control_StrCalculator(diagonal_step, VELO_F, VELO_F, VELO_F, 6000.0f, 1); //26
 3141              		.loc 1 688 0
 3142 009a DFED150A 		vldr.32	s1, .L184+4
 3143 009e F7EE002A 		vmov.f32	s5, #1.0e+0
 3144 00a2 9FED172A 		vldr.32	s4, .L184+20
 3145 00a6 F0EE601A 		vmov.f32	s3, s1
 3146 00aa B0EE601A 		vmov.f32	s2, s1
 3147 00ae 124B     		ldr	r3, .L184+12
 3148 00b0 93ED000A 		vldr.32	s0, [r3]
 3149 00b4 FFF7FEFF 		bl	Control_StrCalculator
 3150              	.LVL197:
 689:Src/motion.c  ****     Control_AngCalculator(0, 0, 0, 0, 1, 0);
 3151              		.loc 1 689 0
 3152 00b8 9FED120A 		vldr.32	s0, .L184+24
 3153 00bc F0EE402A 		vmov.f32	s5, s0
 3154 00c0 B7EE002A 		vmov.f32	s4, #1.0e+0
 3155 00c4 F0EE401A 		vmov.f32	s3, s0
 3156 00c8 B0EE401A 		vmov.f32	s2, s0
 3157 00cc F0EE400A 		vmov.f32	s1, s0
 3158 00d0 FFF7FEFF 		bl	Control_AngCalculator
 3159              	.LVL198:
ARM GAS  C:\Users\kotaro\AppData\Local\Temp\ccTjQSLT.s 			page 69


 690:Src/motion.c  ****     motion_end_flag = FALSE;
 3160              		.loc 1 690 0
 3161 00d4 0C4B     		ldr	r3, .L184+28
 3162 00d6 0022     		movs	r2, #0
 3163 00d8 1A70     		strb	r2, [r3]
 3164              	.L181:
 691:Src/motion.c  ****     while (motion_end_flag == FALSE)
 3165              		.loc 1 691 0 discriminator 1
 3166 00da 0B4B     		ldr	r3, .L184+28
 3167 00dc 1B78     		ldrb	r3, [r3]	@ zero_extendqisi2
 3168 00de 002B     		cmp	r3, #0
 3169 00e0 FBD0     		beq	.L181
 692:Src/motion.c  ****     {
 693:Src/motion.c  ****     }
 694:Src/motion.c  ****     enc.offset = 0.0f;
 3170              		.loc 1 694 0
 3171 00e2 064B     		ldr	r3, .L184+16
 3172 00e4 0022     		movs	r2, #0
 3173 00e6 9A60     		str	r2, [r3, #8]	@ float
 695:Src/motion.c  **** }
 3174              		.loc 1 695 0
 3175 00e8 08BD     		pop	{r3, pc}
 3176              	.L185:
 3177 00ea 00BF     		.align	2
 3178              	.L184:
 3179 00ec 00000000 		.word	.LANCHOR0
 3180 00f0 00004844 		.word	1145569280
 3181 00f4 00001645 		.word	1159069696
 3182 00f8 00000000 		.word	.LANCHOR6
 3183 00fc 00000000 		.word	enc
 3184 0100 0080BB45 		.word	1169915904
 3185 0104 00000000 		.word	0
 3186 0108 00000000 		.word	motion_end_flag
 3187              		.cfi_endproc
 3188              	.LFE179:
 3190              		.section	.text.Motion_DiagonalRight,"ax",%progbits
 3191              		.align	1
 3192              		.global	Motion_DiagonalRight
 3193              		.syntax unified
 3194              		.thumb
 3195              		.thumb_func
 3196              		.fpu fpv4-sp-d16
 3198              	Motion_DiagonalRight:
 3199              	.LFB180:
 696:Src/motion.c  **** 
 697:Src/motion.c  **** void Motion_DiagonalRight(uint8_t step)
 698:Src/motion.c  **** {
 3200              		.loc 1 698 0
 3201              		.cfi_startproc
 3202              		@ args = 0, pretend = 0, frame = 0
 3203              		@ frame_needed = 0, uses_anonymous_args = 0
 3204              	.LVL199:
 3205 0000 08B5     		push	{r3, lr}
 3206              	.LCFI54:
 3207              		.cfi_def_cfa_offset 8
 3208              		.cfi_offset 3, -8
 3209              		.cfi_offset 14, -4
ARM GAS  C:\Users\kotaro\AppData\Local\Temp\ccTjQSLT.s 			page 70


 699:Src/motion.c  ****     if (step > 1)
 3210              		.loc 1 699 0
 3211 0002 0128     		cmp	r0, #1
 3212 0004 44D9     		bls	.L187
 3213              	.LBB9:
 700:Src/motion.c  ****     {
 701:Src/motion.c  ****         step--;
 3214              		.loc 1 701 0
 3215 0006 0138     		subs	r0, r0, #1
 3216              	.LVL200:
 3217 0008 C0B2     		uxtb	r0, r0
 3218              	.LVL201:
 702:Src/motion.c  ****         float velo = VELO_F + gain_velo * 0.5f * (float)step;
 3219              		.loc 1 702 0
 3220 000a 374B     		ldr	r3, .L193
 3221 000c 93ED001A 		vldr.32	s2, [r3]
 3222 0010 F6EE007A 		vmov.f32	s15, #5.0e-1
 3223 0014 21EE271A 		vmul.f32	s2, s2, s15
 3224 0018 07EE900A 		vmov	s15, r0	@ int
 3225 001c B8EE670A 		vcvt.f32.u32	s0, s15
 3226 0020 21EE001A 		vmul.f32	s2, s2, s0
 3227 0024 DFED317A 		vldr.32	s15, .L193+4
 3228 0028 31EE271A 		vadd.f32	s2, s2, s15
 3229              	.LVL202:
 703:Src/motion.c  ****         if (velo > 2400.0f)
 3230              		.loc 1 703 0
 3231 002c DFED307A 		vldr.32	s15, .L193+8
 3232 0030 B4EEE71A 		vcmpe.f32	s2, s15
 3233 0034 F1EE10FA 		vmrs	APSR_nzcv, FPSCR
 3234 0038 01DD     		ble	.L188
 704:Src/motion.c  ****         {
 705:Src/motion.c  ****             velo = 2400.0f;
 3235              		.loc 1 705 0
 3236 003a B0EE671A 		vmov.f32	s2, s15
 3237              	.LVL203:
 3238              	.L188:
 706:Src/motion.c  ****         }
 707:Src/motion.c  ****         Control_StrCalculator(diagonal_step * (float)step - enc.offset, VELO_F, velo, VELO_F, 6000.
 3239              		.loc 1 707 0
 3240 003e 2D4B     		ldr	r3, .L193+12
 3241 0040 D3ED007A 		vldr.32	s15, [r3]
 3242 0044 20EE270A 		vmul.f32	s0, s0, s15
 3243 0048 2B4B     		ldr	r3, .L193+16
 3244 004a D3ED027A 		vldr.32	s15, [r3, #8]
 3245 004e DFED270A 		vldr.32	s1, .L193+4
 3246 0052 F7EE002A 		vmov.f32	s5, #1.0e+0
 3247 0056 9FED292A 		vldr.32	s4, .L193+20
 3248 005a F0EE601A 		vmov.f32	s3, s1
 3249 005e 30EE670A 		vsub.f32	s0, s0, s15
 3250 0062 FFF7FEFF 		bl	Control_StrCalculator
 3251              	.LVL204:
 708:Src/motion.c  ****         Control_AngCalculator(0, 0, 0, 0, 1, 0);
 3252              		.loc 1 708 0
 3253 0066 9FED260A 		vldr.32	s0, .L193+24
 3254 006a F0EE402A 		vmov.f32	s5, s0
 3255 006e B7EE002A 		vmov.f32	s4, #1.0e+0
 3256 0072 F0EE401A 		vmov.f32	s3, s0
ARM GAS  C:\Users\kotaro\AppData\Local\Temp\ccTjQSLT.s 			page 71


 3257 0076 B0EE401A 		vmov.f32	s2, s0
 3258 007a F0EE400A 		vmov.f32	s1, s0
 3259 007e FFF7FEFF 		bl	Control_AngCalculator
 3260              	.LVL205:
 709:Src/motion.c  ****         motion_end_flag = FALSE;
 3261              		.loc 1 709 0
 3262 0082 204B     		ldr	r3, .L193+28
 3263 0084 0022     		movs	r2, #0
 3264 0086 1A70     		strb	r2, [r3]
 3265              	.L189:
 710:Src/motion.c  ****         while (motion_end_flag == FALSE)
 3266              		.loc 1 710 0 discriminator 1
 3267 0088 1E4B     		ldr	r3, .L193+28
 3268 008a 1B78     		ldrb	r3, [r3]	@ zero_extendqisi2
 3269 008c 002B     		cmp	r3, #0
 3270 008e FBD0     		beq	.L189
 3271              	.L187:
 3272              	.LBE9:
 711:Src/motion.c  ****         {
 712:Src/motion.c  ****         }
 713:Src/motion.c  ****     }
 714:Src/motion.c  ****     Control_WallEdgeAble(0b0100);
 3273              		.loc 1 714 0
 3274 0090 0420     		movs	r0, #4
 3275 0092 FFF7FEFF 		bl	Control_WallEdgeAble
 3276              	.LVL206:
 715:Src/motion.c  ****     Control_StrCalculator(diagonal_step, VELO_F, VELO_F, VELO_F, 6000.0f, 1); //20
 3277              		.loc 1 715 0
 3278 0096 DFED150A 		vldr.32	s1, .L193+4
 3279 009a F7EE002A 		vmov.f32	s5, #1.0e+0
 3280 009e 9FED172A 		vldr.32	s4, .L193+20
 3281 00a2 F0EE601A 		vmov.f32	s3, s1
 3282 00a6 B0EE601A 		vmov.f32	s2, s1
 3283 00aa 124B     		ldr	r3, .L193+12
 3284 00ac 93ED000A 		vldr.32	s0, [r3]
 3285 00b0 FFF7FEFF 		bl	Control_StrCalculator
 3286              	.LVL207:
 716:Src/motion.c  ****     Control_AngCalculator(0, 0, 0, 0, 1, 0);
 3287              		.loc 1 716 0
 3288 00b4 9FED120A 		vldr.32	s0, .L193+24
 3289 00b8 F0EE402A 		vmov.f32	s5, s0
 3290 00bc B7EE002A 		vmov.f32	s4, #1.0e+0
 3291 00c0 F0EE401A 		vmov.f32	s3, s0
 3292 00c4 B0EE401A 		vmov.f32	s2, s0
 3293 00c8 F0EE400A 		vmov.f32	s1, s0
 3294 00cc FFF7FEFF 		bl	Control_AngCalculator
 3295              	.LVL208:
 717:Src/motion.c  ****     motion_end_flag = FALSE;
 3296              		.loc 1 717 0
 3297 00d0 0C4B     		ldr	r3, .L193+28
 3298 00d2 0022     		movs	r2, #0
 3299 00d4 1A70     		strb	r2, [r3]
 3300              	.L190:
 718:Src/motion.c  ****     while (motion_end_flag == FALSE)
 3301              		.loc 1 718 0 discriminator 1
 3302 00d6 0B4B     		ldr	r3, .L193+28
 3303 00d8 1B78     		ldrb	r3, [r3]	@ zero_extendqisi2
ARM GAS  C:\Users\kotaro\AppData\Local\Temp\ccTjQSLT.s 			page 72


 3304 00da 002B     		cmp	r3, #0
 3305 00dc FBD0     		beq	.L190
 719:Src/motion.c  ****     {
 720:Src/motion.c  ****     }
 721:Src/motion.c  ****     enc.offset = 0.0f;
 3306              		.loc 1 721 0
 3307 00de 064B     		ldr	r3, .L193+16
 3308 00e0 0022     		movs	r2, #0
 3309 00e2 9A60     		str	r2, [r3, #8]	@ float
 722:Src/motion.c  **** }
 3310              		.loc 1 722 0
 3311 00e4 08BD     		pop	{r3, pc}
 3312              	.L194:
 3313 00e6 00BF     		.align	2
 3314              	.L193:
 3315 00e8 00000000 		.word	.LANCHOR0
 3316 00ec 00004844 		.word	1145569280
 3317 00f0 00001645 		.word	1159069696
 3318 00f4 00000000 		.word	.LANCHOR6
 3319 00f8 00000000 		.word	enc
 3320 00fc 0080BB45 		.word	1169915904
 3321 0100 00000000 		.word	0
 3322 0104 00000000 		.word	motion_end_flag
 3323              		.cfi_endproc
 3324              	.LFE180:
 3326              		.section	.text.Motion_DiagonalStart,"ax",%progbits
 3327              		.align	1
 3328              		.global	Motion_DiagonalStart
 3329              		.syntax unified
 3330              		.thumb
 3331              		.thumb_func
 3332              		.fpu fpv4-sp-d16
 3334              	Motion_DiagonalStart:
 3335              	.LFB181:
 723:Src/motion.c  **** 
 724:Src/motion.c  **** void Motion_DiagonalStart(void)
 725:Src/motion.c  **** {
 3336              		.loc 1 725 0
 3337              		.cfi_startproc
 3338              		@ args = 0, pretend = 0, frame = 0
 3339              		@ frame_needed = 0, uses_anonymous_args = 0
 3340 0000 08B5     		push	{r3, lr}
 3341              	.LCFI55:
 3342              		.cfi_def_cfa_offset 8
 3343              		.cfi_offset 3, -8
 3344              		.cfi_offset 14, -4
 3345 0002 2DED028B 		vpush.64	{d8}
 3346              	.LCFI56:
 3347              		.cfi_def_cfa_offset 16
 3348              		.cfi_offset 80, -16
 3349              		.cfi_offset 81, -12
 726:Src/motion.c  ****     Control_ResetVelo();
 3350              		.loc 1 726 0
 3351 0006 FFF7FEFF 		bl	Control_ResetVelo
 3352              	.LVL209:
 727:Src/motion.c  ****     diagonal_step = 90.0f * sqrt(2);
 3353              		.loc 1 727 0
ARM GAS  C:\Users\kotaro\AppData\Local\Temp\ccTjQSLT.s 			page 73


 3354 000a 174B     		ldr	r3, .L198
 3355 000c 174A     		ldr	r2, .L198+4
 3356 000e 1A60     		str	r2, [r3]	@ float
 728:Src/motion.c  ****     Control_StrCalculator(diagonal_step * 2.0f, 0, VELO_F, VELO_F, ACCEL_F, 1);
 3357              		.loc 1 728 0
 3358 0010 9FED171A 		vldr.32	s2, .L198+8
 3359 0014 9FED178A 		vldr.32	s16, .L198+12
 3360 0018 F7EE002A 		vmov.f32	s5, #1.0e+0
 3361 001c 9FED162A 		vldr.32	s4, .L198+16
 3362 0020 F0EE411A 		vmov.f32	s3, s2
 3363 0024 F0EE480A 		vmov.f32	s1, s16
 3364 0028 9FED140A 		vldr.32	s0, .L198+20
 3365 002c FFF7FEFF 		bl	Control_StrCalculator
 3366              	.LVL210:
 729:Src/motion.c  ****     Control_AngCalculator(0, 0, 0, 0, 1, 0);
 3367              		.loc 1 729 0
 3368 0030 F0EE482A 		vmov.f32	s5, s16
 3369 0034 B7EE002A 		vmov.f32	s4, #1.0e+0
 3370 0038 F0EE481A 		vmov.f32	s3, s16
 3371 003c B0EE481A 		vmov.f32	s2, s16
 3372 0040 F0EE480A 		vmov.f32	s1, s16
 3373 0044 B0EE480A 		vmov.f32	s0, s16
 3374 0048 FFF7FEFF 		bl	Control_AngCalculator
 3375              	.LVL211:
 730:Src/motion.c  ****     motion_end_flag = FALSE;
 3376              		.loc 1 730 0
 3377 004c 0C4B     		ldr	r3, .L198+24
 3378 004e 0022     		movs	r2, #0
 3379 0050 1A70     		strb	r2, [r3]
 3380              	.L196:
 731:Src/motion.c  ****     while (motion_end_flag == FALSE)
 3381              		.loc 1 731 0 discriminator 1
 3382 0052 0B4B     		ldr	r3, .L198+24
 3383 0054 1B78     		ldrb	r3, [r3]	@ zero_extendqisi2
 3384 0056 002B     		cmp	r3, #0
 3385 0058 FBD0     		beq	.L196
 732:Src/motion.c  ****     {
 733:Src/motion.c  ****     }
 734:Src/motion.c  ****     enc.offset = 0;
 3386              		.loc 1 734 0
 3387 005a 0A4B     		ldr	r3, .L198+28
 3388 005c 0022     		movs	r2, #0
 3389 005e 9A60     		str	r2, [r3, #8]	@ float
 735:Src/motion.c  **** }
 3390              		.loc 1 735 0
 3391 0060 BDEC028B 		vldm	sp!, {d8}
 3392              	.LCFI57:
 3393              		.cfi_restore 80
 3394              		.cfi_restore 81
 3395              		.cfi_def_cfa_offset 8
 3396 0064 08BD     		pop	{r3, pc}
 3397              	.L199:
 3398 0066 00BF     		.align	2
 3399              	.L198:
 3400 0068 00000000 		.word	.LANCHOR6
 3401 006c F68EFE42 		.word	1123978998
 3402 0070 00004844 		.word	1145569280
ARM GAS  C:\Users\kotaro\AppData\Local\Temp\ccTjQSLT.s 			page 74


 3403 0074 00000000 		.word	0
 3404 0078 0000FA45 		.word	1174011904
 3405 007c F68E7E43 		.word	1132367606
 3406 0080 00000000 		.word	motion_end_flag
 3407 0084 00000000 		.word	enc
 3408              		.cfi_endproc
 3409              	.LFE181:
 3411              		.section	.text.Motion_DiagonalStop,"ax",%progbits
 3412              		.align	1
 3413              		.global	Motion_DiagonalStop
 3414              		.syntax unified
 3415              		.thumb
 3416              		.thumb_func
 3417              		.fpu fpv4-sp-d16
 3419              	Motion_DiagonalStop:
 3420              	.LFB182:
 736:Src/motion.c  **** 
 737:Src/motion.c  **** void Motion_DiagonalStop(void)
 738:Src/motion.c  **** {
 3421              		.loc 1 738 0
 3422              		.cfi_startproc
 3423              		@ args = 0, pretend = 0, frame = 0
 3424              		@ frame_needed = 0, uses_anonymous_args = 0
 3425 0000 08B5     		push	{r3, lr}
 3426              	.LCFI58:
 3427              		.cfi_def_cfa_offset 8
 3428              		.cfi_offset 3, -8
 3429              		.cfi_offset 14, -4
 3430 0002 2DED028B 		vpush.64	{d8}
 3431              	.LCFI59:
 3432              		.cfi_def_cfa_offset 16
 3433              		.cfi_offset 80, -16
 3434              		.cfi_offset 81, -12
 739:Src/motion.c  ****     Control_StrCalculator(diagonal_step * 2.0f - enc.offset, VELO_F, VELO_F, 0, ACCEL_F, 1);
 3435              		.loc 1 739 0
 3436 0006 1E4B     		ldr	r3, .L203
 3437 0008 93ED000A 		vldr.32	s0, [r3]
 3438 000c 30EE000A 		vadd.f32	s0, s0, s0
 3439 0010 1C4B     		ldr	r3, .L203+4
 3440 0012 D3ED027A 		vldr.32	s15, [r3, #8]
 3441 0016 9FED1C8A 		vldr.32	s16, .L203+8
 3442 001a DFED1C0A 		vldr.32	s1, .L203+12
 3443 001e F7EE002A 		vmov.f32	s5, #1.0e+0
 3444 0022 9FED1B2A 		vldr.32	s4, .L203+16
 3445 0026 F0EE481A 		vmov.f32	s3, s16
 3446 002a B0EE601A 		vmov.f32	s2, s1
 3447 002e 30EE670A 		vsub.f32	s0, s0, s15
 3448 0032 FFF7FEFF 		bl	Control_StrCalculator
 3449              	.LVL212:
 740:Src/motion.c  ****     Control_AngCalculator(0, 0, 0, 0, 1, 0);
 3450              		.loc 1 740 0
 3451 0036 F0EE482A 		vmov.f32	s5, s16
 3452 003a B7EE002A 		vmov.f32	s4, #1.0e+0
 3453 003e F0EE481A 		vmov.f32	s3, s16
 3454 0042 B0EE481A 		vmov.f32	s2, s16
 3455 0046 F0EE480A 		vmov.f32	s1, s16
 3456 004a B0EE480A 		vmov.f32	s0, s16
ARM GAS  C:\Users\kotaro\AppData\Local\Temp\ccTjQSLT.s 			page 75


 3457 004e FFF7FEFF 		bl	Control_AngCalculator
 3458              	.LVL213:
 741:Src/motion.c  ****     motion_end_flag = FALSE;
 3459              		.loc 1 741 0
 3460 0052 104B     		ldr	r3, .L203+20
 3461 0054 0022     		movs	r2, #0
 3462 0056 1A70     		strb	r2, [r3]
 3463              	.L201:
 742:Src/motion.c  ****     while (motion_end_flag == FALSE)
 3464              		.loc 1 742 0 discriminator 1
 3465 0058 0E4B     		ldr	r3, .L203+20
 3466 005a 1B78     		ldrb	r3, [r3]	@ zero_extendqisi2
 3467 005c 002B     		cmp	r3, #0
 3468 005e FBD0     		beq	.L201
 743:Src/motion.c  ****     {
 744:Src/motion.c  ****     }
 745:Src/motion.c  ****     straight.v_now = 0;
 3469              		.loc 1 745 0
 3470 0060 0023     		movs	r3, #0
 3471 0062 0D4A     		ldr	r2, .L203+24
 3472 0064 D360     		str	r3, [r2, #12]	@ float
 746:Src/motion.c  ****     angle.v_now = 0;
 3473              		.loc 1 746 0
 3474 0066 0D4A     		ldr	r2, .L203+28
 3475 0068 D360     		str	r3, [r2, #12]	@ float
 747:Src/motion.c  ****     error_ang_sum = 0.0f;
 3476              		.loc 1 747 0
 3477 006a 0D4A     		ldr	r2, .L203+32
 3478 006c 1360     		str	r3, [r2]	@ float
 748:Src/motion.c  ****     error_ang_old = 0.0f;
 3479              		.loc 1 748 0
 3480 006e 0D4A     		ldr	r2, .L203+36
 3481 0070 1360     		str	r3, [r2]	@ float
 749:Src/motion.c  ****     HAL_Delay(500);
 3482              		.loc 1 749 0
 3483 0072 4FF4FA70 		mov	r0, #500
 3484 0076 FFF7FEFF 		bl	HAL_Delay
 3485              	.LVL214:
 750:Src/motion.c  **** }
 3486              		.loc 1 750 0
 3487 007a BDEC028B 		vldm	sp!, {d8}
 3488              	.LCFI60:
 3489              		.cfi_restore 80
 3490              		.cfi_restore 81
 3491              		.cfi_def_cfa_offset 8
 3492 007e 08BD     		pop	{r3, pc}
 3493              	.L204:
 3494              		.align	2
 3495              	.L203:
 3496 0080 00000000 		.word	.LANCHOR6
 3497 0084 00000000 		.word	enc
 3498 0088 00000000 		.word	0
 3499 008c 00004844 		.word	1145569280
 3500 0090 0000FA45 		.word	1174011904
 3501 0094 00000000 		.word	motion_end_flag
 3502 0098 00000000 		.word	straight
 3503 009c 00000000 		.word	angle
ARM GAS  C:\Users\kotaro\AppData\Local\Temp\ccTjQSLT.s 			page 76


 3504 00a0 00000000 		.word	error_ang_sum
 3505 00a4 00000000 		.word	error_ang_old
 3506              		.cfi_endproc
 3507              	.LFE182:
 3509              		.section	.text.Motion_InLeft45Turn,"ax",%progbits
 3510              		.align	1
 3511              		.global	Motion_InLeft45Turn
 3512              		.syntax unified
 3513              		.thumb
 3514              		.thumb_func
 3515              		.fpu fpv4-sp-d16
 3517              	Motion_InLeft45Turn:
 3518              	.LFB183:
 751:Src/motion.c  **** 
 752:Src/motion.c  **** void Motion_InLeft45Turn(void)
 753:Src/motion.c  **** {
 3519              		.loc 1 753 0
 3520              		.cfi_startproc
 3521              		@ args = 0, pretend = 0, frame = 0
 3522              		@ frame_needed = 0, uses_anonymous_args = 0
 3523 0000 08B5     		push	{r3, lr}
 3524              	.LCFI61:
 3525              		.cfi_def_cfa_offset 8
 3526              		.cfi_offset 3, -8
 3527              		.cfi_offset 14, -4
 754:Src/motion.c  ****     //offset in
 755:Src/motion.c  ****     Control_StrCalculator(41.0f - enc.offset, VELO_F, VELO_F, VELO_F, ACCEL_F, 1); //
 3528              		.loc 1 755 0
 3529 0002 3C4B     		ldr	r3, .L210
 3530 0004 D3ED027A 		vldr.32	s15, [r3, #8]
 3531 0008 DFED3B0A 		vldr.32	s1, .L210+4
 3532 000c F7EE002A 		vmov.f32	s5, #1.0e+0
 3533 0010 9FED3A2A 		vldr.32	s4, .L210+8
 3534 0014 F0EE601A 		vmov.f32	s3, s1
 3535 0018 B0EE601A 		vmov.f32	s2, s1
 3536 001c 9FED380A 		vldr.32	s0, .L210+12
 3537 0020 30EE670A 		vsub.f32	s0, s0, s15
 3538 0024 FFF7FEFF 		bl	Control_StrCalculator
 3539              	.LVL215:
 756:Src/motion.c  ****     Control_AngCalculator(0, 0, 0, 0, 1, 0);
 3540              		.loc 1 756 0
 3541 0028 9FED360A 		vldr.32	s0, .L210+16
 3542 002c F0EE402A 		vmov.f32	s5, s0
 3543 0030 B7EE002A 		vmov.f32	s4, #1.0e+0
 3544 0034 F0EE401A 		vmov.f32	s3, s0
 3545 0038 B0EE401A 		vmov.f32	s2, s0
 3546 003c F0EE400A 		vmov.f32	s1, s0
 3547 0040 FFF7FEFF 		bl	Control_AngCalculator
 3548              	.LVL216:
 757:Src/motion.c  ****     motion_end_flag = FALSE;
 3549              		.loc 1 757 0
 3550 0044 304B     		ldr	r3, .L210+20
 3551 0046 0022     		movs	r2, #0
 3552 0048 1A70     		strb	r2, [r3]
 3553              	.L206:
 758:Src/motion.c  ****     while (motion_end_flag == FALSE)
 3554              		.loc 1 758 0 discriminator 1
ARM GAS  C:\Users\kotaro\AppData\Local\Temp\ccTjQSLT.s 			page 77


 3555 004a 2F4B     		ldr	r3, .L210+20
 3556 004c 1B78     		ldrb	r3, [r3]	@ zero_extendqisi2
 3557 004e 002B     		cmp	r3, #0
 3558 0050 FBD0     		beq	.L206
 759:Src/motion.c  ****     {
 760:Src/motion.c  ****     }
 761:Src/motion.c  ****     //turn
 762:Src/motion.c  ****     Control_StrCalculator(800.0f, VELO_F, VELO_F, VELO_F, 1, 1);
 3559              		.loc 1 762 0
 3560 0052 9FED290A 		vldr.32	s0, .L210+4
 3561 0056 F7EE002A 		vmov.f32	s5, #1.0e+0
 3562 005a B0EE622A 		vmov.f32	s4, s5
 3563 005e F0EE401A 		vmov.f32	s3, s0
 3564 0062 B0EE401A 		vmov.f32	s2, s0
 3565 0066 F0EE400A 		vmov.f32	s1, s0
 3566 006a FFF7FEFF 		bl	Control_StrCalculator
 3567              	.LVL217:
 763:Src/motion.c  ****     Control_AngCalculator(45.0f, 0, 600.0f, 0, 20000.0f, 1);
 3568              		.loc 1 763 0
 3569 006e DFED250A 		vldr.32	s1, .L210+16
 3570 0072 F7EE002A 		vmov.f32	s5, #1.0e+0
 3571 0076 9FED252A 		vldr.32	s4, .L210+24
 3572 007a F0EE601A 		vmov.f32	s3, s1
 3573 007e 9FED241A 		vldr.32	s2, .L210+28
 3574 0082 9FED240A 		vldr.32	s0, .L210+32
 3575 0086 FFF7FEFF 		bl	Control_AngCalculator
 3576              	.LVL218:
 764:Src/motion.c  ****     motion_end_flag = FALSE;
 3577              		.loc 1 764 0
 3578 008a 1F4B     		ldr	r3, .L210+20
 3579 008c 0022     		movs	r2, #0
 3580 008e 1A70     		strb	r2, [r3]
 3581              	.L207:
 765:Src/motion.c  ****     while (motion_end_flag == FALSE)
 3582              		.loc 1 765 0 discriminator 1
 3583 0090 1D4B     		ldr	r3, .L210+20
 3584 0092 1B78     		ldrb	r3, [r3]	@ zero_extendqisi2
 3585 0094 002B     		cmp	r3, #0
 3586 0096 FBD0     		beq	.L207
 766:Src/motion.c  ****     {
 767:Src/motion.c  ****     }
 768:Src/motion.c  ****     //offset out
 769:Src/motion.c  ****     control_wall_flag = 3;
 3587              		.loc 1 769 0
 3588 0098 1F4B     		ldr	r3, .L210+36
 3589 009a 0322     		movs	r2, #3
 3590 009c 1A70     		strb	r2, [r3]
 770:Src/motion.c  ****     Control_WallEdgeAble(0b0100);
 3591              		.loc 1 770 0
 3592 009e 0420     		movs	r0, #4
 3593 00a0 FFF7FEFF 		bl	Control_WallEdgeAble
 3594              	.LVL219:
 771:Src/motion.c  ****     Control_StrCalculator(90.0f, VELO_F, VELO_F, VELO_F, 1, 1); //
 3595              		.loc 1 771 0
 3596 00a4 DFED140A 		vldr.32	s1, .L210+4
 3597 00a8 F7EE002A 		vmov.f32	s5, #1.0e+0
 3598 00ac B0EE622A 		vmov.f32	s4, s5
ARM GAS  C:\Users\kotaro\AppData\Local\Temp\ccTjQSLT.s 			page 78


 3599 00b0 F0EE601A 		vmov.f32	s3, s1
 3600 00b4 B0EE601A 		vmov.f32	s2, s1
 3601 00b8 9FED180A 		vldr.32	s0, .L210+40
 3602 00bc FFF7FEFF 		bl	Control_StrCalculator
 3603              	.LVL220:
 772:Src/motion.c  ****     Control_AngCalculator(0, 0, 0, 0, 1, 0);
 3604              		.loc 1 772 0
 3605 00c0 9FED100A 		vldr.32	s0, .L210+16
 3606 00c4 F0EE402A 		vmov.f32	s5, s0
 3607 00c8 B7EE002A 		vmov.f32	s4, #1.0e+0
 3608 00cc F0EE401A 		vmov.f32	s3, s0
 3609 00d0 B0EE401A 		vmov.f32	s2, s0
 3610 00d4 F0EE400A 		vmov.f32	s1, s0
 3611 00d8 FFF7FEFF 		bl	Control_AngCalculator
 3612              	.LVL221:
 773:Src/motion.c  ****     motion_end_flag = FALSE;
 3613              		.loc 1 773 0
 3614 00dc 0A4B     		ldr	r3, .L210+20
 3615 00de 0022     		movs	r2, #0
 3616 00e0 1A70     		strb	r2, [r3]
 3617              	.L208:
 774:Src/motion.c  ****     while (motion_end_flag == FALSE)
 3618              		.loc 1 774 0 discriminator 1
 3619 00e2 094B     		ldr	r3, .L210+20
 3620 00e4 1B78     		ldrb	r3, [r3]	@ zero_extendqisi2
 3621 00e6 002B     		cmp	r3, #0
 3622 00e8 FBD0     		beq	.L208
 775:Src/motion.c  ****     {
 776:Src/motion.c  ****     }
 777:Src/motion.c  ****     enc.offset = 0.0f;
 3623              		.loc 1 777 0
 3624 00ea 024B     		ldr	r3, .L210
 3625 00ec 0022     		movs	r2, #0
 3626 00ee 9A60     		str	r2, [r3, #8]	@ float
 778:Src/motion.c  **** }
 3627              		.loc 1 778 0
 3628 00f0 08BD     		pop	{r3, pc}
 3629              	.L211:
 3630 00f2 00BF     		.align	2
 3631              	.L210:
 3632 00f4 00000000 		.word	enc
 3633 00f8 00004844 		.word	1145569280
 3634 00fc 0000FA45 		.word	1174011904
 3635 0100 00002442 		.word	1109655552
 3636 0104 00000000 		.word	0
 3637 0108 00000000 		.word	motion_end_flag
 3638 010c 00409C46 		.word	1184645120
 3639 0110 00001644 		.word	1142292480
 3640 0114 00003442 		.word	1110704128
 3641 0118 00000000 		.word	control_wall_flag
 3642 011c 0000B442 		.word	1119092736
 3643              		.cfi_endproc
 3644              	.LFE183:
 3646              		.section	.text.Motion_InRight45Turn,"ax",%progbits
 3647              		.align	1
 3648              		.global	Motion_InRight45Turn
 3649              		.syntax unified
ARM GAS  C:\Users\kotaro\AppData\Local\Temp\ccTjQSLT.s 			page 79


 3650              		.thumb
 3651              		.thumb_func
 3652              		.fpu fpv4-sp-d16
 3654              	Motion_InRight45Turn:
 3655              	.LFB184:
 779:Src/motion.c  **** 
 780:Src/motion.c  **** void Motion_InRight45Turn(void)
 781:Src/motion.c  **** {
 3656              		.loc 1 781 0
 3657              		.cfi_startproc
 3658              		@ args = 0, pretend = 0, frame = 0
 3659              		@ frame_needed = 0, uses_anonymous_args = 0
 3660 0000 08B5     		push	{r3, lr}
 3661              	.LCFI62:
 3662              		.cfi_def_cfa_offset 8
 3663              		.cfi_offset 3, -8
 3664              		.cfi_offset 14, -4
 782:Src/motion.c  ****     //offset in
 783:Src/motion.c  ****     Control_StrCalculator(43.0f - enc.offset, VELO_F, VELO_F, VELO_F, ACCEL_F, 1); //43
 3665              		.loc 1 783 0
 3666 0002 3C4B     		ldr	r3, .L217
 3667 0004 D3ED027A 		vldr.32	s15, [r3, #8]
 3668 0008 DFED3B0A 		vldr.32	s1, .L217+4
 3669 000c F7EE002A 		vmov.f32	s5, #1.0e+0
 3670 0010 9FED3A2A 		vldr.32	s4, .L217+8
 3671 0014 F0EE601A 		vmov.f32	s3, s1
 3672 0018 B0EE601A 		vmov.f32	s2, s1
 3673 001c 9FED380A 		vldr.32	s0, .L217+12
 3674 0020 30EE670A 		vsub.f32	s0, s0, s15
 3675 0024 FFF7FEFF 		bl	Control_StrCalculator
 3676              	.LVL222:
 784:Src/motion.c  ****     Control_AngCalculator(0, 0, 0, 0, 1, 0);
 3677              		.loc 1 784 0
 3678 0028 9FED360A 		vldr.32	s0, .L217+16
 3679 002c F0EE402A 		vmov.f32	s5, s0
 3680 0030 B7EE002A 		vmov.f32	s4, #1.0e+0
 3681 0034 F0EE401A 		vmov.f32	s3, s0
 3682 0038 B0EE401A 		vmov.f32	s2, s0
 3683 003c F0EE400A 		vmov.f32	s1, s0
 3684 0040 FFF7FEFF 		bl	Control_AngCalculator
 3685              	.LVL223:
 785:Src/motion.c  ****     motion_end_flag = FALSE;
 3686              		.loc 1 785 0
 3687 0044 304B     		ldr	r3, .L217+20
 3688 0046 0022     		movs	r2, #0
 3689 0048 1A70     		strb	r2, [r3]
 3690              	.L213:
 786:Src/motion.c  ****     while (motion_end_flag == FALSE)
 3691              		.loc 1 786 0 discriminator 1
 3692 004a 2F4B     		ldr	r3, .L217+20
 3693 004c 1B78     		ldrb	r3, [r3]	@ zero_extendqisi2
 3694 004e 002B     		cmp	r3, #0
 3695 0050 FBD0     		beq	.L213
 787:Src/motion.c  ****     {
 788:Src/motion.c  ****     }
 789:Src/motion.c  ****     //turn
 790:Src/motion.c  ****     Control_StrCalculator(800.0f, VELO_F, VELO_F, VELO_F, 1, 1);
ARM GAS  C:\Users\kotaro\AppData\Local\Temp\ccTjQSLT.s 			page 80


 3696              		.loc 1 790 0
 3697 0052 9FED290A 		vldr.32	s0, .L217+4
 3698 0056 F7EE002A 		vmov.f32	s5, #1.0e+0
 3699 005a B0EE622A 		vmov.f32	s4, s5
 3700 005e F0EE401A 		vmov.f32	s3, s0
 3701 0062 B0EE401A 		vmov.f32	s2, s0
 3702 0066 F0EE400A 		vmov.f32	s1, s0
 3703 006a FFF7FEFF 		bl	Control_StrCalculator
 3704              	.LVL224:
 791:Src/motion.c  ****     Control_AngCalculator(45.0f, 0, 600.0f, 0, 20000.0f, -1);
 3705              		.loc 1 791 0
 3706 006e DFED250A 		vldr.32	s1, .L217+16
 3707 0072 FFEE002A 		vmov.f32	s5, #-1.0e+0
 3708 0076 9FED252A 		vldr.32	s4, .L217+24
 3709 007a F0EE601A 		vmov.f32	s3, s1
 3710 007e 9FED241A 		vldr.32	s2, .L217+28
 3711 0082 9FED240A 		vldr.32	s0, .L217+32
 3712 0086 FFF7FEFF 		bl	Control_AngCalculator
 3713              	.LVL225:
 792:Src/motion.c  ****     motion_end_flag = FALSE;
 3714              		.loc 1 792 0
 3715 008a 1F4B     		ldr	r3, .L217+20
 3716 008c 0022     		movs	r2, #0
 3717 008e 1A70     		strb	r2, [r3]
 3718              	.L214:
 793:Src/motion.c  ****     while (motion_end_flag == FALSE)
 3719              		.loc 1 793 0 discriminator 1
 3720 0090 1D4B     		ldr	r3, .L217+20
 3721 0092 1B78     		ldrb	r3, [r3]	@ zero_extendqisi2
 3722 0094 002B     		cmp	r3, #0
 3723 0096 FBD0     		beq	.L214
 794:Src/motion.c  ****     {
 795:Src/motion.c  ****     }
 796:Src/motion.c  ****     //offset out
 797:Src/motion.c  ****     control_wall_flag = 3;
 3724              		.loc 1 797 0
 3725 0098 1F4B     		ldr	r3, .L217+36
 3726 009a 0322     		movs	r2, #3
 3727 009c 1A70     		strb	r2, [r3]
 798:Src/motion.c  ****     Control_WallEdgeAble(0b1000);
 3728              		.loc 1 798 0
 3729 009e 0820     		movs	r0, #8
 3730 00a0 FFF7FEFF 		bl	Control_WallEdgeAble
 3731              	.LVL226:
 799:Src/motion.c  ****     Control_StrCalculator(93.0f, VELO_F, VELO_F, VELO_F, 1, 1); //17
 3732              		.loc 1 799 0
 3733 00a4 DFED140A 		vldr.32	s1, .L217+4
 3734 00a8 F7EE002A 		vmov.f32	s5, #1.0e+0
 3735 00ac B0EE622A 		vmov.f32	s4, s5
 3736 00b0 F0EE601A 		vmov.f32	s3, s1
 3737 00b4 B0EE601A 		vmov.f32	s2, s1
 3738 00b8 9FED180A 		vldr.32	s0, .L217+40
 3739 00bc FFF7FEFF 		bl	Control_StrCalculator
 3740              	.LVL227:
 800:Src/motion.c  ****     Control_AngCalculator(0, 0, 0, 0, 1, 0);
 3741              		.loc 1 800 0
 3742 00c0 9FED100A 		vldr.32	s0, .L217+16
ARM GAS  C:\Users\kotaro\AppData\Local\Temp\ccTjQSLT.s 			page 81


 3743 00c4 F0EE402A 		vmov.f32	s5, s0
 3744 00c8 B7EE002A 		vmov.f32	s4, #1.0e+0
 3745 00cc F0EE401A 		vmov.f32	s3, s0
 3746 00d0 B0EE401A 		vmov.f32	s2, s0
 3747 00d4 F0EE400A 		vmov.f32	s1, s0
 3748 00d8 FFF7FEFF 		bl	Control_AngCalculator
 3749              	.LVL228:
 801:Src/motion.c  ****     motion_end_flag = FALSE;
 3750              		.loc 1 801 0
 3751 00dc 0A4B     		ldr	r3, .L217+20
 3752 00de 0022     		movs	r2, #0
 3753 00e0 1A70     		strb	r2, [r3]
 3754              	.L215:
 802:Src/motion.c  ****     while (motion_end_flag == FALSE)
 3755              		.loc 1 802 0 discriminator 1
 3756 00e2 094B     		ldr	r3, .L217+20
 3757 00e4 1B78     		ldrb	r3, [r3]	@ zero_extendqisi2
 3758 00e6 002B     		cmp	r3, #0
 3759 00e8 FBD0     		beq	.L215
 803:Src/motion.c  ****     {
 804:Src/motion.c  ****     }
 805:Src/motion.c  ****     enc.offset = 0.0f;
 3760              		.loc 1 805 0
 3761 00ea 024B     		ldr	r3, .L217
 3762 00ec 0022     		movs	r2, #0
 3763 00ee 9A60     		str	r2, [r3, #8]	@ float
 806:Src/motion.c  **** }
 3764              		.loc 1 806 0
 3765 00f0 08BD     		pop	{r3, pc}
 3766              	.L218:
 3767 00f2 00BF     		.align	2
 3768              	.L217:
 3769 00f4 00000000 		.word	enc
 3770 00f8 00004844 		.word	1145569280
 3771 00fc 0000FA45 		.word	1174011904
 3772 0100 00002C42 		.word	1110179840
 3773 0104 00000000 		.word	0
 3774 0108 00000000 		.word	motion_end_flag
 3775 010c 00409C46 		.word	1184645120
 3776 0110 00001644 		.word	1142292480
 3777 0114 00003442 		.word	1110704128
 3778 0118 00000000 		.word	control_wall_flag
 3779 011c 0000BA42 		.word	1119485952
 3780              		.cfi_endproc
 3781              	.LFE184:
 3783              		.section	.text.Motion_OutLeft45Turn,"ax",%progbits
 3784              		.align	1
 3785              		.global	Motion_OutLeft45Turn
 3786              		.syntax unified
 3787              		.thumb
 3788              		.thumb_func
 3789              		.fpu fpv4-sp-d16
 3791              	Motion_OutLeft45Turn:
 3792              	.LFB185:
 807:Src/motion.c  **** 
 808:Src/motion.c  **** void Motion_OutLeft45Turn(float v_end)
 809:Src/motion.c  **** {
ARM GAS  C:\Users\kotaro\AppData\Local\Temp\ccTjQSLT.s 			page 82


 3793              		.loc 1 809 0
 3794              		.cfi_startproc
 3795              		@ args = 0, pretend = 0, frame = 0
 3796              		@ frame_needed = 0, uses_anonymous_args = 0
 3797              	.LVL229:
 3798 0000 08B5     		push	{r3, lr}
 3799              	.LCFI63:
 3800              		.cfi_def_cfa_offset 8
 3801              		.cfi_offset 3, -8
 3802              		.cfi_offset 14, -4
 3803 0002 2DED028B 		vpush.64	{d8}
 3804              	.LCFI64:
 3805              		.cfi_def_cfa_offset 16
 3806              		.cfi_offset 80, -16
 3807              		.cfi_offset 81, -12
 3808 0006 B0EE408A 		vmov.f32	s16, s0
 810:Src/motion.c  ****     //offset in
 811:Src/motion.c  ****     Control_StrCalculator(79.0f - enc.offset, VELO_F, VELO_F, VELO_F, 1, 1); //77
 3809              		.loc 1 811 0
 3810 000a 584B     		ldr	r3, .L227
 3811 000c D3ED027A 		vldr.32	s15, [r3, #8]
 3812 0010 DFED570A 		vldr.32	s1, .L227+4
 3813 0014 F7EE002A 		vmov.f32	s5, #1.0e+0
 3814 0018 B0EE622A 		vmov.f32	s4, s5
 3815 001c F0EE601A 		vmov.f32	s3, s1
 3816 0020 B0EE601A 		vmov.f32	s2, s1
 3817 0024 9FED530A 		vldr.32	s0, .L227+8
 3818              	.LVL230:
 3819 0028 30EE670A 		vsub.f32	s0, s0, s15
 3820 002c FFF7FEFF 		bl	Control_StrCalculator
 3821              	.LVL231:
 812:Src/motion.c  ****     Control_AngCalculator(0, 0, 0, 0, 1, 0);
 3822              		.loc 1 812 0
 3823 0030 9FED510A 		vldr.32	s0, .L227+12
 3824 0034 F0EE402A 		vmov.f32	s5, s0
 3825 0038 B7EE002A 		vmov.f32	s4, #1.0e+0
 3826 003c F0EE401A 		vmov.f32	s3, s0
 3827 0040 B0EE401A 		vmov.f32	s2, s0
 3828 0044 F0EE400A 		vmov.f32	s1, s0
 3829 0048 FFF7FEFF 		bl	Control_AngCalculator
 3830              	.LVL232:
 813:Src/motion.c  ****     motion_end_flag = FALSE;
 3831              		.loc 1 813 0
 3832 004c 4B4B     		ldr	r3, .L227+16
 3833 004e 0022     		movs	r2, #0
 3834 0050 1A70     		strb	r2, [r3]
 3835              	.L220:
 814:Src/motion.c  ****     while (motion_end_flag == FALSE)
 3836              		.loc 1 814 0 discriminator 1
 3837 0052 4A4B     		ldr	r3, .L227+16
 3838 0054 1B78     		ldrb	r3, [r3]	@ zero_extendqisi2
 3839 0056 002B     		cmp	r3, #0
 3840 0058 FBD0     		beq	.L220
 815:Src/motion.c  ****     {
 816:Src/motion.c  ****     }
 817:Src/motion.c  ****     //turn
 818:Src/motion.c  ****     Control_StrCalculator(800.0f, VELO_F, VELO_F, VELO_F, 1, 1);
ARM GAS  C:\Users\kotaro\AppData\Local\Temp\ccTjQSLT.s 			page 83


 3841              		.loc 1 818 0
 3842 005a 9FED450A 		vldr.32	s0, .L227+4
 3843 005e F7EE002A 		vmov.f32	s5, #1.0e+0
 3844 0062 B0EE622A 		vmov.f32	s4, s5
 3845 0066 F0EE401A 		vmov.f32	s3, s0
 3846 006a B0EE401A 		vmov.f32	s2, s0
 3847 006e F0EE400A 		vmov.f32	s1, s0
 3848 0072 FFF7FEFF 		bl	Control_StrCalculator
 3849              	.LVL233:
 819:Src/motion.c  ****     Control_AngCalculator(45.5f, 0, 600.0f, 0, 20000.0f, 1);
 3850              		.loc 1 819 0
 3851 0076 DFED400A 		vldr.32	s1, .L227+12
 3852 007a F7EE002A 		vmov.f32	s5, #1.0e+0
 3853 007e 9FED402A 		vldr.32	s4, .L227+20
 3854 0082 F0EE601A 		vmov.f32	s3, s1
 3855 0086 9FED3F1A 		vldr.32	s2, .L227+24
 3856 008a 9FED3F0A 		vldr.32	s0, .L227+28
 3857 008e FFF7FEFF 		bl	Control_AngCalculator
 3858              	.LVL234:
 820:Src/motion.c  ****     motion_end_flag = FALSE;
 3859              		.loc 1 820 0
 3860 0092 3A4B     		ldr	r3, .L227+16
 3861 0094 0022     		movs	r2, #0
 3862 0096 1A70     		strb	r2, [r3]
 3863              	.L221:
 821:Src/motion.c  ****     while (motion_end_flag == FALSE)
 3864              		.loc 1 821 0 discriminator 1
 3865 0098 384B     		ldr	r3, .L227+16
 3866 009a 1B78     		ldrb	r3, [r3]	@ zero_extendqisi2
 3867 009c 002B     		cmp	r3, #0
 3868 009e FBD0     		beq	.L221
 822:Src/motion.c  ****     {
 823:Src/motion.c  ****     }
 824:Src/motion.c  ****     control_wall_flag = 2;
 3869              		.loc 1 824 0
 3870 00a0 3A4B     		ldr	r3, .L227+32
 3871 00a2 0222     		movs	r2, #2
 3872 00a4 1A70     		strb	r2, [r3]
 825:Src/motion.c  ****     //offset out
 826:Src/motion.c  ****     if (v_end == 0.0f)
 3873              		.loc 1 826 0
 3874 00a6 B5EE408A 		vcmp.f32	s16, #0
 3875 00aa F1EE10FA 		vmrs	APSR_nzcv, FPSCR
 3876 00ae 32D1     		bne	.L222
 827:Src/motion.c  ****     {
 828:Src/motion.c  ****         Control_StrCalculator(50.0f, VELO_F, VELO_F, 0.0f, 10000.0f, 1); //110
 3877              		.loc 1 828 0
 3878 00b0 9FED318A 		vldr.32	s16, .L227+12
 3879              	.LVL235:
 3880 00b4 DFED2E0A 		vldr.32	s1, .L227+4
 3881 00b8 F7EE002A 		vmov.f32	s5, #1.0e+0
 3882 00bc 9FED342A 		vldr.32	s4, .L227+36
 3883 00c0 F0EE481A 		vmov.f32	s3, s16
 3884 00c4 B0EE601A 		vmov.f32	s2, s1
 3885 00c8 9FED320A 		vldr.32	s0, .L227+40
 3886 00cc FFF7FEFF 		bl	Control_StrCalculator
 3887              	.LVL236:
ARM GAS  C:\Users\kotaro\AppData\Local\Temp\ccTjQSLT.s 			page 84


 829:Src/motion.c  ****         Control_AngCalculator(0, 0, 0, 0, 1, 0);
 3888              		.loc 1 829 0
 3889 00d0 F0EE482A 		vmov.f32	s5, s16
 3890 00d4 B7EE002A 		vmov.f32	s4, #1.0e+0
 3891 00d8 F0EE481A 		vmov.f32	s3, s16
 3892 00dc B0EE481A 		vmov.f32	s2, s16
 3893 00e0 F0EE480A 		vmov.f32	s1, s16
 3894 00e4 B0EE480A 		vmov.f32	s0, s16
 3895 00e8 FFF7FEFF 		bl	Control_AngCalculator
 3896              	.LVL237:
 830:Src/motion.c  ****         motion_end_flag = FALSE;
 3897              		.loc 1 830 0
 3898 00ec 234B     		ldr	r3, .L227+16
 3899 00ee 0022     		movs	r2, #0
 3900 00f0 1A70     		strb	r2, [r3]
 3901              	.L223:
 831:Src/motion.c  ****         while (motion_end_flag == FALSE)
 3902              		.loc 1 831 0 discriminator 1
 3903 00f2 224B     		ldr	r3, .L227+16
 3904 00f4 1B78     		ldrb	r3, [r3]	@ zero_extendqisi2
 3905 00f6 002B     		cmp	r3, #0
 3906 00f8 FBD0     		beq	.L223
 832:Src/motion.c  ****         {
 833:Src/motion.c  ****         }
 834:Src/motion.c  ****         enc.offset = 0.0f;
 3907              		.loc 1 834 0
 3908 00fa 0023     		movs	r3, #0
 3909 00fc 1B4A     		ldr	r2, .L227
 3910 00fe 9360     		str	r3, [r2, #8]	@ float
 835:Src/motion.c  ****         straight.v_now = 0;
 3911              		.loc 1 835 0
 3912 0100 254A     		ldr	r2, .L227+44
 3913 0102 D360     		str	r3, [r2, #12]	@ float
 836:Src/motion.c  ****         angle.v_now = 0;
 3914              		.loc 1 836 0
 3915 0104 254A     		ldr	r2, .L227+48
 3916 0106 D360     		str	r3, [r2, #12]	@ float
 837:Src/motion.c  ****         HAL_Delay(800);
 3917              		.loc 1 837 0
 3918 0108 4FF44870 		mov	r0, #800
 3919 010c FFF7FEFF 		bl	HAL_Delay
 3920              	.LVL238:
 3921              	.L219:
 838:Src/motion.c  ****     }
 839:Src/motion.c  ****     else
 840:Src/motion.c  ****     {
 841:Src/motion.c  ****         Control_WallEdgeAble(0b11);
 842:Src/motion.c  ****         Control_StrCalculator(50.0f, VELO_F, VELO_F, v_end, 1, 1); //110
 843:Src/motion.c  ****         Control_AngCalculator(0, 0, 0, 0, 1, 0);
 844:Src/motion.c  ****         motion_end_flag = FALSE;
 845:Src/motion.c  ****         while (motion_end_flag == FALSE)
 846:Src/motion.c  ****         {
 847:Src/motion.c  ****         }
 848:Src/motion.c  ****         enc.offset = 0.0f;
 849:Src/motion.c  ****     }
 850:Src/motion.c  **** }
 3922              		.loc 1 850 0
ARM GAS  C:\Users\kotaro\AppData\Local\Temp\ccTjQSLT.s 			page 85


 3923 0110 BDEC028B 		vldm	sp!, {d8}
 3924              	.LCFI65:
 3925              		.cfi_remember_state
 3926              		.cfi_restore 80
 3927              		.cfi_restore 81
 3928              		.cfi_def_cfa_offset 8
 3929 0114 08BD     		pop	{r3, pc}
 3930              	.LVL239:
 3931              	.L222:
 3932              	.LCFI66:
 3933              		.cfi_restore_state
 841:Src/motion.c  ****         Control_StrCalculator(50.0f, VELO_F, VELO_F, v_end, 1, 1); //110
 3934              		.loc 1 841 0
 3935 0116 0320     		movs	r0, #3
 3936 0118 FFF7FEFF 		bl	Control_WallEdgeAble
 3937              	.LVL240:
 842:Src/motion.c  ****         Control_AngCalculator(0, 0, 0, 0, 1, 0);
 3938              		.loc 1 842 0
 3939 011c DFED140A 		vldr.32	s1, .L227+4
 3940 0120 F7EE002A 		vmov.f32	s5, #1.0e+0
 3941 0124 B0EE622A 		vmov.f32	s4, s5
 3942 0128 F0EE481A 		vmov.f32	s3, s16
 3943 012c B0EE601A 		vmov.f32	s2, s1
 3944 0130 9FED180A 		vldr.32	s0, .L227+40
 3945 0134 FFF7FEFF 		bl	Control_StrCalculator
 3946              	.LVL241:
 843:Src/motion.c  ****         motion_end_flag = FALSE;
 3947              		.loc 1 843 0
 3948 0138 9FED0F0A 		vldr.32	s0, .L227+12
 3949 013c F0EE402A 		vmov.f32	s5, s0
 3950 0140 B7EE002A 		vmov.f32	s4, #1.0e+0
 3951 0144 F0EE401A 		vmov.f32	s3, s0
 3952 0148 B0EE401A 		vmov.f32	s2, s0
 3953 014c F0EE400A 		vmov.f32	s1, s0
 3954 0150 FFF7FEFF 		bl	Control_AngCalculator
 3955              	.LVL242:
 844:Src/motion.c  ****         while (motion_end_flag == FALSE)
 3956              		.loc 1 844 0
 3957 0154 094B     		ldr	r3, .L227+16
 3958 0156 0022     		movs	r2, #0
 3959 0158 1A70     		strb	r2, [r3]
 3960              	.L225:
 845:Src/motion.c  ****         {
 3961              		.loc 1 845 0 discriminator 1
 3962 015a 084B     		ldr	r3, .L227+16
 3963 015c 1B78     		ldrb	r3, [r3]	@ zero_extendqisi2
 3964 015e 002B     		cmp	r3, #0
 3965 0160 FBD0     		beq	.L225
 848:Src/motion.c  ****     }
 3966              		.loc 1 848 0
 3967 0162 024B     		ldr	r3, .L227
 3968 0164 0022     		movs	r2, #0
 3969 0166 9A60     		str	r2, [r3, #8]	@ float
 3970              		.loc 1 850 0
 3971 0168 D2E7     		b	.L219
 3972              	.L228:
 3973 016a 00BF     		.align	2
ARM GAS  C:\Users\kotaro\AppData\Local\Temp\ccTjQSLT.s 			page 86


 3974              	.L227:
 3975 016c 00000000 		.word	enc
 3976 0170 00004844 		.word	1145569280
 3977 0174 00009E42 		.word	1117650944
 3978 0178 00000000 		.word	0
 3979 017c 00000000 		.word	motion_end_flag
 3980 0180 00409C46 		.word	1184645120
 3981 0184 00001644 		.word	1142292480
 3982 0188 00003642 		.word	1110835200
 3983 018c 00000000 		.word	control_wall_flag
 3984 0190 00401C46 		.word	1176256512
 3985 0194 00004842 		.word	1112014848
 3986 0198 00000000 		.word	straight
 3987 019c 00000000 		.word	angle
 3988              		.cfi_endproc
 3989              	.LFE185:
 3991              		.section	.text.Motion_OutRight45Turn,"ax",%progbits
 3992              		.align	1
 3993              		.global	Motion_OutRight45Turn
 3994              		.syntax unified
 3995              		.thumb
 3996              		.thumb_func
 3997              		.fpu fpv4-sp-d16
 3999              	Motion_OutRight45Turn:
 4000              	.LFB186:
 851:Src/motion.c  **** 
 852:Src/motion.c  **** void Motion_OutRight45Turn(float v_end)
 853:Src/motion.c  **** {
 4001              		.loc 1 853 0
 4002              		.cfi_startproc
 4003              		@ args = 0, pretend = 0, frame = 0
 4004              		@ frame_needed = 0, uses_anonymous_args = 0
 4005              	.LVL243:
 4006 0000 08B5     		push	{r3, lr}
 4007              	.LCFI67:
 4008              		.cfi_def_cfa_offset 8
 4009              		.cfi_offset 3, -8
 4010              		.cfi_offset 14, -4
 4011 0002 2DED028B 		vpush.64	{d8}
 4012              	.LCFI68:
 4013              		.cfi_def_cfa_offset 16
 4014              		.cfi_offset 80, -16
 4015              		.cfi_offset 81, -12
 4016 0006 B0EE408A 		vmov.f32	s16, s0
 854:Src/motion.c  ****     //offset in
 855:Src/motion.c  ****     Control_StrCalculator(78.0f - enc.offset, VELO_F, VELO_F, VELO_F, 1, 1);
 4017              		.loc 1 855 0
 4018 000a 584B     		ldr	r3, .L237
 4019 000c D3ED027A 		vldr.32	s15, [r3, #8]
 4020 0010 DFED570A 		vldr.32	s1, .L237+4
 4021 0014 F7EE002A 		vmov.f32	s5, #1.0e+0
 4022 0018 B0EE622A 		vmov.f32	s4, s5
 4023 001c F0EE601A 		vmov.f32	s3, s1
 4024 0020 B0EE601A 		vmov.f32	s2, s1
 4025 0024 9FED530A 		vldr.32	s0, .L237+8
 4026              	.LVL244:
 4027 0028 30EE670A 		vsub.f32	s0, s0, s15
ARM GAS  C:\Users\kotaro\AppData\Local\Temp\ccTjQSLT.s 			page 87


 4028 002c FFF7FEFF 		bl	Control_StrCalculator
 4029              	.LVL245:
 856:Src/motion.c  ****     Control_AngCalculator(0, 0, 0, 0, 1, 0);
 4030              		.loc 1 856 0
 4031 0030 9FED510A 		vldr.32	s0, .L237+12
 4032 0034 F0EE402A 		vmov.f32	s5, s0
 4033 0038 B7EE002A 		vmov.f32	s4, #1.0e+0
 4034 003c F0EE401A 		vmov.f32	s3, s0
 4035 0040 B0EE401A 		vmov.f32	s2, s0
 4036 0044 F0EE400A 		vmov.f32	s1, s0
 4037 0048 FFF7FEFF 		bl	Control_AngCalculator
 4038              	.LVL246:
 857:Src/motion.c  ****     motion_end_flag = FALSE;
 4039              		.loc 1 857 0
 4040 004c 4B4B     		ldr	r3, .L237+16
 4041 004e 0022     		movs	r2, #0
 4042 0050 1A70     		strb	r2, [r3]
 4043              	.L230:
 858:Src/motion.c  ****     while (motion_end_flag == FALSE)
 4044              		.loc 1 858 0 discriminator 1
 4045 0052 4A4B     		ldr	r3, .L237+16
 4046 0054 1B78     		ldrb	r3, [r3]	@ zero_extendqisi2
 4047 0056 002B     		cmp	r3, #0
 4048 0058 FBD0     		beq	.L230
 859:Src/motion.c  ****     {
 860:Src/motion.c  ****     }
 861:Src/motion.c  ****     //turn
 862:Src/motion.c  ****     Control_StrCalculator(800.0f, VELO_F, VELO_F, VELO_F, 1, 1);
 4049              		.loc 1 862 0
 4050 005a 9FED450A 		vldr.32	s0, .L237+4
 4051 005e F7EE002A 		vmov.f32	s5, #1.0e+0
 4052 0062 B0EE622A 		vmov.f32	s4, s5
 4053 0066 F0EE401A 		vmov.f32	s3, s0
 4054 006a B0EE401A 		vmov.f32	s2, s0
 4055 006e F0EE400A 		vmov.f32	s1, s0
 4056 0072 FFF7FEFF 		bl	Control_StrCalculator
 4057              	.LVL247:
 863:Src/motion.c  ****     Control_AngCalculator(45.5f, 0, 600.0f, 0, 20000.0f, -1);
 4058              		.loc 1 863 0
 4059 0076 DFED400A 		vldr.32	s1, .L237+12
 4060 007a FFEE002A 		vmov.f32	s5, #-1.0e+0
 4061 007e 9FED402A 		vldr.32	s4, .L237+20
 4062 0082 F0EE601A 		vmov.f32	s3, s1
 4063 0086 9FED3F1A 		vldr.32	s2, .L237+24
 4064 008a 9FED3F0A 		vldr.32	s0, .L237+28
 4065 008e FFF7FEFF 		bl	Control_AngCalculator
 4066              	.LVL248:
 864:Src/motion.c  ****     motion_end_flag = FALSE;
 4067              		.loc 1 864 0
 4068 0092 3A4B     		ldr	r3, .L237+16
 4069 0094 0022     		movs	r2, #0
 4070 0096 1A70     		strb	r2, [r3]
 4071              	.L231:
 865:Src/motion.c  ****     while (motion_end_flag == FALSE)
 4072              		.loc 1 865 0 discriminator 1
 4073 0098 384B     		ldr	r3, .L237+16
 4074 009a 1B78     		ldrb	r3, [r3]	@ zero_extendqisi2
ARM GAS  C:\Users\kotaro\AppData\Local\Temp\ccTjQSLT.s 			page 88


 4075 009c 002B     		cmp	r3, #0
 4076 009e FBD0     		beq	.L231
 866:Src/motion.c  ****     {
 867:Src/motion.c  ****     }
 868:Src/motion.c  ****     control_wall_flag = 2;
 4077              		.loc 1 868 0
 4078 00a0 3A4B     		ldr	r3, .L237+32
 4079 00a2 0222     		movs	r2, #2
 4080 00a4 1A70     		strb	r2, [r3]
 869:Src/motion.c  ****     //offset out
 870:Src/motion.c  ****     if (v_end == 0.0f)
 4081              		.loc 1 870 0
 4082 00a6 B5EE408A 		vcmp.f32	s16, #0
 4083 00aa F1EE10FA 		vmrs	APSR_nzcv, FPSCR
 4084 00ae 32D1     		bne	.L232
 871:Src/motion.c  ****     {
 872:Src/motion.c  ****         Control_StrCalculator(60.0f, VELO_F, VELO_F, 0.0f, 10000.0f, 1); //54
 4085              		.loc 1 872 0
 4086 00b0 9FED318A 		vldr.32	s16, .L237+12
 4087              	.LVL249:
 4088 00b4 DFED2E0A 		vldr.32	s1, .L237+4
 4089 00b8 F7EE002A 		vmov.f32	s5, #1.0e+0
 4090 00bc 9FED342A 		vldr.32	s4, .L237+36
 4091 00c0 F0EE481A 		vmov.f32	s3, s16
 4092 00c4 B0EE601A 		vmov.f32	s2, s1
 4093 00c8 9FED320A 		vldr.32	s0, .L237+40
 4094 00cc FFF7FEFF 		bl	Control_StrCalculator
 4095              	.LVL250:
 873:Src/motion.c  ****         Control_AngCalculator(0, 0, 0, 0, 1, 0);
 4096              		.loc 1 873 0
 4097 00d0 F0EE482A 		vmov.f32	s5, s16
 4098 00d4 B7EE002A 		vmov.f32	s4, #1.0e+0
 4099 00d8 F0EE481A 		vmov.f32	s3, s16
 4100 00dc B0EE481A 		vmov.f32	s2, s16
 4101 00e0 F0EE480A 		vmov.f32	s1, s16
 4102 00e4 B0EE480A 		vmov.f32	s0, s16
 4103 00e8 FFF7FEFF 		bl	Control_AngCalculator
 4104              	.LVL251:
 874:Src/motion.c  ****         motion_end_flag = FALSE;
 4105              		.loc 1 874 0
 4106 00ec 234B     		ldr	r3, .L237+16
 4107 00ee 0022     		movs	r2, #0
 4108 00f0 1A70     		strb	r2, [r3]
 4109              	.L233:
 875:Src/motion.c  ****         while (motion_end_flag == FALSE)
 4110              		.loc 1 875 0 discriminator 1
 4111 00f2 224B     		ldr	r3, .L237+16
 4112 00f4 1B78     		ldrb	r3, [r3]	@ zero_extendqisi2
 4113 00f6 002B     		cmp	r3, #0
 4114 00f8 FBD0     		beq	.L233
 876:Src/motion.c  ****         {
 877:Src/motion.c  ****         }
 878:Src/motion.c  ****         enc.offset = 0.0f;
 4115              		.loc 1 878 0
 4116 00fa 0023     		movs	r3, #0
 4117 00fc 1B4A     		ldr	r2, .L237
 4118 00fe 9360     		str	r3, [r2, #8]	@ float
ARM GAS  C:\Users\kotaro\AppData\Local\Temp\ccTjQSLT.s 			page 89


 879:Src/motion.c  ****         straight.v_now = 0;
 4119              		.loc 1 879 0
 4120 0100 254A     		ldr	r2, .L237+44
 4121 0102 D360     		str	r3, [r2, #12]	@ float
 880:Src/motion.c  ****         angle.v_now = 0;
 4122              		.loc 1 880 0
 4123 0104 254A     		ldr	r2, .L237+48
 4124 0106 D360     		str	r3, [r2, #12]	@ float
 881:Src/motion.c  ****         HAL_Delay(800);
 4125              		.loc 1 881 0
 4126 0108 4FF44870 		mov	r0, #800
 4127 010c FFF7FEFF 		bl	HAL_Delay
 4128              	.LVL252:
 4129              	.L229:
 882:Src/motion.c  ****     }
 883:Src/motion.c  ****     else
 884:Src/motion.c  ****     {
 885:Src/motion.c  ****         Control_WallEdgeAble(0b11);
 886:Src/motion.c  ****         Control_StrCalculator(60.0f, VELO_F, VELO_F, v_end, 1, 1); //54
 887:Src/motion.c  ****         Control_AngCalculator(0, 0, 0, 0, 1, 0);
 888:Src/motion.c  ****         motion_end_flag = FALSE;
 889:Src/motion.c  ****         while (motion_end_flag == FALSE)
 890:Src/motion.c  ****         {
 891:Src/motion.c  ****         }
 892:Src/motion.c  ****         enc.offset = 0.0f;
 893:Src/motion.c  ****     }
 894:Src/motion.c  **** }
 4130              		.loc 1 894 0
 4131 0110 BDEC028B 		vldm	sp!, {d8}
 4132              	.LCFI69:
 4133              		.cfi_remember_state
 4134              		.cfi_restore 80
 4135              		.cfi_restore 81
 4136              		.cfi_def_cfa_offset 8
 4137 0114 08BD     		pop	{r3, pc}
 4138              	.LVL253:
 4139              	.L232:
 4140              	.LCFI70:
 4141              		.cfi_restore_state
 885:Src/motion.c  ****         Control_StrCalculator(60.0f, VELO_F, VELO_F, v_end, 1, 1); //54
 4142              		.loc 1 885 0
 4143 0116 0320     		movs	r0, #3
 4144 0118 FFF7FEFF 		bl	Control_WallEdgeAble
 4145              	.LVL254:
 886:Src/motion.c  ****         Control_AngCalculator(0, 0, 0, 0, 1, 0);
 4146              		.loc 1 886 0
 4147 011c DFED140A 		vldr.32	s1, .L237+4
 4148 0120 F7EE002A 		vmov.f32	s5, #1.0e+0
 4149 0124 B0EE622A 		vmov.f32	s4, s5
 4150 0128 F0EE481A 		vmov.f32	s3, s16
 4151 012c B0EE601A 		vmov.f32	s2, s1
 4152 0130 9FED180A 		vldr.32	s0, .L237+40
 4153 0134 FFF7FEFF 		bl	Control_StrCalculator
 4154              	.LVL255:
 887:Src/motion.c  ****         motion_end_flag = FALSE;
 4155              		.loc 1 887 0
 4156 0138 9FED0F0A 		vldr.32	s0, .L237+12
ARM GAS  C:\Users\kotaro\AppData\Local\Temp\ccTjQSLT.s 			page 90


 4157 013c F0EE402A 		vmov.f32	s5, s0
 4158 0140 B7EE002A 		vmov.f32	s4, #1.0e+0
 4159 0144 F0EE401A 		vmov.f32	s3, s0
 4160 0148 B0EE401A 		vmov.f32	s2, s0
 4161 014c F0EE400A 		vmov.f32	s1, s0
 4162 0150 FFF7FEFF 		bl	Control_AngCalculator
 4163              	.LVL256:
 888:Src/motion.c  ****         while (motion_end_flag == FALSE)
 4164              		.loc 1 888 0
 4165 0154 094B     		ldr	r3, .L237+16
 4166 0156 0022     		movs	r2, #0
 4167 0158 1A70     		strb	r2, [r3]
 4168              	.L235:
 889:Src/motion.c  ****         {
 4169              		.loc 1 889 0 discriminator 1
 4170 015a 084B     		ldr	r3, .L237+16
 4171 015c 1B78     		ldrb	r3, [r3]	@ zero_extendqisi2
 4172 015e 002B     		cmp	r3, #0
 4173 0160 FBD0     		beq	.L235
 892:Src/motion.c  ****     }
 4174              		.loc 1 892 0
 4175 0162 024B     		ldr	r3, .L237
 4176 0164 0022     		movs	r2, #0
 4177 0166 9A60     		str	r2, [r3, #8]	@ float
 4178              		.loc 1 894 0
 4179 0168 D2E7     		b	.L229
 4180              	.L238:
 4181 016a 00BF     		.align	2
 4182              	.L237:
 4183 016c 00000000 		.word	enc
 4184 0170 00004844 		.word	1145569280
 4185 0174 00009C42 		.word	1117519872
 4186 0178 00000000 		.word	0
 4187 017c 00000000 		.word	motion_end_flag
 4188 0180 00409C46 		.word	1184645120
 4189 0184 00001644 		.word	1142292480
 4190 0188 00003642 		.word	1110835200
 4191 018c 00000000 		.word	control_wall_flag
 4192 0190 00401C46 		.word	1176256512
 4193 0194 00007042 		.word	1114636288
 4194 0198 00000000 		.word	straight
 4195 019c 00000000 		.word	angle
 4196              		.cfi_endproc
 4197              	.LFE186:
 4199              		.section	.text.Motion_Left90Turn,"ax",%progbits
 4200              		.align	1
 4201              		.global	Motion_Left90Turn
 4202              		.syntax unified
 4203              		.thumb
 4204              		.thumb_func
 4205              		.fpu fpv4-sp-d16
 4207              	Motion_Left90Turn:
 4208              	.LFB187:
 895:Src/motion.c  **** 
 896:Src/motion.c  **** void Motion_Left90Turn(float v_end)
 897:Src/motion.c  **** {
 4209              		.loc 1 897 0
ARM GAS  C:\Users\kotaro\AppData\Local\Temp\ccTjQSLT.s 			page 91


 4210              		.cfi_startproc
 4211              		@ args = 0, pretend = 0, frame = 0
 4212              		@ frame_needed = 0, uses_anonymous_args = 0
 4213              	.LVL257:
 4214 0000 08B5     		push	{r3, lr}
 4215              	.LCFI71:
 4216              		.cfi_def_cfa_offset 8
 4217              		.cfi_offset 3, -8
 4218              		.cfi_offset 14, -4
 4219 0002 2DED028B 		vpush.64	{d8}
 4220              	.LCFI72:
 4221              		.cfi_def_cfa_offset 16
 4222              		.cfi_offset 80, -16
 4223              		.cfi_offset 81, -12
 4224 0006 B0EE408A 		vmov.f32	s16, s0
 898:Src/motion.c  ****     //offset in
 899:Src/motion.c  ****     Control_StrCalculator(29.0f - enc.offset, VELO_F, VELO_F, VELO_F, ACCEL_F, 1);
 4225              		.loc 1 899 0
 4226 000a 594B     		ldr	r3, .L247
 4227 000c D3ED027A 		vldr.32	s15, [r3, #8]
 4228 0010 DFED580A 		vldr.32	s1, .L247+4
 4229 0014 F7EE002A 		vmov.f32	s5, #1.0e+0
 4230 0018 9FED572A 		vldr.32	s4, .L247+8
 4231 001c F0EE601A 		vmov.f32	s3, s1
 4232 0020 B0EE601A 		vmov.f32	s2, s1
 4233 0024 B3EE0D0A 		vmov.f32	s0, #2.9e+1
 4234              	.LVL258:
 4235 0028 30EE670A 		vsub.f32	s0, s0, s15
 4236 002c FFF7FEFF 		bl	Control_StrCalculator
 4237              	.LVL259:
 900:Src/motion.c  ****     Control_AngCalculator(0, 0, 0, 0, 1, 0);
 4238              		.loc 1 900 0
 4239 0030 9FED520A 		vldr.32	s0, .L247+12
 4240 0034 F0EE402A 		vmov.f32	s5, s0
 4241 0038 B7EE002A 		vmov.f32	s4, #1.0e+0
 4242 003c F0EE401A 		vmov.f32	s3, s0
 4243 0040 B0EE401A 		vmov.f32	s2, s0
 4244 0044 F0EE400A 		vmov.f32	s1, s0
 4245 0048 FFF7FEFF 		bl	Control_AngCalculator
 4246              	.LVL260:
 901:Src/motion.c  ****     motion_end_flag = FALSE;
 4247              		.loc 1 901 0
 4248 004c 4C4B     		ldr	r3, .L247+16
 4249 004e 0022     		movs	r2, #0
 4250 0050 1A70     		strb	r2, [r3]
 4251              	.L240:
 902:Src/motion.c  ****     while (motion_end_flag == FALSE)
 4252              		.loc 1 902 0 discriminator 1
 4253 0052 4B4B     		ldr	r3, .L247+16
 4254 0054 1B78     		ldrb	r3, [r3]	@ zero_extendqisi2
 4255 0056 002B     		cmp	r3, #0
 4256 0058 FBD0     		beq	.L240
 903:Src/motion.c  ****     {
 904:Src/motion.c  ****     }
 905:Src/motion.c  ****     //turn
 906:Src/motion.c  ****     Control_StrCalculator(VELO_F, VELO_F, VELO_F, VELO_F, 1, 1);
 4257              		.loc 1 906 0
ARM GAS  C:\Users\kotaro\AppData\Local\Temp\ccTjQSLT.s 			page 92


 4258 005a 9FED460A 		vldr.32	s0, .L247+4
 4259 005e F7EE002A 		vmov.f32	s5, #1.0e+0
 4260 0062 B0EE622A 		vmov.f32	s4, s5
 4261 0066 F0EE401A 		vmov.f32	s3, s0
 4262 006a B0EE401A 		vmov.f32	s2, s0
 4263 006e F0EE400A 		vmov.f32	s1, s0
 4264 0072 FFF7FEFF 		bl	Control_StrCalculator
 4265              	.LVL261:
 907:Src/motion.c  ****     Control_AngCalculator(90.0f, 0, 400.0f, 0, 5000.0f, 1);
 4266              		.loc 1 907 0
 4267 0076 DFED410A 		vldr.32	s1, .L247+12
 4268 007a F7EE002A 		vmov.f32	s5, #1.0e+0
 4269 007e 9FED412A 		vldr.32	s4, .L247+20
 4270 0082 F0EE601A 		vmov.f32	s3, s1
 4271 0086 9FED401A 		vldr.32	s2, .L247+24
 4272 008a 9FED400A 		vldr.32	s0, .L247+28
 4273 008e FFF7FEFF 		bl	Control_AngCalculator
 4274              	.LVL262:
 908:Src/motion.c  ****     motion_end_flag = FALSE;
 4275              		.loc 1 908 0
 4276 0092 3B4B     		ldr	r3, .L247+16
 4277 0094 0022     		movs	r2, #0
 4278 0096 1A70     		strb	r2, [r3]
 4279              	.L241:
 909:Src/motion.c  ****     while (motion_end_flag == FALSE)
 4280              		.loc 1 909 0 discriminator 1
 4281 0098 394B     		ldr	r3, .L247+16
 4282 009a 1B78     		ldrb	r3, [r3]	@ zero_extendqisi2
 4283 009c 002B     		cmp	r3, #0
 4284 009e FBD0     		beq	.L241
 910:Src/motion.c  ****     {
 911:Src/motion.c  ****     }
 912:Src/motion.c  ****     error_ang_sum = 0.0f;
 4285              		.loc 1 912 0
 4286 00a0 0023     		movs	r3, #0
 4287 00a2 3B4A     		ldr	r2, .L247+32
 4288 00a4 1360     		str	r3, [r2]	@ float
 913:Src/motion.c  ****     error_ang_old = 0.0f;
 4289              		.loc 1 913 0
 4290 00a6 3B4A     		ldr	r2, .L247+36
 4291 00a8 1360     		str	r3, [r2]	@ float
 914:Src/motion.c  ****     //offset out
 915:Src/motion.c  ****     if (v_end == 0.0f)
 4292              		.loc 1 915 0
 4293 00aa B5EE408A 		vcmp.f32	s16, #0
 4294 00ae F1EE10FA 		vmrs	APSR_nzcv, FPSCR
 4295 00b2 32D1     		bne	.L242
 916:Src/motion.c  ****     {
 917:Src/motion.c  ****         Control_StrCalculator(40.0f, VELO_F, VELO_F, 0.0f, 10000.0f, 1);
 4296              		.loc 1 917 0
 4297 00b4 08EE103A 		vmov	s16, r3
 4298              	.LVL263:
 4299 00b8 DFED2E0A 		vldr.32	s1, .L247+4
 4300 00bc F7EE002A 		vmov.f32	s5, #1.0e+0
 4301 00c0 9FED352A 		vldr.32	s4, .L247+40
 4302 00c4 01EE903A 		vmov	s3, r3
 4303 00c8 B0EE601A 		vmov.f32	s2, s1
ARM GAS  C:\Users\kotaro\AppData\Local\Temp\ccTjQSLT.s 			page 93


 4304 00cc 9FED330A 		vldr.32	s0, .L247+44
 4305 00d0 FFF7FEFF 		bl	Control_StrCalculator
 4306              	.LVL264:
 918:Src/motion.c  ****         Control_AngCalculator(0, 0, 0, 0, 1, 0);
 4307              		.loc 1 918 0
 4308 00d4 F0EE482A 		vmov.f32	s5, s16
 4309 00d8 B7EE002A 		vmov.f32	s4, #1.0e+0
 4310 00dc F0EE481A 		vmov.f32	s3, s16
 4311 00e0 B0EE481A 		vmov.f32	s2, s16
 4312 00e4 F0EE480A 		vmov.f32	s1, s16
 4313 00e8 B0EE480A 		vmov.f32	s0, s16
 4314 00ec FFF7FEFF 		bl	Control_AngCalculator
 4315              	.LVL265:
 919:Src/motion.c  ****         motion_end_flag = FALSE;
 4316              		.loc 1 919 0
 4317 00f0 234B     		ldr	r3, .L247+16
 4318 00f2 0022     		movs	r2, #0
 4319 00f4 1A70     		strb	r2, [r3]
 4320              	.L243:
 920:Src/motion.c  ****         while (motion_end_flag == FALSE)
 4321              		.loc 1 920 0 discriminator 1
 4322 00f6 224B     		ldr	r3, .L247+16
 4323 00f8 1B78     		ldrb	r3, [r3]	@ zero_extendqisi2
 4324 00fa 002B     		cmp	r3, #0
 4325 00fc FBD0     		beq	.L243
 921:Src/motion.c  ****         {
 922:Src/motion.c  ****         }
 923:Src/motion.c  ****         enc.offset = 0.0f;
 4326              		.loc 1 923 0
 4327 00fe 0023     		movs	r3, #0
 4328 0100 1B4A     		ldr	r2, .L247
 4329 0102 9360     		str	r3, [r2, #8]	@ float
 924:Src/motion.c  ****         straight.v_now = 0;
 4330              		.loc 1 924 0
 4331 0104 264A     		ldr	r2, .L247+48
 4332 0106 D360     		str	r3, [r2, #12]	@ float
 925:Src/motion.c  ****         angle.v_now = 0;
 4333              		.loc 1 925 0
 4334 0108 264A     		ldr	r2, .L247+52
 4335 010a D360     		str	r3, [r2, #12]	@ float
 926:Src/motion.c  ****         HAL_Delay(800);
 4336              		.loc 1 926 0
 4337 010c 4FF44870 		mov	r0, #800
 4338 0110 FFF7FEFF 		bl	HAL_Delay
 4339              	.LVL266:
 4340              	.L239:
 927:Src/motion.c  ****     }
 928:Src/motion.c  ****     else
 929:Src/motion.c  ****     {
 930:Src/motion.c  ****         Control_WallEdgeAble(0b11);
 931:Src/motion.c  ****         Control_StrCalculator(40.0f, VELO_F, VELO_F, v_end, 1, 1);
 932:Src/motion.c  ****         Control_AngCalculator(0, 0, 0, 0, 1, 0);
 933:Src/motion.c  ****         motion_end_flag = FALSE;
 934:Src/motion.c  ****         while (motion_end_flag == FALSE)
 935:Src/motion.c  ****         {
 936:Src/motion.c  ****         }
 937:Src/motion.c  ****         enc.offset = 0.0f;
ARM GAS  C:\Users\kotaro\AppData\Local\Temp\ccTjQSLT.s 			page 94


 938:Src/motion.c  ****     }
 939:Src/motion.c  **** }
 4341              		.loc 1 939 0
 4342 0114 BDEC028B 		vldm	sp!, {d8}
 4343              	.LCFI73:
 4344              		.cfi_remember_state
 4345              		.cfi_restore 80
 4346              		.cfi_restore 81
 4347              		.cfi_def_cfa_offset 8
 4348 0118 08BD     		pop	{r3, pc}
 4349              	.LVL267:
 4350              	.L242:
 4351              	.LCFI74:
 4352              		.cfi_restore_state
 930:Src/motion.c  ****         Control_StrCalculator(40.0f, VELO_F, VELO_F, v_end, 1, 1);
 4353              		.loc 1 930 0
 4354 011a 0320     		movs	r0, #3
 4355 011c FFF7FEFF 		bl	Control_WallEdgeAble
 4356              	.LVL268:
 931:Src/motion.c  ****         Control_AngCalculator(0, 0, 0, 0, 1, 0);
 4357              		.loc 1 931 0
 4358 0120 DFED140A 		vldr.32	s1, .L247+4
 4359 0124 F7EE002A 		vmov.f32	s5, #1.0e+0
 4360 0128 B0EE622A 		vmov.f32	s4, s5
 4361 012c F0EE481A 		vmov.f32	s3, s16
 4362 0130 B0EE601A 		vmov.f32	s2, s1
 4363 0134 9FED190A 		vldr.32	s0, .L247+44
 4364 0138 FFF7FEFF 		bl	Control_StrCalculator
 4365              	.LVL269:
 932:Src/motion.c  ****         motion_end_flag = FALSE;
 4366              		.loc 1 932 0
 4367 013c 9FED0F0A 		vldr.32	s0, .L247+12
 4368 0140 F0EE402A 		vmov.f32	s5, s0
 4369 0144 B7EE002A 		vmov.f32	s4, #1.0e+0
 4370 0148 F0EE401A 		vmov.f32	s3, s0
 4371 014c B0EE401A 		vmov.f32	s2, s0
 4372 0150 F0EE400A 		vmov.f32	s1, s0
 4373 0154 FFF7FEFF 		bl	Control_AngCalculator
 4374              	.LVL270:
 933:Src/motion.c  ****         while (motion_end_flag == FALSE)
 4375              		.loc 1 933 0
 4376 0158 094B     		ldr	r3, .L247+16
 4377 015a 0022     		movs	r2, #0
 4378 015c 1A70     		strb	r2, [r3]
 4379              	.L245:
 934:Src/motion.c  ****         {
 4380              		.loc 1 934 0 discriminator 1
 4381 015e 084B     		ldr	r3, .L247+16
 4382 0160 1B78     		ldrb	r3, [r3]	@ zero_extendqisi2
 4383 0162 002B     		cmp	r3, #0
 4384 0164 FBD0     		beq	.L245
 937:Src/motion.c  ****     }
 4385              		.loc 1 937 0
 4386 0166 024B     		ldr	r3, .L247
 4387 0168 0022     		movs	r2, #0
 4388 016a 9A60     		str	r2, [r3, #8]	@ float
 4389              		.loc 1 939 0
ARM GAS  C:\Users\kotaro\AppData\Local\Temp\ccTjQSLT.s 			page 95


 4390 016c D2E7     		b	.L239
 4391              	.L248:
 4392 016e 00BF     		.align	2
 4393              	.L247:
 4394 0170 00000000 		.word	enc
 4395 0174 00004844 		.word	1145569280
 4396 0178 0000FA45 		.word	1174011904
 4397 017c 00000000 		.word	0
 4398 0180 00000000 		.word	motion_end_flag
 4399 0184 00409C45 		.word	1167867904
 4400 0188 0000C843 		.word	1137180672
 4401 018c 0000B442 		.word	1119092736
 4402 0190 00000000 		.word	error_ang_sum
 4403 0194 00000000 		.word	error_ang_old
 4404 0198 00401C46 		.word	1176256512
 4405 019c 00002042 		.word	1109393408
 4406 01a0 00000000 		.word	straight
 4407 01a4 00000000 		.word	angle
 4408              		.cfi_endproc
 4409              	.LFE187:
 4411              		.section	.text.Motion_Right90Turn,"ax",%progbits
 4412              		.align	1
 4413              		.global	Motion_Right90Turn
 4414              		.syntax unified
 4415              		.thumb
 4416              		.thumb_func
 4417              		.fpu fpv4-sp-d16
 4419              	Motion_Right90Turn:
 4420              	.LFB188:
 940:Src/motion.c  **** 
 941:Src/motion.c  **** void Motion_Right90Turn(float v_end)
 942:Src/motion.c  **** {
 4421              		.loc 1 942 0
 4422              		.cfi_startproc
 4423              		@ args = 0, pretend = 0, frame = 0
 4424              		@ frame_needed = 0, uses_anonymous_args = 0
 4425              	.LVL271:
 4426 0000 08B5     		push	{r3, lr}
 4427              	.LCFI75:
 4428              		.cfi_def_cfa_offset 8
 4429              		.cfi_offset 3, -8
 4430              		.cfi_offset 14, -4
 4431 0002 2DED028B 		vpush.64	{d8}
 4432              	.LCFI76:
 4433              		.cfi_def_cfa_offset 16
 4434              		.cfi_offset 80, -16
 4435              		.cfi_offset 81, -12
 4436 0006 B0EE408A 		vmov.f32	s16, s0
 943:Src/motion.c  ****     //offset in
 944:Src/motion.c  ****     Control_StrCalculator(28.5f - enc.offset, VELO_F, VELO_F, VELO_F, ACCEL_F, 1); //29
 4437              		.loc 1 944 0
 4438 000a 564B     		ldr	r3, .L257
 4439 000c D3ED027A 		vldr.32	s15, [r3, #8]
 4440 0010 DFED550A 		vldr.32	s1, .L257+4
 4441 0014 F7EE002A 		vmov.f32	s5, #1.0e+0
 4442 0018 9FED542A 		vldr.32	s4, .L257+8
 4443 001c F0EE601A 		vmov.f32	s3, s1
ARM GAS  C:\Users\kotaro\AppData\Local\Temp\ccTjQSLT.s 			page 96


 4444 0020 B0EE601A 		vmov.f32	s2, s1
 4445 0024 9FED520A 		vldr.32	s0, .L257+12
 4446              	.LVL272:
 4447 0028 30EE670A 		vsub.f32	s0, s0, s15
 4448 002c FFF7FEFF 		bl	Control_StrCalculator
 4449              	.LVL273:
 945:Src/motion.c  ****     Control_AngCalculator(0, 0, 0, 0, 1, 0);
 4450              		.loc 1 945 0
 4451 0030 9FED500A 		vldr.32	s0, .L257+16
 4452 0034 F0EE402A 		vmov.f32	s5, s0
 4453 0038 B7EE002A 		vmov.f32	s4, #1.0e+0
 4454 003c F0EE401A 		vmov.f32	s3, s0
 4455 0040 B0EE401A 		vmov.f32	s2, s0
 4456 0044 F0EE400A 		vmov.f32	s1, s0
 4457 0048 FFF7FEFF 		bl	Control_AngCalculator
 4458              	.LVL274:
 946:Src/motion.c  ****     motion_end_flag = FALSE;
 4459              		.loc 1 946 0
 4460 004c 4A4B     		ldr	r3, .L257+20
 4461 004e 0022     		movs	r2, #0
 4462 0050 1A70     		strb	r2, [r3]
 4463              	.L250:
 947:Src/motion.c  ****     while (motion_end_flag == FALSE)
 4464              		.loc 1 947 0 discriminator 1
 4465 0052 494B     		ldr	r3, .L257+20
 4466 0054 1B78     		ldrb	r3, [r3]	@ zero_extendqisi2
 4467 0056 002B     		cmp	r3, #0
 4468 0058 FBD0     		beq	.L250
 948:Src/motion.c  ****     {
 949:Src/motion.c  ****     }
 950:Src/motion.c  ****     //turn
 951:Src/motion.c  ****     Control_StrCalculator(VELO_F, VELO_F, VELO_F, VELO_F, 1, 1);
 4469              		.loc 1 951 0
 4470 005a 9FED430A 		vldr.32	s0, .L257+4
 4471 005e F7EE002A 		vmov.f32	s5, #1.0e+0
 4472 0062 B0EE622A 		vmov.f32	s4, s5
 4473 0066 F0EE401A 		vmov.f32	s3, s0
 4474 006a B0EE401A 		vmov.f32	s2, s0
 4475 006e F0EE400A 		vmov.f32	s1, s0
 4476 0072 FFF7FEFF 		bl	Control_StrCalculator
 4477              	.LVL275:
 952:Src/motion.c  ****     Control_AngCalculator(90.5f, 0, 400.0f, 0, 5000.0f, -1);
 4478              		.loc 1 952 0
 4479 0076 DFED3F0A 		vldr.32	s1, .L257+16
 4480 007a FFEE002A 		vmov.f32	s5, #-1.0e+0
 4481 007e 9FED3F2A 		vldr.32	s4, .L257+24
 4482 0082 F0EE601A 		vmov.f32	s3, s1
 4483 0086 9FED3E1A 		vldr.32	s2, .L257+28
 4484 008a 9FED3E0A 		vldr.32	s0, .L257+32
 4485 008e FFF7FEFF 		bl	Control_AngCalculator
 4486              	.LVL276:
 953:Src/motion.c  ****     motion_end_flag = FALSE;
 4487              		.loc 1 953 0
 4488 0092 394B     		ldr	r3, .L257+20
 4489 0094 0022     		movs	r2, #0
 4490 0096 1A70     		strb	r2, [r3]
 4491              	.L251:
ARM GAS  C:\Users\kotaro\AppData\Local\Temp\ccTjQSLT.s 			page 97


 954:Src/motion.c  ****     while (motion_end_flag == FALSE)
 4492              		.loc 1 954 0 discriminator 1
 4493 0098 374B     		ldr	r3, .L257+20
 4494 009a 1B78     		ldrb	r3, [r3]	@ zero_extendqisi2
 4495 009c 002B     		cmp	r3, #0
 4496 009e FBD0     		beq	.L251
 955:Src/motion.c  ****     {
 956:Src/motion.c  ****     }
 957:Src/motion.c  ****     //offset out
 958:Src/motion.c  ****     if (v_end == 0.0f)
 4497              		.loc 1 958 0
 4498 00a0 B5EE408A 		vcmp.f32	s16, #0
 4499 00a4 F1EE10FA 		vmrs	APSR_nzcv, FPSCR
 4500 00a8 32D1     		bne	.L252
 959:Src/motion.c  ****     {
 960:Src/motion.c  ****         Control_StrCalculator(38.0f, VELO_F, VELO_F, 0.0f, 10000.0f, 1); //41
 4501              		.loc 1 960 0
 4502 00aa 9FED328A 		vldr.32	s16, .L257+16
 4503              	.LVL277:
 4504 00ae DFED2E0A 		vldr.32	s1, .L257+4
 4505 00b2 F7EE002A 		vmov.f32	s5, #1.0e+0
 4506 00b6 9FED342A 		vldr.32	s4, .L257+36
 4507 00ba F0EE481A 		vmov.f32	s3, s16
 4508 00be B0EE601A 		vmov.f32	s2, s1
 4509 00c2 9FED320A 		vldr.32	s0, .L257+40
 4510 00c6 FFF7FEFF 		bl	Control_StrCalculator
 4511              	.LVL278:
 961:Src/motion.c  ****         Control_AngCalculator(0, 0, 0, 0, 1, 0);
 4512              		.loc 1 961 0
 4513 00ca F0EE482A 		vmov.f32	s5, s16
 4514 00ce B7EE002A 		vmov.f32	s4, #1.0e+0
 4515 00d2 F0EE481A 		vmov.f32	s3, s16
 4516 00d6 B0EE481A 		vmov.f32	s2, s16
 4517 00da F0EE480A 		vmov.f32	s1, s16
 4518 00de B0EE480A 		vmov.f32	s0, s16
 4519 00e2 FFF7FEFF 		bl	Control_AngCalculator
 4520              	.LVL279:
 962:Src/motion.c  ****         motion_end_flag = FALSE;
 4521              		.loc 1 962 0
 4522 00e6 244B     		ldr	r3, .L257+20
 4523 00e8 0022     		movs	r2, #0
 4524 00ea 1A70     		strb	r2, [r3]
 4525              	.L253:
 963:Src/motion.c  ****         while (motion_end_flag == FALSE)
 4526              		.loc 1 963 0 discriminator 1
 4527 00ec 224B     		ldr	r3, .L257+20
 4528 00ee 1B78     		ldrb	r3, [r3]	@ zero_extendqisi2
 4529 00f0 002B     		cmp	r3, #0
 4530 00f2 FBD0     		beq	.L253
 964:Src/motion.c  ****         {
 965:Src/motion.c  ****         }
 966:Src/motion.c  ****         enc.offset = 0.0f;
 4531              		.loc 1 966 0
 4532 00f4 0023     		movs	r3, #0
 4533 00f6 1B4A     		ldr	r2, .L257
 4534 00f8 9360     		str	r3, [r2, #8]	@ float
 967:Src/motion.c  ****         straight.v_now = 0;
ARM GAS  C:\Users\kotaro\AppData\Local\Temp\ccTjQSLT.s 			page 98


 4535              		.loc 1 967 0
 4536 00fa 254A     		ldr	r2, .L257+44
 4537 00fc D360     		str	r3, [r2, #12]	@ float
 968:Src/motion.c  ****         angle.v_now = 0;
 4538              		.loc 1 968 0
 4539 00fe 254A     		ldr	r2, .L257+48
 4540 0100 D360     		str	r3, [r2, #12]	@ float
 969:Src/motion.c  ****         HAL_Delay(800);
 4541              		.loc 1 969 0
 4542 0102 4FF44870 		mov	r0, #800
 4543 0106 FFF7FEFF 		bl	HAL_Delay
 4544              	.LVL280:
 4545              	.L249:
 970:Src/motion.c  ****     }
 971:Src/motion.c  ****     else
 972:Src/motion.c  ****     {
 973:Src/motion.c  ****         Control_WallEdgeAble(0b11);
 974:Src/motion.c  ****         Control_StrCalculator(38.0f, VELO_F, VELO_F, v_end, 1, 1); //41
 975:Src/motion.c  ****         Control_AngCalculator(0, 0, 0, 0, 1, 0);
 976:Src/motion.c  ****         motion_end_flag = FALSE;
 977:Src/motion.c  ****         while (motion_end_flag == FALSE)
 978:Src/motion.c  ****         {
 979:Src/motion.c  ****         }
 980:Src/motion.c  ****         enc.offset = 0.0f;
 981:Src/motion.c  ****     }
 982:Src/motion.c  **** }
 4546              		.loc 1 982 0
 4547 010a BDEC028B 		vldm	sp!, {d8}
 4548              	.LCFI77:
 4549              		.cfi_remember_state
 4550              		.cfi_restore 80
 4551              		.cfi_restore 81
 4552              		.cfi_def_cfa_offset 8
 4553 010e 08BD     		pop	{r3, pc}
 4554              	.LVL281:
 4555              	.L252:
 4556              	.LCFI78:
 4557              		.cfi_restore_state
 973:Src/motion.c  ****         Control_StrCalculator(38.0f, VELO_F, VELO_F, v_end, 1, 1); //41
 4558              		.loc 1 973 0
 4559 0110 0320     		movs	r0, #3
 4560 0112 FFF7FEFF 		bl	Control_WallEdgeAble
 4561              	.LVL282:
 974:Src/motion.c  ****         Control_AngCalculator(0, 0, 0, 0, 1, 0);
 4562              		.loc 1 974 0
 4563 0116 DFED140A 		vldr.32	s1, .L257+4
 4564 011a F7EE002A 		vmov.f32	s5, #1.0e+0
 4565 011e B0EE622A 		vmov.f32	s4, s5
 4566 0122 F0EE481A 		vmov.f32	s3, s16
 4567 0126 B0EE601A 		vmov.f32	s2, s1
 4568 012a 9FED180A 		vldr.32	s0, .L257+40
 4569 012e FFF7FEFF 		bl	Control_StrCalculator
 4570              	.LVL283:
 975:Src/motion.c  ****         motion_end_flag = FALSE;
 4571              		.loc 1 975 0
 4572 0132 9FED100A 		vldr.32	s0, .L257+16
 4573 0136 F0EE402A 		vmov.f32	s5, s0
ARM GAS  C:\Users\kotaro\AppData\Local\Temp\ccTjQSLT.s 			page 99


 4574 013a B7EE002A 		vmov.f32	s4, #1.0e+0
 4575 013e F0EE401A 		vmov.f32	s3, s0
 4576 0142 B0EE401A 		vmov.f32	s2, s0
 4577 0146 F0EE400A 		vmov.f32	s1, s0
 4578 014a FFF7FEFF 		bl	Control_AngCalculator
 4579              	.LVL284:
 976:Src/motion.c  ****         while (motion_end_flag == FALSE)
 4580              		.loc 1 976 0
 4581 014e 0A4B     		ldr	r3, .L257+20
 4582 0150 0022     		movs	r2, #0
 4583 0152 1A70     		strb	r2, [r3]
 4584              	.L255:
 977:Src/motion.c  ****         {
 4585              		.loc 1 977 0 discriminator 1
 4586 0154 084B     		ldr	r3, .L257+20
 4587 0156 1B78     		ldrb	r3, [r3]	@ zero_extendqisi2
 4588 0158 002B     		cmp	r3, #0
 4589 015a FBD0     		beq	.L255
 980:Src/motion.c  ****     }
 4590              		.loc 1 980 0
 4591 015c 014B     		ldr	r3, .L257
 4592 015e 0022     		movs	r2, #0
 4593 0160 9A60     		str	r2, [r3, #8]	@ float
 4594              		.loc 1 982 0
 4595 0162 D2E7     		b	.L249
 4596              	.L258:
 4597              		.align	2
 4598              	.L257:
 4599 0164 00000000 		.word	enc
 4600 0168 00004844 		.word	1145569280
 4601 016c 0000FA45 		.word	1174011904
 4602 0170 0000E441 		.word	1105461248
 4603 0174 00000000 		.word	0
 4604 0178 00000000 		.word	motion_end_flag
 4605 017c 00409C45 		.word	1167867904
 4606 0180 0000C843 		.word	1137180672
 4607 0184 0000B542 		.word	1119158272
 4608 0188 00401C46 		.word	1176256512
 4609 018c 00001842 		.word	1108869120
 4610 0190 00000000 		.word	straight
 4611 0194 00000000 		.word	angle
 4612              		.cfi_endproc
 4613              	.LFE188:
 4615              		.section	.text.Turn,"ax",%progbits
 4616              		.align	1
 4617              		.global	Turn
 4618              		.syntax unified
 4619              		.thumb
 4620              		.thumb_func
 4621              		.fpu fpv4-sp-d16
 4623              	Turn:
 4624              	.LFB189:
 983:Src/motion.c  **** 
 984:Src/motion.c  **** void Turn(float offset_in, float offset_out, uint8_t d_flag, float velo, float v_end, float deg, fl
 985:Src/motion.c  **** {
 4625              		.loc 1 985 0
 4626              		.cfi_startproc
ARM GAS  C:\Users\kotaro\AppData\Local\Temp\ccTjQSLT.s 			page 100


 4627              		@ args = 0, pretend = 0, frame = 0
 4628              		@ frame_needed = 0, uses_anonymous_args = 0
 4629              	.LVL285:
 4630 0000 70B5     		push	{r4, r5, r6, lr}
 4631              	.LCFI79:
 4632              		.cfi_def_cfa_offset 16
 4633              		.cfi_offset 4, -16
 4634              		.cfi_offset 5, -12
 4635              		.cfi_offset 6, -8
 4636              		.cfi_offset 14, -4
 4637 0002 2DED068B 		vpush.64	{d8, d9, d10}
 4638              	.LCFI80:
 4639              		.cfi_def_cfa_offset 40
 4640              		.cfi_offset 80, -40
 4641              		.cfi_offset 81, -36
 4642              		.cfi_offset 82, -32
 4643              		.cfi_offset 83, -28
 4644              		.cfi_offset 84, -24
 4645              		.cfi_offset 85, -20
 4646 0006 F0EE60AA 		vmov.f32	s21, s1
 4647 000a 0546     		mov	r5, r0
 4648 000c B0EE418A 		vmov.f32	s16, s2
 4649 0010 F0EE618A 		vmov.f32	s17, s3
 4650 0014 B0EE429A 		vmov.f32	s18, s4
 4651 0018 F0EE629A 		vmov.f32	s19, s5
 4652 001c B0EE43AA 		vmov.f32	s20, s6
 4653 0020 0C46     		mov	r4, r1
 4654 0022 1646     		mov	r6, r2
 986:Src/motion.c  ****     //offset in
 987:Src/motion.c  ****     Control_StrCalculator(offset_in - enc.offset, velo, velo, velo, 1, 1);
 4655              		.loc 1 987 0
 4656 0024 6E4B     		ldr	r3, .L272
 4657 0026 D3ED027A 		vldr.32	s15, [r3, #8]
 4658 002a F7EE002A 		vmov.f32	s5, #1.0e+0
 4659              	.LVL286:
 4660 002e B0EE622A 		vmov.f32	s4, s5
 4661              	.LVL287:
 4662 0032 F0EE411A 		vmov.f32	s3, s2
 4663              	.LVL288:
 4664 0036 F0EE410A 		vmov.f32	s1, s2
 4665              	.LVL289:
 4666 003a 30EE670A 		vsub.f32	s0, s0, s15
 4667              	.LVL290:
 4668 003e FFF7FEFF 		bl	Control_StrCalculator
 4669              	.LVL291:
 988:Src/motion.c  ****     Control_AngCalculator(0, 0, 0, 0, 1, 0);
 4670              		.loc 1 988 0
 4671 0042 9FED680A 		vldr.32	s0, .L272+4
 4672 0046 F0EE402A 		vmov.f32	s5, s0
 4673 004a B7EE002A 		vmov.f32	s4, #1.0e+0
 4674 004e F0EE401A 		vmov.f32	s3, s0
 4675 0052 B0EE401A 		vmov.f32	s2, s0
 4676 0056 F0EE400A 		vmov.f32	s1, s0
 4677 005a FFF7FEFF 		bl	Control_AngCalculator
 4678              	.LVL292:
 989:Src/motion.c  ****     motion_end_flag = FALSE;
 4679              		.loc 1 989 0
ARM GAS  C:\Users\kotaro\AppData\Local\Temp\ccTjQSLT.s 			page 101


 4680 005e 624B     		ldr	r3, .L272+8
 4681 0060 0022     		movs	r2, #0
 4682 0062 1A70     		strb	r2, [r3]
 4683              	.L260:
 990:Src/motion.c  ****     while (motion_end_flag == FALSE)
 4684              		.loc 1 990 0 discriminator 1
 4685 0064 604B     		ldr	r3, .L272+8
 4686 0066 1B78     		ldrb	r3, [r3]	@ zero_extendqisi2
 4687 0068 002B     		cmp	r3, #0
 4688 006a FBD0     		beq	.L260
 991:Src/motion.c  ****     {
 992:Src/motion.c  ****     }
 993:Src/motion.c  ****     //turn
 994:Src/motion.c  ****     Control_StrCalculator(800.0f, velo, velo, velo, 1.0f, 1.0f); //600
 4689              		.loc 1 994 0
 4690 006c F7EE002A 		vmov.f32	s5, #1.0e+0
 4691 0070 B0EE622A 		vmov.f32	s4, s5
 4692 0074 F0EE481A 		vmov.f32	s3, s16
 4693 0078 B0EE481A 		vmov.f32	s2, s16
 4694 007c F0EE480A 		vmov.f32	s1, s16
 4695 0080 9FED5A0A 		vldr.32	s0, .L272+12
 4696 0084 FFF7FEFF 		bl	Control_StrCalculator
 4697              	.LVL293:
 995:Src/motion.c  ****     Control_AngCalculator(deg, 0, velo_ang, 0, accel_ang, dir);
 4698              		.loc 1 995 0
 4699 0088 DFED560A 		vldr.32	s1, .L272+4
 4700 008c 07EE904A 		vmov	s15, r4	@ int
 4701 0090 F8EE672A 		vcvt.f32.u32	s5, s15
 4702 0094 B0EE4A2A 		vmov.f32	s4, s20
 4703 0098 F0EE601A 		vmov.f32	s3, s1
 4704 009c B0EE691A 		vmov.f32	s2, s19
 4705 00a0 B0EE490A 		vmov.f32	s0, s18
 4706 00a4 FFF7FEFF 		bl	Control_AngCalculator
 4707              	.LVL294:
 996:Src/motion.c  ****     motion_end_flag = FALSE;
 4708              		.loc 1 996 0
 4709 00a8 4F4B     		ldr	r3, .L272+8
 4710 00aa 0022     		movs	r2, #0
 4711 00ac 1A70     		strb	r2, [r3]
 4712              	.L261:
 997:Src/motion.c  ****     while (motion_end_flag == FALSE)
 4713              		.loc 1 997 0 discriminator 1
 4714 00ae 4E4B     		ldr	r3, .L272+8
 4715 00b0 1B78     		ldrb	r3, [r3]	@ zero_extendqisi2
 4716 00b2 002B     		cmp	r3, #0
 4717 00b4 FBD0     		beq	.L261
 998:Src/motion.c  ****     {
 999:Src/motion.c  ****     }
1000:Src/motion.c  ****     //offset out
1001:Src/motion.c  ****     control_wall_flag = wall_flag;
 4718              		.loc 1 1001 0
 4719 00b6 4E4B     		ldr	r3, .L272+16
 4720 00b8 1E70     		strb	r6, [r3]
1002:Src/motion.c  ****     if (d_flag == 0)
 4721              		.loc 1 1002 0
 4722 00ba 002D     		cmp	r5, #0
 4723 00bc 5DD1     		bne	.L262
ARM GAS  C:\Users\kotaro\AppData\Local\Temp\ccTjQSLT.s 			page 102


1003:Src/motion.c  ****     {
1004:Src/motion.c  ****         if (v_end == 0.0f)
 4724              		.loc 1 1004 0
 4725 00be F5EE408A 		vcmp.f32	s17, #0
 4726 00c2 F1EE10FA 		vmrs	APSR_nzcv, FPSCR
 4727 00c6 2ED1     		bne	.L263
1005:Src/motion.c  ****         {
1006:Src/motion.c  ****             Control_StrCalculator(offset_out, velo, velo, 0.0f, 8000.0f, 1);
 4728              		.loc 1 1006 0
 4729 00c8 DFED468A 		vldr.32	s17, .L272+4
 4730              	.LVL295:
 4731 00cc F7EE002A 		vmov.f32	s5, #1.0e+0
 4732 00d0 9FED482A 		vldr.32	s4, .L272+20
 4733 00d4 F0EE681A 		vmov.f32	s3, s17
 4734 00d8 B0EE481A 		vmov.f32	s2, s16
 4735 00dc F0EE480A 		vmov.f32	s1, s16
 4736 00e0 B0EE6A0A 		vmov.f32	s0, s21
 4737 00e4 FFF7FEFF 		bl	Control_StrCalculator
 4738              	.LVL296:
1007:Src/motion.c  ****             Control_AngCalculator(0, 0, 0, 0, 1, 0);
 4739              		.loc 1 1007 0
 4740 00e8 F0EE682A 		vmov.f32	s5, s17
 4741 00ec B7EE002A 		vmov.f32	s4, #1.0e+0
 4742 00f0 F0EE681A 		vmov.f32	s3, s17
 4743 00f4 B0EE681A 		vmov.f32	s2, s17
 4744 00f8 F0EE680A 		vmov.f32	s1, s17
 4745 00fc B0EE680A 		vmov.f32	s0, s17
 4746 0100 FFF7FEFF 		bl	Control_AngCalculator
 4747              	.LVL297:
1008:Src/motion.c  ****             motion_end_flag = FALSE;
 4748              		.loc 1 1008 0
 4749 0104 384B     		ldr	r3, .L272+8
 4750 0106 0022     		movs	r2, #0
 4751 0108 1A70     		strb	r2, [r3]
 4752              	.L264:
1009:Src/motion.c  ****             while (motion_end_flag == FALSE)
 4753              		.loc 1 1009 0 discriminator 1
 4754 010a 374B     		ldr	r3, .L272+8
 4755 010c 1B78     		ldrb	r3, [r3]	@ zero_extendqisi2
 4756 010e 002B     		cmp	r3, #0
 4757 0110 FBD0     		beq	.L264
1010:Src/motion.c  ****             {
1011:Src/motion.c  ****             }
1012:Src/motion.c  ****             straight.v_now = 0;
 4758              		.loc 1 1012 0
 4759 0112 0023     		movs	r3, #0
 4760 0114 384A     		ldr	r2, .L272+24
 4761 0116 D360     		str	r3, [r2, #12]	@ float
1013:Src/motion.c  ****             angle.v_now = 0;
 4762              		.loc 1 1013 0
 4763 0118 384A     		ldr	r2, .L272+28
 4764 011a D360     		str	r3, [r2, #12]	@ float
1014:Src/motion.c  ****             HAL_Delay(800);
 4765              		.loc 1 1014 0
 4766 011c 4FF44870 		mov	r0, #800
 4767 0120 FFF7FEFF 		bl	HAL_Delay
 4768              	.LVL298:
ARM GAS  C:\Users\kotaro\AppData\Local\Temp\ccTjQSLT.s 			page 103


 4769 0124 54E0     		b	.L259
 4770              	.LVL299:
 4771              	.L263:
1015:Src/motion.c  ****         }
1016:Src/motion.c  ****         else
1017:Src/motion.c  ****         {
1018:Src/motion.c  ****             Control_WallEdgeAble(0b11);
 4772              		.loc 1 1018 0
 4773 0126 0320     		movs	r0, #3
 4774 0128 FFF7FEFF 		bl	Control_WallEdgeAble
 4775              	.LVL300:
1019:Src/motion.c  ****             Control_StrCalculator(offset_out, velo, velo, v_end, 1, 1);
 4776              		.loc 1 1019 0
 4777 012c F7EE002A 		vmov.f32	s5, #1.0e+0
 4778 0130 B0EE622A 		vmov.f32	s4, s5
 4779 0134 F0EE681A 		vmov.f32	s3, s17
 4780 0138 B0EE481A 		vmov.f32	s2, s16
 4781 013c F0EE480A 		vmov.f32	s1, s16
 4782 0140 B0EE6A0A 		vmov.f32	s0, s21
 4783 0144 FFF7FEFF 		bl	Control_StrCalculator
 4784              	.LVL301:
1020:Src/motion.c  ****             Control_AngCalculator(0, 0, 0, 0, 1, 0);
 4785              		.loc 1 1020 0
 4786 0148 9FED260A 		vldr.32	s0, .L272+4
 4787 014c F0EE402A 		vmov.f32	s5, s0
 4788 0150 B7EE002A 		vmov.f32	s4, #1.0e+0
 4789 0154 F0EE401A 		vmov.f32	s3, s0
 4790 0158 B0EE401A 		vmov.f32	s2, s0
 4791 015c F0EE400A 		vmov.f32	s1, s0
 4792 0160 FFF7FEFF 		bl	Control_AngCalculator
 4793              	.LVL302:
1021:Src/motion.c  ****             motion_end_flag = FALSE;
 4794              		.loc 1 1021 0
 4795 0164 204B     		ldr	r3, .L272+8
 4796 0166 0022     		movs	r2, #0
 4797 0168 1A70     		strb	r2, [r3]
 4798              	.L266:
1022:Src/motion.c  ****             while (motion_end_flag == FALSE)
 4799              		.loc 1 1022 0 discriminator 1
 4800 016a 1F4B     		ldr	r3, .L272+8
 4801 016c 1B78     		ldrb	r3, [r3]	@ zero_extendqisi2
 4802 016e 002B     		cmp	r3, #0
 4803 0170 FBD0     		beq	.L266
1023:Src/motion.c  ****             {
1024:Src/motion.c  ****             }
1025:Src/motion.c  ****             enc.offset = 0.0f;
 4804              		.loc 1 1025 0
 4805 0172 1B4B     		ldr	r3, .L272
 4806 0174 0022     		movs	r2, #0
 4807 0176 9A60     		str	r2, [r3, #8]	@ float
 4808 0178 2AE0     		b	.L259
 4809              	.L262:
1026:Src/motion.c  ****         }
1027:Src/motion.c  ****     }
1028:Src/motion.c  ****     else
1029:Src/motion.c  ****     {
1030:Src/motion.c  ****         if (dir == 1)
ARM GAS  C:\Users\kotaro\AppData\Local\Temp\ccTjQSLT.s 			page 104


 4810              		.loc 1 1030 0
 4811 017a 012C     		cmp	r4, #1
 4812 017c 2BD0     		beq	.L271
1031:Src/motion.c  ****         {
1032:Src/motion.c  ****             Control_WallEdgeAble(0b0100);
1033:Src/motion.c  ****         }
1034:Src/motion.c  ****         else
1035:Src/motion.c  ****         {
1036:Src/motion.c  ****             Control_WallEdgeAble(0b1000);
 4813              		.loc 1 1036 0
 4814 017e 0820     		movs	r0, #8
 4815 0180 FFF7FEFF 		bl	Control_WallEdgeAble
 4816              	.LVL303:
 4817              	.L268:
1037:Src/motion.c  ****         }
1038:Src/motion.c  ****         Control_StrCalculator(offset_out, velo, velo, v_end, 16000.0f, 1);
 4818              		.loc 1 1038 0
 4819 0184 F7EE002A 		vmov.f32	s5, #1.0e+0
 4820 0188 9FED1D2A 		vldr.32	s4, .L272+32
 4821 018c F0EE681A 		vmov.f32	s3, s17
 4822 0190 B0EE481A 		vmov.f32	s2, s16
 4823 0194 F0EE480A 		vmov.f32	s1, s16
 4824 0198 B0EE6A0A 		vmov.f32	s0, s21
 4825 019c FFF7FEFF 		bl	Control_StrCalculator
 4826              	.LVL304:
1039:Src/motion.c  ****         Control_AngCalculator(0, 0, 0, 0, 1, 0);
 4827              		.loc 1 1039 0
 4828 01a0 9FED100A 		vldr.32	s0, .L272+4
 4829 01a4 F0EE402A 		vmov.f32	s5, s0
 4830 01a8 B7EE002A 		vmov.f32	s4, #1.0e+0
 4831 01ac F0EE401A 		vmov.f32	s3, s0
 4832 01b0 B0EE401A 		vmov.f32	s2, s0
 4833 01b4 F0EE400A 		vmov.f32	s1, s0
 4834 01b8 FFF7FEFF 		bl	Control_AngCalculator
 4835              	.LVL305:
1040:Src/motion.c  ****         motion_end_flag = FALSE;
 4836              		.loc 1 1040 0
 4837 01bc 0A4B     		ldr	r3, .L272+8
 4838 01be 0022     		movs	r2, #0
 4839 01c0 1A70     		strb	r2, [r3]
 4840              	.L269:
1041:Src/motion.c  ****         while (motion_end_flag == FALSE)
 4841              		.loc 1 1041 0 discriminator 1
 4842 01c2 094B     		ldr	r3, .L272+8
 4843 01c4 1B78     		ldrb	r3, [r3]	@ zero_extendqisi2
 4844 01c6 002B     		cmp	r3, #0
 4845 01c8 FBD0     		beq	.L269
1042:Src/motion.c  ****         {
1043:Src/motion.c  ****         }
1044:Src/motion.c  ****         enc.offset = 0.0f;
 4846              		.loc 1 1044 0
 4847 01ca 054B     		ldr	r3, .L272
 4848 01cc 0022     		movs	r2, #0
 4849 01ce 9A60     		str	r2, [r3, #8]	@ float
 4850              	.LVL306:
 4851              	.L259:
1045:Src/motion.c  ****     }
ARM GAS  C:\Users\kotaro\AppData\Local\Temp\ccTjQSLT.s 			page 105


1046:Src/motion.c  **** }
 4852              		.loc 1 1046 0
 4853 01d0 BDEC068B 		vldm	sp!, {d8-d10}
 4854              	.LCFI81:
 4855              		.cfi_remember_state
 4856              		.cfi_restore 84
 4857              		.cfi_restore 85
 4858              		.cfi_restore 82
 4859              		.cfi_restore 83
 4860              		.cfi_restore 80
 4861              		.cfi_restore 81
 4862              		.cfi_def_cfa_offset 16
 4863              	.LVL307:
 4864 01d4 70BD     		pop	{r4, r5, r6, pc}
 4865              	.LVL308:
 4866              	.L271:
 4867              	.LCFI82:
 4868              		.cfi_restore_state
1032:Src/motion.c  ****         }
 4869              		.loc 1 1032 0
 4870 01d6 0420     		movs	r0, #4
 4871 01d8 FFF7FEFF 		bl	Control_WallEdgeAble
 4872              	.LVL309:
 4873 01dc D2E7     		b	.L268
 4874              	.L273:
 4875 01de 00BF     		.align	2
 4876              	.L272:
 4877 01e0 00000000 		.word	enc
 4878 01e4 00000000 		.word	0
 4879 01e8 00000000 		.word	motion_end_flag
 4880 01ec 00004844 		.word	1145569280
 4881 01f0 00000000 		.word	control_wall_flag
 4882 01f4 0000FA45 		.word	1174011904
 4883 01f8 00000000 		.word	straight
 4884 01fc 00000000 		.word	angle
 4885 0200 00007A46 		.word	1182400512
 4886              		.cfi_endproc
 4887              	.LFE189:
 4889              		.section	.text.Motion_FastLeftTurn,"ax",%progbits
 4890              		.align	1
 4891              		.global	Motion_FastLeftTurn
 4892              		.syntax unified
 4893              		.thumb
 4894              		.thumb_func
 4895              		.fpu fpv4-sp-d16
 4897              	Motion_FastLeftTurn:
 4898              	.LFB190:
1047:Src/motion.c  **** 
1048:Src/motion.c  **** void Motion_FastLeftTurn(uint8_t type, float v_end)
1049:Src/motion.c  **** {
 4899              		.loc 1 1049 0
 4900              		.cfi_startproc
 4901              		@ args = 0, pretend = 0, frame = 0
 4902              		@ frame_needed = 0, uses_anonymous_args = 0
 4903              	.LVL310:
 4904 0000 08B5     		push	{r3, lr}
 4905              	.LCFI83:
ARM GAS  C:\Users\kotaro\AppData\Local\Temp\ccTjQSLT.s 			page 106


 4906              		.cfi_def_cfa_offset 8
 4907              		.cfi_offset 3, -8
 4908              		.cfi_offset 14, -4
1050:Src/motion.c  ****     switch (type)
 4909              		.loc 1 1050 0
 4910 0002 0728     		cmp	r0, #7
 4911 0004 07D8     		bhi	.L274
 4912 0006 DFE800F0 		tbb	[pc, r0]
 4913              	.L277:
 4914 000a 04       		.byte	(.L276-.L277)/2
 4915 000b 1E       		.byte	(.L278-.L277)/2
 4916 000c 27       		.byte	(.L279-.L277)/2
 4917 000d 07       		.byte	(.L280-.L277)/2
 4918 000e 0A       		.byte	(.L281-.L277)/2
 4919 000f 21       		.byte	(.L282-.L277)/2
 4920 0010 3B       		.byte	(.L283-.L277)/2
 4921 0011 51       		.byte	(.L284-.L277)/2
 4922              		.p2align 1
 4923              	.L276:
1051:Src/motion.c  ****     {
1052:Src/motion.c  ****     case SEARCH:
1053:Src/motion.c  ****         Motion_LeftTurn();
 4924              		.loc 1 1053 0
 4925 0012 FFF7FEFF 		bl	Motion_LeftTurn
 4926              	.LVL311:
 4927              	.L274:
1054:Src/motion.c  ****         break;
1055:Src/motion.c  ****     case T_90:
1056:Src/motion.c  ****         Motion_Left90Turn(v_end);
1057:Src/motion.c  ****         break;
1058:Src/motion.c  ****     case T_180:
1059:Src/motion.c  ****         Turn(36.0f, 43.0f, 0, 800.0f, v_end, 180.0f, 520.0f, 5000.0f, 1, 2); //0ut = 53
1060:Src/motion.c  ****         break;
1061:Src/motion.c  ****     case T_45IN:
1062:Src/motion.c  ****         Motion_InLeft45Turn();
1063:Src/motion.c  ****         break;
1064:Src/motion.c  ****     case T_45OUT:
1065:Src/motion.c  ****         control_wall_flag = 0;
1066:Src/motion.c  ****         Motion_OutLeft45Turn(v_end);
1067:Src/motion.c  ****         break;
1068:Src/motion.c  ****     case T_135IN:
1069:Src/motion.c  ****         Turn(49.0f, 46.0f, 1, 800.0f, 800.0f, 135.0f, 600.0f, 8000.0f, 1, 3);
1070:Src/motion.c  ****         break;
1071:Src/motion.c  ****     case T_135OUT:
1072:Src/motion.c  ****         control_wall_flag = 0;
1073:Src/motion.c  ****         Turn(28.0f, 57.5f, 0, 800.0f, v_end, 135.0f, 600.0f, 8000.0f, 1, 2); //in=34 out=67
1074:Src/motion.c  ****         break;
1075:Src/motion.c  ****     case T_V90:
1076:Src/motion.c  ****         control_wall_flag = 0;
1077:Src/motion.c  ****         Turn(46.0f, 67.0f, 1, 800.0f, 800.0f, 90.25f, 800.0f, 20000.0f, 1, 3); //in=67 out=23
1078:Src/motion.c  ****         break;
1079:Src/motion.c  ****     }
1080:Src/motion.c  **** }
 4928              		.loc 1 1080 0
 4929 0016 08BD     		pop	{r3, pc}
 4930              	.LVL312:
 4931              	.L280:
ARM GAS  C:\Users\kotaro\AppData\Local\Temp\ccTjQSLT.s 			page 107


1056:Src/motion.c  ****         break;
 4932              		.loc 1 1056 0
 4933 0018 FFF7FEFF 		bl	Motion_Left90Turn
 4934              	.LVL313:
1057:Src/motion.c  ****     case T_180:
 4935              		.loc 1 1057 0
 4936 001c FBE7     		b	.L274
 4937              	.LVL314:
 4938              	.L281:
1059:Src/motion.c  ****         break;
 4939              		.loc 1 1059 0
 4940 001e 0222     		movs	r2, #2
 4941 0020 0121     		movs	r1, #1
 4942 0022 9FED2E3A 		vldr.32	s6, .L286
 4943 0026 DFED2E2A 		vldr.32	s5, .L286+4
 4944 002a 9FED2E2A 		vldr.32	s4, .L286+8
 4945 002e F0EE401A 		vmov.f32	s3, s0
 4946 0032 9FED2D1A 		vldr.32	s2, .L286+12
 4947 0036 0020     		movs	r0, #0
 4948              	.LVL315:
 4949 0038 DFED2C0A 		vldr.32	s1, .L286+16
 4950 003c 9FED2C0A 		vldr.32	s0, .L286+20
 4951              	.LVL316:
 4952 0040 FFF7FEFF 		bl	Turn
 4953              	.LVL317:
1060:Src/motion.c  ****     case T_45IN:
 4954              		.loc 1 1060 0
 4955 0044 E7E7     		b	.L274
 4956              	.LVL318:
 4957              	.L278:
1062:Src/motion.c  ****         break;
 4958              		.loc 1 1062 0
 4959 0046 FFF7FEFF 		bl	Motion_InLeft45Turn
 4960              	.LVL319:
1063:Src/motion.c  ****     case T_45OUT:
 4961              		.loc 1 1063 0
 4962 004a E4E7     		b	.L274
 4963              	.LVL320:
 4964              	.L282:
1065:Src/motion.c  ****         Motion_OutLeft45Turn(v_end);
 4965              		.loc 1 1065 0
 4966 004c 294B     		ldr	r3, .L286+24
 4967 004e 0022     		movs	r2, #0
 4968 0050 1A70     		strb	r2, [r3]
1066:Src/motion.c  ****         break;
 4969              		.loc 1 1066 0
 4970 0052 FFF7FEFF 		bl	Motion_OutLeft45Turn
 4971              	.LVL321:
1067:Src/motion.c  ****     case T_135IN:
 4972              		.loc 1 1067 0
 4973 0056 DEE7     		b	.L274
 4974              	.LVL322:
 4975              	.L279:
1069:Src/motion.c  ****         break;
 4976              		.loc 1 1069 0
 4977 0058 9FED231A 		vldr.32	s2, .L286+12
 4978 005c 0322     		movs	r2, #3
ARM GAS  C:\Users\kotaro\AppData\Local\Temp\ccTjQSLT.s 			page 108


 4979 005e 0121     		movs	r1, #1
 4980 0060 9FED253A 		vldr.32	s6, .L286+28
 4981 0064 DFED252A 		vldr.32	s5, .L286+32
 4982 0068 9FED252A 		vldr.32	s4, .L286+36
 4983 006c F0EE411A 		vmov.f32	s3, s2
 4984 0070 0846     		mov	r0, r1
 4985              	.LVL323:
 4986 0072 DFED240A 		vldr.32	s1, .L286+40
 4987 0076 9FED240A 		vldr.32	s0, .L286+44
 4988              	.LVL324:
 4989 007a FFF7FEFF 		bl	Turn
 4990              	.LVL325:
1070:Src/motion.c  ****     case T_135OUT:
 4991              		.loc 1 1070 0
 4992 007e CAE7     		b	.L274
 4993              	.LVL326:
 4994              	.L283:
1072:Src/motion.c  ****         Turn(28.0f, 57.5f, 0, 800.0f, v_end, 135.0f, 600.0f, 8000.0f, 1, 2); //in=34 out=67
 4995              		.loc 1 1072 0
 4996 0080 0020     		movs	r0, #0
 4997              	.LVL327:
 4998 0082 1C4B     		ldr	r3, .L286+24
 4999 0084 1870     		strb	r0, [r3]
1073:Src/motion.c  ****         break;
 5000              		.loc 1 1073 0
 5001 0086 0222     		movs	r2, #2
 5002 0088 0121     		movs	r1, #1
 5003 008a 9FED1B3A 		vldr.32	s6, .L286+28
 5004 008e DFED1B2A 		vldr.32	s5, .L286+32
 5005 0092 9FED1B2A 		vldr.32	s4, .L286+36
 5006 0096 F0EE401A 		vmov.f32	s3, s0
 5007 009a 9FED131A 		vldr.32	s2, .L286+12
 5008 009e DFED1B0A 		vldr.32	s1, .L286+48
 5009 00a2 B3EE0C0A 		vmov.f32	s0, #2.8e+1
 5010              	.LVL328:
 5011 00a6 FFF7FEFF 		bl	Turn
 5012              	.LVL329:
1074:Src/motion.c  ****     case T_V90:
 5013              		.loc 1 1074 0
 5014 00aa B4E7     		b	.L274
 5015              	.LVL330:
 5016              	.L284:
1076:Src/motion.c  ****         Turn(46.0f, 67.0f, 1, 800.0f, 800.0f, 90.25f, 800.0f, 20000.0f, 1, 3); //in=67 out=23
 5017              		.loc 1 1076 0
 5018 00ac 114B     		ldr	r3, .L286+24
 5019 00ae 0022     		movs	r2, #0
 5020 00b0 1A70     		strb	r2, [r3]
1077:Src/motion.c  ****         break;
 5021              		.loc 1 1077 0
 5022 00b2 9FED0D1A 		vldr.32	s2, .L286+12
 5023 00b6 0322     		movs	r2, #3
 5024 00b8 0121     		movs	r1, #1
 5025 00ba 9FED153A 		vldr.32	s6, .L286+52
 5026 00be F0EE412A 		vmov.f32	s5, s2
 5027 00c2 9FED142A 		vldr.32	s4, .L286+56
 5028 00c6 F0EE411A 		vmov.f32	s3, s2
 5029 00ca 0846     		mov	r0, r1
ARM GAS  C:\Users\kotaro\AppData\Local\Temp\ccTjQSLT.s 			page 109


 5030              	.LVL331:
 5031 00cc DFED120A 		vldr.32	s1, .L286+60
 5032 00d0 9FED0C0A 		vldr.32	s0, .L286+40
 5033              	.LVL332:
 5034 00d4 FFF7FEFF 		bl	Turn
 5035              	.LVL333:
 5036              		.loc 1 1080 0
 5037 00d8 9DE7     		b	.L274
 5038              	.L287:
 5039 00da 00BF     		.align	2
 5040              	.L286:
 5041 00dc 00409C45 		.word	1167867904
 5042 00e0 00000244 		.word	1140981760
 5043 00e4 00003443 		.word	1127481344
 5044 00e8 00004844 		.word	1145569280
 5045 00ec 00002C42 		.word	1110179840
 5046 00f0 00001042 		.word	1108344832
 5047 00f4 00000000 		.word	control_wall_flag
 5048 00f8 0000FA45 		.word	1174011904
 5049 00fc 00001644 		.word	1142292480
 5050 0100 00000743 		.word	1124532224
 5051 0104 00003842 		.word	1110966272
 5052 0108 00004442 		.word	1111752704
 5053 010c 00006642 		.word	1113980928
 5054 0110 00409C46 		.word	1184645120
 5055 0114 0080B442 		.word	1119125504
 5056 0118 00008642 		.word	1116078080
 5057              		.cfi_endproc
 5058              	.LFE190:
 5060              		.section	.text.Motion_FastRightTurn,"ax",%progbits
 5061              		.align	1
 5062              		.global	Motion_FastRightTurn
 5063              		.syntax unified
 5064              		.thumb
 5065              		.thumb_func
 5066              		.fpu fpv4-sp-d16
 5068              	Motion_FastRightTurn:
 5069              	.LFB191:
1081:Src/motion.c  **** 
1082:Src/motion.c  **** void Motion_FastRightTurn(uint8_t type, float v_end)
1083:Src/motion.c  **** {
 5070              		.loc 1 1083 0
 5071              		.cfi_startproc
 5072              		@ args = 0, pretend = 0, frame = 0
 5073              		@ frame_needed = 0, uses_anonymous_args = 0
 5074              	.LVL334:
 5075 0000 08B5     		push	{r3, lr}
 5076              	.LCFI84:
 5077              		.cfi_def_cfa_offset 8
 5078              		.cfi_offset 3, -8
 5079              		.cfi_offset 14, -4
1084:Src/motion.c  ****     switch (type)
 5080              		.loc 1 1084 0
 5081 0002 0728     		cmp	r0, #7
 5082 0004 07D8     		bhi	.L288
 5083 0006 DFE800F0 		tbb	[pc, r0]
 5084              	.L291:
ARM GAS  C:\Users\kotaro\AppData\Local\Temp\ccTjQSLT.s 			page 110


 5085 000a 04       		.byte	(.L290-.L291)/2
 5086 000b 1E       		.byte	(.L292-.L291)/2
 5087 000c 27       		.byte	(.L293-.L291)/2
 5088 000d 07       		.byte	(.L294-.L291)/2
 5089 000e 0A       		.byte	(.L295-.L291)/2
 5090 000f 21       		.byte	(.L296-.L291)/2
 5091 0010 3B       		.byte	(.L297-.L291)/2
 5092 0011 51       		.byte	(.L298-.L291)/2
 5093              		.p2align 1
 5094              	.L290:
1085:Src/motion.c  ****     {
1086:Src/motion.c  ****     case SEARCH:
1087:Src/motion.c  ****         Motion_RightTurn();
 5095              		.loc 1 1087 0
 5096 0012 FFF7FEFF 		bl	Motion_RightTurn
 5097              	.LVL335:
 5098              	.L288:
1088:Src/motion.c  ****         break;
1089:Src/motion.c  ****     case T_90:
1090:Src/motion.c  ****         Motion_Right90Turn(v_end);
1091:Src/motion.c  ****         break;
1092:Src/motion.c  ****     case T_180:
1093:Src/motion.c  ****         Turn(30.0f, 48.0f, 0, 800.0f, v_end, 180.0f, 530.0f, 5000.0f, -1, 2); //out=50
1094:Src/motion.c  ****         break;
1095:Src/motion.c  ****     case T_45IN:
1096:Src/motion.c  ****         Motion_InRight45Turn();
1097:Src/motion.c  ****         break;
1098:Src/motion.c  ****     case T_45OUT:
1099:Src/motion.c  ****         control_wall_flag = 0;
1100:Src/motion.c  ****         Motion_OutRight45Turn(v_end);
1101:Src/motion.c  ****         break;
1102:Src/motion.c  ****     case T_135IN:
1103:Src/motion.c  ****         Turn(49.0f, 45.0f, 1, 800.0f, 800.0f, 135.0f, 600.0f, 8000.0f, -1, 3); //in:50 out=26
1104:Src/motion.c  ****         break;
1105:Src/motion.c  ****     case T_135OUT:
1106:Src/motion.c  ****         control_wall_flag = 0;
1107:Src/motion.c  ****         Turn(29.0f, 55.0f, 0, 800.0f, v_end, 135.0f, 600.0f, 8000.0f, -1, 2); //in=40.5 out = 66
1108:Src/motion.c  ****         break;
1109:Src/motion.c  ****     case T_V90:
1110:Src/motion.c  ****         control_wall_flag = 0;
1111:Src/motion.c  ****         Turn(52.0f, 68.0f, 1, 800.0f, 800.0f, 90.125f, 800.0f, 20000.0f, -1, 3); //in=63 out=25,23
1112:Src/motion.c  ****         break;
1113:Src/motion.c  ****     }
1114:Src/motion.c  **** }
 5099              		.loc 1 1114 0
 5100 0016 08BD     		pop	{r3, pc}
 5101              	.LVL336:
 5102              	.L294:
1090:Src/motion.c  ****         break;
 5103              		.loc 1 1090 0
 5104 0018 FFF7FEFF 		bl	Motion_Right90Turn
 5105              	.LVL337:
1091:Src/motion.c  ****     case T_180:
 5106              		.loc 1 1091 0
 5107 001c FBE7     		b	.L288
 5108              	.LVL338:
 5109              	.L295:
ARM GAS  C:\Users\kotaro\AppData\Local\Temp\ccTjQSLT.s 			page 111


1093:Src/motion.c  ****         break;
 5110              		.loc 1 1093 0
 5111 001e 0222     		movs	r2, #2
 5112 0020 FF21     		movs	r1, #255
 5113 0022 9FED2E3A 		vldr.32	s6, .L300
 5114 0026 DFED2E2A 		vldr.32	s5, .L300+4
 5115 002a 9FED2E2A 		vldr.32	s4, .L300+8
 5116 002e F0EE401A 		vmov.f32	s3, s0
 5117 0032 9FED2D1A 		vldr.32	s2, .L300+12
 5118 0036 0020     		movs	r0, #0
 5119              	.LVL339:
 5120 0038 DFED2C0A 		vldr.32	s1, .L300+16
 5121 003c B3EE0E0A 		vmov.f32	s0, #3.0e+1
 5122              	.LVL340:
 5123 0040 FFF7FEFF 		bl	Turn
 5124              	.LVL341:
1094:Src/motion.c  ****     case T_45IN:
 5125              		.loc 1 1094 0
 5126 0044 E7E7     		b	.L288
 5127              	.LVL342:
 5128              	.L292:
1096:Src/motion.c  ****         break;
 5129              		.loc 1 1096 0
 5130 0046 FFF7FEFF 		bl	Motion_InRight45Turn
 5131              	.LVL343:
1097:Src/motion.c  ****     case T_45OUT:
 5132              		.loc 1 1097 0
 5133 004a E4E7     		b	.L288
 5134              	.LVL344:
 5135              	.L296:
1099:Src/motion.c  ****         Motion_OutRight45Turn(v_end);
 5136              		.loc 1 1099 0
 5137 004c 284B     		ldr	r3, .L300+20
 5138 004e 0022     		movs	r2, #0
 5139 0050 1A70     		strb	r2, [r3]
1100:Src/motion.c  ****         break;
 5140              		.loc 1 1100 0
 5141 0052 FFF7FEFF 		bl	Motion_OutRight45Turn
 5142              	.LVL345:
1101:Src/motion.c  ****     case T_135IN:
 5143              		.loc 1 1101 0
 5144 0056 DEE7     		b	.L288
 5145              	.LVL346:
 5146              	.L293:
1103:Src/motion.c  ****         break;
 5147              		.loc 1 1103 0
 5148 0058 9FED231A 		vldr.32	s2, .L300+12
 5149 005c 0322     		movs	r2, #3
 5150 005e FF21     		movs	r1, #255
 5151 0060 9FED243A 		vldr.32	s6, .L300+24
 5152 0064 DFED242A 		vldr.32	s5, .L300+28
 5153 0068 9FED242A 		vldr.32	s4, .L300+32
 5154 006c F0EE411A 		vmov.f32	s3, s2
 5155 0070 0120     		movs	r0, #1
 5156              	.LVL347:
 5157 0072 DFED230A 		vldr.32	s1, .L300+36
 5158 0076 9FED230A 		vldr.32	s0, .L300+40
ARM GAS  C:\Users\kotaro\AppData\Local\Temp\ccTjQSLT.s 			page 112


 5159              	.LVL348:
 5160 007a FFF7FEFF 		bl	Turn
 5161              	.LVL349:
1104:Src/motion.c  ****     case T_135OUT:
 5162              		.loc 1 1104 0
 5163 007e CAE7     		b	.L288
 5164              	.LVL350:
 5165              	.L297:
1106:Src/motion.c  ****         Turn(29.0f, 55.0f, 0, 800.0f, v_end, 135.0f, 600.0f, 8000.0f, -1, 2); //in=40.5 out = 66
 5166              		.loc 1 1106 0
 5167 0080 0020     		movs	r0, #0
 5168              	.LVL351:
 5169 0082 1B4B     		ldr	r3, .L300+20
 5170 0084 1870     		strb	r0, [r3]
1107:Src/motion.c  ****         break;
 5171              		.loc 1 1107 0
 5172 0086 0222     		movs	r2, #2
 5173 0088 FF21     		movs	r1, #255
 5174 008a 9FED1A3A 		vldr.32	s6, .L300+24
 5175 008e DFED1A2A 		vldr.32	s5, .L300+28
 5176 0092 9FED1A2A 		vldr.32	s4, .L300+32
 5177 0096 F0EE401A 		vmov.f32	s3, s0
 5178 009a 9FED131A 		vldr.32	s2, .L300+12
 5179 009e DFED1A0A 		vldr.32	s1, .L300+44
 5180 00a2 B3EE0D0A 		vmov.f32	s0, #2.9e+1
 5181              	.LVL352:
 5182 00a6 FFF7FEFF 		bl	Turn
 5183              	.LVL353:
1108:Src/motion.c  ****     case T_V90:
 5184              		.loc 1 1108 0
 5185 00aa B4E7     		b	.L288
 5186              	.LVL354:
 5187              	.L298:
1110:Src/motion.c  ****         Turn(52.0f, 68.0f, 1, 800.0f, 800.0f, 90.125f, 800.0f, 20000.0f, -1, 3); //in=63 out=25,23
 5188              		.loc 1 1110 0
 5189 00ac 104B     		ldr	r3, .L300+20
 5190 00ae 0022     		movs	r2, #0
 5191 00b0 1A70     		strb	r2, [r3]
1111:Src/motion.c  ****         break;
 5192              		.loc 1 1111 0
 5193 00b2 9FED0D1A 		vldr.32	s2, .L300+12
 5194 00b6 0322     		movs	r2, #3
 5195 00b8 FF21     		movs	r1, #255
 5196 00ba 9FED143A 		vldr.32	s6, .L300+48
 5197 00be F0EE412A 		vmov.f32	s5, s2
 5198 00c2 9FED132A 		vldr.32	s4, .L300+52
 5199 00c6 F0EE411A 		vmov.f32	s3, s2
 5200 00ca 0120     		movs	r0, #1
 5201              	.LVL355:
 5202 00cc DFED110A 		vldr.32	s1, .L300+56
 5203 00d0 9FED110A 		vldr.32	s0, .L300+60
 5204              	.LVL356:
 5205 00d4 FFF7FEFF 		bl	Turn
 5206              	.LVL357:
 5207              		.loc 1 1114 0
 5208 00d8 9DE7     		b	.L288
 5209              	.L301:
ARM GAS  C:\Users\kotaro\AppData\Local\Temp\ccTjQSLT.s 			page 113


 5210 00da 00BF     		.align	2
 5211              	.L300:
 5212 00dc 00409C45 		.word	1167867904
 5213 00e0 00800444 		.word	1141145600
 5214 00e4 00003443 		.word	1127481344
 5215 00e8 00004844 		.word	1145569280
 5216 00ec 00004042 		.word	1111490560
 5217 00f0 00000000 		.word	control_wall_flag
 5218 00f4 0000FA45 		.word	1174011904
 5219 00f8 00001644 		.word	1142292480
 5220 00fc 00000743 		.word	1124532224
 5221 0100 00003442 		.word	1110704128
 5222 0104 00004442 		.word	1111752704
 5223 0108 00005C42 		.word	1113325568
 5224 010c 00409C46 		.word	1184645120
 5225 0110 0040B442 		.word	1119109120
 5226 0114 00008842 		.word	1116209152
 5227 0118 00005042 		.word	1112539136
 5228              		.cfi_endproc
 5229              	.LFE191:
 5231              		.section	.text.Motion_FastestStart,"ax",%progbits
 5232              		.align	1
 5233              		.global	Motion_FastestStart
 5234              		.syntax unified
 5235              		.thumb
 5236              		.thumb_func
 5237              		.fpu fpv4-sp-d16
 5239              	Motion_FastestStart:
 5240              	.LFB192:
1115:Src/motion.c  **** 
1116:Src/motion.c  **** void Motion_FastestStart(uint8_t step, float velo_end)
1117:Src/motion.c  **** {
 5241              		.loc 1 1117 0
 5242              		.cfi_startproc
 5243              		@ args = 0, pretend = 0, frame = 0
 5244              		@ frame_needed = 0, uses_anonymous_args = 0
 5245              	.LVL358:
 5246 0000 08B5     		push	{r3, lr}
 5247              	.LCFI85:
 5248              		.cfi_def_cfa_offset 8
 5249              		.cfi_offset 3, -8
 5250              		.cfi_offset 14, -4
 5251 0002 2DED028B 		vpush.64	{d8}
 5252              	.LCFI86:
 5253              		.cfi_def_cfa_offset 16
 5254              		.cfi_offset 80, -16
 5255              		.cfi_offset 81, -12
 5256 0006 F0EE401A 		vmov.f32	s3, s0
1118:Src/motion.c  ****     diagonal_step = 90.0f * sqrt(2);
 5257              		.loc 1 1118 0
 5258 000a 284B     		ldr	r3, .L309
 5259 000c 284A     		ldr	r2, .L309+4
 5260 000e 1A60     		str	r2, [r3]	@ float
 5261              	.LVL359:
1119:Src/motion.c  ****     float velo = VELO_EST;
1120:Src/motion.c  ****     if (step > 2)
 5262              		.loc 1 1120 0
ARM GAS  C:\Users\kotaro\AppData\Local\Temp\ccTjQSLT.s 			page 114


 5263 0010 0228     		cmp	r0, #2
 5264 0012 47D9     		bls	.L306
1121:Src/motion.c  ****     {
1122:Src/motion.c  ****         velo = VELO_EST + gain_velo * (float)(step - 1);
 5265              		.loc 1 1122 0
 5266 0014 431E     		subs	r3, r0, #1
 5267 0016 01EE103A 		vmov	s2, r3	@ int
 5268 001a B8EEC11A 		vcvt.f32.s32	s2, s2
 5269 001e 254B     		ldr	r3, .L309+8
 5270 0020 D3ED007A 		vldr.32	s15, [r3]
 5271 0024 21EE271A 		vmul.f32	s2, s2, s15
 5272 0028 DFED237A 		vldr.32	s15, .L309+12
 5273 002c 31EE271A 		vadd.f32	s2, s2, s15
 5274              	.LVL360:
 5275              	.L303:
1123:Src/motion.c  ****     }
1124:Src/motion.c  ****     if (velo > 4000.0f)
 5276              		.loc 1 1124 0
 5277 0030 DFED227A 		vldr.32	s15, .L309+16
 5278 0034 B4EEE71A 		vcmpe.f32	s2, s15
 5279 0038 F1EE10FA 		vmrs	APSR_nzcv, FPSCR
 5280 003c 01DD     		ble	.L304
1125:Src/motion.c  ****     {
1126:Src/motion.c  ****         velo = 4000.0f;
 5281              		.loc 1 1126 0
 5282 003e B0EE671A 		vmov.f32	s2, s15
 5283              	.LVL361:
 5284              	.L304:
1127:Src/motion.c  ****     }
1128:Src/motion.c  ****     Control_StrCalculator(40.0f + 90.0f * (float)step, 0.0f, velo, velo_end, ACCEL_EST, 1);
 5285              		.loc 1 1128 0
 5286 0042 07EE900A 		vmov	s15, r0	@ int
 5287 0046 F8EE677A 		vcvt.f32.u32	s15, s15
 5288 004a 9FED1D0A 		vldr.32	s0, .L309+20
 5289              	.LVL362:
 5290 004e 67EE807A 		vmul.f32	s15, s15, s0
 5291 0052 9FED1C8A 		vldr.32	s16, .L309+24
 5292 0056 F7EE002A 		vmov.f32	s5, #1.0e+0
 5293 005a 9FED1B2A 		vldr.32	s4, .L309+28
 5294 005e F0EE480A 		vmov.f32	s1, s16
 5295 0062 9FED1A0A 		vldr.32	s0, .L309+32
 5296 0066 37EE800A 		vadd.f32	s0, s15, s0
 5297 006a FFF7FEFF 		bl	Control_StrCalculator
 5298              	.LVL363:
1129:Src/motion.c  ****     Control_AngCalculator(0, 0, 0, 0, 1, 0);
 5299              		.loc 1 1129 0
 5300 006e F0EE482A 		vmov.f32	s5, s16
 5301 0072 B7EE002A 		vmov.f32	s4, #1.0e+0
 5302 0076 F0EE481A 		vmov.f32	s3, s16
 5303 007a B0EE481A 		vmov.f32	s2, s16
 5304 007e F0EE480A 		vmov.f32	s1, s16
 5305 0082 B0EE480A 		vmov.f32	s0, s16
 5306 0086 FFF7FEFF 		bl	Control_AngCalculator
 5307              	.LVL364:
1130:Src/motion.c  ****     motion_end_flag = FALSE;
 5308              		.loc 1 1130 0
 5309 008a 114B     		ldr	r3, .L309+36
ARM GAS  C:\Users\kotaro\AppData\Local\Temp\ccTjQSLT.s 			page 115


 5310 008c 0022     		movs	r2, #0
 5311 008e 1A70     		strb	r2, [r3]
 5312              	.L305:
1131:Src/motion.c  ****     while (motion_end_flag == FALSE)
 5313              		.loc 1 1131 0 discriminator 1
 5314 0090 0F4B     		ldr	r3, .L309+36
 5315 0092 1B78     		ldrb	r3, [r3]	@ zero_extendqisi2
 5316 0094 002B     		cmp	r3, #0
 5317 0096 FBD0     		beq	.L305
1132:Src/motion.c  ****     {
1133:Src/motion.c  ****     }
1134:Src/motion.c  ****     enc.offset = 0.0f;
 5318              		.loc 1 1134 0
 5319 0098 0E4B     		ldr	r3, .L309+40
 5320 009a 0022     		movs	r2, #0
 5321 009c 9A60     		str	r2, [r3, #8]	@ float
1135:Src/motion.c  **** }
 5322              		.loc 1 1135 0
 5323 009e BDEC028B 		vldm	sp!, {d8}
 5324              	.LCFI87:
 5325              		.cfi_remember_state
 5326              		.cfi_restore 80
 5327              		.cfi_restore 81
 5328              		.cfi_def_cfa_offset 8
 5329 00a2 08BD     		pop	{r3, pc}
 5330              	.LVL365:
 5331              	.L306:
 5332              	.LCFI88:
 5333              		.cfi_restore_state
1119:Src/motion.c  ****     if (step > 2)
 5334              		.loc 1 1119 0
 5335 00a4 9FED041A 		vldr.32	s2, .L309+12
 5336 00a8 C2E7     		b	.L303
 5337              	.L310:
 5338 00aa 00BF     		.align	2
 5339              	.L309:
 5340 00ac 00000000 		.word	.LANCHOR6
 5341 00b0 F68EFE42 		.word	1123978998
 5342 00b4 00000000 		.word	.LANCHOR0
 5343 00b8 00009644 		.word	1150681088
 5344 00bc 00007A45 		.word	1165623296
 5345 00c0 0000B442 		.word	1119092736
 5346 00c4 00000000 		.word	0
 5347 00c8 00409C46 		.word	1184645120
 5348 00cc 00002042 		.word	1109393408
 5349 00d0 00000000 		.word	motion_end_flag
 5350 00d4 00000000 		.word	enc
 5351              		.cfi_endproc
 5352              	.LFE192:
 5354              		.section	.text.Motion_FastestStraight,"ax",%progbits
 5355              		.align	1
 5356              		.global	Motion_FastestStraight
 5357              		.syntax unified
 5358              		.thumb
 5359              		.thumb_func
 5360              		.fpu fpv4-sp-d16
 5362              	Motion_FastestStraight:
ARM GAS  C:\Users\kotaro\AppData\Local\Temp\ccTjQSLT.s 			page 116


 5363              	.LFB193:
1136:Src/motion.c  **** 
1137:Src/motion.c  **** void Motion_FastestStraight(uint8_t step, float v_start, float v_end)
1138:Src/motion.c  **** {
 5364              		.loc 1 1138 0
 5365              		.cfi_startproc
 5366              		@ args = 0, pretend = 0, frame = 0
 5367              		@ frame_needed = 0, uses_anonymous_args = 0
 5368              	.LVL366:
 5369 0000 08B5     		push	{r3, lr}
 5370              	.LCFI89:
 5371              		.cfi_def_cfa_offset 8
 5372              		.cfi_offset 3, -8
 5373              		.cfi_offset 14, -4
 5374 0002 F0EE601A 		vmov.f32	s3, s1
1139:Src/motion.c  ****     float velo = VELO_EST + gain_velo * (float)step;
 5375              		.loc 1 1139 0
 5376 0006 07EE900A 		vmov	s15, r0	@ int
 5377 000a F8EE677A 		vcvt.f32.u32	s15, s15
 5378 000e 1E4B     		ldr	r3, .L316
 5379 0010 93ED001A 		vldr.32	s2, [r3]
 5380 0014 27EE811A 		vmul.f32	s2, s15, s2
 5381 0018 9FED1C7A 		vldr.32	s14, .L316+4
 5382 001c 31EE071A 		vadd.f32	s2, s2, s14
 5383              	.LVL367:
1140:Src/motion.c  ****     if (velo > 4000.0f)
 5384              		.loc 1 1140 0
 5385 0020 9FED1B7A 		vldr.32	s14, .L316+8
 5386 0024 B4EEC71A 		vcmpe.f32	s2, s14
 5387 0028 F1EE10FA 		vmrs	APSR_nzcv, FPSCR
 5388 002c 01DD     		ble	.L312
1141:Src/motion.c  ****     {
1142:Src/motion.c  ****         velo = 4000.0f;
 5389              		.loc 1 1142 0
 5390 002e B0EE471A 		vmov.f32	s2, s14
 5391              	.LVL368:
 5392              	.L312:
1143:Src/motion.c  ****     }
1144:Src/motion.c  ****     Control_StrCalculator(90.0f * (float)step - enc.offset, v_start, velo, v_end, ACCEL_EST, 1);
 5393              		.loc 1 1144 0
 5394 0032 9FED187A 		vldr.32	s14, .L316+12
 5395 0036 67EE877A 		vmul.f32	s15, s15, s14
 5396 003a 174B     		ldr	r3, .L316+16
 5397 003c 93ED027A 		vldr.32	s14, [r3, #8]
 5398 0040 F7EE002A 		vmov.f32	s5, #1.0e+0
 5399 0044 9FED152A 		vldr.32	s4, .L316+20
 5400 0048 F0EE400A 		vmov.f32	s1, s0
 5401              	.LVL369:
 5402 004c 37EEC70A 		vsub.f32	s0, s15, s14
 5403              	.LVL370:
 5404 0050 FFF7FEFF 		bl	Control_StrCalculator
 5405              	.LVL371:
1145:Src/motion.c  ****     Control_AngCalculator(0, 0, 0, 0, 1, 0);
 5406              		.loc 1 1145 0
 5407 0054 9FED120A 		vldr.32	s0, .L316+24
 5408 0058 F0EE402A 		vmov.f32	s5, s0
 5409 005c B7EE002A 		vmov.f32	s4, #1.0e+0
ARM GAS  C:\Users\kotaro\AppData\Local\Temp\ccTjQSLT.s 			page 117


 5410 0060 F0EE401A 		vmov.f32	s3, s0
 5411 0064 B0EE401A 		vmov.f32	s2, s0
 5412 0068 F0EE400A 		vmov.f32	s1, s0
 5413 006c FFF7FEFF 		bl	Control_AngCalculator
 5414              	.LVL372:
1146:Src/motion.c  ****     motion_end_flag = FALSE;
 5415              		.loc 1 1146 0
 5416 0070 0C4B     		ldr	r3, .L316+28
 5417 0072 0022     		movs	r2, #0
 5418 0074 1A70     		strb	r2, [r3]
 5419              	.L313:
1147:Src/motion.c  ****     while (motion_end_flag == FALSE)
 5420              		.loc 1 1147 0 discriminator 1
 5421 0076 0B4B     		ldr	r3, .L316+28
 5422 0078 1B78     		ldrb	r3, [r3]	@ zero_extendqisi2
 5423 007a 002B     		cmp	r3, #0
 5424 007c FBD0     		beq	.L313
1148:Src/motion.c  ****     {
1149:Src/motion.c  ****     }
1150:Src/motion.c  ****     enc.offset = 0.0f;
 5425              		.loc 1 1150 0
 5426 007e 064B     		ldr	r3, .L316+16
 5427 0080 0022     		movs	r2, #0
 5428 0082 9A60     		str	r2, [r3, #8]	@ float
1151:Src/motion.c  **** }
 5429              		.loc 1 1151 0
 5430 0084 08BD     		pop	{r3, pc}
 5431              	.L317:
 5432 0086 00BF     		.align	2
 5433              	.L316:
 5434 0088 00000000 		.word	.LANCHOR0
 5435 008c 00009644 		.word	1150681088
 5436 0090 00007A45 		.word	1165623296
 5437 0094 0000B442 		.word	1119092736
 5438 0098 00000000 		.word	enc
 5439 009c 00409C46 		.word	1184645120
 5440 00a0 00000000 		.word	0
 5441 00a4 00000000 		.word	motion_end_flag
 5442              		.cfi_endproc
 5443              	.LFE193:
 5445              		.section	.text.Motion_FastestGoal,"ax",%progbits
 5446              		.align	1
 5447              		.global	Motion_FastestGoal
 5448              		.syntax unified
 5449              		.thumb
 5450              		.thumb_func
 5451              		.fpu fpv4-sp-d16
 5453              	Motion_FastestGoal:
 5454              	.LFB194:
1152:Src/motion.c  **** 
1153:Src/motion.c  **** void Motion_FastestGoal(uint8_t step, float v_start)
1154:Src/motion.c  **** {
 5455              		.loc 1 1154 0
 5456              		.cfi_startproc
 5457              		@ args = 0, pretend = 0, frame = 0
 5458              		@ frame_needed = 0, uses_anonymous_args = 0
 5459              	.LVL373:
ARM GAS  C:\Users\kotaro\AppData\Local\Temp\ccTjQSLT.s 			page 118


 5460 0000 08B5     		push	{r3, lr}
 5461              	.LCFI90:
 5462              		.cfi_def_cfa_offset 8
 5463              		.cfi_offset 3, -8
 5464              		.cfi_offset 14, -4
 5465 0002 2DED028B 		vpush.64	{d8}
 5466              	.LCFI91:
 5467              		.cfi_def_cfa_offset 16
 5468              		.cfi_offset 80, -16
 5469              		.cfi_offset 81, -12
 5470 0006 F0EE400A 		vmov.f32	s1, s0
 5471              	.LVL374:
1155:Src/motion.c  ****     float velo = VELO_EST;
1156:Src/motion.c  ****     if (step > 2)
 5472              		.loc 1 1156 0
 5473 000a 0228     		cmp	r0, #2
 5474 000c 4FD9     		bls	.L322
1157:Src/motion.c  ****     {
1158:Src/motion.c  ****         velo = VELO_EST + gain_velo * (step - 1);
 5475              		.loc 1 1158 0
 5476 000e 431E     		subs	r3, r0, #1
 5477 0010 01EE103A 		vmov	s2, r3	@ int
 5478 0014 B8EEC11A 		vcvt.f32.s32	s2, s2
 5479 0018 264B     		ldr	r3, .L325
 5480 001a D3ED007A 		vldr.32	s15, [r3]
 5481 001e 21EE271A 		vmul.f32	s2, s2, s15
 5482 0022 DFED257A 		vldr.32	s15, .L325+4
 5483 0026 31EE271A 		vadd.f32	s2, s2, s15
 5484              	.LVL375:
 5485              	.L319:
1159:Src/motion.c  ****     }
1160:Src/motion.c  ****     if (velo > 4000.0f)
 5486              		.loc 1 1160 0
 5487 002a DFED247A 		vldr.32	s15, .L325+8
 5488 002e B4EEE71A 		vcmpe.f32	s2, s15
 5489 0032 F1EE10FA 		vmrs	APSR_nzcv, FPSCR
 5490 0036 01DD     		ble	.L320
1161:Src/motion.c  ****     {
1162:Src/motion.c  ****         velo = 4000.0f;
 5491              		.loc 1 1162 0
 5492 0038 B0EE671A 		vmov.f32	s2, s15
 5493              	.LVL376:
 5494              	.L320:
1163:Src/motion.c  ****     }
1164:Src/motion.c  ****     Control_StrCalculator(90.0f + 90.0f * (float)step - enc.offset, v_start, velo, 0, ACCEL_EST, 1)
 5495              		.loc 1 1164 0
 5496 003c 07EE900A 		vmov	s15, r0	@ int
 5497 0040 F8EE677A 		vcvt.f32.u32	s15, s15
 5498 0044 9FED1E7A 		vldr.32	s14, .L325+12
 5499 0048 67EE877A 		vmul.f32	s15, s15, s14
 5500 004c 77EE877A 		vadd.f32	s15, s15, s14
 5501 0050 1C4B     		ldr	r3, .L325+16
 5502 0052 93ED020A 		vldr.32	s0, [r3, #8]
 5503              	.LVL377:
 5504 0056 9FED1C8A 		vldr.32	s16, .L325+20
 5505 005a F7EE002A 		vmov.f32	s5, #1.0e+0
 5506 005e 9FED1B2A 		vldr.32	s4, .L325+24
ARM GAS  C:\Users\kotaro\AppData\Local\Temp\ccTjQSLT.s 			page 119


 5507 0062 F0EE481A 		vmov.f32	s3, s16
 5508 0066 37EEC00A 		vsub.f32	s0, s15, s0
 5509 006a FFF7FEFF 		bl	Control_StrCalculator
 5510              	.LVL378:
1165:Src/motion.c  ****     Control_AngCalculator(0, 0, 0, 0, 1, 0);
 5511              		.loc 1 1165 0
 5512 006e F0EE482A 		vmov.f32	s5, s16
 5513 0072 B7EE002A 		vmov.f32	s4, #1.0e+0
 5514 0076 F0EE481A 		vmov.f32	s3, s16
 5515 007a B0EE481A 		vmov.f32	s2, s16
 5516 007e F0EE480A 		vmov.f32	s1, s16
 5517 0082 B0EE480A 		vmov.f32	s0, s16
 5518 0086 FFF7FEFF 		bl	Control_AngCalculator
 5519              	.LVL379:
1166:Src/motion.c  ****     motion_end_flag = FALSE;
 5520              		.loc 1 1166 0
 5521 008a 114B     		ldr	r3, .L325+28
 5522 008c 0022     		movs	r2, #0
 5523 008e 1A70     		strb	r2, [r3]
 5524              	.L321:
1167:Src/motion.c  ****     while (motion_end_flag == FALSE)
 5525              		.loc 1 1167 0 discriminator 1
 5526 0090 0F4B     		ldr	r3, .L325+28
 5527 0092 1B78     		ldrb	r3, [r3]	@ zero_extendqisi2
 5528 0094 002B     		cmp	r3, #0
 5529 0096 FBD0     		beq	.L321
1168:Src/motion.c  ****     {
1169:Src/motion.c  ****     }
1170:Src/motion.c  ****     straight.v_now = 0;
 5530              		.loc 1 1170 0
 5531 0098 0023     		movs	r3, #0
 5532 009a 0E4A     		ldr	r2, .L325+32
 5533 009c D360     		str	r3, [r2, #12]	@ float
1171:Src/motion.c  ****     angle.v_now = 0;
 5534              		.loc 1 1171 0
 5535 009e 0E4A     		ldr	r2, .L325+36
 5536 00a0 D360     		str	r3, [r2, #12]	@ float
1172:Src/motion.c  ****     HAL_Delay(100);
 5537              		.loc 1 1172 0
 5538 00a2 6420     		movs	r0, #100
 5539 00a4 FFF7FEFF 		bl	HAL_Delay
 5540              	.LVL380:
1173:Src/motion.c  **** }
 5541              		.loc 1 1173 0
 5542 00a8 BDEC028B 		vldm	sp!, {d8}
 5543              	.LCFI92:
 5544              		.cfi_remember_state
 5545              		.cfi_restore 80
 5546              		.cfi_restore 81
 5547              		.cfi_def_cfa_offset 8
 5548 00ac 08BD     		pop	{r3, pc}
 5549              	.LVL381:
 5550              	.L322:
 5551              	.LCFI93:
 5552              		.cfi_restore_state
1155:Src/motion.c  ****     if (step > 2)
 5553              		.loc 1 1155 0
ARM GAS  C:\Users\kotaro\AppData\Local\Temp\ccTjQSLT.s 			page 120


 5554 00ae 9FED021A 		vldr.32	s2, .L325+4
 5555 00b2 BAE7     		b	.L319
 5556              	.L326:
 5557              		.align	2
 5558              	.L325:
 5559 00b4 00000000 		.word	.LANCHOR0
 5560 00b8 00009644 		.word	1150681088
 5561 00bc 00007A45 		.word	1165623296
 5562 00c0 0000B442 		.word	1119092736
 5563 00c4 00000000 		.word	enc
 5564 00c8 00000000 		.word	0
 5565 00cc 00409C46 		.word	1184645120
 5566 00d0 00000000 		.word	motion_end_flag
 5567 00d4 00000000 		.word	straight
 5568 00d8 00000000 		.word	angle
 5569              		.cfi_endproc
 5570              	.LFE194:
 5572              		.section	.text.Motion_FastestAdjust_L,"ax",%progbits
 5573              		.align	1
 5574              		.global	Motion_FastestAdjust_L
 5575              		.syntax unified
 5576              		.thumb
 5577              		.thumb_func
 5578              		.fpu fpv4-sp-d16
 5580              	Motion_FastestAdjust_L:
 5581              	.LFB195:
1174:Src/motion.c  **** 
1175:Src/motion.c  **** void Motion_FastestAdjust_L(uint16_t step, float velo_s)
1176:Src/motion.c  **** {
 5582              		.loc 1 1176 0
 5583              		.cfi_startproc
 5584              		@ args = 0, pretend = 0, frame = 0
 5585              		@ frame_needed = 0, uses_anonymous_args = 0
 5586              	.LVL382:
 5587 0000 08B5     		push	{r3, lr}
 5588              	.LCFI94:
 5589              		.cfi_def_cfa_offset 8
 5590              		.cfi_offset 3, -8
 5591              		.cfi_offset 14, -4
 5592 0002 2DED028B 		vpush.64	{d8}
 5593              	.LCFI95:
 5594              		.cfi_def_cfa_offset 16
 5595              		.cfi_offset 80, -16
 5596              		.cfi_offset 81, -12
 5597 0006 B0EE408A 		vmov.f32	s16, s0
1177:Src/motion.c  ****     if (step == 1)
 5598              		.loc 1 1177 0
 5599 000a 0128     		cmp	r0, #1
 5600 000c 4ED0     		beq	.L333
1178:Src/motion.c  ****     {
1179:Src/motion.c  ****         Control_WallEdgeAble(0b0010);
1180:Src/motion.c  ****         Control_StrCalculator(90.0f, velo_s, VELO_EST, VELO_EST, ACCEL_EST, 1);
1181:Src/motion.c  ****         Control_AngCalculator(0, 0, 0, 0, 1, 0);
1182:Src/motion.c  ****     }
1183:Src/motion.c  ****     else
1184:Src/motion.c  ****     {
1185:Src/motion.c  ****         Control_WallEdgeAble(0b0010);
ARM GAS  C:\Users\kotaro\AppData\Local\Temp\ccTjQSLT.s 			page 121


 5601              		.loc 1 1185 0
 5602 000e 0220     		movs	r0, #2
 5603              	.LVL383:
 5604 0010 FFF7FEFF 		bl	Control_WallEdgeAble
 5605              	.LVL384:
1186:Src/motion.c  ****         Control_StrCalculator(90.0f, velo_s, VELO_EST, VELO_EST, ACCEL_EST, 1);
 5606              		.loc 1 1186 0
 5607 0014 9FED351A 		vldr.32	s2, .L334
 5608 0018 F7EE002A 		vmov.f32	s5, #1.0e+0
 5609 001c 9FED342A 		vldr.32	s4, .L334+4
 5610 0020 F0EE411A 		vmov.f32	s3, s2
 5611 0024 F0EE480A 		vmov.f32	s1, s16
 5612 0028 9FED320A 		vldr.32	s0, .L334+8
 5613 002c FFF7FEFF 		bl	Control_StrCalculator
 5614              	.LVL385:
1187:Src/motion.c  ****         Control_AngCalculator(0, 0, 0, 0, 1, 0);
 5615              		.loc 1 1187 0
 5616 0030 9FED310A 		vldr.32	s0, .L334+12
 5617 0034 F0EE402A 		vmov.f32	s5, s0
 5618 0038 B7EE002A 		vmov.f32	s4, #1.0e+0
 5619 003c F0EE401A 		vmov.f32	s3, s0
 5620 0040 B0EE401A 		vmov.f32	s2, s0
 5621 0044 F0EE400A 		vmov.f32	s1, s0
 5622 0048 FFF7FEFF 		bl	Control_AngCalculator
 5623              	.LVL386:
1188:Src/motion.c  ****         motion_end_flag = FALSE;
 5624              		.loc 1 1188 0
 5625 004c 2B4B     		ldr	r3, .L334+16
 5626 004e 0022     		movs	r2, #0
 5627 0050 1A70     		strb	r2, [r3]
 5628              	.L330:
1189:Src/motion.c  ****         while (motion_end_flag == FALSE)
 5629              		.loc 1 1189 0 discriminator 1
 5630 0052 2A4B     		ldr	r3, .L334+16
 5631 0054 1B78     		ldrb	r3, [r3]	@ zero_extendqisi2
 5632 0056 002B     		cmp	r3, #0
 5633 0058 FBD0     		beq	.L330
1190:Src/motion.c  ****         {
1191:Src/motion.c  ****         }
1192:Src/motion.c  ****         Control_StrCalculator(90.0f, velo_s, VELO_EST, VELO_EST, ACCEL_EST, 1);
 5634              		.loc 1 1192 0
 5635 005a 9FED241A 		vldr.32	s2, .L334
 5636 005e F7EE002A 		vmov.f32	s5, #1.0e+0
 5637 0062 9FED232A 		vldr.32	s4, .L334+4
 5638 0066 F0EE411A 		vmov.f32	s3, s2
 5639 006a F0EE480A 		vmov.f32	s1, s16
 5640 006e 9FED210A 		vldr.32	s0, .L334+8
 5641 0072 FFF7FEFF 		bl	Control_StrCalculator
 5642              	.LVL387:
1193:Src/motion.c  ****         Control_AngCalculator(0, 0, 0, 0, 1, 0);
 5643              		.loc 1 1193 0
 5644 0076 9FED200A 		vldr.32	s0, .L334+12
 5645 007a F0EE402A 		vmov.f32	s5, s0
 5646 007e B7EE002A 		vmov.f32	s4, #1.0e+0
 5647 0082 F0EE401A 		vmov.f32	s3, s0
 5648 0086 B0EE401A 		vmov.f32	s2, s0
 5649 008a F0EE400A 		vmov.f32	s1, s0
ARM GAS  C:\Users\kotaro\AppData\Local\Temp\ccTjQSLT.s 			page 122


 5650 008e FFF7FEFF 		bl	Control_AngCalculator
 5651              	.LVL388:
 5652              	.L329:
1194:Src/motion.c  ****     }
1195:Src/motion.c  ****     motion_end_flag = FALSE;
 5653              		.loc 1 1195 0
 5654 0092 1A4B     		ldr	r3, .L334+16
 5655 0094 0022     		movs	r2, #0
 5656 0096 1A70     		strb	r2, [r3]
 5657              	.L331:
1196:Src/motion.c  ****     while (motion_end_flag == FALSE)
 5658              		.loc 1 1196 0 discriminator 1
 5659 0098 184B     		ldr	r3, .L334+16
 5660 009a 1B78     		ldrb	r3, [r3]	@ zero_extendqisi2
 5661 009c 002B     		cmp	r3, #0
 5662 009e FBD0     		beq	.L331
1197:Src/motion.c  ****     {
1198:Src/motion.c  ****     }
1199:Src/motion.c  ****     enc.offset = 0.0f;
 5663              		.loc 1 1199 0
 5664 00a0 174B     		ldr	r3, .L334+20
 5665 00a2 0022     		movs	r2, #0
 5666 00a4 9A60     		str	r2, [r3, #8]	@ float
1200:Src/motion.c  **** }
 5667              		.loc 1 1200 0
 5668 00a6 BDEC028B 		vldm	sp!, {d8}
 5669              	.LCFI96:
 5670              		.cfi_remember_state
 5671              		.cfi_restore 80
 5672              		.cfi_restore 81
 5673              		.cfi_def_cfa_offset 8
 5674              	.LVL389:
 5675 00aa 08BD     		pop	{r3, pc}
 5676              	.LVL390:
 5677              	.L333:
 5678              	.LCFI97:
 5679              		.cfi_restore_state
1179:Src/motion.c  ****         Control_StrCalculator(90.0f, velo_s, VELO_EST, VELO_EST, ACCEL_EST, 1);
 5680              		.loc 1 1179 0
 5681 00ac 0220     		movs	r0, #2
 5682              	.LVL391:
 5683 00ae FFF7FEFF 		bl	Control_WallEdgeAble
 5684              	.LVL392:
1180:Src/motion.c  ****         Control_AngCalculator(0, 0, 0, 0, 1, 0);
 5685              		.loc 1 1180 0
 5686 00b2 9FED0E1A 		vldr.32	s2, .L334
 5687 00b6 F7EE002A 		vmov.f32	s5, #1.0e+0
 5688 00ba 9FED0D2A 		vldr.32	s4, .L334+4
 5689 00be F0EE411A 		vmov.f32	s3, s2
 5690 00c2 F0EE480A 		vmov.f32	s1, s16
 5691 00c6 9FED0B0A 		vldr.32	s0, .L334+8
 5692 00ca FFF7FEFF 		bl	Control_StrCalculator
 5693              	.LVL393:
1181:Src/motion.c  ****     }
 5694              		.loc 1 1181 0
 5695 00ce 9FED0A0A 		vldr.32	s0, .L334+12
 5696 00d2 F0EE402A 		vmov.f32	s5, s0
ARM GAS  C:\Users\kotaro\AppData\Local\Temp\ccTjQSLT.s 			page 123


 5697 00d6 B7EE002A 		vmov.f32	s4, #1.0e+0
 5698 00da F0EE401A 		vmov.f32	s3, s0
 5699 00de B0EE401A 		vmov.f32	s2, s0
 5700 00e2 F0EE400A 		vmov.f32	s1, s0
 5701 00e6 FFF7FEFF 		bl	Control_AngCalculator
 5702              	.LVL394:
 5703 00ea D2E7     		b	.L329
 5704              	.L335:
 5705              		.align	2
 5706              	.L334:
 5707 00ec 00009644 		.word	1150681088
 5708 00f0 00409C46 		.word	1184645120
 5709 00f4 0000B442 		.word	1119092736
 5710 00f8 00000000 		.word	0
 5711 00fc 00000000 		.word	motion_end_flag
 5712 0100 00000000 		.word	enc
 5713              		.cfi_endproc
 5714              	.LFE195:
 5716              		.section	.text.Motion_FastestAdjust_R,"ax",%progbits
 5717              		.align	1
 5718              		.global	Motion_FastestAdjust_R
 5719              		.syntax unified
 5720              		.thumb
 5721              		.thumb_func
 5722              		.fpu fpv4-sp-d16
 5724              	Motion_FastestAdjust_R:
 5725              	.LFB196:
1201:Src/motion.c  **** 
1202:Src/motion.c  **** void Motion_FastestAdjust_R(uint16_t step, float velo_s)
1203:Src/motion.c  **** {
 5726              		.loc 1 1203 0
 5727              		.cfi_startproc
 5728              		@ args = 0, pretend = 0, frame = 0
 5729              		@ frame_needed = 0, uses_anonymous_args = 0
 5730              	.LVL395:
 5731 0000 08B5     		push	{r3, lr}
 5732              	.LCFI98:
 5733              		.cfi_def_cfa_offset 8
 5734              		.cfi_offset 3, -8
 5735              		.cfi_offset 14, -4
1204:Src/motion.c  ****     if (step == 1)
 5736              		.loc 1 1204 0
 5737 0002 0128     		cmp	r0, #1
 5738 0004 4CD0     		beq	.L342
1205:Src/motion.c  ****     {
1206:Src/motion.c  ****         Control_WallEdgeAble(0b0001);
1207:Src/motion.c  ****         Control_StrCalculator(90.0f, VELO_EST, VELO_EST, VELO_EST, ACCEL_EST, 1);
1208:Src/motion.c  ****         Control_AngCalculator(0, 0, 0, 0, 1, 0);
1209:Src/motion.c  ****     }
1210:Src/motion.c  ****     else
1211:Src/motion.c  ****     {
1212:Src/motion.c  ****         Control_WallEdgeAble(0b0001);
 5739              		.loc 1 1212 0
 5740 0006 0120     		movs	r0, #1
 5741              	.LVL396:
 5742 0008 FFF7FEFF 		bl	Control_WallEdgeAble
 5743              	.LVL397:
ARM GAS  C:\Users\kotaro\AppData\Local\Temp\ccTjQSLT.s 			page 124


1213:Src/motion.c  ****         Control_StrCalculator(90.0f, VELO_EST, VELO_EST, VELO_EST, ACCEL_EST, 1);
 5744              		.loc 1 1213 0
 5745 000c DFED340A 		vldr.32	s1, .L343
 5746 0010 F7EE002A 		vmov.f32	s5, #1.0e+0
 5747 0014 9FED332A 		vldr.32	s4, .L343+4
 5748 0018 F0EE601A 		vmov.f32	s3, s1
 5749 001c B0EE601A 		vmov.f32	s2, s1
 5750 0020 9FED310A 		vldr.32	s0, .L343+8
 5751 0024 FFF7FEFF 		bl	Control_StrCalculator
 5752              	.LVL398:
1214:Src/motion.c  ****         Control_AngCalculator(0, 0, 0, 0, 1, 0);
 5753              		.loc 1 1214 0
 5754 0028 9FED300A 		vldr.32	s0, .L343+12
 5755 002c F0EE402A 		vmov.f32	s5, s0
 5756 0030 B7EE002A 		vmov.f32	s4, #1.0e+0
 5757 0034 F0EE401A 		vmov.f32	s3, s0
 5758 0038 B0EE401A 		vmov.f32	s2, s0
 5759 003c F0EE400A 		vmov.f32	s1, s0
 5760 0040 FFF7FEFF 		bl	Control_AngCalculator
 5761              	.LVL399:
1215:Src/motion.c  ****         motion_end_flag = FALSE;
 5762              		.loc 1 1215 0
 5763 0044 2A4B     		ldr	r3, .L343+16
 5764 0046 0022     		movs	r2, #0
 5765 0048 1A70     		strb	r2, [r3]
 5766              	.L339:
1216:Src/motion.c  ****         while (motion_end_flag == FALSE)
 5767              		.loc 1 1216 0 discriminator 1
 5768 004a 294B     		ldr	r3, .L343+16
 5769 004c 1B78     		ldrb	r3, [r3]	@ zero_extendqisi2
 5770 004e 002B     		cmp	r3, #0
 5771 0050 FBD0     		beq	.L339
1217:Src/motion.c  ****         {
1218:Src/motion.c  ****         }
1219:Src/motion.c  ****         Control_StrCalculator(90.0f, VELO_EST, VELO_EST, VELO_EST, ACCEL_EST, 1);
 5772              		.loc 1 1219 0
 5773 0052 DFED230A 		vldr.32	s1, .L343
 5774 0056 F7EE002A 		vmov.f32	s5, #1.0e+0
 5775 005a 9FED222A 		vldr.32	s4, .L343+4
 5776 005e F0EE601A 		vmov.f32	s3, s1
 5777 0062 B0EE601A 		vmov.f32	s2, s1
 5778 0066 9FED200A 		vldr.32	s0, .L343+8
 5779 006a FFF7FEFF 		bl	Control_StrCalculator
 5780              	.LVL400:
1220:Src/motion.c  ****         Control_AngCalculator(0, 0, 0, 0, 1, 0);
 5781              		.loc 1 1220 0
 5782 006e 9FED1F0A 		vldr.32	s0, .L343+12
 5783 0072 F0EE402A 		vmov.f32	s5, s0
 5784 0076 B7EE002A 		vmov.f32	s4, #1.0e+0
 5785 007a F0EE401A 		vmov.f32	s3, s0
 5786 007e B0EE401A 		vmov.f32	s2, s0
 5787 0082 F0EE400A 		vmov.f32	s1, s0
 5788 0086 FFF7FEFF 		bl	Control_AngCalculator
 5789              	.LVL401:
 5790              	.L338:
1221:Src/motion.c  ****     }
1222:Src/motion.c  ****     motion_end_flag = FALSE;
ARM GAS  C:\Users\kotaro\AppData\Local\Temp\ccTjQSLT.s 			page 125


 5791              		.loc 1 1222 0
 5792 008a 194B     		ldr	r3, .L343+16
 5793 008c 0022     		movs	r2, #0
 5794 008e 1A70     		strb	r2, [r3]
 5795              	.L340:
1223:Src/motion.c  ****     while (motion_end_flag == FALSE)
 5796              		.loc 1 1223 0 discriminator 1
 5797 0090 174B     		ldr	r3, .L343+16
 5798 0092 1B78     		ldrb	r3, [r3]	@ zero_extendqisi2
 5799 0094 002B     		cmp	r3, #0
 5800 0096 FBD0     		beq	.L340
1224:Src/motion.c  ****     {
1225:Src/motion.c  ****     }
1226:Src/motion.c  ****     enc.offset = 0.0f;
 5801              		.loc 1 1226 0
 5802 0098 164B     		ldr	r3, .L343+20
 5803 009a 0022     		movs	r2, #0
 5804 009c 9A60     		str	r2, [r3, #8]	@ float
1227:Src/motion.c  **** }
 5805              		.loc 1 1227 0
 5806 009e 08BD     		pop	{r3, pc}
 5807              	.LVL402:
 5808              	.L342:
1206:Src/motion.c  ****         Control_StrCalculator(90.0f, VELO_EST, VELO_EST, VELO_EST, ACCEL_EST, 1);
 5809              		.loc 1 1206 0
 5810 00a0 FFF7FEFF 		bl	Control_WallEdgeAble
 5811              	.LVL403:
1207:Src/motion.c  ****         Control_AngCalculator(0, 0, 0, 0, 1, 0);
 5812              		.loc 1 1207 0
 5813 00a4 DFED0E0A 		vldr.32	s1, .L343
 5814 00a8 F7EE002A 		vmov.f32	s5, #1.0e+0
 5815 00ac 9FED0D2A 		vldr.32	s4, .L343+4
 5816 00b0 F0EE601A 		vmov.f32	s3, s1
 5817 00b4 B0EE601A 		vmov.f32	s2, s1
 5818 00b8 9FED0B0A 		vldr.32	s0, .L343+8
 5819 00bc FFF7FEFF 		bl	Control_StrCalculator
 5820              	.LVL404:
1208:Src/motion.c  ****     }
 5821              		.loc 1 1208 0
 5822 00c0 9FED0A0A 		vldr.32	s0, .L343+12
 5823 00c4 F0EE402A 		vmov.f32	s5, s0
 5824 00c8 B7EE002A 		vmov.f32	s4, #1.0e+0
 5825 00cc F0EE401A 		vmov.f32	s3, s0
 5826 00d0 B0EE401A 		vmov.f32	s2, s0
 5827 00d4 F0EE400A 		vmov.f32	s1, s0
 5828 00d8 FFF7FEFF 		bl	Control_AngCalculator
 5829              	.LVL405:
 5830 00dc D5E7     		b	.L338
 5831              	.L344:
 5832 00de 00BF     		.align	2
 5833              	.L343:
 5834 00e0 00009644 		.word	1150681088
 5835 00e4 00409C46 		.word	1184645120
 5836 00e8 0000B442 		.word	1119092736
 5837 00ec 00000000 		.word	0
 5838 00f0 00000000 		.word	motion_end_flag
 5839 00f4 00000000 		.word	enc
ARM GAS  C:\Users\kotaro\AppData\Local\Temp\ccTjQSLT.s 			page 126


 5840              		.cfi_endproc
 5841              	.LFE196:
 5843              		.section	.text.Fastest_StrTurn,"ax",%progbits
 5844              		.align	1
 5845              		.global	Fastest_StrTurn
 5846              		.syntax unified
 5847              		.thumb
 5848              		.thumb_func
 5849              		.fpu fpv4-sp-d16
 5851              	Fastest_StrTurn:
 5852              	.LFB197:
1228:Src/motion.c  **** 
1229:Src/motion.c  **** void Fastest_StrTurn(float offset_in, float offset_out, float velo, float v_end, float deg, float v
1230:Src/motion.c  **** {
 5853              		.loc 1 1230 0
 5854              		.cfi_startproc
 5855              		@ args = 0, pretend = 0, frame = 0
 5856              		@ frame_needed = 0, uses_anonymous_args = 0
 5857              	.LVL406:
 5858 0000 08B5     		push	{r3, lr}
 5859              	.LCFI99:
 5860              		.cfi_def_cfa_offset 8
 5861              		.cfi_offset 3, -8
 5862              		.cfi_offset 14, -4
 5863 0002 2DED088B 		vpush.64	{d8, d9, d10, d11}
 5864              	.LCFI100:
 5865              		.cfi_def_cfa_offset 40
 5866              		.cfi_offset 80, -40
 5867              		.cfi_offset 81, -36
 5868              		.cfi_offset 82, -32
 5869              		.cfi_offset 83, -28
 5870              		.cfi_offset 84, -24
 5871              		.cfi_offset 85, -20
 5872              		.cfi_offset 86, -16
 5873              		.cfi_offset 87, -12
 5874 0006 F0EE608A 		vmov.f32	s17, s1
 5875 000a B0EE418A 		vmov.f32	s16, s2
 5876 000e B0EE619A 		vmov.f32	s18, s3
 5877 0012 F0EE429A 		vmov.f32	s19, s4
 5878 0016 B0EE62AA 		vmov.f32	s20, s5
 5879 001a F0EE43AA 		vmov.f32	s21, s6
 5880 001e 0BEE100A 		vmov	s22, r0	@ int
1231:Src/motion.c  ****     //offset in
1232:Src/motion.c  ****     Control_StrCalculator(offset_in - enc.offset, velo, velo, velo, 1, 1);
 5881              		.loc 1 1232 0
 5882 0022 394B     		ldr	r3, .L350
 5883 0024 D3ED027A 		vldr.32	s15, [r3, #8]
 5884 0028 F7EE002A 		vmov.f32	s5, #1.0e+0
 5885              	.LVL407:
 5886 002c B0EE622A 		vmov.f32	s4, s5
 5887              	.LVL408:
 5888 0030 F0EE411A 		vmov.f32	s3, s2
 5889              	.LVL409:
 5890 0034 F0EE410A 		vmov.f32	s1, s2
 5891              	.LVL410:
 5892 0038 30EE670A 		vsub.f32	s0, s0, s15
 5893              	.LVL411:
ARM GAS  C:\Users\kotaro\AppData\Local\Temp\ccTjQSLT.s 			page 127


 5894 003c FFF7FEFF 		bl	Control_StrCalculator
 5895              	.LVL412:
1233:Src/motion.c  ****     Control_AngCalculator(0, 0, 0, 0, 1, 0);
 5896              		.loc 1 1233 0
 5897 0040 9FED320A 		vldr.32	s0, .L350+4
 5898 0044 F0EE402A 		vmov.f32	s5, s0
 5899 0048 B7EE002A 		vmov.f32	s4, #1.0e+0
 5900 004c F0EE401A 		vmov.f32	s3, s0
 5901 0050 B0EE401A 		vmov.f32	s2, s0
 5902 0054 F0EE400A 		vmov.f32	s1, s0
 5903 0058 FFF7FEFF 		bl	Control_AngCalculator
 5904              	.LVL413:
1234:Src/motion.c  ****     motion_end_flag = FALSE;
 5905              		.loc 1 1234 0
 5906 005c 2C4B     		ldr	r3, .L350+8
 5907 005e 0022     		movs	r2, #0
 5908 0060 1A70     		strb	r2, [r3]
 5909              	.L346:
1235:Src/motion.c  ****     while (motion_end_flag == FALSE)
 5910              		.loc 1 1235 0 discriminator 1
 5911 0062 2B4B     		ldr	r3, .L350+8
 5912 0064 1B78     		ldrb	r3, [r3]	@ zero_extendqisi2
 5913 0066 002B     		cmp	r3, #0
 5914 0068 FBD0     		beq	.L346
1236:Src/motion.c  ****     {
1237:Src/motion.c  ****     }
1238:Src/motion.c  ****     //turn
1239:Src/motion.c  ****     Control_StrCalculator(1200.0f, velo, velo, velo, 1, 1);
 5915              		.loc 1 1239 0
 5916 006a F7EE002A 		vmov.f32	s5, #1.0e+0
 5917 006e B0EE622A 		vmov.f32	s4, s5
 5918 0072 F0EE481A 		vmov.f32	s3, s16
 5919 0076 B0EE481A 		vmov.f32	s2, s16
 5920 007a F0EE480A 		vmov.f32	s1, s16
 5921 007e 9FED250A 		vldr.32	s0, .L350+12
 5922 0082 FFF7FEFF 		bl	Control_StrCalculator
 5923              	.LVL414:
1240:Src/motion.c  ****     Control_AngCalculator(deg, 0, velo_ang, 0, accel_ang, dir);
 5924              		.loc 1 1240 0
 5925 0086 DFED210A 		vldr.32	s1, .L350+4
 5926 008a F8EE4B2A 		vcvt.f32.u32	s5, s22
 5927 008e B0EE6A2A 		vmov.f32	s4, s21
 5928 0092 F0EE601A 		vmov.f32	s3, s1
 5929 0096 B0EE4A1A 		vmov.f32	s2, s20
 5930 009a B0EE690A 		vmov.f32	s0, s19
 5931 009e FFF7FEFF 		bl	Control_AngCalculator
 5932              	.LVL415:
1241:Src/motion.c  ****     motion_end_flag = FALSE;
 5933              		.loc 1 1241 0
 5934 00a2 1B4B     		ldr	r3, .L350+8
 5935 00a4 0022     		movs	r2, #0
 5936 00a6 1A70     		strb	r2, [r3]
 5937              	.L347:
1242:Src/motion.c  ****     while (motion_end_flag == FALSE)
 5938              		.loc 1 1242 0 discriminator 1
 5939 00a8 194B     		ldr	r3, .L350+8
 5940 00aa 1B78     		ldrb	r3, [r3]	@ zero_extendqisi2
ARM GAS  C:\Users\kotaro\AppData\Local\Temp\ccTjQSLT.s 			page 128


 5941 00ac 002B     		cmp	r3, #0
 5942 00ae FBD0     		beq	.L347
1243:Src/motion.c  ****     {
1244:Src/motion.c  ****     }
1245:Src/motion.c  ****     //offset out
1246:Src/motion.c  ****     Control_WallEdgeAble(0b0011);
 5943              		.loc 1 1246 0
 5944 00b0 0320     		movs	r0, #3
 5945 00b2 FFF7FEFF 		bl	Control_WallEdgeAble
 5946              	.LVL416:
1247:Src/motion.c  ****     Control_StrCalculator(offset_out, velo, velo, v_end, 20000.0f, 1);
 5947              		.loc 1 1247 0
 5948 00b6 F7EE002A 		vmov.f32	s5, #1.0e+0
 5949 00ba 9FED172A 		vldr.32	s4, .L350+16
 5950 00be F0EE491A 		vmov.f32	s3, s18
 5951 00c2 B0EE481A 		vmov.f32	s2, s16
 5952 00c6 F0EE480A 		vmov.f32	s1, s16
 5953 00ca B0EE680A 		vmov.f32	s0, s17
 5954 00ce FFF7FEFF 		bl	Control_StrCalculator
 5955              	.LVL417:
1248:Src/motion.c  ****     Control_AngCalculator(0, 0, 0, 0, 1, 0);
 5956              		.loc 1 1248 0
 5957 00d2 9FED0E0A 		vldr.32	s0, .L350+4
 5958 00d6 F0EE402A 		vmov.f32	s5, s0
 5959 00da B7EE002A 		vmov.f32	s4, #1.0e+0
 5960 00de F0EE401A 		vmov.f32	s3, s0
 5961 00e2 B0EE401A 		vmov.f32	s2, s0
 5962 00e6 F0EE400A 		vmov.f32	s1, s0
 5963 00ea FFF7FEFF 		bl	Control_AngCalculator
 5964              	.LVL418:
1249:Src/motion.c  ****     motion_end_flag = FALSE;
 5965              		.loc 1 1249 0
 5966 00ee 084B     		ldr	r3, .L350+8
 5967 00f0 0022     		movs	r2, #0
 5968 00f2 1A70     		strb	r2, [r3]
 5969              	.L348:
1250:Src/motion.c  ****     while (motion_end_flag == FALSE)
 5970              		.loc 1 1250 0 discriminator 1
 5971 00f4 064B     		ldr	r3, .L350+8
 5972 00f6 1B78     		ldrb	r3, [r3]	@ zero_extendqisi2
 5973 00f8 002B     		cmp	r3, #0
 5974 00fa FBD0     		beq	.L348
1251:Src/motion.c  ****     {
1252:Src/motion.c  ****     }
1253:Src/motion.c  ****     enc.offset = 0.0f;
 5975              		.loc 1 1253 0
 5976 00fc 024B     		ldr	r3, .L350
 5977 00fe 0022     		movs	r2, #0
 5978 0100 9A60     		str	r2, [r3, #8]	@ float
1254:Src/motion.c  **** }
 5979              		.loc 1 1254 0
 5980 0102 BDEC088B 		vldm	sp!, {d8-d11}
 5981              	.LCFI101:
 5982              		.cfi_restore 86
 5983              		.cfi_restore 87
 5984              		.cfi_restore 84
 5985              		.cfi_restore 85
ARM GAS  C:\Users\kotaro\AppData\Local\Temp\ccTjQSLT.s 			page 129


 5986              		.cfi_restore 82
 5987              		.cfi_restore 83
 5988              		.cfi_restore 80
 5989              		.cfi_restore 81
 5990              		.cfi_def_cfa_offset 8
 5991              	.LVL419:
 5992 0106 08BD     		pop	{r3, pc}
 5993              	.L351:
 5994              		.align	2
 5995              	.L350:
 5996 0108 00000000 		.word	enc
 5997 010c 00000000 		.word	0
 5998 0110 00000000 		.word	motion_end_flag
 5999 0114 00009644 		.word	1150681088
 6000 0118 00409C46 		.word	1184645120
 6001              		.cfi_endproc
 6002              	.LFE197:
 6004              		.section	.text.Fastest_DgnInTurn,"ax",%progbits
 6005              		.align	1
 6006              		.global	Fastest_DgnInTurn
 6007              		.syntax unified
 6008              		.thumb
 6009              		.thumb_func
 6010              		.fpu fpv4-sp-d16
 6012              	Fastest_DgnInTurn:
 6013              	.LFB198:
1255:Src/motion.c  **** 
1256:Src/motion.c  **** void Fastest_DgnInTurn(float offset_in, float offset_out, float velo, float v_end, float deg, float
1257:Src/motion.c  **** {
 6014              		.loc 1 1257 0
 6015              		.cfi_startproc
 6016              		@ args = 0, pretend = 0, frame = 0
 6017              		@ frame_needed = 0, uses_anonymous_args = 0
 6018              	.LVL420:
 6019 0000 10B5     		push	{r4, lr}
 6020              	.LCFI102:
 6021              		.cfi_def_cfa_offset 8
 6022              		.cfi_offset 4, -8
 6023              		.cfi_offset 14, -4
 6024 0002 2DED068B 		vpush.64	{d8, d9, d10}
 6025              	.LCFI103:
 6026              		.cfi_def_cfa_offset 32
 6027              		.cfi_offset 80, -32
 6028              		.cfi_offset 81, -28
 6029              		.cfi_offset 82, -24
 6030              		.cfi_offset 83, -20
 6031              		.cfi_offset 84, -16
 6032              		.cfi_offset 85, -12
 6033 0006 F0EE608A 		vmov.f32	s17, s1
 6034 000a B0EE418A 		vmov.f32	s16, s2
 6035 000e B0EE429A 		vmov.f32	s18, s4
 6036 0012 F0EE629A 		vmov.f32	s19, s5
 6037 0016 B0EE43AA 		vmov.f32	s20, s6
 6038 001a 0446     		mov	r4, r0
1258:Src/motion.c  ****     //offset in
1259:Src/motion.c  ****     Control_StrCalculator(offset_in - enc.offset, velo, velo, velo, 1, 1);
 6039              		.loc 1 1259 0
ARM GAS  C:\Users\kotaro\AppData\Local\Temp\ccTjQSLT.s 			page 130


 6040 001c 3E4B     		ldr	r3, .L359
 6041 001e D3ED027A 		vldr.32	s15, [r3, #8]
 6042 0022 F7EE002A 		vmov.f32	s5, #1.0e+0
 6043              	.LVL421:
 6044 0026 B0EE622A 		vmov.f32	s4, s5
 6045              	.LVL422:
 6046 002a F0EE411A 		vmov.f32	s3, s2
 6047              	.LVL423:
 6048 002e F0EE410A 		vmov.f32	s1, s2
 6049              	.LVL424:
 6050 0032 30EE670A 		vsub.f32	s0, s0, s15
 6051              	.LVL425:
 6052 0036 FFF7FEFF 		bl	Control_StrCalculator
 6053              	.LVL426:
1260:Src/motion.c  ****     Control_AngCalculator(0, 0, 0, 0, 1, 0);
 6054              		.loc 1 1260 0
 6055 003a 9FED380A 		vldr.32	s0, .L359+4
 6056 003e F0EE402A 		vmov.f32	s5, s0
 6057 0042 B7EE002A 		vmov.f32	s4, #1.0e+0
 6058 0046 F0EE401A 		vmov.f32	s3, s0
 6059 004a B0EE401A 		vmov.f32	s2, s0
 6060 004e F0EE400A 		vmov.f32	s1, s0
 6061 0052 FFF7FEFF 		bl	Control_AngCalculator
 6062              	.LVL427:
1261:Src/motion.c  ****     motion_end_flag = FALSE;
 6063              		.loc 1 1261 0
 6064 0056 324B     		ldr	r3, .L359+8
 6065 0058 0022     		movs	r2, #0
 6066 005a 1A70     		strb	r2, [r3]
 6067              	.L353:
1262:Src/motion.c  ****     while (motion_end_flag == FALSE)
 6068              		.loc 1 1262 0 discriminator 1
 6069 005c 304B     		ldr	r3, .L359+8
 6070 005e 1B78     		ldrb	r3, [r3]	@ zero_extendqisi2
 6071 0060 002B     		cmp	r3, #0
 6072 0062 FBD0     		beq	.L353
1263:Src/motion.c  ****     {
1264:Src/motion.c  ****     }
1265:Src/motion.c  ****     //turn
1266:Src/motion.c  ****     Control_StrCalculator(1200.0f, velo, velo, velo, 1, 1);
 6073              		.loc 1 1266 0
 6074 0064 F7EE002A 		vmov.f32	s5, #1.0e+0
 6075 0068 B0EE622A 		vmov.f32	s4, s5
 6076 006c F0EE481A 		vmov.f32	s3, s16
 6077 0070 B0EE481A 		vmov.f32	s2, s16
 6078 0074 F0EE480A 		vmov.f32	s1, s16
 6079 0078 9FED2A0A 		vldr.32	s0, .L359+12
 6080 007c FFF7FEFF 		bl	Control_StrCalculator
 6081              	.LVL428:
1267:Src/motion.c  ****     Control_AngCalculator(deg, 0, velo_ang, 0, accel_ang, dir);
 6082              		.loc 1 1267 0
 6083 0080 DFED260A 		vldr.32	s1, .L359+4
 6084 0084 07EE904A 		vmov	s15, r4	@ int
 6085 0088 F8EE672A 		vcvt.f32.u32	s5, s15
 6086 008c B0EE4A2A 		vmov.f32	s4, s20
 6087 0090 F0EE601A 		vmov.f32	s3, s1
 6088 0094 B0EE691A 		vmov.f32	s2, s19
ARM GAS  C:\Users\kotaro\AppData\Local\Temp\ccTjQSLT.s 			page 131


 6089 0098 B0EE490A 		vmov.f32	s0, s18
 6090 009c FFF7FEFF 		bl	Control_AngCalculator
 6091              	.LVL429:
1268:Src/motion.c  ****     motion_end_flag = FALSE;
 6092              		.loc 1 1268 0
 6093 00a0 1F4B     		ldr	r3, .L359+8
 6094 00a2 0022     		movs	r2, #0
 6095 00a4 1A70     		strb	r2, [r3]
 6096              	.L354:
1269:Src/motion.c  ****     while (motion_end_flag == FALSE)
 6097              		.loc 1 1269 0 discriminator 1
 6098 00a6 1E4B     		ldr	r3, .L359+8
 6099 00a8 1B78     		ldrb	r3, [r3]	@ zero_extendqisi2
 6100 00aa 002B     		cmp	r3, #0
 6101 00ac FBD0     		beq	.L354
1270:Src/motion.c  ****     {
1271:Src/motion.c  ****     }
1272:Src/motion.c  ****     //offset out
1273:Src/motion.c  ****     control_wall_flag = 0;
 6102              		.loc 1 1273 0
 6103 00ae 1E4B     		ldr	r3, .L359+16
 6104 00b0 0022     		movs	r2, #0
 6105 00b2 1A70     		strb	r2, [r3]
1274:Src/motion.c  ****     if (dir == 1)
 6106              		.loc 1 1274 0
 6107 00b4 012C     		cmp	r4, #1
 6108 00b6 2BD0     		beq	.L358
 6109              	.L355:
1275:Src/motion.c  ****     {
1276:Src/motion.c  ****         Control_WallEdgeAble(0b0100);
1277:Src/motion.c  ****     }
1278:Src/motion.c  ****     else if (dir == -1)
1279:Src/motion.c  ****     {
1280:Src/motion.c  ****         Control_WallEdgeAble(0b1000);
1281:Src/motion.c  ****     }
1282:Src/motion.c  ****     Control_StrCalculator(offset_out, VELO_EST, VELO_EST, VELO_EST, ACCEL_EST, 1); //26
 6110              		.loc 1 1282 0
 6111 00b8 DFED1A0A 		vldr.32	s1, .L359+12
 6112 00bc F7EE002A 		vmov.f32	s5, #1.0e+0
 6113 00c0 9FED1A2A 		vldr.32	s4, .L359+20
 6114 00c4 F0EE601A 		vmov.f32	s3, s1
 6115 00c8 B0EE601A 		vmov.f32	s2, s1
 6116 00cc B0EE680A 		vmov.f32	s0, s17
 6117 00d0 FFF7FEFF 		bl	Control_StrCalculator
 6118              	.LVL430:
1283:Src/motion.c  ****     Control_AngCalculator(0, 0, 0, 0, 1, 0);
 6119              		.loc 1 1283 0
 6120 00d4 9FED110A 		vldr.32	s0, .L359+4
 6121 00d8 F0EE402A 		vmov.f32	s5, s0
 6122 00dc B7EE002A 		vmov.f32	s4, #1.0e+0
 6123 00e0 F0EE401A 		vmov.f32	s3, s0
 6124 00e4 B0EE401A 		vmov.f32	s2, s0
 6125 00e8 F0EE400A 		vmov.f32	s1, s0
 6126 00ec FFF7FEFF 		bl	Control_AngCalculator
 6127              	.LVL431:
1284:Src/motion.c  ****     motion_end_flag = FALSE;
 6128              		.loc 1 1284 0
ARM GAS  C:\Users\kotaro\AppData\Local\Temp\ccTjQSLT.s 			page 132


 6129 00f0 0B4B     		ldr	r3, .L359+8
 6130 00f2 0022     		movs	r2, #0
 6131 00f4 1A70     		strb	r2, [r3]
 6132              	.L356:
1285:Src/motion.c  ****     while (motion_end_flag == FALSE)
 6133              		.loc 1 1285 0 discriminator 1
 6134 00f6 0A4B     		ldr	r3, .L359+8
 6135 00f8 1B78     		ldrb	r3, [r3]	@ zero_extendqisi2
 6136 00fa 002B     		cmp	r3, #0
 6137 00fc FBD0     		beq	.L356
1286:Src/motion.c  ****     {
1287:Src/motion.c  ****     }
1288:Src/motion.c  ****     control_wall_flag = 3;
 6138              		.loc 1 1288 0
 6139 00fe 0A4B     		ldr	r3, .L359+16
 6140 0100 0322     		movs	r2, #3
 6141 0102 1A70     		strb	r2, [r3]
1289:Src/motion.c  ****     enc.offset = 0.0f;
 6142              		.loc 1 1289 0
 6143 0104 044B     		ldr	r3, .L359
 6144 0106 0022     		movs	r2, #0
 6145 0108 9A60     		str	r2, [r3, #8]	@ float
1290:Src/motion.c  **** }
 6146              		.loc 1 1290 0
 6147 010a BDEC068B 		vldm	sp!, {d8-d10}
 6148              	.LCFI104:
 6149              		.cfi_remember_state
 6150              		.cfi_restore 84
 6151              		.cfi_restore 85
 6152              		.cfi_restore 82
 6153              		.cfi_restore 83
 6154              		.cfi_restore 80
 6155              		.cfi_restore 81
 6156              		.cfi_def_cfa_offset 8
 6157              	.LVL432:
 6158 010e 10BD     		pop	{r4, pc}
 6159              	.LVL433:
 6160              	.L358:
 6161              	.LCFI105:
 6162              		.cfi_restore_state
1276:Src/motion.c  ****     }
 6163              		.loc 1 1276 0
 6164 0110 0420     		movs	r0, #4
 6165 0112 FFF7FEFF 		bl	Control_WallEdgeAble
 6166              	.LVL434:
 6167 0116 CFE7     		b	.L355
 6168              	.L360:
 6169              		.align	2
 6170              	.L359:
 6171 0118 00000000 		.word	enc
 6172 011c 00000000 		.word	0
 6173 0120 00000000 		.word	motion_end_flag
 6174 0124 00009644 		.word	1150681088
 6175 0128 00000000 		.word	control_wall_flag
 6176 012c 00409C46 		.word	1184645120
 6177              		.cfi_endproc
 6178              	.LFE198:
ARM GAS  C:\Users\kotaro\AppData\Local\Temp\ccTjQSLT.s 			page 133


 6180              		.section	.text.Fastest_DgnOutTurn,"ax",%progbits
 6181              		.align	1
 6182              		.global	Fastest_DgnOutTurn
 6183              		.syntax unified
 6184              		.thumb
 6185              		.thumb_func
 6186              		.fpu fpv4-sp-d16
 6188              	Fastest_DgnOutTurn:
 6189              	.LFB199:
1291:Src/motion.c  **** 
1292:Src/motion.c  **** void Fastest_DgnOutTurn(float offset_in, float offset_out, float velo, float v_end, float deg, floa
1293:Src/motion.c  **** {
 6190              		.loc 1 1293 0
 6191              		.cfi_startproc
 6192              		@ args = 0, pretend = 0, frame = 0
 6193              		@ frame_needed = 0, uses_anonymous_args = 0
 6194              	.LVL435:
 6195 0000 10B5     		push	{r4, lr}
 6196              	.LCFI106:
 6197              		.cfi_def_cfa_offset 8
 6198              		.cfi_offset 4, -8
 6199              		.cfi_offset 14, -4
 6200 0002 2DED088B 		vpush.64	{d8, d9, d10, d11}
 6201              	.LCFI107:
 6202              		.cfi_def_cfa_offset 40
 6203              		.cfi_offset 80, -40
 6204              		.cfi_offset 81, -36
 6205              		.cfi_offset 82, -32
 6206              		.cfi_offset 83, -28
 6207              		.cfi_offset 84, -24
 6208              		.cfi_offset 85, -20
 6209              		.cfi_offset 86, -16
 6210              		.cfi_offset 87, -12
 6211 0006 F0EE608A 		vmov.f32	s17, s1
 6212 000a B0EE418A 		vmov.f32	s16, s2
 6213 000e B0EE619A 		vmov.f32	s18, s3
 6214 0012 F0EE429A 		vmov.f32	s19, s4
 6215 0016 B0EE62AA 		vmov.f32	s20, s5
 6216 001a F0EE43AA 		vmov.f32	s21, s6
 6217 001e 0BEE100A 		vmov	s22, r0	@ int
1294:Src/motion.c  ****     //offset in
1295:Src/motion.c  ****     control_wall_flag = 0;
 6218              		.loc 1 1295 0
 6219 0022 0024     		movs	r4, #0
 6220 0024 3B4B     		ldr	r3, .L366
 6221 0026 1C70     		strb	r4, [r3]
1296:Src/motion.c  ****     Control_StrCalculator(offset_in - enc.offset, velo, velo, velo, 1, 1);
 6222              		.loc 1 1296 0
 6223 0028 3B4B     		ldr	r3, .L366+4
 6224 002a D3ED027A 		vldr.32	s15, [r3, #8]
 6225 002e F7EE002A 		vmov.f32	s5, #1.0e+0
 6226              	.LVL436:
 6227 0032 B0EE622A 		vmov.f32	s4, s5
 6228              	.LVL437:
 6229 0036 F0EE411A 		vmov.f32	s3, s2
 6230              	.LVL438:
 6231 003a F0EE410A 		vmov.f32	s1, s2
ARM GAS  C:\Users\kotaro\AppData\Local\Temp\ccTjQSLT.s 			page 134


 6232              	.LVL439:
 6233 003e 30EE670A 		vsub.f32	s0, s0, s15
 6234              	.LVL440:
 6235 0042 FFF7FEFF 		bl	Control_StrCalculator
 6236              	.LVL441:
1297:Src/motion.c  ****     Control_AngCalculator(0, 0, 0, 0, 1, 0);
 6237              		.loc 1 1297 0
 6238 0046 9FED350A 		vldr.32	s0, .L366+8
 6239 004a F0EE402A 		vmov.f32	s5, s0
 6240 004e B7EE002A 		vmov.f32	s4, #1.0e+0
 6241 0052 F0EE401A 		vmov.f32	s3, s0
 6242 0056 B0EE401A 		vmov.f32	s2, s0
 6243 005a F0EE400A 		vmov.f32	s1, s0
 6244 005e FFF7FEFF 		bl	Control_AngCalculator
 6245              	.LVL442:
1298:Src/motion.c  ****     motion_end_flag = FALSE;
 6246              		.loc 1 1298 0
 6247 0062 2F4B     		ldr	r3, .L366+12
 6248 0064 1C70     		strb	r4, [r3]
 6249              	.L362:
1299:Src/motion.c  ****     while (motion_end_flag == FALSE)
 6250              		.loc 1 1299 0 discriminator 1
 6251 0066 2E4B     		ldr	r3, .L366+12
 6252 0068 1B78     		ldrb	r3, [r3]	@ zero_extendqisi2
 6253 006a 002B     		cmp	r3, #0
 6254 006c FBD0     		beq	.L362
1300:Src/motion.c  ****     {
1301:Src/motion.c  ****     }
1302:Src/motion.c  ****     //turn
1303:Src/motion.c  ****     Control_StrCalculator(1200.0f, velo, velo, velo, 1, 1);
 6255              		.loc 1 1303 0
 6256 006e F7EE002A 		vmov.f32	s5, #1.0e+0
 6257 0072 B0EE622A 		vmov.f32	s4, s5
 6258 0076 F0EE481A 		vmov.f32	s3, s16
 6259 007a B0EE481A 		vmov.f32	s2, s16
 6260 007e F0EE480A 		vmov.f32	s1, s16
 6261 0082 9FED280A 		vldr.32	s0, .L366+16
 6262 0086 FFF7FEFF 		bl	Control_StrCalculator
 6263              	.LVL443:
1304:Src/motion.c  ****     Control_AngCalculator(deg, 0, velo_ang, 0, accel_ang, dir);
 6264              		.loc 1 1304 0
 6265 008a DFED240A 		vldr.32	s1, .L366+8
 6266 008e F8EE4B2A 		vcvt.f32.u32	s5, s22
 6267 0092 B0EE6A2A 		vmov.f32	s4, s21
 6268 0096 F0EE601A 		vmov.f32	s3, s1
 6269 009a B0EE4A1A 		vmov.f32	s2, s20
 6270 009e B0EE690A 		vmov.f32	s0, s19
 6271 00a2 FFF7FEFF 		bl	Control_AngCalculator
 6272              	.LVL444:
1305:Src/motion.c  ****     motion_end_flag = FALSE;
 6273              		.loc 1 1305 0
 6274 00a6 1E4B     		ldr	r3, .L366+12
 6275 00a8 0022     		movs	r2, #0
 6276 00aa 1A70     		strb	r2, [r3]
 6277              	.L363:
1306:Src/motion.c  ****     while (motion_end_flag == FALSE)
 6278              		.loc 1 1306 0 discriminator 1
ARM GAS  C:\Users\kotaro\AppData\Local\Temp\ccTjQSLT.s 			page 135


 6279 00ac 1C4B     		ldr	r3, .L366+12
 6280 00ae 1B78     		ldrb	r3, [r3]	@ zero_extendqisi2
 6281 00b0 002B     		cmp	r3, #0
 6282 00b2 FBD0     		beq	.L363
1307:Src/motion.c  ****     {
1308:Src/motion.c  ****     }
1309:Src/motion.c  ****     //offset out
1310:Src/motion.c  ****     control_wall_flag = 4;
 6283              		.loc 1 1310 0
 6284 00b4 174B     		ldr	r3, .L366
 6285 00b6 0422     		movs	r2, #4
 6286 00b8 1A70     		strb	r2, [r3]
1311:Src/motion.c  ****     Control_WallEdgeAble(0b0011);
 6287              		.loc 1 1311 0
 6288 00ba 0320     		movs	r0, #3
 6289 00bc FFF7FEFF 		bl	Control_WallEdgeAble
 6290              	.LVL445:
1312:Src/motion.c  ****     Control_StrCalculator(offset_out, velo, velo, v_end, 20000.0f, 1);
 6291              		.loc 1 1312 0
 6292 00c0 F7EE002A 		vmov.f32	s5, #1.0e+0
 6293 00c4 9FED182A 		vldr.32	s4, .L366+20
 6294 00c8 F0EE491A 		vmov.f32	s3, s18
 6295 00cc B0EE481A 		vmov.f32	s2, s16
 6296 00d0 F0EE480A 		vmov.f32	s1, s16
 6297 00d4 B0EE680A 		vmov.f32	s0, s17
 6298 00d8 FFF7FEFF 		bl	Control_StrCalculator
 6299              	.LVL446:
1313:Src/motion.c  ****     Control_AngCalculator(0, 0, 0, 0, 1, 0);
 6300              		.loc 1 1313 0
 6301 00dc 9FED0F0A 		vldr.32	s0, .L366+8
 6302 00e0 F0EE402A 		vmov.f32	s5, s0
 6303 00e4 B7EE002A 		vmov.f32	s4, #1.0e+0
 6304 00e8 F0EE401A 		vmov.f32	s3, s0
 6305 00ec B0EE401A 		vmov.f32	s2, s0
 6306 00f0 F0EE400A 		vmov.f32	s1, s0
 6307 00f4 FFF7FEFF 		bl	Control_AngCalculator
 6308              	.LVL447:
1314:Src/motion.c  ****     motion_end_flag = FALSE;
 6309              		.loc 1 1314 0
 6310 00f8 094B     		ldr	r3, .L366+12
 6311 00fa 0022     		movs	r2, #0
 6312 00fc 1A70     		strb	r2, [r3]
 6313              	.L364:
1315:Src/motion.c  ****     while (motion_end_flag == FALSE)
 6314              		.loc 1 1315 0 discriminator 1
 6315 00fe 084B     		ldr	r3, .L366+12
 6316 0100 1B78     		ldrb	r3, [r3]	@ zero_extendqisi2
 6317 0102 002B     		cmp	r3, #0
 6318 0104 FBD0     		beq	.L364
1316:Src/motion.c  ****     {
1317:Src/motion.c  ****     }
1318:Src/motion.c  ****     enc.offset = 0.0f;
 6319              		.loc 1 1318 0
 6320 0106 044B     		ldr	r3, .L366+4
 6321 0108 0022     		movs	r2, #0
 6322 010a 9A60     		str	r2, [r3, #8]	@ float
1319:Src/motion.c  **** }
ARM GAS  C:\Users\kotaro\AppData\Local\Temp\ccTjQSLT.s 			page 136


 6323              		.loc 1 1319 0
 6324 010c BDEC088B 		vldm	sp!, {d8-d11}
 6325              	.LCFI108:
 6326              		.cfi_restore 86
 6327              		.cfi_restore 87
 6328              		.cfi_restore 84
 6329              		.cfi_restore 85
 6330              		.cfi_restore 82
 6331              		.cfi_restore 83
 6332              		.cfi_restore 80
 6333              		.cfi_restore 81
 6334              		.cfi_def_cfa_offset 8
 6335              	.LVL448:
 6336 0110 10BD     		pop	{r4, pc}
 6337              	.L367:
 6338 0112 00BF     		.align	2
 6339              	.L366:
 6340 0114 00000000 		.word	control_wall_flag
 6341 0118 00000000 		.word	enc
 6342 011c 00000000 		.word	0
 6343 0120 00000000 		.word	motion_end_flag
 6344 0124 00009644 		.word	1150681088
 6345 0128 00409C46 		.word	1184645120
 6346              		.cfi_endproc
 6347              	.LFE199:
 6349              		.section	.text.Fastest_DgnTurn,"ax",%progbits
 6350              		.align	1
 6351              		.global	Fastest_DgnTurn
 6352              		.syntax unified
 6353              		.thumb
 6354              		.thumb_func
 6355              		.fpu fpv4-sp-d16
 6357              	Fastest_DgnTurn:
 6358              	.LFB200:
1320:Src/motion.c  **** 
1321:Src/motion.c  **** void Fastest_DgnTurn(float offset_in, float offset_out, float velo, float v_end, float deg, float v
1322:Src/motion.c  **** {
 6359              		.loc 1 1322 0
 6360              		.cfi_startproc
 6361              		@ args = 0, pretend = 0, frame = 0
 6362              		@ frame_needed = 0, uses_anonymous_args = 0
 6363              	.LVL449:
 6364 0000 38B5     		push	{r3, r4, r5, lr}
 6365              	.LCFI109:
 6366              		.cfi_def_cfa_offset 16
 6367              		.cfi_offset 3, -16
 6368              		.cfi_offset 4, -12
 6369              		.cfi_offset 5, -8
 6370              		.cfi_offset 14, -4
 6371 0002 2DED068B 		vpush.64	{d8, d9, d10}
 6372              	.LCFI110:
 6373              		.cfi_def_cfa_offset 40
 6374              		.cfi_offset 80, -40
 6375              		.cfi_offset 81, -36
 6376              		.cfi_offset 82, -32
 6377              		.cfi_offset 83, -28
 6378              		.cfi_offset 84, -24
ARM GAS  C:\Users\kotaro\AppData\Local\Temp\ccTjQSLT.s 			page 137


 6379              		.cfi_offset 85, -20
 6380 0006 F0EE608A 		vmov.f32	s17, s1
 6381 000a B0EE418A 		vmov.f32	s16, s2
 6382 000e B0EE429A 		vmov.f32	s18, s4
 6383 0012 F0EE629A 		vmov.f32	s19, s5
 6384 0016 B0EE43AA 		vmov.f32	s20, s6
 6385 001a 0446     		mov	r4, r0
1323:Src/motion.c  ****     //offset in
1324:Src/motion.c  ****     control_wall_flag = 0;
 6386              		.loc 1 1324 0
 6387 001c 0025     		movs	r5, #0
 6388 001e 3E4B     		ldr	r3, .L375
 6389 0020 1D70     		strb	r5, [r3]
1325:Src/motion.c  ****     Control_StrCalculator(offset_in - enc.offset, velo, velo, velo, 1, 1);
 6390              		.loc 1 1325 0
 6391 0022 3E4B     		ldr	r3, .L375+4
 6392 0024 D3ED027A 		vldr.32	s15, [r3, #8]
 6393 0028 F7EE002A 		vmov.f32	s5, #1.0e+0
 6394              	.LVL450:
 6395 002c B0EE622A 		vmov.f32	s4, s5
 6396              	.LVL451:
 6397 0030 F0EE411A 		vmov.f32	s3, s2
 6398              	.LVL452:
 6399 0034 F0EE410A 		vmov.f32	s1, s2
 6400              	.LVL453:
 6401 0038 30EE670A 		vsub.f32	s0, s0, s15
 6402              	.LVL454:
 6403 003c FFF7FEFF 		bl	Control_StrCalculator
 6404              	.LVL455:
1326:Src/motion.c  ****     Control_AngCalculator(0, 0, 0, 0, 1, 0);
 6405              		.loc 1 1326 0
 6406 0040 9FED370A 		vldr.32	s0, .L375+8
 6407 0044 F0EE402A 		vmov.f32	s5, s0
 6408 0048 B7EE002A 		vmov.f32	s4, #1.0e+0
 6409 004c F0EE401A 		vmov.f32	s3, s0
 6410 0050 B0EE401A 		vmov.f32	s2, s0
 6411 0054 F0EE400A 		vmov.f32	s1, s0
 6412 0058 FFF7FEFF 		bl	Control_AngCalculator
 6413              	.LVL456:
1327:Src/motion.c  ****     motion_end_flag = FALSE;
 6414              		.loc 1 1327 0
 6415 005c 314B     		ldr	r3, .L375+12
 6416 005e 1D70     		strb	r5, [r3]
 6417              	.L369:
1328:Src/motion.c  ****     while (motion_end_flag == FALSE)
 6418              		.loc 1 1328 0 discriminator 1
 6419 0060 304B     		ldr	r3, .L375+12
 6420 0062 1B78     		ldrb	r3, [r3]	@ zero_extendqisi2
 6421 0064 002B     		cmp	r3, #0
 6422 0066 FBD0     		beq	.L369
1329:Src/motion.c  ****     {
1330:Src/motion.c  ****     }
1331:Src/motion.c  ****     //turn
1332:Src/motion.c  ****     Control_StrCalculator(1200.0f, velo, velo, velo, 1, 1);
 6423              		.loc 1 1332 0
 6424 0068 F7EE002A 		vmov.f32	s5, #1.0e+0
 6425 006c B0EE622A 		vmov.f32	s4, s5
ARM GAS  C:\Users\kotaro\AppData\Local\Temp\ccTjQSLT.s 			page 138


 6426 0070 F0EE481A 		vmov.f32	s3, s16
 6427 0074 B0EE481A 		vmov.f32	s2, s16
 6428 0078 F0EE480A 		vmov.f32	s1, s16
 6429 007c 9FED2A0A 		vldr.32	s0, .L375+16
 6430 0080 FFF7FEFF 		bl	Control_StrCalculator
 6431              	.LVL457:
1333:Src/motion.c  ****     Control_AngCalculator(deg, 0, velo_ang, 0, accel_ang, dir);
 6432              		.loc 1 1333 0
 6433 0084 DFED260A 		vldr.32	s1, .L375+8
 6434 0088 07EE904A 		vmov	s15, r4	@ int
 6435 008c F8EE672A 		vcvt.f32.u32	s5, s15
 6436 0090 B0EE4A2A 		vmov.f32	s4, s20
 6437 0094 F0EE601A 		vmov.f32	s3, s1
 6438 0098 B0EE691A 		vmov.f32	s2, s19
 6439 009c B0EE490A 		vmov.f32	s0, s18
 6440 00a0 FFF7FEFF 		bl	Control_AngCalculator
 6441              	.LVL458:
1334:Src/motion.c  ****     motion_end_flag = FALSE;
 6442              		.loc 1 1334 0
 6443 00a4 1F4B     		ldr	r3, .L375+12
 6444 00a6 0022     		movs	r2, #0
 6445 00a8 1A70     		strb	r2, [r3]
 6446              	.L370:
1335:Src/motion.c  ****     while (motion_end_flag == FALSE)
 6447              		.loc 1 1335 0 discriminator 1
 6448 00aa 1E4B     		ldr	r3, .L375+12
 6449 00ac 1B78     		ldrb	r3, [r3]	@ zero_extendqisi2
 6450 00ae 002B     		cmp	r3, #0
 6451 00b0 FBD0     		beq	.L370
1336:Src/motion.c  ****     {
1337:Src/motion.c  ****     }
1338:Src/motion.c  ****     //offset out
1339:Src/motion.c  ****     if (dir == 1)
 6452              		.loc 1 1339 0
 6453 00b2 012C     		cmp	r4, #1
 6454 00b4 2BD0     		beq	.L374
 6455              	.L371:
1340:Src/motion.c  ****     {
1341:Src/motion.c  ****         Control_WallEdgeAble(0b0100);
1342:Src/motion.c  ****     }
1343:Src/motion.c  ****     else if (dir == -1)
1344:Src/motion.c  ****     {
1345:Src/motion.c  ****         Control_WallEdgeAble(0b1000);
1346:Src/motion.c  ****     }
1347:Src/motion.c  ****     Control_StrCalculator(offset_out, VELO_EST, VELO_EST, VELO_EST, ACCEL_EST, 1); //26
 6456              		.loc 1 1347 0
 6457 00b6 DFED1C0A 		vldr.32	s1, .L375+16
 6458 00ba F7EE002A 		vmov.f32	s5, #1.0e+0
 6459 00be 9FED1B2A 		vldr.32	s4, .L375+20
 6460 00c2 F0EE601A 		vmov.f32	s3, s1
 6461 00c6 B0EE601A 		vmov.f32	s2, s1
 6462 00ca B0EE680A 		vmov.f32	s0, s17
 6463 00ce FFF7FEFF 		bl	Control_StrCalculator
 6464              	.LVL459:
1348:Src/motion.c  ****     Control_AngCalculator(0, 0, 0, 0, 1, 0);
 6465              		.loc 1 1348 0
 6466 00d2 9FED130A 		vldr.32	s0, .L375+8
ARM GAS  C:\Users\kotaro\AppData\Local\Temp\ccTjQSLT.s 			page 139


 6467 00d6 F0EE402A 		vmov.f32	s5, s0
 6468 00da B7EE002A 		vmov.f32	s4, #1.0e+0
 6469 00de F0EE401A 		vmov.f32	s3, s0
 6470 00e2 B0EE401A 		vmov.f32	s2, s0
 6471 00e6 F0EE400A 		vmov.f32	s1, s0
 6472 00ea FFF7FEFF 		bl	Control_AngCalculator
 6473              	.LVL460:
1349:Src/motion.c  ****     motion_end_flag = FALSE;
 6474              		.loc 1 1349 0
 6475 00ee 0D4B     		ldr	r3, .L375+12
 6476 00f0 0022     		movs	r2, #0
 6477 00f2 1A70     		strb	r2, [r3]
 6478              	.L372:
1350:Src/motion.c  ****     while (motion_end_flag == FALSE)
 6479              		.loc 1 1350 0 discriminator 1
 6480 00f4 0B4B     		ldr	r3, .L375+12
 6481 00f6 1B78     		ldrb	r3, [r3]	@ zero_extendqisi2
 6482 00f8 002B     		cmp	r3, #0
 6483 00fa FBD0     		beq	.L372
1351:Src/motion.c  ****     {
1352:Src/motion.c  ****     }
1353:Src/motion.c  ****     enc.offset = 0.0f;
 6484              		.loc 1 1353 0
 6485 00fc 074B     		ldr	r3, .L375+4
 6486 00fe 0022     		movs	r2, #0
 6487 0100 9A60     		str	r2, [r3, #8]	@ float
1354:Src/motion.c  ****     control_wall_flag = 3;
 6488              		.loc 1 1354 0
 6489 0102 054B     		ldr	r3, .L375
 6490 0104 0322     		movs	r2, #3
 6491 0106 1A70     		strb	r2, [r3]
1355:Src/motion.c  **** }
 6492              		.loc 1 1355 0
 6493 0108 BDEC068B 		vldm	sp!, {d8-d10}
 6494              	.LCFI111:
 6495              		.cfi_remember_state
 6496              		.cfi_restore 84
 6497              		.cfi_restore 85
 6498              		.cfi_restore 82
 6499              		.cfi_restore 83
 6500              		.cfi_restore 80
 6501              		.cfi_restore 81
 6502              		.cfi_def_cfa_offset 16
 6503              	.LVL461:
 6504 010c 38BD     		pop	{r3, r4, r5, pc}
 6505              	.LVL462:
 6506              	.L374:
 6507              	.LCFI112:
 6508              		.cfi_restore_state
1341:Src/motion.c  ****     }
 6509              		.loc 1 1341 0
 6510 010e 0420     		movs	r0, #4
 6511 0110 FFF7FEFF 		bl	Control_WallEdgeAble
 6512              	.LVL463:
 6513 0114 CFE7     		b	.L371
 6514              	.L376:
 6515 0116 00BF     		.align	2
ARM GAS  C:\Users\kotaro\AppData\Local\Temp\ccTjQSLT.s 			page 140


 6516              	.L375:
 6517 0118 00000000 		.word	control_wall_flag
 6518 011c 00000000 		.word	enc
 6519 0120 00000000 		.word	0
 6520 0124 00000000 		.word	motion_end_flag
 6521 0128 00009644 		.word	1150681088
 6522 012c 00409C46 		.word	1184645120
 6523              		.cfi_endproc
 6524              	.LFE200:
 6526              		.section	.text.Motion_FastestLeftSearch,"ax",%progbits
 6527              		.align	1
 6528              		.global	Motion_FastestLeftSearch
 6529              		.syntax unified
 6530              		.thumb
 6531              		.thumb_func
 6532              		.fpu fpv4-sp-d16
 6534              	Motion_FastestLeftSearch:
 6535              	.LFB201:
1356:Src/motion.c  **** 
1357:Src/motion.c  **** void Motion_FastestLeftSearch(void)
1358:Src/motion.c  **** {
 6536              		.loc 1 1358 0
 6537              		.cfi_startproc
 6538              		@ args = 0, pretend = 0, frame = 0
 6539              		@ frame_needed = 0, uses_anonymous_args = 0
 6540 0000 08B5     		push	{r3, lr}
 6541              	.LCFI113:
 6542              		.cfi_def_cfa_offset 8
 6543              		.cfi_offset 3, -8
 6544              		.cfi_offset 14, -4
1359:Src/motion.c  ****     //offset in
1360:Src/motion.c  ****     if (sen_front.is_wall == TRUE)
 6545              		.loc 1 1360 0
 6546 0002 3E4B     		ldr	r3, .L385
 6547 0004 1B7F     		ldrb	r3, [r3, #28]	@ zero_extendqisi2
 6548 0006 012B     		cmp	r3, #1
 6549 0008 4ED1     		bne	.L378
 6550              	.L379:
1361:Src/motion.c  ****     {
1362:Src/motion.c  ****         while (sen_front.now < 115)
 6551              		.loc 1 1362 0 discriminator 1
 6552 000a 3C4B     		ldr	r3, .L385
 6553 000c B3F90030 		ldrsh	r3, [r3]
 6554 0010 722B     		cmp	r3, #114
 6555 0012 FADD     		ble	.L379
 6556              	.L380:
1363:Src/motion.c  ****             ;
1364:Src/motion.c  ****     }
1365:Src/motion.c  ****     else
1366:Src/motion.c  ****     {
1367:Src/motion.c  ****         Control_StrCalculator(16.5 - enc.offset, 1200.0f, 1200.0f, 1200.0f, 1, 1);
1368:Src/motion.c  ****         Control_AngCalculator(0, 0, 0, 0, 1, 0);
1369:Src/motion.c  ****         motion_end_flag = FALSE;
1370:Src/motion.c  ****         while (motion_end_flag == FALSE)
1371:Src/motion.c  ****         {
1372:Src/motion.c  ****         }
1373:Src/motion.c  ****     }
ARM GAS  C:\Users\kotaro\AppData\Local\Temp\ccTjQSLT.s 			page 141


1374:Src/motion.c  ****     //turn
1375:Src/motion.c  ****     Control_StrCalculator(1200.0f, 1200.0f, 1200.0f, 1200.0f, 1, 1);
 6557              		.loc 1 1375 0
 6558 0014 9FED3A0A 		vldr.32	s0, .L385+4
 6559 0018 F7EE002A 		vmov.f32	s5, #1.0e+0
 6560 001c B0EE622A 		vmov.f32	s4, s5
 6561 0020 F0EE401A 		vmov.f32	s3, s0
 6562 0024 B0EE401A 		vmov.f32	s2, s0
 6563 0028 F0EE400A 		vmov.f32	s1, s0
 6564 002c FFF7FEFF 		bl	Control_StrCalculator
 6565              	.LVL464:
1376:Src/motion.c  ****     Control_AngCalculator(90.0f, 0, 1500.0f, 0, 50000.0f, 1);
 6566              		.loc 1 1376 0
 6567 0030 DFED340A 		vldr.32	s1, .L385+8
 6568 0034 F7EE002A 		vmov.f32	s5, #1.0e+0
 6569 0038 9FED332A 		vldr.32	s4, .L385+12
 6570 003c F0EE601A 		vmov.f32	s3, s1
 6571 0040 9FED321A 		vldr.32	s2, .L385+16
 6572 0044 9FED320A 		vldr.32	s0, .L385+20
 6573 0048 FFF7FEFF 		bl	Control_AngCalculator
 6574              	.LVL465:
1377:Src/motion.c  ****     motion_end_flag = FALSE;
 6575              		.loc 1 1377 0
 6576 004c 314B     		ldr	r3, .L385+24
 6577 004e 0022     		movs	r2, #0
 6578 0050 1A70     		strb	r2, [r3]
 6579              	.L382:
1378:Src/motion.c  ****     while (motion_end_flag == FALSE)
 6580              		.loc 1 1378 0 discriminator 1
 6581 0052 304B     		ldr	r3, .L385+24
 6582 0054 1B78     		ldrb	r3, [r3]	@ zero_extendqisi2
 6583 0056 002B     		cmp	r3, #0
 6584 0058 FBD0     		beq	.L382
1379:Src/motion.c  ****     {
1380:Src/motion.c  ****     }
1381:Src/motion.c  ****     //offset out
1382:Src/motion.c  ****     Control_StrCalculator(52.5f, 1200.0f, 1200.0f, 1200.0f, 1, 1);
 6585              		.loc 1 1382 0
 6586 005a DFED290A 		vldr.32	s1, .L385+4
 6587 005e F7EE002A 		vmov.f32	s5, #1.0e+0
 6588 0062 B0EE622A 		vmov.f32	s4, s5
 6589 0066 F0EE601A 		vmov.f32	s3, s1
 6590 006a B0EE601A 		vmov.f32	s2, s1
 6591 006e 9FED2A0A 		vldr.32	s0, .L385+28
 6592 0072 FFF7FEFF 		bl	Control_StrCalculator
 6593              	.LVL466:
1383:Src/motion.c  ****     Control_AngCalculator(0, 0, 0, 0, 1, 0);
 6594              		.loc 1 1383 0
 6595 0076 9FED230A 		vldr.32	s0, .L385+8
 6596 007a F0EE402A 		vmov.f32	s5, s0
 6597 007e B7EE002A 		vmov.f32	s4, #1.0e+0
 6598 0082 F0EE401A 		vmov.f32	s3, s0
 6599 0086 B0EE401A 		vmov.f32	s2, s0
 6600 008a F0EE400A 		vmov.f32	s1, s0
 6601 008e FFF7FEFF 		bl	Control_AngCalculator
 6602              	.LVL467:
1384:Src/motion.c  ****     motion_end_flag = FALSE;
ARM GAS  C:\Users\kotaro\AppData\Local\Temp\ccTjQSLT.s 			page 142


 6603              		.loc 1 1384 0
 6604 0092 204B     		ldr	r3, .L385+24
 6605 0094 0022     		movs	r2, #0
 6606 0096 1A70     		strb	r2, [r3]
 6607              	.L383:
1385:Src/motion.c  ****     while (motion_end_flag == FALSE)
 6608              		.loc 1 1385 0 discriminator 1
 6609 0098 1E4B     		ldr	r3, .L385+24
 6610 009a 1B78     		ldrb	r3, [r3]	@ zero_extendqisi2
 6611 009c 002B     		cmp	r3, #0
 6612 009e FBD0     		beq	.L383
1386:Src/motion.c  ****     {
1387:Src/motion.c  ****     }
1388:Src/motion.c  ****     enc.offset = 0.0f;
 6613              		.loc 1 1388 0
 6614 00a0 1E4B     		ldr	r3, .L385+32
 6615 00a2 0022     		movs	r2, #0
 6616 00a4 9A60     		str	r2, [r3, #8]	@ float
1389:Src/motion.c  **** }
 6617              		.loc 1 1389 0
 6618 00a6 08BD     		pop	{r3, pc}
 6619              	.L378:
1367:Src/motion.c  ****         Control_AngCalculator(0, 0, 0, 0, 1, 0);
 6620              		.loc 1 1367 0
 6621 00a8 1C4B     		ldr	r3, .L385+32
 6622 00aa D3ED027A 		vldr.32	s15, [r3, #8]
 6623 00ae DFED140A 		vldr.32	s1, .L385+4
 6624 00b2 F7EE002A 		vmov.f32	s5, #1.0e+0
 6625 00b6 B0EE622A 		vmov.f32	s4, s5
 6626 00ba F0EE601A 		vmov.f32	s3, s1
 6627 00be B0EE601A 		vmov.f32	s2, s1
 6628 00c2 9FED170A 		vldr.32	s0, .L385+36
 6629 00c6 30EE670A 		vsub.f32	s0, s0, s15
 6630 00ca FFF7FEFF 		bl	Control_StrCalculator
 6631              	.LVL468:
1368:Src/motion.c  ****         motion_end_flag = FALSE;
 6632              		.loc 1 1368 0
 6633 00ce 9FED0D0A 		vldr.32	s0, .L385+8
 6634 00d2 F0EE402A 		vmov.f32	s5, s0
 6635 00d6 B7EE002A 		vmov.f32	s4, #1.0e+0
 6636 00da F0EE401A 		vmov.f32	s3, s0
 6637 00de B0EE401A 		vmov.f32	s2, s0
 6638 00e2 F0EE400A 		vmov.f32	s1, s0
 6639 00e6 FFF7FEFF 		bl	Control_AngCalculator
 6640              	.LVL469:
1369:Src/motion.c  ****         while (motion_end_flag == FALSE)
 6641              		.loc 1 1369 0
 6642 00ea 0A4B     		ldr	r3, .L385+24
 6643 00ec 0022     		movs	r2, #0
 6644 00ee 1A70     		strb	r2, [r3]
 6645              	.L381:
1370:Src/motion.c  ****         {
 6646              		.loc 1 1370 0 discriminator 1
 6647 00f0 084B     		ldr	r3, .L385+24
 6648 00f2 1B78     		ldrb	r3, [r3]	@ zero_extendqisi2
 6649 00f4 002B     		cmp	r3, #0
 6650 00f6 FBD0     		beq	.L381
ARM GAS  C:\Users\kotaro\AppData\Local\Temp\ccTjQSLT.s 			page 143


 6651 00f8 8CE7     		b	.L380
 6652              	.L386:
 6653 00fa 00BF     		.align	2
 6654              	.L385:
 6655 00fc 00000000 		.word	sen_front
 6656 0100 00009644 		.word	1150681088
 6657 0104 00000000 		.word	0
 6658 0108 00504347 		.word	1195593728
 6659 010c 0080BB44 		.word	1153138688
 6660 0110 0000B442 		.word	1119092736
 6661 0114 00000000 		.word	motion_end_flag
 6662 0118 00005242 		.word	1112670208
 6663 011c 00000000 		.word	enc
 6664 0120 00008441 		.word	1099169792
 6665              		.cfi_endproc
 6666              	.LFE201:
 6668              		.section	.text.Motion_FastestRightSearch,"ax",%progbits
 6669              		.align	1
 6670              		.global	Motion_FastestRightSearch
 6671              		.syntax unified
 6672              		.thumb
 6673              		.thumb_func
 6674              		.fpu fpv4-sp-d16
 6676              	Motion_FastestRightSearch:
 6677              	.LFB202:
1390:Src/motion.c  **** 
1391:Src/motion.c  **** void Motion_FastestRightSearch(void)
1392:Src/motion.c  **** {
 6678              		.loc 1 1392 0
 6679              		.cfi_startproc
 6680              		@ args = 0, pretend = 0, frame = 0
 6681              		@ frame_needed = 0, uses_anonymous_args = 0
 6682 0000 08B5     		push	{r3, lr}
 6683              	.LCFI114:
 6684              		.cfi_def_cfa_offset 8
 6685              		.cfi_offset 3, -8
 6686              		.cfi_offset 14, -4
1393:Src/motion.c  ****     //offset in
1394:Src/motion.c  ****     if (sen_front.is_wall == TRUE)
 6687              		.loc 1 1394 0
 6688 0002 3E4B     		ldr	r3, .L395
 6689 0004 1B7F     		ldrb	r3, [r3, #28]	@ zero_extendqisi2
 6690 0006 012B     		cmp	r3, #1
 6691 0008 4ED1     		bne	.L388
 6692              	.L389:
1395:Src/motion.c  ****     {
1396:Src/motion.c  ****         while (sen_front.now < 115)
 6693              		.loc 1 1396 0 discriminator 1
 6694 000a 3C4B     		ldr	r3, .L395
 6695 000c B3F90030 		ldrsh	r3, [r3]
 6696 0010 722B     		cmp	r3, #114
 6697 0012 FADD     		ble	.L389
 6698              	.L390:
1397:Src/motion.c  ****             ;
1398:Src/motion.c  ****     }
1399:Src/motion.c  ****     else
1400:Src/motion.c  ****     {
ARM GAS  C:\Users\kotaro\AppData\Local\Temp\ccTjQSLT.s 			page 144


1401:Src/motion.c  ****         Control_StrCalculator(16.0 - enc.offset, 1200.0f, 1200.0f, 1200.0f, 1, 1);
1402:Src/motion.c  ****         Control_AngCalculator(0, 0, 0, 0, 1, 0);
1403:Src/motion.c  ****         motion_end_flag = FALSE;
1404:Src/motion.c  ****         while (motion_end_flag == FALSE)
1405:Src/motion.c  ****         {
1406:Src/motion.c  ****         }
1407:Src/motion.c  ****     }
1408:Src/motion.c  ****     //turn
1409:Src/motion.c  ****     Control_StrCalculator(1200.0f, 1200.0f, 1200.0f, 1200.0f, 1, 1);
 6699              		.loc 1 1409 0
 6700 0014 9FED3A0A 		vldr.32	s0, .L395+4
 6701 0018 F7EE002A 		vmov.f32	s5, #1.0e+0
 6702 001c B0EE622A 		vmov.f32	s4, s5
 6703 0020 F0EE401A 		vmov.f32	s3, s0
 6704 0024 B0EE401A 		vmov.f32	s2, s0
 6705 0028 F0EE400A 		vmov.f32	s1, s0
 6706 002c FFF7FEFF 		bl	Control_StrCalculator
 6707              	.LVL470:
1410:Src/motion.c  ****     Control_AngCalculator(90.0f, 0, 1500.0f, 0, 50000.0f, -1);
 6708              		.loc 1 1410 0
 6709 0030 DFED340A 		vldr.32	s1, .L395+8
 6710 0034 FFEE002A 		vmov.f32	s5, #-1.0e+0
 6711 0038 9FED332A 		vldr.32	s4, .L395+12
 6712 003c F0EE601A 		vmov.f32	s3, s1
 6713 0040 9FED321A 		vldr.32	s2, .L395+16
 6714 0044 9FED320A 		vldr.32	s0, .L395+20
 6715 0048 FFF7FEFF 		bl	Control_AngCalculator
 6716              	.LVL471:
1411:Src/motion.c  ****     motion_end_flag = FALSE;
 6717              		.loc 1 1411 0
 6718 004c 314B     		ldr	r3, .L395+24
 6719 004e 0022     		movs	r2, #0
 6720 0050 1A70     		strb	r2, [r3]
 6721              	.L392:
1412:Src/motion.c  ****     while (motion_end_flag == FALSE)
 6722              		.loc 1 1412 0 discriminator 1
 6723 0052 304B     		ldr	r3, .L395+24
 6724 0054 1B78     		ldrb	r3, [r3]	@ zero_extendqisi2
 6725 0056 002B     		cmp	r3, #0
 6726 0058 FBD0     		beq	.L392
1413:Src/motion.c  ****     {
1414:Src/motion.c  ****     }
1415:Src/motion.c  ****     //offset out
1416:Src/motion.c  ****     Control_StrCalculator(60.0f, 1200.0f, 1200.0f, 1200.0f, 1, 1);
 6727              		.loc 1 1416 0
 6728 005a DFED290A 		vldr.32	s1, .L395+4
 6729 005e F7EE002A 		vmov.f32	s5, #1.0e+0
 6730 0062 B0EE622A 		vmov.f32	s4, s5
 6731 0066 F0EE601A 		vmov.f32	s3, s1
 6732 006a B0EE601A 		vmov.f32	s2, s1
 6733 006e 9FED2A0A 		vldr.32	s0, .L395+28
 6734 0072 FFF7FEFF 		bl	Control_StrCalculator
 6735              	.LVL472:
1417:Src/motion.c  ****     Control_AngCalculator(0, 0, 0, 0, 1, 0);
 6736              		.loc 1 1417 0
 6737 0076 9FED230A 		vldr.32	s0, .L395+8
 6738 007a F0EE402A 		vmov.f32	s5, s0
ARM GAS  C:\Users\kotaro\AppData\Local\Temp\ccTjQSLT.s 			page 145


 6739 007e B7EE002A 		vmov.f32	s4, #1.0e+0
 6740 0082 F0EE401A 		vmov.f32	s3, s0
 6741 0086 B0EE401A 		vmov.f32	s2, s0
 6742 008a F0EE400A 		vmov.f32	s1, s0
 6743 008e FFF7FEFF 		bl	Control_AngCalculator
 6744              	.LVL473:
1418:Src/motion.c  ****     motion_end_flag = FALSE;
 6745              		.loc 1 1418 0
 6746 0092 204B     		ldr	r3, .L395+24
 6747 0094 0022     		movs	r2, #0
 6748 0096 1A70     		strb	r2, [r3]
 6749              	.L393:
1419:Src/motion.c  ****     while (motion_end_flag == FALSE)
 6750              		.loc 1 1419 0 discriminator 1
 6751 0098 1E4B     		ldr	r3, .L395+24
 6752 009a 1B78     		ldrb	r3, [r3]	@ zero_extendqisi2
 6753 009c 002B     		cmp	r3, #0
 6754 009e FBD0     		beq	.L393
1420:Src/motion.c  ****     {
1421:Src/motion.c  ****     }
1422:Src/motion.c  ****     enc.offset = 0.0f;
 6755              		.loc 1 1422 0
 6756 00a0 1E4B     		ldr	r3, .L395+32
 6757 00a2 0022     		movs	r2, #0
 6758 00a4 9A60     		str	r2, [r3, #8]	@ float
1423:Src/motion.c  **** }
 6759              		.loc 1 1423 0
 6760 00a6 08BD     		pop	{r3, pc}
 6761              	.L388:
1401:Src/motion.c  ****         Control_AngCalculator(0, 0, 0, 0, 1, 0);
 6762              		.loc 1 1401 0
 6763 00a8 1C4B     		ldr	r3, .L395+32
 6764 00aa D3ED027A 		vldr.32	s15, [r3, #8]
 6765 00ae DFED140A 		vldr.32	s1, .L395+4
 6766 00b2 F7EE002A 		vmov.f32	s5, #1.0e+0
 6767 00b6 B0EE622A 		vmov.f32	s4, s5
 6768 00ba F0EE601A 		vmov.f32	s3, s1
 6769 00be B0EE601A 		vmov.f32	s2, s1
 6770 00c2 B3EE000A 		vmov.f32	s0, #1.6e+1
 6771 00c6 30EE670A 		vsub.f32	s0, s0, s15
 6772 00ca FFF7FEFF 		bl	Control_StrCalculator
 6773              	.LVL474:
1402:Src/motion.c  ****         motion_end_flag = FALSE;
 6774              		.loc 1 1402 0
 6775 00ce 9FED0D0A 		vldr.32	s0, .L395+8
 6776 00d2 F0EE402A 		vmov.f32	s5, s0
 6777 00d6 B7EE002A 		vmov.f32	s4, #1.0e+0
 6778 00da F0EE401A 		vmov.f32	s3, s0
 6779 00de B0EE401A 		vmov.f32	s2, s0
 6780 00e2 F0EE400A 		vmov.f32	s1, s0
 6781 00e6 FFF7FEFF 		bl	Control_AngCalculator
 6782              	.LVL475:
1403:Src/motion.c  ****         while (motion_end_flag == FALSE)
 6783              		.loc 1 1403 0
 6784 00ea 0A4B     		ldr	r3, .L395+24
 6785 00ec 0022     		movs	r2, #0
 6786 00ee 1A70     		strb	r2, [r3]
ARM GAS  C:\Users\kotaro\AppData\Local\Temp\ccTjQSLT.s 			page 146


 6787              	.L391:
1404:Src/motion.c  ****         {
 6788              		.loc 1 1404 0 discriminator 1
 6789 00f0 084B     		ldr	r3, .L395+24
 6790 00f2 1B78     		ldrb	r3, [r3]	@ zero_extendqisi2
 6791 00f4 002B     		cmp	r3, #0
 6792 00f6 FBD0     		beq	.L391
 6793 00f8 8CE7     		b	.L390
 6794              	.L396:
 6795 00fa 00BF     		.align	2
 6796              	.L395:
 6797 00fc 00000000 		.word	sen_front
 6798 0100 00009644 		.word	1150681088
 6799 0104 00000000 		.word	0
 6800 0108 00504347 		.word	1195593728
 6801 010c 0080BB44 		.word	1153138688
 6802 0110 0000B442 		.word	1119092736
 6803 0114 00000000 		.word	motion_end_flag
 6804 0118 00007042 		.word	1114636288
 6805 011c 00000000 		.word	enc
 6806              		.cfi_endproc
 6807              	.LFE202:
 6809              		.section	.text.Motion_FastestLeftTurn,"ax",%progbits
 6810              		.align	1
 6811              		.global	Motion_FastestLeftTurn
 6812              		.syntax unified
 6813              		.thumb
 6814              		.thumb_func
 6815              		.fpu fpv4-sp-d16
 6817              	Motion_FastestLeftTurn:
 6818              	.LFB203:
1424:Src/motion.c  **** 
1425:Src/motion.c  **** void Motion_FastestLeftTurn(uint8_t type, float v_end)
1426:Src/motion.c  **** {
 6819              		.loc 1 1426 0
 6820              		.cfi_startproc
 6821              		@ args = 0, pretend = 0, frame = 0
 6822              		@ frame_needed = 0, uses_anonymous_args = 0
 6823              	.LVL476:
 6824 0000 08B5     		push	{r3, lr}
 6825              	.LCFI115:
 6826              		.cfi_def_cfa_offset 8
 6827              		.cfi_offset 3, -8
 6828              		.cfi_offset 14, -4
1427:Src/motion.c  ****     //K=24000
1428:Src/motion.c  ****     switch (type)
 6829              		.loc 1 1428 0
 6830 0002 0728     		cmp	r0, #7
 6831 0004 07D8     		bhi	.L397
 6832 0006 DFE800F0 		tbb	[pc, r0]
 6833              	.L400:
 6834 000a 04       		.byte	(.L399-.L400)/2
 6835 000b 2B       		.byte	(.L401-.L400)/2
 6836 000c 4F       		.byte	(.L402-.L400)/2
 6837 000d 07       		.byte	(.L403-.L400)/2
 6838 000e 19       		.byte	(.L404-.L400)/2
 6839 000f 3D       		.byte	(.L405-.L400)/2
ARM GAS  C:\Users\kotaro\AppData\Local\Temp\ccTjQSLT.s 			page 147


 6840 0010 61       		.byte	(.L406-.L400)/2
 6841 0011 73       		.byte	(.L407-.L400)/2
 6842              		.p2align 1
 6843              	.L399:
1429:Src/motion.c  ****     {
1430:Src/motion.c  ****     case SEARCH:
1431:Src/motion.c  ****         Motion_FastestLeftSearch(); //16.5f, 55.0f, 1200.0f, 1200.0f, 90.0f, 1500.0f, 50000.0f, 1, 
 6844              		.loc 1 1431 0
 6845 0012 FFF7FEFF 		bl	Motion_FastestLeftSearch
 6846              	.LVL477:
 6847              	.L397:
1432:Src/motion.c  ****         break;
1433:Src/motion.c  ****     case T_90:
1434:Src/motion.c  ****         Fastest_StrTurn(36.0f, 57.0f, 1200.0f, v_end, 90.0f, 600.0f, 20000.0f, 1);
1435:Src/motion.c  ****         break;
1436:Src/motion.c  ****     case T_180:
1437:Src/motion.c  ****         Fastest_StrTurn(50.0f, 70.0f, 1200.0f, v_end, 180.0f, 760.0f, 20000.0f, 1);
1438:Src/motion.c  ****         break;
1439:Src/motion.c  ****     case T_45IN:
1440:Src/motion.c  ****         Fastest_DgnInTurn(21.0f, 99.0f, 1200.0f, 1200.0, 45.0f, 800.0f, 40000.0f, 1);
1441:Src/motion.c  ****         break;
1442:Src/motion.c  ****     case T_45OUT:
1443:Src/motion.c  ****         Fastest_DgnOutTurn(64.0f, 55.0f, 1200.0f, v_end, 45.0f, 800.0f, 40000.0f, 1);
1444:Src/motion.c  ****         break;
1445:Src/motion.c  ****     case T_135IN:
1446:Src/motion.c  ****         Fastest_DgnInTurn(28.0f, 44.0f, 1200.0f, 1200.0f, 135.0f, 800.0f, 20000.0f, 1);
1447:Src/motion.c  ****         break;
1448:Src/motion.c  ****     case T_135OUT:
1449:Src/motion.c  ****         Fastest_DgnOutTurn(10.0f, 54.0f, 1200.0f, v_end, 135.0f, 800.0f, 20000.0f, 1);
1450:Src/motion.c  ****         break;
1451:Src/motion.c  ****     case T_V90:
1452:Src/motion.c  ****         Fastest_DgnTurn(29.0f, 60.0f, 1200.0f, 1200.0f, 90.0f, 1000.0f, 40000.0f, 1);
1453:Src/motion.c  ****         break;
1454:Src/motion.c  ****     }
1455:Src/motion.c  **** }
 6848              		.loc 1 1455 0
 6849 0016 08BD     		pop	{r3, pc}
 6850              	.LVL478:
 6851              	.L403:
1434:Src/motion.c  ****         break;
 6852              		.loc 1 1434 0
 6853 0018 0120     		movs	r0, #1
 6854              	.LVL479:
 6855 001a 9FED3E3A 		vldr.32	s6, .L409
 6856 001e DFED3E2A 		vldr.32	s5, .L409+4
 6857 0022 9FED3E2A 		vldr.32	s4, .L409+8
 6858 0026 F0EE401A 		vmov.f32	s3, s0
 6859 002a 9FED3D1A 		vldr.32	s2, .L409+12
 6860 002e DFED3D0A 		vldr.32	s1, .L409+16
 6861 0032 9FED3D0A 		vldr.32	s0, .L409+20
 6862              	.LVL480:
 6863 0036 FFF7FEFF 		bl	Fastest_StrTurn
 6864              	.LVL481:
1435:Src/motion.c  ****     case T_180:
 6865              		.loc 1 1435 0
 6866 003a ECE7     		b	.L397
 6867              	.LVL482:
ARM GAS  C:\Users\kotaro\AppData\Local\Temp\ccTjQSLT.s 			page 148


 6868              	.L404:
1437:Src/motion.c  ****         break;
 6869              		.loc 1 1437 0
 6870 003c 0120     		movs	r0, #1
 6871              	.LVL483:
 6872 003e 9FED353A 		vldr.32	s6, .L409
 6873 0042 DFED3A2A 		vldr.32	s5, .L409+24
 6874 0046 9FED3A2A 		vldr.32	s4, .L409+28
 6875 004a F0EE401A 		vmov.f32	s3, s0
 6876 004e 9FED341A 		vldr.32	s2, .L409+12
 6877 0052 DFED380A 		vldr.32	s1, .L409+32
 6878 0056 9FED380A 		vldr.32	s0, .L409+36
 6879              	.LVL484:
 6880 005a FFF7FEFF 		bl	Fastest_StrTurn
 6881              	.LVL485:
1438:Src/motion.c  ****     case T_45IN:
 6882              		.loc 1 1438 0
 6883 005e DAE7     		b	.L397
 6884              	.LVL486:
 6885              	.L401:
1440:Src/motion.c  ****         break;
 6886              		.loc 1 1440 0
 6887 0060 9FED2F1A 		vldr.32	s2, .L409+12
 6888 0064 0120     		movs	r0, #1
 6889              	.LVL487:
 6890 0066 9FED353A 		vldr.32	s6, .L409+40
 6891 006a DFED352A 		vldr.32	s5, .L409+44
 6892 006e 9FED352A 		vldr.32	s4, .L409+48
 6893 0072 F0EE411A 		vmov.f32	s3, s2
 6894 0076 DFED340A 		vldr.32	s1, .L409+52
 6895 007a B3EE050A 		vmov.f32	s0, #2.1e+1
 6896              	.LVL488:
 6897 007e FFF7FEFF 		bl	Fastest_DgnInTurn
 6898              	.LVL489:
1441:Src/motion.c  ****     case T_45OUT:
 6899              		.loc 1 1441 0
 6900 0082 C8E7     		b	.L397
 6901              	.LVL490:
 6902              	.L405:
1443:Src/motion.c  ****         break;
 6903              		.loc 1 1443 0
 6904 0084 0120     		movs	r0, #1
 6905              	.LVL491:
 6906 0086 9FED2D3A 		vldr.32	s6, .L409+40
 6907 008a DFED2D2A 		vldr.32	s5, .L409+44
 6908 008e 9FED2D2A 		vldr.32	s4, .L409+48
 6909 0092 F0EE401A 		vmov.f32	s3, s0
 6910 0096 9FED221A 		vldr.32	s2, .L409+12
 6911 009a DFED2C0A 		vldr.32	s1, .L409+56
 6912 009e 9FED2C0A 		vldr.32	s0, .L409+60
 6913              	.LVL492:
 6914 00a2 FFF7FEFF 		bl	Fastest_DgnOutTurn
 6915              	.LVL493:
1444:Src/motion.c  ****     case T_135IN:
 6916              		.loc 1 1444 0
 6917 00a6 B6E7     		b	.L397
 6918              	.LVL494:
ARM GAS  C:\Users\kotaro\AppData\Local\Temp\ccTjQSLT.s 			page 149


 6919              	.L402:
1446:Src/motion.c  ****         break;
 6920              		.loc 1 1446 0
 6921 00a8 9FED1D1A 		vldr.32	s2, .L409+12
 6922 00ac 0120     		movs	r0, #1
 6923              	.LVL495:
 6924 00ae 9FED193A 		vldr.32	s6, .L409
 6925 00b2 DFED232A 		vldr.32	s5, .L409+44
 6926 00b6 9FED272A 		vldr.32	s4, .L409+64
 6927 00ba F0EE411A 		vmov.f32	s3, s2
 6928 00be DFED260A 		vldr.32	s1, .L409+68
 6929 00c2 B3EE0C0A 		vmov.f32	s0, #2.8e+1
 6930              	.LVL496:
 6931 00c6 FFF7FEFF 		bl	Fastest_DgnInTurn
 6932              	.LVL497:
1447:Src/motion.c  ****     case T_135OUT:
 6933              		.loc 1 1447 0
 6934 00ca A4E7     		b	.L397
 6935              	.LVL498:
 6936              	.L406:
1449:Src/motion.c  ****         break;
 6937              		.loc 1 1449 0
 6938 00cc 0120     		movs	r0, #1
 6939              	.LVL499:
 6940 00ce 9FED113A 		vldr.32	s6, .L409
 6941 00d2 DFED1B2A 		vldr.32	s5, .L409+44
 6942 00d6 9FED1F2A 		vldr.32	s4, .L409+64
 6943 00da F0EE401A 		vmov.f32	s3, s0
 6944 00de 9FED101A 		vldr.32	s2, .L409+12
 6945 00e2 DFED1E0A 		vldr.32	s1, .L409+72
 6946 00e6 B2EE040A 		vmov.f32	s0, #1.0e+1
 6947              	.LVL500:
 6948 00ea FFF7FEFF 		bl	Fastest_DgnOutTurn
 6949              	.LVL501:
1450:Src/motion.c  ****     case T_V90:
 6950              		.loc 1 1450 0
 6951 00ee 92E7     		b	.L397
 6952              	.LVL502:
 6953              	.L407:
1452:Src/motion.c  ****         break;
 6954              		.loc 1 1452 0
 6955 00f0 9FED0B1A 		vldr.32	s2, .L409+12
 6956 00f4 0120     		movs	r0, #1
 6957              	.LVL503:
 6958 00f6 9FED113A 		vldr.32	s6, .L409+40
 6959 00fa DFED192A 		vldr.32	s5, .L409+76
 6960 00fe 9FED072A 		vldr.32	s4, .L409+8
 6961 0102 F0EE411A 		vmov.f32	s3, s2
 6962 0106 DFED170A 		vldr.32	s1, .L409+80
 6963 010a B3EE0D0A 		vmov.f32	s0, #2.9e+1
 6964              	.LVL504:
 6965 010e FFF7FEFF 		bl	Fastest_DgnTurn
 6966              	.LVL505:
 6967              		.loc 1 1455 0
 6968 0112 80E7     		b	.L397
 6969              	.L410:
 6970              		.align	2
ARM GAS  C:\Users\kotaro\AppData\Local\Temp\ccTjQSLT.s 			page 150


 6971              	.L409:
 6972 0114 00409C46 		.word	1184645120
 6973 0118 00001644 		.word	1142292480
 6974 011c 0000B442 		.word	1119092736
 6975 0120 00009644 		.word	1150681088
 6976 0124 00006442 		.word	1113849856
 6977 0128 00001042 		.word	1108344832
 6978 012c 00003E44 		.word	1144913920
 6979 0130 00003443 		.word	1127481344
 6980 0134 00008C42 		.word	1116471296
 6981 0138 00004842 		.word	1112014848
 6982 013c 00401C47 		.word	1193033728
 6983 0140 00004844 		.word	1145569280
 6984 0144 00003442 		.word	1110704128
 6985 0148 0000C642 		.word	1120272384
 6986 014c 00005C42 		.word	1113325568
 6987 0150 00008042 		.word	1115684864
 6988 0154 00000743 		.word	1124532224
 6989 0158 00003042 		.word	1110441984
 6990 015c 00005842 		.word	1113063424
 6991 0160 00007A44 		.word	1148846080
 6992 0164 00007042 		.word	1114636288
 6993              		.cfi_endproc
 6994              	.LFE203:
 6996              		.section	.text.Motion_FastestRightTurn,"ax",%progbits
 6997              		.align	1
 6998              		.global	Motion_FastestRightTurn
 6999              		.syntax unified
 7000              		.thumb
 7001              		.thumb_func
 7002              		.fpu fpv4-sp-d16
 7004              	Motion_FastestRightTurn:
 7005              	.LFB204:
1456:Src/motion.c  **** 
1457:Src/motion.c  **** void Motion_FastestRightTurn(uint8_t type, float v_end)
1458:Src/motion.c  **** {
 7006              		.loc 1 1458 0
 7007              		.cfi_startproc
 7008              		@ args = 0, pretend = 0, frame = 0
 7009              		@ frame_needed = 0, uses_anonymous_args = 0
 7010              	.LVL506:
 7011 0000 08B5     		push	{r3, lr}
 7012              	.LCFI116:
 7013              		.cfi_def_cfa_offset 8
 7014              		.cfi_offset 3, -8
 7015              		.cfi_offset 14, -4
1459:Src/motion.c  ****     switch (type)
 7016              		.loc 1 1459 0
 7017 0002 0728     		cmp	r0, #7
 7018 0004 07D8     		bhi	.L411
 7019 0006 DFE800F0 		tbb	[pc, r0]
 7020              	.L414:
 7021 000a 04       		.byte	(.L413-.L414)/2
 7022 000b 2B       		.byte	(.L415-.L414)/2
 7023 000c 4F       		.byte	(.L416-.L414)/2
 7024 000d 07       		.byte	(.L417-.L414)/2
 7025 000e 19       		.byte	(.L418-.L414)/2
ARM GAS  C:\Users\kotaro\AppData\Local\Temp\ccTjQSLT.s 			page 151


 7026 000f 3D       		.byte	(.L419-.L414)/2
 7027 0010 61       		.byte	(.L420-.L414)/2
 7028 0011 73       		.byte	(.L421-.L414)/2
 7029              		.p2align 1
 7030              	.L413:
1460:Src/motion.c  ****     {
1461:Src/motion.c  ****     case SEARCH:
1462:Src/motion.c  ****         Motion_FastestRightSearch(); //16.0f, 63.5f, 1200.0f, 1200.0f, 90.0f, 1500.0f, 50000.0f, -1
 7031              		.loc 1 1462 0
 7032 0012 FFF7FEFF 		bl	Motion_FastestRightSearch
 7033              	.LVL507:
 7034              	.L411:
1463:Src/motion.c  ****         break;
1464:Src/motion.c  ****     case T_90:
1465:Src/motion.c  ****         Fastest_StrTurn(38.0f, 62.0f, 1200.0f, v_end, 90.0f, 600.0f, 20000.0f, -1);
1466:Src/motion.c  ****         break;
1467:Src/motion.c  ****     case T_180:
1468:Src/motion.c  ****         Fastest_StrTurn(50.0f, 70.0f, 1200.0f, v_end, 180.0f, 745.0f, 20000.0f, -1);
1469:Src/motion.c  ****         break;
1470:Src/motion.c  ****     case T_45IN:
1471:Src/motion.c  ****         Fastest_DgnInTurn(30.0f, 89.0f, 1200.0f, 1200.0f, 45.0f, 800.0f, 40000.0f, -1);
1472:Src/motion.c  ****         break;
1473:Src/motion.c  ****     case T_45OUT:
1474:Src/motion.c  ****         Fastest_DgnOutTurn(74.0f, 52.0f, 1200.0f, v_end, 45.0f, 800.0f, 40000.0f, -1);
1475:Src/motion.c  ****         break;
1476:Src/motion.c  ****     case T_135IN:
1477:Src/motion.c  ****         Fastest_DgnInTurn(28.0f, 42.0f, 1200.0f, 1200.0f, 135.0f, 800.0f, 20000.0f, -1); //in:41 ou
1478:Src/motion.c  ****         break;
1479:Src/motion.c  ****     case T_135OUT:
1480:Src/motion.c  ****         Fastest_DgnOutTurn(28.0f, 65.0f, 1200.0f, v_end, 135.0f, 800.0f, 20000.0f, -1);
1481:Src/motion.c  ****         break;
1482:Src/motion.c  ****     case T_V90:
1483:Src/motion.c  ****         Fastest_DgnTurn(30.0f, 62.0f, 1200.0f, 1200.0f, 90.0f, 1000.0f, 40000.0f, -1);
1484:Src/motion.c  ****         break;
1485:Src/motion.c  ****     }
1486:Src/motion.c  **** }
 7035              		.loc 1 1486 0
 7036 0016 08BD     		pop	{r3, pc}
 7037              	.LVL508:
 7038              	.L417:
1465:Src/motion.c  ****         break;
 7039              		.loc 1 1465 0
 7040 0018 FF20     		movs	r0, #255
 7041              	.LVL509:
 7042 001a 9FED3E3A 		vldr.32	s6, .L423
 7043 001e DFED3E2A 		vldr.32	s5, .L423+4
 7044 0022 9FED3E2A 		vldr.32	s4, .L423+8
 7045 0026 F0EE401A 		vmov.f32	s3, s0
 7046 002a 9FED3D1A 		vldr.32	s2, .L423+12
 7047 002e DFED3D0A 		vldr.32	s1, .L423+16
 7048 0032 9FED3D0A 		vldr.32	s0, .L423+20
 7049              	.LVL510:
 7050 0036 FFF7FEFF 		bl	Fastest_StrTurn
 7051              	.LVL511:
1466:Src/motion.c  ****     case T_180:
 7052              		.loc 1 1466 0
 7053 003a ECE7     		b	.L411
ARM GAS  C:\Users\kotaro\AppData\Local\Temp\ccTjQSLT.s 			page 152


 7054              	.LVL512:
 7055              	.L418:
1468:Src/motion.c  ****         break;
 7056              		.loc 1 1468 0
 7057 003c FF20     		movs	r0, #255
 7058              	.LVL513:
 7059 003e 9FED353A 		vldr.32	s6, .L423
 7060 0042 DFED3A2A 		vldr.32	s5, .L423+24
 7061 0046 9FED3A2A 		vldr.32	s4, .L423+28
 7062 004a F0EE401A 		vmov.f32	s3, s0
 7063 004e 9FED341A 		vldr.32	s2, .L423+12
 7064 0052 DFED380A 		vldr.32	s1, .L423+32
 7065 0056 9FED380A 		vldr.32	s0, .L423+36
 7066              	.LVL514:
 7067 005a FFF7FEFF 		bl	Fastest_StrTurn
 7068              	.LVL515:
1469:Src/motion.c  ****     case T_45IN:
 7069              		.loc 1 1469 0
 7070 005e DAE7     		b	.L411
 7071              	.LVL516:
 7072              	.L415:
1471:Src/motion.c  ****         break;
 7073              		.loc 1 1471 0
 7074 0060 9FED2F1A 		vldr.32	s2, .L423+12
 7075 0064 FF20     		movs	r0, #255
 7076              	.LVL517:
 7077 0066 9FED353A 		vldr.32	s6, .L423+40
 7078 006a DFED352A 		vldr.32	s5, .L423+44
 7079 006e 9FED352A 		vldr.32	s4, .L423+48
 7080 0072 F0EE411A 		vmov.f32	s3, s2
 7081 0076 DFED340A 		vldr.32	s1, .L423+52
 7082 007a B3EE0E0A 		vmov.f32	s0, #3.0e+1
 7083              	.LVL518:
 7084 007e FFF7FEFF 		bl	Fastest_DgnInTurn
 7085              	.LVL519:
1472:Src/motion.c  ****     case T_45OUT:
 7086              		.loc 1 1472 0
 7087 0082 C8E7     		b	.L411
 7088              	.LVL520:
 7089              	.L419:
1474:Src/motion.c  ****         break;
 7090              		.loc 1 1474 0
 7091 0084 FF20     		movs	r0, #255
 7092              	.LVL521:
 7093 0086 9FED2D3A 		vldr.32	s6, .L423+40
 7094 008a DFED2D2A 		vldr.32	s5, .L423+44
 7095 008e 9FED2D2A 		vldr.32	s4, .L423+48
 7096 0092 F0EE401A 		vmov.f32	s3, s0
 7097 0096 9FED221A 		vldr.32	s2, .L423+12
 7098 009a DFED2C0A 		vldr.32	s1, .L423+56
 7099 009e 9FED2C0A 		vldr.32	s0, .L423+60
 7100              	.LVL522:
 7101 00a2 FFF7FEFF 		bl	Fastest_DgnOutTurn
 7102              	.LVL523:
1475:Src/motion.c  ****     case T_135IN:
 7103              		.loc 1 1475 0
 7104 00a6 B6E7     		b	.L411
ARM GAS  C:\Users\kotaro\AppData\Local\Temp\ccTjQSLT.s 			page 153


 7105              	.LVL524:
 7106              	.L416:
1477:Src/motion.c  ****         break;
 7107              		.loc 1 1477 0
 7108 00a8 9FED1D1A 		vldr.32	s2, .L423+12
 7109 00ac FF20     		movs	r0, #255
 7110              	.LVL525:
 7111 00ae 9FED193A 		vldr.32	s6, .L423
 7112 00b2 DFED232A 		vldr.32	s5, .L423+44
 7113 00b6 9FED272A 		vldr.32	s4, .L423+64
 7114 00ba F0EE411A 		vmov.f32	s3, s2
 7115 00be DFED260A 		vldr.32	s1, .L423+68
 7116 00c2 B3EE0C0A 		vmov.f32	s0, #2.8e+1
 7117              	.LVL526:
 7118 00c6 FFF7FEFF 		bl	Fastest_DgnInTurn
 7119              	.LVL527:
1478:Src/motion.c  ****     case T_135OUT:
 7120              		.loc 1 1478 0
 7121 00ca A4E7     		b	.L411
 7122              	.LVL528:
 7123              	.L420:
1480:Src/motion.c  ****         break;
 7124              		.loc 1 1480 0
 7125 00cc FF20     		movs	r0, #255
 7126              	.LVL529:
 7127 00ce 9FED113A 		vldr.32	s6, .L423
 7128 00d2 DFED1B2A 		vldr.32	s5, .L423+44
 7129 00d6 9FED1F2A 		vldr.32	s4, .L423+64
 7130 00da F0EE401A 		vmov.f32	s3, s0
 7131 00de 9FED101A 		vldr.32	s2, .L423+12
 7132 00e2 DFED1E0A 		vldr.32	s1, .L423+72
 7133 00e6 B3EE0C0A 		vmov.f32	s0, #2.8e+1
 7134              	.LVL530:
 7135 00ea FFF7FEFF 		bl	Fastest_DgnOutTurn
 7136              	.LVL531:
1481:Src/motion.c  ****     case T_V90:
 7137              		.loc 1 1481 0
 7138 00ee 92E7     		b	.L411
 7139              	.LVL532:
 7140              	.L421:
1483:Src/motion.c  ****         break;
 7141              		.loc 1 1483 0
 7142 00f0 9FED0B1A 		vldr.32	s2, .L423+12
 7143 00f4 FF20     		movs	r0, #255
 7144              	.LVL533:
 7145 00f6 9FED113A 		vldr.32	s6, .L423+40
 7146 00fa DFED192A 		vldr.32	s5, .L423+76
 7147 00fe 9FED072A 		vldr.32	s4, .L423+8
 7148 0102 F0EE411A 		vmov.f32	s3, s2
 7149 0106 DFED070A 		vldr.32	s1, .L423+16
 7150 010a B3EE0E0A 		vmov.f32	s0, #3.0e+1
 7151              	.LVL534:
 7152 010e FFF7FEFF 		bl	Fastest_DgnTurn
 7153              	.LVL535:
 7154              		.loc 1 1486 0
 7155 0112 80E7     		b	.L411
 7156              	.L424:
ARM GAS  C:\Users\kotaro\AppData\Local\Temp\ccTjQSLT.s 			page 154


 7157              		.align	2
 7158              	.L423:
 7159 0114 00409C46 		.word	1184645120
 7160 0118 00001644 		.word	1142292480
 7161 011c 0000B442 		.word	1119092736
 7162 0120 00009644 		.word	1150681088
 7163 0124 00007842 		.word	1115160576
 7164 0128 00001842 		.word	1108869120
 7165 012c 00403A44 		.word	1144668160
 7166 0130 00003443 		.word	1127481344
 7167 0134 00008C42 		.word	1116471296
 7168 0138 00004842 		.word	1112014848
 7169 013c 00401C47 		.word	1193033728
 7170 0140 00004844 		.word	1145569280
 7171 0144 00003442 		.word	1110704128
 7172 0148 0000B242 		.word	1118961664
 7173 014c 00005042 		.word	1112539136
 7174 0150 00009442 		.word	1116995584
 7175 0154 00000743 		.word	1124532224
 7176 0158 00002842 		.word	1109917696
 7177 015c 00008242 		.word	1115815936
 7178 0160 00007A44 		.word	1148846080
 7179              		.cfi_endproc
 7180              	.LFE204:
 7182              		.section	.text.Motion_FastestDiagonalLeft,"ax",%progbits
 7183              		.align	1
 7184              		.global	Motion_FastestDiagonalLeft
 7185              		.syntax unified
 7186              		.thumb
 7187              		.thumb_func
 7188              		.fpu fpv4-sp-d16
 7190              	Motion_FastestDiagonalLeft:
 7191              	.LFB205:
1487:Src/motion.c  **** void Motion_FastestDiagonalLeft(uint8_t step)
1488:Src/motion.c  **** {
 7192              		.loc 1 1488 0
 7193              		.cfi_startproc
 7194              		@ args = 0, pretend = 0, frame = 0
 7195              		@ frame_needed = 0, uses_anonymous_args = 0
 7196              	.LVL536:
 7197 0000 08B5     		push	{r3, lr}
 7198              	.LCFI117:
 7199              		.cfi_def_cfa_offset 8
 7200              		.cfi_offset 3, -8
 7201              		.cfi_offset 14, -4
1489:Src/motion.c  ****     if (step > 1)
 7202              		.loc 1 1489 0
 7203 0002 0128     		cmp	r0, #1
 7204 0004 42D9     		bls	.L426
 7205              	.LBB10:
1490:Src/motion.c  ****     {
1491:Src/motion.c  ****         step--;
 7206              		.loc 1 1491 0
 7207 0006 0138     		subs	r0, r0, #1
 7208              	.LVL537:
 7209 0008 C3B2     		uxtb	r3, r0
 7210 000a 00EE103A 		vmov	s0, r3	@ int
ARM GAS  C:\Users\kotaro\AppData\Local\Temp\ccTjQSLT.s 			page 155


 7211              	.LVL538:
1492:Src/motion.c  ****         float velo = VELO_EST + gain_velo * step;
 7212              		.loc 1 1492 0
 7213 000e B8EEC01A 		vcvt.f32.s32	s2, s0
 7214 0012 344B     		ldr	r3, .L432
 7215 0014 D3ED007A 		vldr.32	s15, [r3]
 7216 0018 21EE271A 		vmul.f32	s2, s2, s15
 7217 001c DFED327A 		vldr.32	s15, .L432+4
 7218 0020 31EE271A 		vadd.f32	s2, s2, s15
 7219              	.LVL539:
1493:Src/motion.c  ****         if (velo > 2400.0f)
 7220              		.loc 1 1493 0
 7221 0024 DFED317A 		vldr.32	s15, .L432+8
 7222 0028 B4EEE71A 		vcmpe.f32	s2, s15
 7223 002c F1EE10FA 		vmrs	APSR_nzcv, FPSCR
 7224 0030 01DD     		ble	.L427
1494:Src/motion.c  ****         {
1495:Src/motion.c  ****             velo = 2400.0f;
 7225              		.loc 1 1495 0
 7226 0032 B0EE671A 		vmov.f32	s2, s15
 7227              	.LVL540:
 7228              	.L427:
1496:Src/motion.c  ****         }
1497:Src/motion.c  ****         Control_StrCalculator(diagonal_step * (float)step - enc.offset, VELO_EST, velo, VELO_EST, A
 7229              		.loc 1 1497 0
 7230 0036 B8EE400A 		vcvt.f32.u32	s0, s0
 7231 003a 2D4B     		ldr	r3, .L432+12
 7232 003c D3ED007A 		vldr.32	s15, [r3]
 7233 0040 20EE270A 		vmul.f32	s0, s0, s15
 7234 0044 2B4B     		ldr	r3, .L432+16
 7235 0046 D3ED027A 		vldr.32	s15, [r3, #8]
 7236 004a DFED270A 		vldr.32	s1, .L432+4
 7237 004e F7EE002A 		vmov.f32	s5, #1.0e+0
 7238 0052 9FED292A 		vldr.32	s4, .L432+20
 7239 0056 F0EE601A 		vmov.f32	s3, s1
 7240 005a 30EE670A 		vsub.f32	s0, s0, s15
 7241 005e FFF7FEFF 		bl	Control_StrCalculator
 7242              	.LVL541:
1498:Src/motion.c  ****         Control_AngCalculator(0, 0, 0, 0, 1, 0);
 7243              		.loc 1 1498 0
 7244 0062 9FED260A 		vldr.32	s0, .L432+24
 7245 0066 F0EE402A 		vmov.f32	s5, s0
 7246 006a B7EE002A 		vmov.f32	s4, #1.0e+0
 7247 006e F0EE401A 		vmov.f32	s3, s0
 7248 0072 B0EE401A 		vmov.f32	s2, s0
 7249 0076 F0EE400A 		vmov.f32	s1, s0
 7250 007a FFF7FEFF 		bl	Control_AngCalculator
 7251              	.LVL542:
1499:Src/motion.c  ****         motion_end_flag = FALSE;
 7252              		.loc 1 1499 0
 7253 007e 204B     		ldr	r3, .L432+28
 7254 0080 0022     		movs	r2, #0
 7255 0082 1A70     		strb	r2, [r3]
 7256              	.L428:
1500:Src/motion.c  ****         while (motion_end_flag == FALSE)
 7257              		.loc 1 1500 0 discriminator 1
 7258 0084 1E4B     		ldr	r3, .L432+28
ARM GAS  C:\Users\kotaro\AppData\Local\Temp\ccTjQSLT.s 			page 156


 7259 0086 1B78     		ldrb	r3, [r3]	@ zero_extendqisi2
 7260 0088 002B     		cmp	r3, #0
 7261 008a FBD0     		beq	.L428
 7262              	.L426:
 7263              	.LBE10:
1501:Src/motion.c  ****         {
1502:Src/motion.c  ****         }
1503:Src/motion.c  ****     }
1504:Src/motion.c  ****     Control_WallEdgeAble(0b1000);
 7264              		.loc 1 1504 0
 7265 008c 0820     		movs	r0, #8
 7266 008e FFF7FEFF 		bl	Control_WallEdgeAble
 7267              	.LVL543:
1505:Src/motion.c  ****     Control_StrCalculator(diagonal_step, VELO_EST, VELO_EST, VELO_EST, ACCEL_EST, 1); //26
 7268              		.loc 1 1505 0
 7269 0092 DFED150A 		vldr.32	s1, .L432+4
 7270 0096 F7EE002A 		vmov.f32	s5, #1.0e+0
 7271 009a 9FED172A 		vldr.32	s4, .L432+20
 7272 009e F0EE601A 		vmov.f32	s3, s1
 7273 00a2 B0EE601A 		vmov.f32	s2, s1
 7274 00a6 124B     		ldr	r3, .L432+12
 7275 00a8 93ED000A 		vldr.32	s0, [r3]
 7276 00ac FFF7FEFF 		bl	Control_StrCalculator
 7277              	.LVL544:
1506:Src/motion.c  ****     Control_AngCalculator(0, 0, 0, 0, 1, 0);
 7278              		.loc 1 1506 0
 7279 00b0 9FED120A 		vldr.32	s0, .L432+24
 7280 00b4 F0EE402A 		vmov.f32	s5, s0
 7281 00b8 B7EE002A 		vmov.f32	s4, #1.0e+0
 7282 00bc F0EE401A 		vmov.f32	s3, s0
 7283 00c0 B0EE401A 		vmov.f32	s2, s0
 7284 00c4 F0EE400A 		vmov.f32	s1, s0
 7285 00c8 FFF7FEFF 		bl	Control_AngCalculator
 7286              	.LVL545:
1507:Src/motion.c  ****     motion_end_flag = FALSE;
 7287              		.loc 1 1507 0
 7288 00cc 0C4B     		ldr	r3, .L432+28
 7289 00ce 0022     		movs	r2, #0
 7290 00d0 1A70     		strb	r2, [r3]
 7291              	.L429:
1508:Src/motion.c  ****     while (motion_end_flag == FALSE)
 7292              		.loc 1 1508 0 discriminator 1
 7293 00d2 0B4B     		ldr	r3, .L432+28
 7294 00d4 1B78     		ldrb	r3, [r3]	@ zero_extendqisi2
 7295 00d6 002B     		cmp	r3, #0
 7296 00d8 FBD0     		beq	.L429
1509:Src/motion.c  ****     {
1510:Src/motion.c  ****     }
1511:Src/motion.c  ****     enc.offset = 0;
 7297              		.loc 1 1511 0
 7298 00da 064B     		ldr	r3, .L432+16
 7299 00dc 0022     		movs	r2, #0
 7300 00de 9A60     		str	r2, [r3, #8]	@ float
1512:Src/motion.c  **** }
 7301              		.loc 1 1512 0
 7302 00e0 08BD     		pop	{r3, pc}
 7303              	.L433:
ARM GAS  C:\Users\kotaro\AppData\Local\Temp\ccTjQSLT.s 			page 157


 7304 00e2 00BF     		.align	2
 7305              	.L432:
 7306 00e4 00000000 		.word	.LANCHOR0
 7307 00e8 00009644 		.word	1150681088
 7308 00ec 00001645 		.word	1159069696
 7309 00f0 00000000 		.word	.LANCHOR6
 7310 00f4 00000000 		.word	enc
 7311 00f8 00409C46 		.word	1184645120
 7312 00fc 00000000 		.word	0
 7313 0100 00000000 		.word	motion_end_flag
 7314              		.cfi_endproc
 7315              	.LFE205:
 7317              		.section	.text.Motion_FastestDiagonalRight,"ax",%progbits
 7318              		.align	1
 7319              		.global	Motion_FastestDiagonalRight
 7320              		.syntax unified
 7321              		.thumb
 7322              		.thumb_func
 7323              		.fpu fpv4-sp-d16
 7325              	Motion_FastestDiagonalRight:
 7326              	.LFB206:
1513:Src/motion.c  **** 
1514:Src/motion.c  **** void Motion_FastestDiagonalRight(uint8_t step)
1515:Src/motion.c  **** {
 7327              		.loc 1 1515 0
 7328              		.cfi_startproc
 7329              		@ args = 0, pretend = 0, frame = 0
 7330              		@ frame_needed = 0, uses_anonymous_args = 0
 7331              	.LVL546:
 7332 0000 08B5     		push	{r3, lr}
 7333              	.LCFI118:
 7334              		.cfi_def_cfa_offset 8
 7335              		.cfi_offset 3, -8
 7336              		.cfi_offset 14, -4
1516:Src/motion.c  ****     if (step > 1)
 7337              		.loc 1 1516 0
 7338 0002 0128     		cmp	r0, #1
 7339 0004 40D9     		bls	.L435
 7340              	.LBB11:
1517:Src/motion.c  ****     {
1518:Src/motion.c  ****         step--;
 7341              		.loc 1 1518 0
 7342 0006 0138     		subs	r0, r0, #1
 7343              	.LVL547:
 7344 0008 C0B2     		uxtb	r0, r0
 7345              	.LVL548:
1519:Src/motion.c  ****         float velo = VELO_EST + gain_velo * (float)step;
 7346              		.loc 1 1519 0
 7347 000a 07EE900A 		vmov	s15, r0	@ int
 7348 000e B8EE670A 		vcvt.f32.u32	s0, s15
 7349 0012 334B     		ldr	r3, .L441
 7350 0014 93ED001A 		vldr.32	s2, [r3]
 7351 0018 20EE011A 		vmul.f32	s2, s0, s2
 7352 001c DFED317A 		vldr.32	s15, .L441+4
 7353 0020 31EE271A 		vadd.f32	s2, s2, s15
 7354              	.LVL549:
1520:Src/motion.c  ****         if (velo > 2400.0f)
ARM GAS  C:\Users\kotaro\AppData\Local\Temp\ccTjQSLT.s 			page 158


 7355              		.loc 1 1520 0
 7356 0024 DFED307A 		vldr.32	s15, .L441+8
 7357 0028 B4EEE71A 		vcmpe.f32	s2, s15
 7358 002c F1EE10FA 		vmrs	APSR_nzcv, FPSCR
 7359 0030 01DD     		ble	.L436
1521:Src/motion.c  ****         {
1522:Src/motion.c  ****             velo = 2400.0f;
 7360              		.loc 1 1522 0
 7361 0032 B0EE671A 		vmov.f32	s2, s15
 7362              	.LVL550:
 7363              	.L436:
1523:Src/motion.c  ****         }
1524:Src/motion.c  ****         Control_StrCalculator(diagonal_step * (float)step - enc.offset, VELO_EST, velo, VELO_EST, A
 7364              		.loc 1 1524 0
 7365 0036 2D4B     		ldr	r3, .L441+12
 7366 0038 D3ED007A 		vldr.32	s15, [r3]
 7367 003c 20EE270A 		vmul.f32	s0, s0, s15
 7368 0040 2B4B     		ldr	r3, .L441+16
 7369 0042 D3ED027A 		vldr.32	s15, [r3, #8]
 7370 0046 DFED270A 		vldr.32	s1, .L441+4
 7371 004a F7EE002A 		vmov.f32	s5, #1.0e+0
 7372 004e 9FED292A 		vldr.32	s4, .L441+20
 7373 0052 F0EE601A 		vmov.f32	s3, s1
 7374 0056 30EE670A 		vsub.f32	s0, s0, s15
 7375 005a FFF7FEFF 		bl	Control_StrCalculator
 7376              	.LVL551:
1525:Src/motion.c  ****         Control_AngCalculator(0, 0, 0, 0, 1, 0);
 7377              		.loc 1 1525 0
 7378 005e 9FED260A 		vldr.32	s0, .L441+24
 7379 0062 F0EE402A 		vmov.f32	s5, s0
 7380 0066 B7EE002A 		vmov.f32	s4, #1.0e+0
 7381 006a F0EE401A 		vmov.f32	s3, s0
 7382 006e B0EE401A 		vmov.f32	s2, s0
 7383 0072 F0EE400A 		vmov.f32	s1, s0
 7384 0076 FFF7FEFF 		bl	Control_AngCalculator
 7385              	.LVL552:
1526:Src/motion.c  ****         motion_end_flag = FALSE;
 7386              		.loc 1 1526 0
 7387 007a 204B     		ldr	r3, .L441+28
 7388 007c 0022     		movs	r2, #0
 7389 007e 1A70     		strb	r2, [r3]
 7390              	.L437:
1527:Src/motion.c  ****         while (motion_end_flag == FALSE)
 7391              		.loc 1 1527 0 discriminator 1
 7392 0080 1E4B     		ldr	r3, .L441+28
 7393 0082 1B78     		ldrb	r3, [r3]	@ zero_extendqisi2
 7394 0084 002B     		cmp	r3, #0
 7395 0086 FBD0     		beq	.L437
 7396              	.L435:
 7397              	.LBE11:
1528:Src/motion.c  ****         {
1529:Src/motion.c  ****         }
1530:Src/motion.c  ****     }
1531:Src/motion.c  ****     Control_WallEdgeAble(0b0100);
 7398              		.loc 1 1531 0
 7399 0088 0420     		movs	r0, #4
 7400 008a FFF7FEFF 		bl	Control_WallEdgeAble
ARM GAS  C:\Users\kotaro\AppData\Local\Temp\ccTjQSLT.s 			page 159


 7401              	.LVL553:
1532:Src/motion.c  ****     Control_StrCalculator(diagonal_step, VELO_EST, VELO_EST, VELO_EST, ACCEL_EST, 1); //20
 7402              		.loc 1 1532 0
 7403 008e DFED150A 		vldr.32	s1, .L441+4
 7404 0092 F7EE002A 		vmov.f32	s5, #1.0e+0
 7405 0096 9FED172A 		vldr.32	s4, .L441+20
 7406 009a F0EE601A 		vmov.f32	s3, s1
 7407 009e B0EE601A 		vmov.f32	s2, s1
 7408 00a2 124B     		ldr	r3, .L441+12
 7409 00a4 93ED000A 		vldr.32	s0, [r3]
 7410 00a8 FFF7FEFF 		bl	Control_StrCalculator
 7411              	.LVL554:
1533:Src/motion.c  ****     Control_AngCalculator(0, 0, 0, 0, 1, 0);
 7412              		.loc 1 1533 0
 7413 00ac 9FED120A 		vldr.32	s0, .L441+24
 7414 00b0 F0EE402A 		vmov.f32	s5, s0
 7415 00b4 B7EE002A 		vmov.f32	s4, #1.0e+0
 7416 00b8 F0EE401A 		vmov.f32	s3, s0
 7417 00bc B0EE401A 		vmov.f32	s2, s0
 7418 00c0 F0EE400A 		vmov.f32	s1, s0
 7419 00c4 FFF7FEFF 		bl	Control_AngCalculator
 7420              	.LVL555:
1534:Src/motion.c  ****     motion_end_flag = FALSE;
 7421              		.loc 1 1534 0
 7422 00c8 0C4B     		ldr	r3, .L441+28
 7423 00ca 0022     		movs	r2, #0
 7424 00cc 1A70     		strb	r2, [r3]
 7425              	.L438:
1535:Src/motion.c  ****     while (motion_end_flag == FALSE)
 7426              		.loc 1 1535 0 discriminator 1
 7427 00ce 0B4B     		ldr	r3, .L441+28
 7428 00d0 1B78     		ldrb	r3, [r3]	@ zero_extendqisi2
 7429 00d2 002B     		cmp	r3, #0
 7430 00d4 FBD0     		beq	.L438
1536:Src/motion.c  ****     {
1537:Src/motion.c  ****     }
1538:Src/motion.c  ****     enc.offset = 0;
 7431              		.loc 1 1538 0
 7432 00d6 064B     		ldr	r3, .L441+16
 7433 00d8 0022     		movs	r2, #0
 7434 00da 9A60     		str	r2, [r3, #8]	@ float
1539:Src/motion.c  **** }...
 7435              		.loc 1 1539 0
 7436 00dc 08BD     		pop	{r3, pc}
 7437              	.L442:
 7438 00de 00BF     		.align	2
 7439              	.L441:
 7440 00e0 00000000 		.word	.LANCHOR0
 7441 00e4 00009644 		.word	1150681088
 7442 00e8 00001645 		.word	1159069696
 7443 00ec 00000000 		.word	.LANCHOR6
 7444 00f0 00000000 		.word	enc
 7445 00f4 00409C46 		.word	1184645120
 7446 00f8 00000000 		.word	0
 7447 00fc 00000000 		.word	motion_end_flag
 7448              		.cfi_endproc
 7449              	.LFE206:
ARM GAS  C:\Users\kotaro\AppData\Local\Temp\ccTjQSLT.s 			page 160


 7451              		.global	walledgeRestart
 7452              		.global	walledge800
 7453              		.global	walledge600
 7454              		.global	velocity_now
 7455              		.global	prefront_flag
 7456              		.global	diagonal_step
 7457              		.global	gain_velo
 7458              		.comm	motion_end_flag,1,1
 7459              		.section	.bss.diagonal_step,"aw",%nobits
 7460              		.align	2
 7461              		.set	.LANCHOR6,. + 0
 7464              	diagonal_step:
 7465 0000 00000000 		.space	4
 7466              		.section	.bss.gain_velo,"aw",%nobits
 7467              		.align	2
 7468              		.set	.LANCHOR0,. + 0
 7471              	gain_velo:
 7472 0000 00000000 		.space	4
 7473              		.section	.bss.prefront_flag,"aw",%nobits
 7474              		.align	1
 7475              		.set	.LANCHOR1,. + 0
 7478              	prefront_flag:
 7479 0000 0000     		.space	2
 7480              		.section	.data.velocity_now,"aw",%progbits
 7481              		.align	2
 7482              		.set	.LANCHOR2,. + 0
 7485              	velocity_now:
 7486 0000 00001644 		.word	1142292480
 7487              		.section	.data.walledge600,"aw",%progbits
 7488              		.align	2
 7489              		.set	.LANCHOR4,. + 0
 7492              	walledge600:
 7493 0000 F8FF     		.short	-8
 7494 0002 F8FF     		.short	-8
 7495 0004 0000     		.short	0
 7496 0006 0000     		.short	0
 7497 0008 00008841 		.word	1099431936
 7498 000c 00009841 		.word	1100480512
 7499 0010 00000000 		.word	0
 7500 0014 00000000 		.word	0
 7501              		.section	.data.walledge800,"aw",%progbits
 7502              		.align	2
 7503              		.set	.LANCHOR3,. + 0
 7506              	walledge800:
 7507 0000 F6FF     		.short	-10
 7508 0002 F6FF     		.short	-10
 7509 0004 F6FF     		.short	-10
 7510 0006 F6FF     		.short	-10
 7511 0008 00005041 		.word	1095761920
 7512 000c 00005041 		.word	1095761920
 7513 0010 0000A041 		.word	1101004800
 7514 0014 0000A841 		.word	1101529088
 7515              		.section	.data.walledgeRestart,"aw",%progbits
 7516              		.align	2
 7517              		.set	.LANCHOR5,. + 0
 7520              	walledgeRestart:
 7521 0000 F8FF     		.short	-8
ARM GAS  C:\Users\kotaro\AppData\Local\Temp\ccTjQSLT.s 			page 161


 7522 0002 F8FF     		.short	-8
 7523 0004 0000     		.short	0
 7524 0006 0000     		.short	0
 7525 0008 0000D642 		.word	1121320960
 7526 000c 0000DA42 		.word	1121583104
 7527 0010 00000000 		.word	0
 7528 0014 00000000 		.word	0
 7529              		.text
 7530              	.Letext0:
 7531              		.file 2 "c:\\program files (x86)\\gnu tools arm embedded\\7 2017-q4-major\\arm-none-eabi\\include\
 7532              		.file 3 "c:\\program files (x86)\\gnu tools arm embedded\\7 2017-q4-major\\arm-none-eabi\\include\
 7533              		.file 4 "Inc/control.h"
 7534              		.file 5 "Drivers/CMSIS/Include/core_cm4.h"
 7535              		.file 6 "Drivers/CMSIS/Device/ST/STM32F4xx/Include/system_stm32f4xx.h"
 7536              		.file 7 "Drivers/CMSIS/Device/ST/STM32F4xx/Include/stm32f405xx.h"
 7537              		.file 8 "c:\\program files (x86)\\gnu tools arm embedded\\7 2017-q4-major\\arm-none-eabi\\include\
 7538              		.file 9 "c:\\program files (x86)\\gnu tools arm embedded\\7 2017-q4-major\\arm-none-eabi\\include\
 7539              		.file 10 "c:\\program files (x86)\\gnu tools arm embedded\\7 2017-q4-major\\lib\\gcc\\arm-none-eab
 7540              		.file 11 "c:\\program files (x86)\\gnu tools arm embedded\\7 2017-q4-major\\arm-none-eabi\\include
 7541              		.file 12 "Drivers/STM32F4xx_HAL_Driver/Inc/stm32f4xx_hal_def.h"
 7542              		.file 13 "Drivers/STM32F4xx_HAL_Driver/Inc/stm32f4xx_hal_dma.h"
 7543              		.file 14 "Drivers/STM32F4xx_HAL_Driver/Inc/stm32f4xx_hal_adc.h"
 7544              		.file 15 "Drivers/STM32F4xx_HAL_Driver/Inc/stm32f4xx_hal_spi.h"
 7545              		.file 16 "Drivers/STM32F4xx_HAL_Driver/Inc/stm32f4xx_hal_tim.h"
 7546              		.file 17 "Inc/tim.h"
 7547              		.file 18 "Inc/spi.h"
 7548              		.file 19 "c:\\program files (x86)\\gnu tools arm embedded\\7 2017-q4-major\\arm-none-eabi\\include
 7549              		.file 20 "Inc/adc.h"
 7550              		.file 21 "Drivers/STM32F4xx_HAL_Driver/Inc/stm32f4xx_hal.h"
ARM GAS  C:\Users\kotaro\AppData\Local\Temp\ccTjQSLT.s 			page 162


DEFINED SYMBOLS
                            *ABS*:00000000 motion.c
C:\Users\kotaro\AppData\Local\Temp\ccTjQSLT.s:18     .text.Motion_MaxVeloSet:00000000 $t
C:\Users\kotaro\AppData\Local\Temp\ccTjQSLT.s:25     .text.Motion_MaxVeloSet:00000000 Motion_MaxVeloSet
C:\Users\kotaro\AppData\Local\Temp\ccTjQSLT.s:42     .text.Motion_MaxVeloSet:00000008 $d
C:\Users\kotaro\AppData\Local\Temp\ccTjQSLT.s:47     .text.Motion_enkai:00000000 $t
C:\Users\kotaro\AppData\Local\Temp\ccTjQSLT.s:54     .text.Motion_enkai:00000000 Motion_enkai
C:\Users\kotaro\AppData\Local\Temp\ccTjQSLT.s:93     .text.Motion_enkai:00000044 $d
C:\Users\kotaro\AppData\Local\Temp\ccTjQSLT.s:98     .text.Motion_TestTurn:00000000 $t
C:\Users\kotaro\AppData\Local\Temp\ccTjQSLT.s:105    .text.Motion_TestTurn:00000000 Motion_TestTurn
C:\Users\kotaro\AppData\Local\Temp\ccTjQSLT.s:180    .text.Motion_TestTurn:00000074 $d
                            *COM*:00000001 motion_end_flag
C:\Users\kotaro\AppData\Local\Temp\ccTjQSLT.s:193    .text.Motion_Start:00000000 $t
C:\Users\kotaro\AppData\Local\Temp\ccTjQSLT.s:200    .text.Motion_Start:00000000 Motion_Start
C:\Users\kotaro\AppData\Local\Temp\ccTjQSLT.s:259    .text.Motion_Start:0000005c $d
C:\Users\kotaro\AppData\Local\Temp\ccTjQSLT.s:269    .text.Motion_Restart:00000000 $t
C:\Users\kotaro\AppData\Local\Temp\ccTjQSLT.s:276    .text.Motion_Restart:00000000 Motion_Restart
C:\Users\kotaro\AppData\Local\Temp\ccTjQSLT.s:513    .text.Motion_Restart:000001d8 $d
C:\Users\kotaro\AppData\Local\Temp\ccTjQSLT.s:538    .text.Motion_End:00000000 $t
C:\Users\kotaro\AppData\Local\Temp\ccTjQSLT.s:545    .text.Motion_End:00000000 Motion_End
C:\Users\kotaro\AppData\Local\Temp\ccTjQSLT.s:616    .text.Motion_End:00000074 $d
C:\Users\kotaro\AppData\Local\Temp\ccTjQSLT.s:630    .text.Motion_Straight:00000000 $t
C:\Users\kotaro\AppData\Local\Temp\ccTjQSLT.s:637    .text.Motion_Straight:00000000 Motion_Straight
C:\Users\kotaro\AppData\Local\Temp\ccTjQSLT.s:790    .text.Motion_Straight:00000138 $d
C:\Users\kotaro\AppData\Local\Temp\ccTjQSLT.s:801    .text.Motion_SearchStraight:00000000 $t
C:\Users\kotaro\AppData\Local\Temp\ccTjQSLT.s:808    .text.Motion_SearchStraight:00000000 Motion_SearchStraight
C:\Users\kotaro\AppData\Local\Temp\ccTjQSLT.s:1174   .text.Motion_SearchStraight:000002f4 $d
C:\Users\kotaro\AppData\Local\Temp\ccTjQSLT.s:1196   .text.Motion_SearchStraight:00000334 $t
C:\Users\kotaro\AppData\Local\Temp\ccTjQSLT.s:1246   .text.Motion_SearchStraight:000003a8 $d
C:\Users\kotaro\AppData\Local\Temp\ccTjQSLT.s:1261   .text.Motion_SpinTurn:00000000 $t
C:\Users\kotaro\AppData\Local\Temp\ccTjQSLT.s:1268   .text.Motion_SpinTurn:00000000 Motion_SpinTurn
C:\Users\kotaro\AppData\Local\Temp\ccTjQSLT.s:1497   .text.Motion_SpinTurn:000001e4 $d
C:\Users\kotaro\AppData\Local\Temp\ccTjQSLT.s:1522   .text.Motion_WallSpinTurn:00000000 $t
C:\Users\kotaro\AppData\Local\Temp\ccTjQSLT.s:1529   .text.Motion_WallSpinTurn:00000000 Motion_WallSpinTurn
C:\Users\kotaro\AppData\Local\Temp\ccTjQSLT.s:1786   .text.Motion_WallSpinTurn:00000210 $d
C:\Users\kotaro\AppData\Local\Temp\ccTjQSLT.s:1812   .text.Motion_LeftTurn:00000000 $t
C:\Users\kotaro\AppData\Local\Temp\ccTjQSLT.s:1819   .text.Motion_LeftTurn:00000000 Motion_LeftTurn
C:\Users\kotaro\AppData\Local\Temp\ccTjQSLT.s:1973   .text.Motion_LeftTurn:0000014c $d
C:\Users\kotaro\AppData\Local\Temp\ccTjQSLT.s:1989   .text.Motion_RightTurn:00000000 $t
C:\Users\kotaro\AppData\Local\Temp\ccTjQSLT.s:1996   .text.Motion_RightTurn:00000000 Motion_RightTurn
C:\Users\kotaro\AppData\Local\Temp\ccTjQSLT.s:2150   .text.Motion_RightTurn:0000014c $d
C:\Users\kotaro\AppData\Local\Temp\ccTjQSLT.s:2166   .text.Motion_Switch:00000000 $t
C:\Users\kotaro\AppData\Local\Temp\ccTjQSLT.s:2173   .text.Motion_Switch:00000000 Motion_Switch
C:\Users\kotaro\AppData\Local\Temp\ccTjQSLT.s:2191   .text.Motion_Switch:0000000e $d
C:\Users\kotaro\AppData\Local\Temp\ccTjQSLT.s:2245   .text.Motion_Switch:0000003c $d
C:\Users\kotaro\AppData\Local\Temp\ccTjQSLT.s:2250   .text.Motion_FastStart:00000000 $t
C:\Users\kotaro\AppData\Local\Temp\ccTjQSLT.s:2257   .text.Motion_FastStart:00000000 Motion_FastStart
C:\Users\kotaro\AppData\Local\Temp\ccTjQSLT.s:2361   .text.Motion_FastStart:000000b4 $d
C:\Users\kotaro\AppData\Local\Temp\ccTjQSLT.s:2376   .text.Motion_FastStraight:00000000 $t
C:\Users\kotaro\AppData\Local\Temp\ccTjQSLT.s:2383   .text.Motion_FastStraight:00000000 Motion_FastStraight
C:\Users\kotaro\AppData\Local\Temp\ccTjQSLT.s:2455   .text.Motion_FastStraight:00000088 $d
C:\Users\kotaro\AppData\Local\Temp\ccTjQSLT.s:2467   .text.Motion_Adjust:00000000 $t
C:\Users\kotaro\AppData\Local\Temp\ccTjQSLT.s:2474   .text.Motion_Adjust:00000000 Motion_Adjust
C:\Users\kotaro\AppData\Local\Temp\ccTjQSLT.s:2556   .text.Motion_Adjust:000000a4 $d
C:\Users\kotaro\AppData\Local\Temp\ccTjQSLT.s:2568   .text.Motion_Adjust_L:00000000 $t
C:\Users\kotaro\AppData\Local\Temp\ccTjQSLT.s:2575   .text.Motion_Adjust_L:00000000 Motion_Adjust_L
C:\Users\kotaro\AppData\Local\Temp\ccTjQSLT.s:2701   .text.Motion_Adjust_L:000000ec $d
ARM GAS  C:\Users\kotaro\AppData\Local\Temp\ccTjQSLT.s 			page 163


C:\Users\kotaro\AppData\Local\Temp\ccTjQSLT.s:2712   .text.Motion_Adjust_R:00000000 $t
C:\Users\kotaro\AppData\Local\Temp\ccTjQSLT.s:2719   .text.Motion_Adjust_R:00000000 Motion_Adjust_R
C:\Users\kotaro\AppData\Local\Temp\ccTjQSLT.s:2843   .text.Motion_Adjust_R:000000ec $d
C:\Users\kotaro\AppData\Local\Temp\ccTjQSLT.s:2854   .text.Motion_FastGoal:00000000 $t
C:\Users\kotaro\AppData\Local\Temp\ccTjQSLT.s:2861   .text.Motion_FastGoal:00000000 Motion_FastGoal
C:\Users\kotaro\AppData\Local\Temp\ccTjQSLT.s:2967   .text.Motion_FastGoal:000000b8 $d
C:\Users\kotaro\AppData\Local\Temp\ccTjQSLT.s:2981   .text.Motion_Diagonal:00000000 $t
C:\Users\kotaro\AppData\Local\Temp\ccTjQSLT.s:2988   .text.Motion_Diagonal:00000000 Motion_Diagonal
C:\Users\kotaro\AppData\Local\Temp\ccTjQSLT.s:3044   .text.Motion_Diagonal:00000068 $d
C:\Users\kotaro\AppData\Local\Temp\ccTjQSLT.s:3054   .text.Motion_DiagonalLeft:00000000 $t
C:\Users\kotaro\AppData\Local\Temp\ccTjQSLT.s:3061   .text.Motion_DiagonalLeft:00000000 Motion_DiagonalLeft
C:\Users\kotaro\AppData\Local\Temp\ccTjQSLT.s:3179   .text.Motion_DiagonalLeft:000000ec $d
C:\Users\kotaro\AppData\Local\Temp\ccTjQSLT.s:3191   .text.Motion_DiagonalRight:00000000 $t
C:\Users\kotaro\AppData\Local\Temp\ccTjQSLT.s:3198   .text.Motion_DiagonalRight:00000000 Motion_DiagonalRight
C:\Users\kotaro\AppData\Local\Temp\ccTjQSLT.s:3315   .text.Motion_DiagonalRight:000000e8 $d
C:\Users\kotaro\AppData\Local\Temp\ccTjQSLT.s:3327   .text.Motion_DiagonalStart:00000000 $t
C:\Users\kotaro\AppData\Local\Temp\ccTjQSLT.s:3334   .text.Motion_DiagonalStart:00000000 Motion_DiagonalStart
C:\Users\kotaro\AppData\Local\Temp\ccTjQSLT.s:3400   .text.Motion_DiagonalStart:00000068 $d
C:\Users\kotaro\AppData\Local\Temp\ccTjQSLT.s:3412   .text.Motion_DiagonalStop:00000000 $t
C:\Users\kotaro\AppData\Local\Temp\ccTjQSLT.s:3419   .text.Motion_DiagonalStop:00000000 Motion_DiagonalStop
C:\Users\kotaro\AppData\Local\Temp\ccTjQSLT.s:3496   .text.Motion_DiagonalStop:00000080 $d
C:\Users\kotaro\AppData\Local\Temp\ccTjQSLT.s:3510   .text.Motion_InLeft45Turn:00000000 $t
C:\Users\kotaro\AppData\Local\Temp\ccTjQSLT.s:3517   .text.Motion_InLeft45Turn:00000000 Motion_InLeft45Turn
C:\Users\kotaro\AppData\Local\Temp\ccTjQSLT.s:3632   .text.Motion_InLeft45Turn:000000f4 $d
C:\Users\kotaro\AppData\Local\Temp\ccTjQSLT.s:3647   .text.Motion_InRight45Turn:00000000 $t
C:\Users\kotaro\AppData\Local\Temp\ccTjQSLT.s:3654   .text.Motion_InRight45Turn:00000000 Motion_InRight45Turn
C:\Users\kotaro\AppData\Local\Temp\ccTjQSLT.s:3769   .text.Motion_InRight45Turn:000000f4 $d
C:\Users\kotaro\AppData\Local\Temp\ccTjQSLT.s:3784   .text.Motion_OutLeft45Turn:00000000 $t
C:\Users\kotaro\AppData\Local\Temp\ccTjQSLT.s:3791   .text.Motion_OutLeft45Turn:00000000 Motion_OutLeft45Turn
C:\Users\kotaro\AppData\Local\Temp\ccTjQSLT.s:3975   .text.Motion_OutLeft45Turn:0000016c $d
C:\Users\kotaro\AppData\Local\Temp\ccTjQSLT.s:3992   .text.Motion_OutRight45Turn:00000000 $t
C:\Users\kotaro\AppData\Local\Temp\ccTjQSLT.s:3999   .text.Motion_OutRight45Turn:00000000 Motion_OutRight45Turn
C:\Users\kotaro\AppData\Local\Temp\ccTjQSLT.s:4183   .text.Motion_OutRight45Turn:0000016c $d
C:\Users\kotaro\AppData\Local\Temp\ccTjQSLT.s:4200   .text.Motion_Left90Turn:00000000 $t
C:\Users\kotaro\AppData\Local\Temp\ccTjQSLT.s:4207   .text.Motion_Left90Turn:00000000 Motion_Left90Turn
C:\Users\kotaro\AppData\Local\Temp\ccTjQSLT.s:4394   .text.Motion_Left90Turn:00000170 $d
C:\Users\kotaro\AppData\Local\Temp\ccTjQSLT.s:4412   .text.Motion_Right90Turn:00000000 $t
C:\Users\kotaro\AppData\Local\Temp\ccTjQSLT.s:4419   .text.Motion_Right90Turn:00000000 Motion_Right90Turn
C:\Users\kotaro\AppData\Local\Temp\ccTjQSLT.s:4599   .text.Motion_Right90Turn:00000164 $d
C:\Users\kotaro\AppData\Local\Temp\ccTjQSLT.s:4616   .text.Turn:00000000 $t
C:\Users\kotaro\AppData\Local\Temp\ccTjQSLT.s:4623   .text.Turn:00000000 Turn
C:\Users\kotaro\AppData\Local\Temp\ccTjQSLT.s:4877   .text.Turn:000001e0 $d
C:\Users\kotaro\AppData\Local\Temp\ccTjQSLT.s:4890   .text.Motion_FastLeftTurn:00000000 $t
C:\Users\kotaro\AppData\Local\Temp\ccTjQSLT.s:4897   .text.Motion_FastLeftTurn:00000000 Motion_FastLeftTurn
C:\Users\kotaro\AppData\Local\Temp\ccTjQSLT.s:4914   .text.Motion_FastLeftTurn:0000000a $d
C:\Users\kotaro\AppData\Local\Temp\ccTjQSLT.s:4922   .text.Motion_FastLeftTurn:00000012 $t
C:\Users\kotaro\AppData\Local\Temp\ccTjQSLT.s:5041   .text.Motion_FastLeftTurn:000000dc $d
C:\Users\kotaro\AppData\Local\Temp\ccTjQSLT.s:5061   .text.Motion_FastRightTurn:00000000 $t
C:\Users\kotaro\AppData\Local\Temp\ccTjQSLT.s:5068   .text.Motion_FastRightTurn:00000000 Motion_FastRightTurn
C:\Users\kotaro\AppData\Local\Temp\ccTjQSLT.s:5085   .text.Motion_FastRightTurn:0000000a $d
C:\Users\kotaro\AppData\Local\Temp\ccTjQSLT.s:5093   .text.Motion_FastRightTurn:00000012 $t
C:\Users\kotaro\AppData\Local\Temp\ccTjQSLT.s:5212   .text.Motion_FastRightTurn:000000dc $d
C:\Users\kotaro\AppData\Local\Temp\ccTjQSLT.s:5232   .text.Motion_FastestStart:00000000 $t
C:\Users\kotaro\AppData\Local\Temp\ccTjQSLT.s:5239   .text.Motion_FastestStart:00000000 Motion_FastestStart
C:\Users\kotaro\AppData\Local\Temp\ccTjQSLT.s:5340   .text.Motion_FastestStart:000000ac $d
C:\Users\kotaro\AppData\Local\Temp\ccTjQSLT.s:5355   .text.Motion_FastestStraight:00000000 $t
C:\Users\kotaro\AppData\Local\Temp\ccTjQSLT.s:5362   .text.Motion_FastestStraight:00000000 Motion_FastestStraight
ARM GAS  C:\Users\kotaro\AppData\Local\Temp\ccTjQSLT.s 			page 164


C:\Users\kotaro\AppData\Local\Temp\ccTjQSLT.s:5434   .text.Motion_FastestStraight:00000088 $d
C:\Users\kotaro\AppData\Local\Temp\ccTjQSLT.s:5446   .text.Motion_FastestGoal:00000000 $t
C:\Users\kotaro\AppData\Local\Temp\ccTjQSLT.s:5453   .text.Motion_FastestGoal:00000000 Motion_FastestGoal
C:\Users\kotaro\AppData\Local\Temp\ccTjQSLT.s:5559   .text.Motion_FastestGoal:000000b4 $d
C:\Users\kotaro\AppData\Local\Temp\ccTjQSLT.s:5573   .text.Motion_FastestAdjust_L:00000000 $t
C:\Users\kotaro\AppData\Local\Temp\ccTjQSLT.s:5580   .text.Motion_FastestAdjust_L:00000000 Motion_FastestAdjust_L
C:\Users\kotaro\AppData\Local\Temp\ccTjQSLT.s:5707   .text.Motion_FastestAdjust_L:000000ec $d
C:\Users\kotaro\AppData\Local\Temp\ccTjQSLT.s:5717   .text.Motion_FastestAdjust_R:00000000 $t
C:\Users\kotaro\AppData\Local\Temp\ccTjQSLT.s:5724   .text.Motion_FastestAdjust_R:00000000 Motion_FastestAdjust_R
C:\Users\kotaro\AppData\Local\Temp\ccTjQSLT.s:5834   .text.Motion_FastestAdjust_R:000000e0 $d
C:\Users\kotaro\AppData\Local\Temp\ccTjQSLT.s:5844   .text.Fastest_StrTurn:00000000 $t
C:\Users\kotaro\AppData\Local\Temp\ccTjQSLT.s:5851   .text.Fastest_StrTurn:00000000 Fastest_StrTurn
C:\Users\kotaro\AppData\Local\Temp\ccTjQSLT.s:5996   .text.Fastest_StrTurn:00000108 $d
C:\Users\kotaro\AppData\Local\Temp\ccTjQSLT.s:6005   .text.Fastest_DgnInTurn:00000000 $t
C:\Users\kotaro\AppData\Local\Temp\ccTjQSLT.s:6012   .text.Fastest_DgnInTurn:00000000 Fastest_DgnInTurn
C:\Users\kotaro\AppData\Local\Temp\ccTjQSLT.s:6171   .text.Fastest_DgnInTurn:00000118 $d
C:\Users\kotaro\AppData\Local\Temp\ccTjQSLT.s:6181   .text.Fastest_DgnOutTurn:00000000 $t
C:\Users\kotaro\AppData\Local\Temp\ccTjQSLT.s:6188   .text.Fastest_DgnOutTurn:00000000 Fastest_DgnOutTurn
C:\Users\kotaro\AppData\Local\Temp\ccTjQSLT.s:6340   .text.Fastest_DgnOutTurn:00000114 $d
C:\Users\kotaro\AppData\Local\Temp\ccTjQSLT.s:6350   .text.Fastest_DgnTurn:00000000 $t
C:\Users\kotaro\AppData\Local\Temp\ccTjQSLT.s:6357   .text.Fastest_DgnTurn:00000000 Fastest_DgnTurn
C:\Users\kotaro\AppData\Local\Temp\ccTjQSLT.s:6517   .text.Fastest_DgnTurn:00000118 $d
C:\Users\kotaro\AppData\Local\Temp\ccTjQSLT.s:6527   .text.Motion_FastestLeftSearch:00000000 $t
C:\Users\kotaro\AppData\Local\Temp\ccTjQSLT.s:6534   .text.Motion_FastestLeftSearch:00000000 Motion_FastestLeftSearch
C:\Users\kotaro\AppData\Local\Temp\ccTjQSLT.s:6655   .text.Motion_FastestLeftSearch:000000fc $d
C:\Users\kotaro\AppData\Local\Temp\ccTjQSLT.s:6669   .text.Motion_FastestRightSearch:00000000 $t
C:\Users\kotaro\AppData\Local\Temp\ccTjQSLT.s:6676   .text.Motion_FastestRightSearch:00000000 Motion_FastestRightSearch
C:\Users\kotaro\AppData\Local\Temp\ccTjQSLT.s:6797   .text.Motion_FastestRightSearch:000000fc $d
C:\Users\kotaro\AppData\Local\Temp\ccTjQSLT.s:6810   .text.Motion_FastestLeftTurn:00000000 $t
C:\Users\kotaro\AppData\Local\Temp\ccTjQSLT.s:6817   .text.Motion_FastestLeftTurn:00000000 Motion_FastestLeftTurn
C:\Users\kotaro\AppData\Local\Temp\ccTjQSLT.s:6834   .text.Motion_FastestLeftTurn:0000000a $d
C:\Users\kotaro\AppData\Local\Temp\ccTjQSLT.s:6842   .text.Motion_FastestLeftTurn:00000012 $t
C:\Users\kotaro\AppData\Local\Temp\ccTjQSLT.s:6972   .text.Motion_FastestLeftTurn:00000114 $d
C:\Users\kotaro\AppData\Local\Temp\ccTjQSLT.s:6997   .text.Motion_FastestRightTurn:00000000 $t
C:\Users\kotaro\AppData\Local\Temp\ccTjQSLT.s:7004   .text.Motion_FastestRightTurn:00000000 Motion_FastestRightTurn
C:\Users\kotaro\AppData\Local\Temp\ccTjQSLT.s:7021   .text.Motion_FastestRightTurn:0000000a $d
C:\Users\kotaro\AppData\Local\Temp\ccTjQSLT.s:7029   .text.Motion_FastestRightTurn:00000012 $t
C:\Users\kotaro\AppData\Local\Temp\ccTjQSLT.s:7159   .text.Motion_FastestRightTurn:00000114 $d
C:\Users\kotaro\AppData\Local\Temp\ccTjQSLT.s:7183   .text.Motion_FastestDiagonalLeft:00000000 $t
C:\Users\kotaro\AppData\Local\Temp\ccTjQSLT.s:7190   .text.Motion_FastestDiagonalLeft:00000000 Motion_FastestDiagonalLeft
C:\Users\kotaro\AppData\Local\Temp\ccTjQSLT.s:7306   .text.Motion_FastestDiagonalLeft:000000e4 $d
C:\Users\kotaro\AppData\Local\Temp\ccTjQSLT.s:7318   .text.Motion_FastestDiagonalRight:00000000 $t
C:\Users\kotaro\AppData\Local\Temp\ccTjQSLT.s:7325   .text.Motion_FastestDiagonalRight:00000000 Motion_FastestDiagonalRight
C:\Users\kotaro\AppData\Local\Temp\ccTjQSLT.s:7440   .text.Motion_FastestDiagonalRight:000000e0 $d
C:\Users\kotaro\AppData\Local\Temp\ccTjQSLT.s:7520   .data.walledgeRestart:00000000 walledgeRestart
C:\Users\kotaro\AppData\Local\Temp\ccTjQSLT.s:7506   .data.walledge800:00000000 walledge800
C:\Users\kotaro\AppData\Local\Temp\ccTjQSLT.s:7492   .data.walledge600:00000000 walledge600
C:\Users\kotaro\AppData\Local\Temp\ccTjQSLT.s:7485   .data.velocity_now:00000000 velocity_now
C:\Users\kotaro\AppData\Local\Temp\ccTjQSLT.s:7478   .bss.prefront_flag:00000000 prefront_flag
C:\Users\kotaro\AppData\Local\Temp\ccTjQSLT.s:7464   .bss.diagonal_step:00000000 diagonal_step
C:\Users\kotaro\AppData\Local\Temp\ccTjQSLT.s:7471   .bss.gain_velo:00000000 gain_velo
C:\Users\kotaro\AppData\Local\Temp\ccTjQSLT.s:7460   .bss.diagonal_step:00000000 $d
C:\Users\kotaro\AppData\Local\Temp\ccTjQSLT.s:7467   .bss.gain_velo:00000000 $d
C:\Users\kotaro\AppData\Local\Temp\ccTjQSLT.s:7474   .bss.prefront_flag:00000000 $d
C:\Users\kotaro\AppData\Local\Temp\ccTjQSLT.s:7481   .data.velocity_now:00000000 $d
C:\Users\kotaro\AppData\Local\Temp\ccTjQSLT.s:7488   .data.walledge600:00000000 $d
C:\Users\kotaro\AppData\Local\Temp\ccTjQSLT.s:7502   .data.walledge800:00000000 $d
ARM GAS  C:\Users\kotaro\AppData\Local\Temp\ccTjQSLT.s 			page 165


C:\Users\kotaro\AppData\Local\Temp\ccTjQSLT.s:7516   .data.walledgeRestart:00000000 $d
C:\Users\kotaro\AppData\Local\Temp\ccTjQSLT.s:2196   .text.Motion_Switch:00000013 $d
C:\Users\kotaro\AppData\Local\Temp\ccTjQSLT.s:2196   .text.Motion_Switch:00000014 $t

UNDEFINED SYMBOLS
Control_ResetVelo
Control_StrCalculator
Control_AngCalculator
HAL_Delay
straight
angle
error_ang_sum
error_ang_old
enc
front_wall_flag
error_sum
error_old
Control_WallEdgeAble
Control_WallEdgeSet
Maze_GetAfterNextMotion
sen_front
motor_flag
control_wall_flag
