ARM GAS  C:\Users\kotaro\AppData\Local\Temp\ccWGe4CN.s 			page 1


   1              		.cpu cortex-m4
   2              		.eabi_attribute 27, 1
   3              		.eabi_attribute 28, 1
   4              		.eabi_attribute 20, 1
   5              		.eabi_attribute 21, 1
   6              		.eabi_attribute 23, 3
   7              		.eabi_attribute 24, 1
   8              		.eabi_attribute 25, 1
   9              		.eabi_attribute 26, 1
  10              		.eabi_attribute 30, 1
  11              		.eabi_attribute 34, 1
  12              		.eabi_attribute 18, 4
  13              		.file	"motion.c"
  14              		.text
  15              	.Ltext0:
  16              		.cfi_sections	.debug_frame
  17              		.section	.text.Motion_MaxVeloSet,"ax",%progbits
  18              		.align	1
  19              		.global	Motion_MaxVeloSet
  20              		.syntax unified
  21              		.thumb
  22              		.thumb_func
  23              		.fpu fpv4-sp-d16
  25              	Motion_MaxVeloSet:
  26              	.LFB159:
  27              		.file 1 "Src/motion.c"
   1:Src/motion.c  **** #include "motion.h"
   2:Src/motion.c  **** #include "stdint.h"
   3:Src/motion.c  **** #include "control.h"
   4:Src/motion.c  **** #include "tim.h"
   5:Src/motion.c  **** #include "spi.h"
   6:Src/motion.c  **** #include "MazeCon.h"
   7:Src/motion.c  **** #include "arm_math.h"
   8:Src/motion.c  **** #include "adc.h"
   9:Src/motion.c  **** 
  10:Src/motion.c  **** #define TRUE 1
  11:Src/motion.c  **** #define FALSE 0
  12:Src/motion.c  **** 
  13:Src/motion.c  **** #define VELO_ANG_B 380.0f
  14:Src/motion.c  **** #define ACCEL_ANG_B 4000.0f
  15:Src/motion.c  **** 
  16:Src/motion.c  **** #define OFFSET_IN 31.0f
  17:Src/motion.c  **** #define OFFSET_OUT 47.0f
  18:Src/motion.c  **** 
  19:Src/motion.c  **** #define OFFSET_SEN 135
  20:Src/motion.c  **** 
  21:Src/motion.c  **** extern enc_t enc;
  22:Src/motion.c  **** extern volatile uint8_t motor_flag;
  23:Src/motion.c  **** extern target_t straight, angle;
  24:Src/motion.c  **** extern volatile accel_t accel;
  25:Src/motion.c  **** extern sensor_t sen_front;
  26:Src/motion.c  **** extern sensor_t sen_l;
  27:Src/motion.c  **** extern sensor_t sen_r;
  28:Src/motion.c  **** extern int16_t sen_front_reference_f;
  29:Src/motion.c  **** 
  30:Src/motion.c  **** extern float error_sum;
  31:Src/motion.c  **** extern float error_old;
ARM GAS  C:\Users\kotaro\AppData\Local\Temp\ccWGe4CN.s 			page 2


  32:Src/motion.c  **** 
  33:Src/motion.c  **** extern float error_ang_sum;
  34:Src/motion.c  **** extern float error_ang_old;
  35:Src/motion.c  **** 
  36:Src/motion.c  **** extern volatile uint8_t control_wall_flag;
  37:Src/motion.c  **** 
  38:Src/motion.c  **** extern volatile uint8_t front_wall_flag;
  39:Src/motion.c  **** 
  40:Src/motion.c  **** volatile uint8_t motion_end_flag;
  41:Src/motion.c  **** float gain_velo = 0;
  42:Src/motion.c  **** float diagonal_step = 0;
  43:Src/motion.c  **** uint16_t prefront_flag = 0;
  44:Src/motion.c  **** 
  45:Src/motion.c  **** void Motion_MaxVeloSet(float gain)
  46:Src/motion.c  **** {
  28              		.loc 1 46 0
  29              		.cfi_startproc
  30              		@ args = 0, pretend = 0, frame = 0
  31              		@ frame_needed = 0, uses_anonymous_args = 0
  32              		@ link register save eliminated.
  33              	.LVL0:
  47:Src/motion.c  ****     //0~160
  48:Src/motion.c  ****     gain_velo = gain;
  34              		.loc 1 48 0
  35 0000 014B     		ldr	r3, .L2
  36 0002 83ED000A 		vstr.32	s0, [r3]
  49:Src/motion.c  **** }
  37              		.loc 1 49 0
  38 0006 7047     		bx	lr
  39              	.L3:
  40              		.align	2
  41              	.L2:
  42 0008 00000000 		.word	.LANCHOR0
  43              		.cfi_endproc
  44              	.LFE159:
  46              		.section	.text.Motion_enkai,"ax",%progbits
  47              		.align	1
  48              		.global	Motion_enkai
  49              		.syntax unified
  50              		.thumb
  51              		.thumb_func
  52              		.fpu fpv4-sp-d16
  54              	Motion_enkai:
  55              	.LFB160:
  50:Src/motion.c  **** 
  51:Src/motion.c  **** void Motion_enkai(void)
  52:Src/motion.c  **** {
  56              		.loc 1 52 0
  57              		.cfi_startproc
  58              		@ Volatile: function does not return.
  59              		@ args = 0, pretend = 0, frame = 0
  60              		@ frame_needed = 0, uses_anonymous_args = 0
  61 0000 08B5     		push	{r3, lr}
  62              	.LCFI0:
  63              		.cfi_def_cfa_offset 8
  64              		.cfi_offset 3, -8
  65              		.cfi_offset 14, -4
ARM GAS  C:\Users\kotaro\AppData\Local\Temp\ccWGe4CN.s 			page 3


  53:Src/motion.c  ****     Control_ResetVelo();
  66              		.loc 1 53 0
  67 0002 FFF7FEFF 		bl	Control_ResetVelo
  68              	.LVL1:
  54:Src/motion.c  ****     Control_StrCalculator(0, 0, 0, 0, 1, 0);
  69              		.loc 1 54 0
  70 0006 9FED0F8A 		vldr.32	s16, .L7
  71 000a F0EE482A 		vmov.f32	s5, s16
  72 000e B7EE002A 		vmov.f32	s4, #1.0e+0
  73 0012 F0EE481A 		vmov.f32	s3, s16
  74 0016 B0EE481A 		vmov.f32	s2, s16
  75 001a F0EE480A 		vmov.f32	s1, s16
  76 001e B0EE480A 		vmov.f32	s0, s16
  77 0022 FFF7FEFF 		bl	Control_StrCalculator
  78              	.LVL2:
  55:Src/motion.c  ****     Control_AngCalculator(0, 0, 0, 0, 1, 0);
  79              		.loc 1 55 0
  80 0026 F0EE482A 		vmov.f32	s5, s16
  81 002a B7EE002A 		vmov.f32	s4, #1.0e+0
  82 002e F0EE481A 		vmov.f32	s3, s16
  83 0032 B0EE481A 		vmov.f32	s2, s16
  84 0036 F0EE480A 		vmov.f32	s1, s16
  85 003a B0EE480A 		vmov.f32	s0, s16
  86 003e FFF7FEFF 		bl	Control_AngCalculator
  87              	.LVL3:
  88              	.L5:
  89 0042 FEE7     		b	.L5
  90              	.L8:
  91              		.align	2
  92              	.L7:
  93 0044 00000000 		.word	0
  94              		.cfi_endproc
  95              	.LFE160:
  97              		.section	.text.Motion_TestTurn,"ax",%progbits
  98              		.align	1
  99              		.global	Motion_TestTurn
 100              		.syntax unified
 101              		.thumb
 102              		.thumb_func
 103              		.fpu fpv4-sp-d16
 105              	Motion_TestTurn:
 106              	.LFB161:
  56:Src/motion.c  ****     while (1)
  57:Src/motion.c  ****     {
  58:Src/motion.c  ****     }
  59:Src/motion.c  **** }
  60:Src/motion.c  **** 
  61:Src/motion.c  **** void Motion_TestTurn(void)
  62:Src/motion.c  **** {
 107              		.loc 1 62 0
 108              		.cfi_startproc
 109              		@ args = 0, pretend = 0, frame = 0
 110              		@ frame_needed = 0, uses_anonymous_args = 0
 111 0000 08B5     		push	{r3, lr}
 112              	.LCFI1:
 113              		.cfi_def_cfa_offset 8
 114              		.cfi_offset 3, -8
ARM GAS  C:\Users\kotaro\AppData\Local\Temp\ccWGe4CN.s 			page 4


 115              		.cfi_offset 14, -4
 116 0002 2DED028B 		vpush.64	{d8}
 117              	.LCFI2:
 118              		.cfi_def_cfa_offset 16
 119              		.cfi_offset 80, -16
 120              		.cfi_offset 81, -12
  63:Src/motion.c  ****     Control_ResetVelo();
 121              		.loc 1 63 0
 122 0006 FFF7FEFF 		bl	Control_ResetVelo
 123              	.LVL4:
  64:Src/motion.c  ****     Control_StrCalculator(0, 0, 0, 0, 1, 0);
 124              		.loc 1 64 0
 125 000a 9FED1A8A 		vldr.32	s16, .L12
 126 000e F0EE482A 		vmov.f32	s5, s16
 127 0012 B7EE002A 		vmov.f32	s4, #1.0e+0
 128 0016 F0EE481A 		vmov.f32	s3, s16
 129 001a B0EE481A 		vmov.f32	s2, s16
 130 001e F0EE480A 		vmov.f32	s1, s16
 131 0022 B0EE480A 		vmov.f32	s0, s16
 132 0026 FFF7FEFF 		bl	Control_StrCalculator
 133              	.LVL5:
  65:Src/motion.c  ****     Control_AngCalculator(186.0f, 0.0f, VELO_ANG_S, 0.0f, ACCEL_ANG_S, 1);
 134              		.loc 1 65 0
 135 002a F7EE002A 		vmov.f32	s5, #1.0e+0
 136 002e 9FED122A 		vldr.32	s4, .L12+4
 137 0032 F0EE481A 		vmov.f32	s3, s16
 138 0036 9FED111A 		vldr.32	s2, .L12+8
 139 003a F0EE480A 		vmov.f32	s1, s16
 140 003e 9FED100A 		vldr.32	s0, .L12+12
 141 0042 FFF7FEFF 		bl	Control_AngCalculator
 142              	.LVL6:
  66:Src/motion.c  ****     motion_end_flag = FALSE;
 143              		.loc 1 66 0
 144 0046 0F4B     		ldr	r3, .L12+16
 145 0048 0022     		movs	r2, #0
 146 004a 1A70     		strb	r2, [r3]
 147              	.L10:
  67:Src/motion.c  ****     while (motion_end_flag == FALSE)
 148              		.loc 1 67 0 discriminator 1
 149 004c 0D4B     		ldr	r3, .L12+16
 150 004e 1B78     		ldrb	r3, [r3]	@ zero_extendqisi2
 151 0050 002B     		cmp	r3, #0
 152 0052 FBD0     		beq	.L10
  68:Src/motion.c  ****     {
  69:Src/motion.c  ****     }
  70:Src/motion.c  ****     straight.v_now = 0;
 153              		.loc 1 70 0
 154 0054 0023     		movs	r3, #0
 155 0056 0C4A     		ldr	r2, .L12+20
 156 0058 D360     		str	r3, [r2, #12]	@ float
  71:Src/motion.c  ****     angle.v_now = 0;
 157              		.loc 1 71 0
 158 005a 0C4A     		ldr	r2, .L12+24
 159 005c D360     		str	r3, [r2, #12]	@ float
  72:Src/motion.c  ****     error_ang_sum = 0.0f;
 160              		.loc 1 72 0
 161 005e 0C4A     		ldr	r2, .L12+28
ARM GAS  C:\Users\kotaro\AppData\Local\Temp\ccWGe4CN.s 			page 5


 162 0060 1360     		str	r3, [r2]	@ float
  73:Src/motion.c  ****     error_ang_old = 0.0f;
 163              		.loc 1 73 0
 164 0062 0C4A     		ldr	r2, .L12+32
 165 0064 1360     		str	r3, [r2]	@ float
  74:Src/motion.c  ****     //Tim_MotorPwm(0, 0);
  75:Src/motion.c  ****     HAL_Delay(500);
 166              		.loc 1 75 0
 167 0066 4FF4FA70 		mov	r0, #500
 168 006a FFF7FEFF 		bl	HAL_Delay
 169              	.LVL7:
  76:Src/motion.c  **** }
 170              		.loc 1 76 0
 171 006e BDEC028B 		vldm	sp!, {d8}
 172              	.LCFI3:
 173              		.cfi_restore 80
 174              		.cfi_restore 81
 175              		.cfi_def_cfa_offset 8
 176 0072 08BD     		pop	{r3, pc}
 177              	.L13:
 178              		.align	2
 179              	.L12:
 180 0074 00000000 		.word	0
 181 0078 0000FA45 		.word	1174011904
 182 007c 0000C843 		.word	1137180672
 183 0080 00003A43 		.word	1127874560
 184 0084 00000000 		.word	motion_end_flag
 185 0088 00000000 		.word	straight
 186 008c 00000000 		.word	angle
 187 0090 00000000 		.word	error_ang_sum
 188 0094 00000000 		.word	error_ang_old
 189              		.cfi_endproc
 190              	.LFE161:
 192              		.section	.text.Motion_Start,"ax",%progbits
 193              		.align	1
 194              		.global	Motion_Start
 195              		.syntax unified
 196              		.thumb
 197              		.thumb_func
 198              		.fpu fpv4-sp-d16
 200              	Motion_Start:
 201              	.LFB162:
  77:Src/motion.c  **** 
  78:Src/motion.c  **** void Motion_Start(void)
  79:Src/motion.c  **** {
 202              		.loc 1 79 0
 203              		.cfi_startproc
 204              		@ args = 0, pretend = 0, frame = 0
 205              		@ frame_needed = 0, uses_anonymous_args = 0
 206 0000 08B5     		push	{r3, lr}
 207              	.LCFI4:
 208              		.cfi_def_cfa_offset 8
 209              		.cfi_offset 3, -8
 210              		.cfi_offset 14, -4
 211 0002 2DED028B 		vpush.64	{d8}
 212              	.LCFI5:
 213              		.cfi_def_cfa_offset 16
ARM GAS  C:\Users\kotaro\AppData\Local\Temp\ccWGe4CN.s 			page 6


 214              		.cfi_offset 80, -16
 215              		.cfi_offset 81, -12
  80:Src/motion.c  ****     Control_StrCalculator(130.0f, 0.0f, VELO_S, VELO_S, ACCEL_S, 1);
 216              		.loc 1 80 0
 217 0006 9FED171A 		vldr.32	s2, .L17
 218 000a 9FED178A 		vldr.32	s16, .L17+4
 219 000e F7EE002A 		vmov.f32	s5, #1.0e+0
 220 0012 9FED162A 		vldr.32	s4, .L17+8
 221 0016 F0EE411A 		vmov.f32	s3, s2
 222 001a F0EE480A 		vmov.f32	s1, s16
 223 001e 9FED140A 		vldr.32	s0, .L17+12
 224 0022 FFF7FEFF 		bl	Control_StrCalculator
 225              	.LVL8:
  81:Src/motion.c  ****     Control_AngCalculator(0, 0, 0, 0, 1, 0);
 226              		.loc 1 81 0
 227 0026 F0EE482A 		vmov.f32	s5, s16
 228 002a B7EE002A 		vmov.f32	s4, #1.0e+0
 229 002e F0EE481A 		vmov.f32	s3, s16
 230 0032 B0EE481A 		vmov.f32	s2, s16
 231 0036 F0EE480A 		vmov.f32	s1, s16
 232 003a B0EE480A 		vmov.f32	s0, s16
 233 003e FFF7FEFF 		bl	Control_AngCalculator
 234              	.LVL9:
  82:Src/motion.c  ****     motion_end_flag = FALSE;
 235              		.loc 1 82 0
 236 0042 0C4B     		ldr	r3, .L17+16
 237 0044 0022     		movs	r2, #0
 238 0046 1A70     		strb	r2, [r3]
 239              	.L15:
  83:Src/motion.c  ****     while (motion_end_flag == FALSE)
 240              		.loc 1 83 0 discriminator 1
 241 0048 0A4B     		ldr	r3, .L17+16
 242 004a 1B78     		ldrb	r3, [r3]	@ zero_extendqisi2
 243 004c 002B     		cmp	r3, #0
 244 004e FBD0     		beq	.L15
  84:Src/motion.c  ****     {
  85:Src/motion.c  ****     }
  86:Src/motion.c  ****     enc.offset = 0.0f;
 245              		.loc 1 86 0
 246 0050 094B     		ldr	r3, .L17+20
 247 0052 0022     		movs	r2, #0
 248 0054 9A60     		str	r2, [r3, #8]	@ float
  87:Src/motion.c  ****     prefront_flag = TRUE;
 249              		.loc 1 87 0
 250 0056 094B     		ldr	r3, .L17+24
 251 0058 0122     		movs	r2, #1
 252 005a 1A80     		strh	r2, [r3]	@ movhi
  88:Src/motion.c  **** }
 253              		.loc 1 88 0
 254 005c BDEC028B 		vldm	sp!, {d8}
 255              	.LCFI6:
 256              		.cfi_restore 80
 257              		.cfi_restore 81
 258              		.cfi_def_cfa_offset 8
 259 0060 08BD     		pop	{r3, pc}
 260              	.L18:
 261 0062 00BF     		.align	2
ARM GAS  C:\Users\kotaro\AppData\Local\Temp\ccWGe4CN.s 			page 7


 262              	.L17:
 263 0064 00001644 		.word	1142292480
 264 0068 00000000 		.word	0
 265 006c 0080BB45 		.word	1169915904
 266 0070 00000243 		.word	1124204544
 267 0074 00000000 		.word	motion_end_flag
 268 0078 00000000 		.word	enc
 269 007c 00000000 		.word	.LANCHOR1
 270              		.cfi_endproc
 271              	.LFE162:
 273              		.section	.text.Motion_Restart,"ax",%progbits
 274              		.align	1
 275              		.global	Motion_Restart
 276              		.syntax unified
 277              		.thumb
 278              		.thumb_func
 279              		.fpu fpv4-sp-d16
 281              	Motion_Restart:
 282              	.LFB163:
  89:Src/motion.c  **** 
  90:Src/motion.c  **** void Motion_Restart(uint8_t wall_is)
  91:Src/motion.c  **** {
 283              		.loc 1 91 0
 284              		.cfi_startproc
 285              		@ args = 0, pretend = 0, frame = 0
 286              		@ frame_needed = 0, uses_anonymous_args = 0
 287              	.LVL10:
 288 0000 10B5     		push	{r4, lr}
 289              	.LCFI7:
 290              		.cfi_def_cfa_offset 8
 291              		.cfi_offset 4, -8
 292              		.cfi_offset 14, -4
 293 0002 2DED028B 		vpush.64	{d8}
 294              	.LCFI8:
 295              		.cfi_def_cfa_offset 16
 296              		.cfi_offset 80, -16
 297              		.cfi_offset 81, -12
 298 0006 0446     		mov	r4, r0
  92:Src/motion.c  ****     Control_ResetVelo();
 299              		.loc 1 92 0
 300 0008 FFF7FEFF 		bl	Control_ResetVelo
 301              	.LVL11:
  93:Src/motion.c  ****     if (wall_is == FALSE)
 302              		.loc 1 93 0
 303 000c 002C     		cmp	r4, #0
 304 000e 00F0B080 		beq	.L28
  94:Src/motion.c  ****     {
  95:Src/motion.c  ****         Control_StrCalculator(90.0f, 0.0f, VELO_S, VELO_S, ACCEL_S, 1);
  96:Src/motion.c  ****         Control_AngCalculator(0, 0, 0, 0, 1, 0);
  97:Src/motion.c  ****         motion_end_flag = FALSE;
  98:Src/motion.c  ****         while (motion_end_flag == FALSE)
  99:Src/motion.c  ****         {
 100:Src/motion.c  ****         }
 101:Src/motion.c  ****         enc.offset = 0;
 102:Src/motion.c  ****         prefront_flag = TRUE;
 103:Src/motion.c  ****     }
 104:Src/motion.c  ****     else
ARM GAS  C:\Users\kotaro\AppData\Local\Temp\ccWGe4CN.s 			page 8


 105:Src/motion.c  ****     {
 106:Src/motion.c  ****         front_wall_flag = TRUE;
 305              		.loc 1 106 0
 306 0012 6E4B     		ldr	r3, .L29
 307 0014 0122     		movs	r2, #1
 308 0016 1A70     		strb	r2, [r3]
 309              	.L23:
 107:Src/motion.c  ****         while (front_wall_flag == TRUE)
 310              		.loc 1 107 0 discriminator 1
 311 0018 6C4B     		ldr	r3, .L29
 312 001a 1B78     		ldrb	r3, [r3]	@ zero_extendqisi2
 313 001c DBB2     		uxtb	r3, r3
 314 001e 012B     		cmp	r3, #1
 315 0020 FAD0     		beq	.L23
 108:Src/motion.c  ****         {
 109:Src/motion.c  ****         }
 110:Src/motion.c  ****         straight.v_now = 0;
 316              		.loc 1 110 0
 317 0022 9FED6B8A 		vldr.32	s16, .L29+4
 318 0026 6B4B     		ldr	r3, .L29+8
 319 0028 83ED038A 		vstr.32	s16, [r3, #12]
 111:Src/motion.c  ****         angle.v_now = 0;
 320              		.loc 1 111 0
 321 002c 6A4B     		ldr	r3, .L29+12
 322 002e 83ED038A 		vstr.32	s16, [r3, #12]
 112:Src/motion.c  ****         error_ang_sum = 0.0f;
 323              		.loc 1 112 0
 324 0032 6A4B     		ldr	r3, .L29+16
 325 0034 83ED008A 		vstr.32	s16, [r3]
 113:Src/motion.c  ****         error_ang_old = 0.0f;
 326              		.loc 1 113 0
 327 0038 694B     		ldr	r3, .L29+20
 328 003a 83ED008A 		vstr.32	s16, [r3]
 114:Src/motion.c  ****         HAL_Delay(500);
 329              		.loc 1 114 0
 330 003e 4FF4FA70 		mov	r0, #500
 331 0042 FFF7FEFF 		bl	HAL_Delay
 332              	.LVL12:
 115:Src/motion.c  **** 
 116:Src/motion.c  ****         Control_StrCalculator(0, 0, 0, 0, 1, 0);
 333              		.loc 1 116 0
 334 0046 F0EE482A 		vmov.f32	s5, s16
 335 004a B7EE002A 		vmov.f32	s4, #1.0e+0
 336 004e F0EE481A 		vmov.f32	s3, s16
 337 0052 B0EE481A 		vmov.f32	s2, s16
 338 0056 F0EE480A 		vmov.f32	s1, s16
 339 005a B0EE480A 		vmov.f32	s0, s16
 340 005e FFF7FEFF 		bl	Control_StrCalculator
 341              	.LVL13:
 117:Src/motion.c  ****         Control_AngCalculator(186.0f, 0.0f, VELO_ANG_S, 0.0f, ACCEL_ANG_S, 1);
 342              		.loc 1 117 0
 343 0062 F7EE002A 		vmov.f32	s5, #1.0e+0
 344 0066 9FED5F2A 		vldr.32	s4, .L29+24
 345 006a F0EE481A 		vmov.f32	s3, s16
 346 006e 9FED5E1A 		vldr.32	s2, .L29+28
 347 0072 F0EE480A 		vmov.f32	s1, s16
 348 0076 9FED5D0A 		vldr.32	s0, .L29+32
ARM GAS  C:\Users\kotaro\AppData\Local\Temp\ccWGe4CN.s 			page 9


 349 007a FFF7FEFF 		bl	Control_AngCalculator
 350              	.LVL14:
 118:Src/motion.c  ****         motion_end_flag = FALSE;
 351              		.loc 1 118 0
 352 007e 5C4B     		ldr	r3, .L29+36
 353 0080 0022     		movs	r2, #0
 354 0082 1A70     		strb	r2, [r3]
 355              	.L24:
 119:Src/motion.c  ****         while (motion_end_flag == FALSE)
 356              		.loc 1 119 0 discriminator 1
 357 0084 5A4B     		ldr	r3, .L29+36
 358 0086 1B78     		ldrb	r3, [r3]	@ zero_extendqisi2
 359 0088 002B     		cmp	r3, #0
 360 008a FBD0     		beq	.L24
 120:Src/motion.c  ****         {
 121:Src/motion.c  ****         }
 122:Src/motion.c  ****         straight.v_now = 0;
 361              		.loc 1 122 0
 362 008c 9FED508A 		vldr.32	s16, .L29+4
 363 0090 504B     		ldr	r3, .L29+8
 364 0092 83ED038A 		vstr.32	s16, [r3, #12]
 123:Src/motion.c  ****         angle.v_now = 0;
 365              		.loc 1 123 0
 366 0096 504B     		ldr	r3, .L29+12
 367 0098 83ED038A 		vstr.32	s16, [r3, #12]
 124:Src/motion.c  ****         error_ang_sum = 0.0f;
 368              		.loc 1 124 0
 369 009c 4F4B     		ldr	r3, .L29+16
 370 009e 83ED008A 		vstr.32	s16, [r3]
 125:Src/motion.c  ****         error_ang_old = 0.0f;
 371              		.loc 1 125 0
 372 00a2 4F4B     		ldr	r3, .L29+20
 373 00a4 83ED008A 		vstr.32	s16, [r3]
 126:Src/motion.c  ****         HAL_Delay(500);
 374              		.loc 1 126 0
 375 00a8 4FF4FA70 		mov	r0, #500
 376 00ac FFF7FEFF 		bl	HAL_Delay
 377              	.LVL15:
 127:Src/motion.c  **** 
 128:Src/motion.c  ****         Control_StrCalculator(52.0f, 0, 100.0f, 0, 1000.0f, -1);
 378              		.loc 1 128 0
 379 00b0 FFEE002A 		vmov.f32	s5, #-1.0e+0
 380 00b4 9FED4F2A 		vldr.32	s4, .L29+40
 381 00b8 F0EE481A 		vmov.f32	s3, s16
 382 00bc 9FED4E1A 		vldr.32	s2, .L29+44
 383 00c0 F0EE480A 		vmov.f32	s1, s16
 384 00c4 9FED4D0A 		vldr.32	s0, .L29+48
 385 00c8 FFF7FEFF 		bl	Control_StrCalculator
 386              	.LVL16:
 129:Src/motion.c  ****         Control_AngCalculator(0, 0, 0, 0, 1, 0);
 387              		.loc 1 129 0
 388 00cc F0EE482A 		vmov.f32	s5, s16
 389 00d0 B7EE002A 		vmov.f32	s4, #1.0e+0
 390 00d4 F0EE481A 		vmov.f32	s3, s16
 391 00d8 B0EE481A 		vmov.f32	s2, s16
 392 00dc F0EE480A 		vmov.f32	s1, s16
 393 00e0 B0EE480A 		vmov.f32	s0, s16
ARM GAS  C:\Users\kotaro\AppData\Local\Temp\ccWGe4CN.s 			page 10


 394 00e4 FFF7FEFF 		bl	Control_AngCalculator
 395              	.LVL17:
 130:Src/motion.c  ****         motion_end_flag = FALSE;
 396              		.loc 1 130 0
 397 00e8 414B     		ldr	r3, .L29+36
 398 00ea 0022     		movs	r2, #0
 399 00ec 1A70     		strb	r2, [r3]
 400              	.L25:
 131:Src/motion.c  ****         while (motion_end_flag == FALSE)
 401              		.loc 1 131 0 discriminator 1
 402 00ee 404B     		ldr	r3, .L29+36
 403 00f0 1B78     		ldrb	r3, [r3]	@ zero_extendqisi2
 404 00f2 002B     		cmp	r3, #0
 405 00f4 FBD0     		beq	.L25
 132:Src/motion.c  ****         {
 133:Src/motion.c  ****         }
 134:Src/motion.c  ****         straight.v_now = 0;
 406              		.loc 1 134 0
 407 00f6 9FED368A 		vldr.32	s16, .L29+4
 408 00fa 364B     		ldr	r3, .L29+8
 409 00fc 83ED038A 		vstr.32	s16, [r3, #12]
 135:Src/motion.c  ****         angle.v_now = 0;
 410              		.loc 1 135 0
 411 0100 354B     		ldr	r3, .L29+12
 412 0102 83ED038A 		vstr.32	s16, [r3, #12]
 136:Src/motion.c  ****         error_ang_sum = 0.0f;
 413              		.loc 1 136 0
 414 0106 354B     		ldr	r3, .L29+16
 415 0108 83ED008A 		vstr.32	s16, [r3]
 137:Src/motion.c  ****         error_ang_old = 0.0f;
 416              		.loc 1 137 0
 417 010c 344B     		ldr	r3, .L29+20
 418 010e 83ED008A 		vstr.32	s16, [r3]
 138:Src/motion.c  ****         HAL_Delay(500);
 419              		.loc 1 138 0
 420 0112 4FF4FA70 		mov	r0, #500
 421 0116 FFF7FEFF 		bl	HAL_Delay
 422              	.LVL18:
 139:Src/motion.c  **** 
 140:Src/motion.c  ****         Control_StrCalculator(130.0f, 0, VELO_S, VELO_S, ACCEL_S, 1);
 423              		.loc 1 140 0
 424 011a 9FED391A 		vldr.32	s2, .L29+52
 425 011e F7EE002A 		vmov.f32	s5, #1.0e+0
 426 0122 9FED382A 		vldr.32	s4, .L29+56
 427 0126 F0EE411A 		vmov.f32	s3, s2
 428 012a F0EE480A 		vmov.f32	s1, s16
 429 012e 9FED360A 		vldr.32	s0, .L29+60
 430 0132 FFF7FEFF 		bl	Control_StrCalculator
 431              	.LVL19:
 141:Src/motion.c  ****         Control_AngCalculator(0, 0, 0, 0, 1, 0);
 432              		.loc 1 141 0
 433 0136 F0EE482A 		vmov.f32	s5, s16
 434 013a B7EE002A 		vmov.f32	s4, #1.0e+0
 435 013e F0EE481A 		vmov.f32	s3, s16
 436 0142 B0EE481A 		vmov.f32	s2, s16
 437 0146 F0EE480A 		vmov.f32	s1, s16
 438 014a B0EE480A 		vmov.f32	s0, s16
ARM GAS  C:\Users\kotaro\AppData\Local\Temp\ccWGe4CN.s 			page 11


 439 014e FFF7FEFF 		bl	Control_AngCalculator
 440              	.LVL20:
 142:Src/motion.c  ****         motion_end_flag = FALSE;
 441              		.loc 1 142 0
 442 0152 274B     		ldr	r3, .L29+36
 443 0154 0022     		movs	r2, #0
 444 0156 1A70     		strb	r2, [r3]
 445              	.L26:
 143:Src/motion.c  ****         while (motion_end_flag == FALSE)
 446              		.loc 1 143 0 discriminator 1
 447 0158 254B     		ldr	r3, .L29+36
 448 015a 1B78     		ldrb	r3, [r3]	@ zero_extendqisi2
 449 015c 002B     		cmp	r3, #0
 450 015e FBD0     		beq	.L26
 144:Src/motion.c  ****         {
 145:Src/motion.c  ****         }
 146:Src/motion.c  ****         enc.offset = 0;
 451              		.loc 1 146 0
 452 0160 2A4B     		ldr	r3, .L29+64
 453 0162 0022     		movs	r2, #0
 454 0164 9A60     		str	r2, [r3, #8]	@ float
 147:Src/motion.c  ****         prefront_flag = TRUE;
 455              		.loc 1 147 0
 456 0166 2A4B     		ldr	r3, .L29+68
 457 0168 0122     		movs	r2, #1
 458 016a 1A80     		strh	r2, [r3]	@ movhi
 459              	.L19:
 148:Src/motion.c  ****     }
 149:Src/motion.c  **** }
 460              		.loc 1 149 0
 461 016c BDEC028B 		vldm	sp!, {d8}
 462              	.LCFI9:
 463              		.cfi_remember_state
 464              		.cfi_restore 80
 465              		.cfi_restore 81
 466              		.cfi_def_cfa_offset 8
 467 0170 10BD     		pop	{r4, pc}
 468              	.L28:
 469              	.LCFI10:
 470              		.cfi_restore_state
  95:Src/motion.c  ****         Control_AngCalculator(0, 0, 0, 0, 1, 0);
 471              		.loc 1 95 0
 472 0172 9FED231A 		vldr.32	s2, .L29+52
 473 0176 9FED168A 		vldr.32	s16, .L29+4
 474 017a F7EE002A 		vmov.f32	s5, #1.0e+0
 475 017e 9FED212A 		vldr.32	s4, .L29+56
 476 0182 F0EE411A 		vmov.f32	s3, s2
 477 0186 F0EE480A 		vmov.f32	s1, s16
 478 018a 9FED220A 		vldr.32	s0, .L29+72
 479 018e FFF7FEFF 		bl	Control_StrCalculator
 480              	.LVL21:
  96:Src/motion.c  ****         motion_end_flag = FALSE;
 481              		.loc 1 96 0
 482 0192 F0EE482A 		vmov.f32	s5, s16
 483 0196 B7EE002A 		vmov.f32	s4, #1.0e+0
 484 019a F0EE481A 		vmov.f32	s3, s16
 485 019e B0EE481A 		vmov.f32	s2, s16
ARM GAS  C:\Users\kotaro\AppData\Local\Temp\ccWGe4CN.s 			page 12


 486 01a2 F0EE480A 		vmov.f32	s1, s16
 487 01a6 B0EE480A 		vmov.f32	s0, s16
 488 01aa FFF7FEFF 		bl	Control_AngCalculator
 489              	.LVL22:
  97:Src/motion.c  ****         while (motion_end_flag == FALSE)
 490              		.loc 1 97 0
 491 01ae 104B     		ldr	r3, .L29+36
 492 01b0 0022     		movs	r2, #0
 493 01b2 1A70     		strb	r2, [r3]
 494              	.L21:
  98:Src/motion.c  ****         {
 495              		.loc 1 98 0 discriminator 1
 496 01b4 0E4B     		ldr	r3, .L29+36
 497 01b6 1B78     		ldrb	r3, [r3]	@ zero_extendqisi2
 498 01b8 002B     		cmp	r3, #0
 499 01ba FBD0     		beq	.L21
 101:Src/motion.c  ****         prefront_flag = TRUE;
 500              		.loc 1 101 0
 501 01bc 134B     		ldr	r3, .L29+64
 502 01be 0022     		movs	r2, #0
 503 01c0 9A60     		str	r2, [r3, #8]	@ float
 102:Src/motion.c  ****     }
 504              		.loc 1 102 0
 505 01c2 134B     		ldr	r3, .L29+68
 506 01c4 0122     		movs	r2, #1
 507 01c6 1A80     		strh	r2, [r3]	@ movhi
 508 01c8 D0E7     		b	.L19
 509              	.L30:
 510 01ca 00BF     		.align	2
 511              	.L29:
 512 01cc 00000000 		.word	front_wall_flag
 513 01d0 00000000 		.word	0
 514 01d4 00000000 		.word	straight
 515 01d8 00000000 		.word	angle
 516 01dc 00000000 		.word	error_ang_sum
 517 01e0 00000000 		.word	error_ang_old
 518 01e4 0000FA45 		.word	1174011904
 519 01e8 0000C843 		.word	1137180672
 520 01ec 00003A43 		.word	1127874560
 521 01f0 00000000 		.word	motion_end_flag
 522 01f4 00007A44 		.word	1148846080
 523 01f8 0000C842 		.word	1120403456
 524 01fc 00005042 		.word	1112539136
 525 0200 00001644 		.word	1142292480
 526 0204 0080BB45 		.word	1169915904
 527 0208 00000243 		.word	1124204544
 528 020c 00000000 		.word	enc
 529 0210 00000000 		.word	.LANCHOR1
 530 0214 0000B442 		.word	1119092736
 531              		.cfi_endproc
 532              	.LFE163:
 534              		.section	.text.Motion_End,"ax",%progbits
 535              		.align	1
 536              		.global	Motion_End
 537              		.syntax unified
 538              		.thumb
 539              		.thumb_func
ARM GAS  C:\Users\kotaro\AppData\Local\Temp\ccWGe4CN.s 			page 13


 540              		.fpu fpv4-sp-d16
 542              	Motion_End:
 543              	.LFB164:
 150:Src/motion.c  **** 
 151:Src/motion.c  **** void Motion_End(void)
 152:Src/motion.c  **** {
 544              		.loc 1 152 0
 545              		.cfi_startproc
 546              		@ args = 0, pretend = 0, frame = 0
 547              		@ frame_needed = 0, uses_anonymous_args = 0
 548 0000 08B5     		push	{r3, lr}
 549              	.LCFI11:
 550              		.cfi_def_cfa_offset 8
 551              		.cfi_offset 3, -8
 552              		.cfi_offset 14, -4
 553 0002 2DED028B 		vpush.64	{d8}
 554              	.LCFI12:
 555              		.cfi_def_cfa_offset 16
 556              		.cfi_offset 80, -16
 557              		.cfi_offset 81, -12
 153:Src/motion.c  ****     Control_StrCalculator(90.0f - enc.offset, VELO_S, VELO_S, 0.0f, ACCEL_S, 1);
 558              		.loc 1 153 0
 559 0006 1B4B     		ldr	r3, .L34
 560 0008 D3ED027A 		vldr.32	s15, [r3, #8]
 561 000c 9FED1A8A 		vldr.32	s16, .L34+4
 562 0010 DFED1A0A 		vldr.32	s1, .L34+8
 563 0014 F7EE002A 		vmov.f32	s5, #1.0e+0
 564 0018 9FED192A 		vldr.32	s4, .L34+12
 565 001c F0EE481A 		vmov.f32	s3, s16
 566 0020 B0EE601A 		vmov.f32	s2, s1
 567 0024 9FED170A 		vldr.32	s0, .L34+16
 568 0028 30EE670A 		vsub.f32	s0, s0, s15
 569 002c FFF7FEFF 		bl	Control_StrCalculator
 570              	.LVL23:
 154:Src/motion.c  ****     Control_AngCalculator(0, 0, 0, 0, 1, 0);
 571              		.loc 1 154 0
 572 0030 F0EE482A 		vmov.f32	s5, s16
 573 0034 B7EE002A 		vmov.f32	s4, #1.0e+0
 574 0038 F0EE481A 		vmov.f32	s3, s16
 575 003c B0EE481A 		vmov.f32	s2, s16
 576 0040 F0EE480A 		vmov.f32	s1, s16
 577 0044 B0EE480A 		vmov.f32	s0, s16
 578 0048 FFF7FEFF 		bl	Control_AngCalculator
 579              	.LVL24:
 155:Src/motion.c  ****     motion_end_flag = FALSE;
 580              		.loc 1 155 0
 581 004c 0E4B     		ldr	r3, .L34+20
 582 004e 0022     		movs	r2, #0
 583 0050 1A70     		strb	r2, [r3]
 584              	.L32:
 156:Src/motion.c  ****     while (motion_end_flag == FALSE)
 585              		.loc 1 156 0 discriminator 1
 586 0052 0D4B     		ldr	r3, .L34+20
 587 0054 1B78     		ldrb	r3, [r3]	@ zero_extendqisi2
 588 0056 002B     		cmp	r3, #0
 589 0058 FBD0     		beq	.L32
 157:Src/motion.c  ****     {
ARM GAS  C:\Users\kotaro\AppData\Local\Temp\ccWGe4CN.s 			page 14


 158:Src/motion.c  ****     }
 159:Src/motion.c  ****     straight.v_now = 0;
 590              		.loc 1 159 0
 591 005a 0023     		movs	r3, #0
 592 005c 0B4A     		ldr	r2, .L34+24
 593 005e D360     		str	r3, [r2, #12]	@ float
 160:Src/motion.c  ****     angle.v_now = 0;
 594              		.loc 1 160 0
 595 0060 0B4A     		ldr	r2, .L34+28
 596 0062 D360     		str	r3, [r2, #12]	@ float
 161:Src/motion.c  ****     error_ang_sum = 0.0f;
 597              		.loc 1 161 0
 598 0064 0B4A     		ldr	r2, .L34+32
 599 0066 1360     		str	r3, [r2]	@ float
 162:Src/motion.c  ****     error_ang_old = 0.0f;
 600              		.loc 1 162 0
 601 0068 0B4A     		ldr	r2, .L34+36
 602 006a 1360     		str	r3, [r2]	@ float
 163:Src/motion.c  **** }
 603              		.loc 1 163 0
 604 006c BDEC028B 		vldm	sp!, {d8}
 605              	.LCFI13:
 606              		.cfi_restore 80
 607              		.cfi_restore 81
 608              		.cfi_def_cfa_offset 8
 609 0070 08BD     		pop	{r3, pc}
 610              	.L35:
 611 0072 00BF     		.align	2
 612              	.L34:
 613 0074 00000000 		.word	enc
 614 0078 00000000 		.word	0
 615 007c 00001644 		.word	1142292480
 616 0080 0080BB45 		.word	1169915904
 617 0084 0000B442 		.word	1119092736
 618 0088 00000000 		.word	motion_end_flag
 619 008c 00000000 		.word	straight
 620 0090 00000000 		.word	angle
 621 0094 00000000 		.word	error_ang_sum
 622 0098 00000000 		.word	error_ang_old
 623              		.cfi_endproc
 624              	.LFE164:
 626              		.section	.text.Motion_Straight,"ax",%progbits
 627              		.align	1
 628              		.global	Motion_Straight
 629              		.syntax unified
 630              		.thumb
 631              		.thumb_func
 632              		.fpu fpv4-sp-d16
 634              	Motion_Straight:
 635              	.LFB165:
 164:Src/motion.c  **** 
 165:Src/motion.c  **** void Motion_Straight(uint16_t step)
 166:Src/motion.c  **** {
 636              		.loc 1 166 0
 637              		.cfi_startproc
 638              		@ args = 0, pretend = 0, frame = 0
 639              		@ frame_needed = 0, uses_anonymous_args = 0
ARM GAS  C:\Users\kotaro\AppData\Local\Temp\ccWGe4CN.s 			page 15


 640              	.LVL25:
 641 0000 08B5     		push	{r3, lr}
 642              	.LCFI14:
 643              		.cfi_def_cfa_offset 8
 644              		.cfi_offset 3, -8
 645              		.cfi_offset 14, -4
 646 0002 2DED028B 		vpush.64	{d8}
 647              	.LCFI15:
 648              		.cfi_def_cfa_offset 16
 649              		.cfi_offset 80, -16
 650              		.cfi_offset 81, -12
 167:Src/motion.c  ****     if (step < 2)
 651              		.loc 1 167 0
 652 0006 0128     		cmp	r0, #1
 653 0008 73D9     		bls	.L46
 654              	.LBB2:
 168:Src/motion.c  ****     {
 169:Src/motion.c  ****         if (prefront_flag)
 170:Src/motion.c  ****         {
 171:Src/motion.c  ****             Control_EdgeSet(0);
 172:Src/motion.c  ****         }
 173:Src/motion.c  ****         Control_StrCalculator(180.0f - enc.offset, VELO_S, VELO_S, VELO_S, ACCEL_S, 1);
 174:Src/motion.c  ****         Control_AngCalculator(0, 0, 0, 0, 1, 0);
 175:Src/motion.c  ****         motion_end_flag = FALSE;
 176:Src/motion.c  ****         while (motion_end_flag == FALSE)
 177:Src/motion.c  ****         {
 178:Src/motion.c  ****         }
 179:Src/motion.c  ****     }
 180:Src/motion.c  ****     else
 181:Src/motion.c  ****     {
 182:Src/motion.c  ****         step--;
 655              		.loc 1 182 0
 656 000a 0138     		subs	r0, r0, #1
 657              	.LVL26:
 658 000c 80B2     		uxth	r0, r0
 659              	.LVL27:
 183:Src/motion.c  ****         float velo = VELO_S + (float)(240 * step);
 660              		.loc 1 183 0
 661 000e C0EB0012 		rsb	r2, r0, r0, lsl #4
 662 0012 1301     		lsls	r3, r2, #4
 663 0014 07EE903A 		vmov	s15, r3	@ int
 664 0018 B8EEE71A 		vcvt.f32.s32	s2, s15
 665 001c DFED4D7A 		vldr.32	s15, .L48
 666 0020 31EE271A 		vadd.f32	s2, s2, s15
 667              	.LVL28:
 184:Src/motion.c  ****         if (velo > 2400)
 668              		.loc 1 184 0
 669 0024 DFED4C7A 		vldr.32	s15, .L48+4
 670 0028 B4EEE71A 		vcmpe.f32	s2, s15
 671 002c F1EE10FA 		vmrs	APSR_nzcv, FPSCR
 672 0030 01DD     		ble	.L41
 185:Src/motion.c  ****         {
 186:Src/motion.c  ****             velo = 2400;
 673              		.loc 1 186 0
 674 0032 B0EE671A 		vmov.f32	s2, s15
 675              	.LVL29:
 676              	.L41:
ARM GAS  C:\Users\kotaro\AppData\Local\Temp\ccWGe4CN.s 			page 16


 187:Src/motion.c  ****         }
 188:Src/motion.c  ****         Control_StrCalculator(180.0f * (float)step - enc.offset, VELO_S, velo, VELO_S, ACCEL_S, 1);
 677              		.loc 1 188 0
 678 0036 07EE900A 		vmov	s15, r0	@ int
 679 003a F8EE677A 		vcvt.f32.u32	s15, s15
 680 003e 9FED470A 		vldr.32	s0, .L48+8
 681 0042 67EE807A 		vmul.f32	s15, s15, s0
 682 0046 464B     		ldr	r3, .L48+12
 683 0048 93ED020A 		vldr.32	s0, [r3, #8]
 684 004c DFED410A 		vldr.32	s1, .L48
 685 0050 F7EE002A 		vmov.f32	s5, #1.0e+0
 686 0054 9FED432A 		vldr.32	s4, .L48+16
 687 0058 F0EE601A 		vmov.f32	s3, s1
 688 005c 37EEC00A 		vsub.f32	s0, s15, s0
 689 0060 FFF7FEFF 		bl	Control_StrCalculator
 690              	.LVL30:
 189:Src/motion.c  ****         Control_AngCalculator(0, 0, 0, 0, 1, 0);
 691              		.loc 1 189 0
 692 0064 9FED400A 		vldr.32	s0, .L48+20
 693 0068 F0EE402A 		vmov.f32	s5, s0
 694 006c B7EE002A 		vmov.f32	s4, #1.0e+0
 695 0070 F0EE401A 		vmov.f32	s3, s0
 696 0074 B0EE401A 		vmov.f32	s2, s0
 697 0078 F0EE400A 		vmov.f32	s1, s0
 698 007c FFF7FEFF 		bl	Control_AngCalculator
 699              	.LVL31:
 190:Src/motion.c  ****         motion_end_flag = FALSE;
 700              		.loc 1 190 0
 701 0080 3A4B     		ldr	r3, .L48+24
 702 0082 0022     		movs	r2, #0
 703 0084 1A70     		strb	r2, [r3]
 704              	.L42:
 191:Src/motion.c  ****         while (motion_end_flag == FALSE)
 705              		.loc 1 191 0 discriminator 1
 706 0086 394B     		ldr	r3, .L48+24
 707 0088 1B78     		ldrb	r3, [r3]	@ zero_extendqisi2
 708 008a 002B     		cmp	r3, #0
 709 008c FBD0     		beq	.L42
 192:Src/motion.c  ****         {
 193:Src/motion.c  ****         }
 194:Src/motion.c  ****         Control_EdgeSet(0);
 710              		.loc 1 194 0
 711 008e 9FED368A 		vldr.32	s16, .L48+20
 712 0092 B0EE480A 		vmov.f32	s0, s16
 713 0096 FFF7FEFF 		bl	Control_EdgeSet
 714              	.LVL32:
 195:Src/motion.c  ****         Control_StrCalculator(180.0f, VELO_S, VELO_S, VELO_S, ACCEL_S, 1);
 715              		.loc 1 195 0
 716 009a DFED2E0A 		vldr.32	s1, .L48
 717 009e F7EE002A 		vmov.f32	s5, #1.0e+0
 718 00a2 9FED302A 		vldr.32	s4, .L48+16
 719 00a6 F0EE601A 		vmov.f32	s3, s1
 720 00aa B0EE601A 		vmov.f32	s2, s1
 721 00ae 9FED2B0A 		vldr.32	s0, .L48+8
 722 00b2 FFF7FEFF 		bl	Control_StrCalculator
 723              	.LVL33:
 196:Src/motion.c  ****         Control_AngCalculator(0, 0, 0, 0, 1, 0);
ARM GAS  C:\Users\kotaro\AppData\Local\Temp\ccWGe4CN.s 			page 17


 724              		.loc 1 196 0
 725 00b6 F0EE482A 		vmov.f32	s5, s16
 726 00ba B7EE002A 		vmov.f32	s4, #1.0e+0
 727 00be F0EE481A 		vmov.f32	s3, s16
 728 00c2 B0EE481A 		vmov.f32	s2, s16
 729 00c6 F0EE480A 		vmov.f32	s1, s16
 730 00ca B0EE480A 		vmov.f32	s0, s16
 731 00ce FFF7FEFF 		bl	Control_AngCalculator
 732              	.LVL34:
 197:Src/motion.c  ****         motion_end_flag = FALSE;
 733              		.loc 1 197 0
 734 00d2 264B     		ldr	r3, .L48+24
 735 00d4 0022     		movs	r2, #0
 736 00d6 1A70     		strb	r2, [r3]
 737              	.L43:
 198:Src/motion.c  ****         while (motion_end_flag == FALSE)
 738              		.loc 1 198 0 discriminator 1
 739 00d8 244B     		ldr	r3, .L48+24
 740 00da 1B78     		ldrb	r3, [r3]	@ zero_extendqisi2
 741 00dc 002B     		cmp	r3, #0
 742 00de FBD0     		beq	.L43
 743              	.L40:
 744              	.LBE2:
 199:Src/motion.c  ****         {
 200:Src/motion.c  ****         }
 201:Src/motion.c  ****     }
 202:Src/motion.c  ****     enc.offset = 0;
 745              		.loc 1 202 0
 746 00e0 1F4B     		ldr	r3, .L48+12
 747 00e2 0022     		movs	r2, #0
 748 00e4 9A60     		str	r2, [r3, #8]	@ float
 203:Src/motion.c  ****     prefront_flag = TRUE;
 749              		.loc 1 203 0
 750 00e6 224B     		ldr	r3, .L48+28
 751 00e8 0122     		movs	r2, #1
 752 00ea 1A80     		strh	r2, [r3]	@ movhi
 204:Src/motion.c  **** }
 753              		.loc 1 204 0
 754 00ec BDEC028B 		vldm	sp!, {d8}
 755              	.LCFI16:
 756              		.cfi_remember_state
 757              		.cfi_restore 80
 758              		.cfi_restore 81
 759              		.cfi_def_cfa_offset 8
 760 00f0 08BD     		pop	{r3, pc}
 761              	.LVL35:
 762              	.L46:
 763              	.LCFI17:
 764              		.cfi_restore_state
 169:Src/motion.c  ****         {
 765              		.loc 1 169 0
 766 00f2 1F4B     		ldr	r3, .L48+28
 767 00f4 1B88     		ldrh	r3, [r3]
 768 00f6 43BB     		cbnz	r3, .L47
 769              	.LVL36:
 770              	.L38:
 173:Src/motion.c  ****         Control_AngCalculator(0, 0, 0, 0, 1, 0);
ARM GAS  C:\Users\kotaro\AppData\Local\Temp\ccWGe4CN.s 			page 18


 771              		.loc 1 173 0
 772 00f8 194B     		ldr	r3, .L48+12
 773 00fa D3ED027A 		vldr.32	s15, [r3, #8]
 774 00fe DFED150A 		vldr.32	s1, .L48
 775 0102 F7EE002A 		vmov.f32	s5, #1.0e+0
 776 0106 9FED172A 		vldr.32	s4, .L48+16
 777 010a F0EE601A 		vmov.f32	s3, s1
 778 010e B0EE601A 		vmov.f32	s2, s1
 779 0112 9FED120A 		vldr.32	s0, .L48+8
 780 0116 30EE670A 		vsub.f32	s0, s0, s15
 781 011a FFF7FEFF 		bl	Control_StrCalculator
 782              	.LVL37:
 174:Src/motion.c  ****         motion_end_flag = FALSE;
 783              		.loc 1 174 0
 784 011e 9FED120A 		vldr.32	s0, .L48+20
 785 0122 F0EE402A 		vmov.f32	s5, s0
 786 0126 B7EE002A 		vmov.f32	s4, #1.0e+0
 787 012a F0EE401A 		vmov.f32	s3, s0
 788 012e B0EE401A 		vmov.f32	s2, s0
 789 0132 F0EE400A 		vmov.f32	s1, s0
 790 0136 FFF7FEFF 		bl	Control_AngCalculator
 791              	.LVL38:
 175:Src/motion.c  ****         while (motion_end_flag == FALSE)
 792              		.loc 1 175 0
 793 013a 0C4B     		ldr	r3, .L48+24
 794 013c 0022     		movs	r2, #0
 795 013e 1A70     		strb	r2, [r3]
 796              	.L39:
 176:Src/motion.c  ****         {
 797              		.loc 1 176 0 discriminator 1
 798 0140 0A4B     		ldr	r3, .L48+24
 799 0142 1B78     		ldrb	r3, [r3]	@ zero_extendqisi2
 800 0144 002B     		cmp	r3, #0
 801 0146 FBD0     		beq	.L39
 802 0148 CAE7     		b	.L40
 803              	.LVL39:
 804              	.L47:
 171:Src/motion.c  ****         }
 805              		.loc 1 171 0
 806 014a 9FED070A 		vldr.32	s0, .L48+20
 807 014e FFF7FEFF 		bl	Control_EdgeSet
 808              	.LVL40:
 809 0152 D1E7     		b	.L38
 810              	.L49:
 811              		.align	2
 812              	.L48:
 813 0154 00001644 		.word	1142292480
 814 0158 00001645 		.word	1159069696
 815 015c 00003443 		.word	1127481344
 816 0160 00000000 		.word	enc
 817 0164 0080BB45 		.word	1169915904
 818 0168 00000000 		.word	0
 819 016c 00000000 		.word	motion_end_flag
 820 0170 00000000 		.word	.LANCHOR1
 821              		.cfi_endproc
 822              	.LFE165:
 824              		.section	.text.Motion_SpinTurn,"ax",%progbits
ARM GAS  C:\Users\kotaro\AppData\Local\Temp\ccWGe4CN.s 			page 19


 825              		.align	1
 826              		.global	Motion_SpinTurn
 827              		.syntax unified
 828              		.thumb
 829              		.thumb_func
 830              		.fpu fpv4-sp-d16
 832              	Motion_SpinTurn:
 833              	.LFB166:
 205:Src/motion.c  **** 
 206:Src/motion.c  **** void Motion_SpinTurn(void)
 207:Src/motion.c  **** {
 834              		.loc 1 207 0
 835              		.cfi_startproc
 836              		@ args = 0, pretend = 0, frame = 0
 837              		@ frame_needed = 0, uses_anonymous_args = 0
 838 0000 08B5     		push	{r3, lr}
 839              	.LCFI18:
 840              		.cfi_def_cfa_offset 8
 841              		.cfi_offset 3, -8
 842              		.cfi_offset 14, -4
 843 0002 2DED028B 		vpush.64	{d8}
 844              	.LCFI19:
 845              		.cfi_def_cfa_offset 16
 846              		.cfi_offset 80, -16
 847              		.cfi_offset 81, -12
 208:Src/motion.c  ****     Control_StrCalculator(90.0f - enc.offset, VELO_S, VELO_S, 0, ACCEL_S, 1);
 848              		.loc 1 208 0
 849 0006 4E4B     		ldr	r3, .L55
 850 0008 D3ED027A 		vldr.32	s15, [r3, #8]
 851 000c 9FED4D8A 		vldr.32	s16, .L55+4
 852 0010 DFED4D0A 		vldr.32	s1, .L55+8
 853 0014 F7EE002A 		vmov.f32	s5, #1.0e+0
 854 0018 9FED4C2A 		vldr.32	s4, .L55+12
 855 001c F0EE481A 		vmov.f32	s3, s16
 856 0020 B0EE601A 		vmov.f32	s2, s1
 857 0024 9FED4A0A 		vldr.32	s0, .L55+16
 858 0028 30EE670A 		vsub.f32	s0, s0, s15
 859 002c FFF7FEFF 		bl	Control_StrCalculator
 860              	.LVL41:
 209:Src/motion.c  ****     Control_AngCalculator(0, 0, 0, 0, 1, 0);
 861              		.loc 1 209 0
 862 0030 F0EE482A 		vmov.f32	s5, s16
 863 0034 B7EE002A 		vmov.f32	s4, #1.0e+0
 864 0038 F0EE481A 		vmov.f32	s3, s16
 865 003c B0EE481A 		vmov.f32	s2, s16
 866 0040 F0EE480A 		vmov.f32	s1, s16
 867 0044 B0EE480A 		vmov.f32	s0, s16
 868 0048 FFF7FEFF 		bl	Control_AngCalculator
 869              	.LVL42:
 210:Src/motion.c  ****     motion_end_flag = FALSE;
 870              		.loc 1 210 0
 871 004c 414B     		ldr	r3, .L55+20
 872 004e 0022     		movs	r2, #0
 873 0050 1A70     		strb	r2, [r3]
 874              	.L51:
 211:Src/motion.c  ****     while (motion_end_flag == FALSE)
 875              		.loc 1 211 0 discriminator 1
ARM GAS  C:\Users\kotaro\AppData\Local\Temp\ccWGe4CN.s 			page 20


 876 0052 404B     		ldr	r3, .L55+20
 877 0054 1B78     		ldrb	r3, [r3]	@ zero_extendqisi2
 878 0056 002B     		cmp	r3, #0
 879 0058 FBD0     		beq	.L51
 212:Src/motion.c  ****     {
 213:Src/motion.c  ****     }
 214:Src/motion.c  ****     straight.v_now = 0.0f;
 880              		.loc 1 214 0
 881 005a 9FED3A8A 		vldr.32	s16, .L55+4
 882 005e 3E4B     		ldr	r3, .L55+24
 883 0060 83ED038A 		vstr.32	s16, [r3, #12]
 215:Src/motion.c  ****     angle.v_now = 0.0f;
 884              		.loc 1 215 0
 885 0064 3D4B     		ldr	r3, .L55+28
 886 0066 83ED038A 		vstr.32	s16, [r3, #12]
 216:Src/motion.c  ****     error_ang_sum = 0.0f;
 887              		.loc 1 216 0
 888 006a 3D4B     		ldr	r3, .L55+32
 889 006c 83ED008A 		vstr.32	s16, [r3]
 217:Src/motion.c  ****     error_ang_old = 0.0f;
 890              		.loc 1 217 0
 891 0070 3C4B     		ldr	r3, .L55+36
 892 0072 83ED008A 		vstr.32	s16, [r3]
 218:Src/motion.c  ****     HAL_Delay(500);
 893              		.loc 1 218 0
 894 0076 4FF4FA70 		mov	r0, #500
 895 007a FFF7FEFF 		bl	HAL_Delay
 896              	.LVL43:
 219:Src/motion.c  ****     Control_StrCalculator(0, 0, 0, 0, 1, 0);
 897              		.loc 1 219 0
 898 007e F0EE482A 		vmov.f32	s5, s16
 899 0082 B7EE002A 		vmov.f32	s4, #1.0e+0
 900 0086 F0EE481A 		vmov.f32	s3, s16
 901 008a B0EE481A 		vmov.f32	s2, s16
 902 008e F0EE480A 		vmov.f32	s1, s16
 903 0092 B0EE480A 		vmov.f32	s0, s16
 904 0096 FFF7FEFF 		bl	Control_StrCalculator
 905              	.LVL44:
 220:Src/motion.c  ****     Control_AngCalculator(186.0f, 0.0f, VELO_ANG_S, 0.0f, ACCEL_ANG_S, 1);
 906              		.loc 1 220 0
 907 009a F7EE002A 		vmov.f32	s5, #1.0e+0
 908 009e 9FED322A 		vldr.32	s4, .L55+40
 909 00a2 F0EE481A 		vmov.f32	s3, s16
 910 00a6 9FED311A 		vldr.32	s2, .L55+44
 911 00aa F0EE480A 		vmov.f32	s1, s16
 912 00ae 9FED300A 		vldr.32	s0, .L55+48
 913 00b2 FFF7FEFF 		bl	Control_AngCalculator
 914              	.LVL45:
 221:Src/motion.c  ****     motion_end_flag = FALSE;
 915              		.loc 1 221 0
 916 00b6 274B     		ldr	r3, .L55+20
 917 00b8 0022     		movs	r2, #0
 918 00ba 1A70     		strb	r2, [r3]
 919              	.L52:
 222:Src/motion.c  ****     while (motion_end_flag == FALSE)
 920              		.loc 1 222 0 discriminator 1
 921 00bc 254B     		ldr	r3, .L55+20
ARM GAS  C:\Users\kotaro\AppData\Local\Temp\ccWGe4CN.s 			page 21


 922 00be 1B78     		ldrb	r3, [r3]	@ zero_extendqisi2
 923 00c0 002B     		cmp	r3, #0
 924 00c2 FBD0     		beq	.L52
 223:Src/motion.c  ****     {
 224:Src/motion.c  ****     }
 225:Src/motion.c  ****     straight.v_now = 0.0f;
 925              		.loc 1 225 0
 926 00c4 9FED1F8A 		vldr.32	s16, .L55+4
 927 00c8 234B     		ldr	r3, .L55+24
 928 00ca 83ED038A 		vstr.32	s16, [r3, #12]
 226:Src/motion.c  ****     angle.v_now = 0.0f;
 929              		.loc 1 226 0
 930 00ce 234B     		ldr	r3, .L55+28
 931 00d0 83ED038A 		vstr.32	s16, [r3, #12]
 227:Src/motion.c  ****     error_ang_sum = 0.0f;
 932              		.loc 1 227 0
 933 00d4 224B     		ldr	r3, .L55+32
 934 00d6 83ED008A 		vstr.32	s16, [r3]
 228:Src/motion.c  ****     error_ang_old = 0.0f;
 935              		.loc 1 228 0
 936 00da 224B     		ldr	r3, .L55+36
 937 00dc 83ED008A 		vstr.32	s16, [r3]
 229:Src/motion.c  ****     HAL_Delay(800);
 938              		.loc 1 229 0
 939 00e0 4FF44870 		mov	r0, #800
 940 00e4 FFF7FEFF 		bl	HAL_Delay
 941              	.LVL46:
 230:Src/motion.c  ****     Control_StrCalculator(90.0f, 0, VELO_S, VELO_S, ACCEL_S, 1);
 942              		.loc 1 230 0
 943 00e8 9FED171A 		vldr.32	s2, .L55+8
 944 00ec F7EE002A 		vmov.f32	s5, #1.0e+0
 945 00f0 9FED162A 		vldr.32	s4, .L55+12
 946 00f4 F0EE411A 		vmov.f32	s3, s2
 947 00f8 F0EE480A 		vmov.f32	s1, s16
 948 00fc 9FED140A 		vldr.32	s0, .L55+16
 949 0100 FFF7FEFF 		bl	Control_StrCalculator
 950              	.LVL47:
 231:Src/motion.c  ****     Control_AngCalculator(0, 0, 0, 0, 1, 0);
 951              		.loc 1 231 0
 952 0104 F0EE482A 		vmov.f32	s5, s16
 953 0108 B7EE002A 		vmov.f32	s4, #1.0e+0
 954 010c F0EE481A 		vmov.f32	s3, s16
 955 0110 B0EE481A 		vmov.f32	s2, s16
 956 0114 F0EE480A 		vmov.f32	s1, s16
 957 0118 B0EE480A 		vmov.f32	s0, s16
 958 011c FFF7FEFF 		bl	Control_AngCalculator
 959              	.LVL48:
 232:Src/motion.c  ****     motion_end_flag = FALSE;
 960              		.loc 1 232 0
 961 0120 0C4B     		ldr	r3, .L55+20
 962 0122 0022     		movs	r2, #0
 963 0124 1A70     		strb	r2, [r3]
 964              	.L53:
 233:Src/motion.c  ****     while (motion_end_flag == FALSE)
 965              		.loc 1 233 0 discriminator 1
 966 0126 0B4B     		ldr	r3, .L55+20
 967 0128 1B78     		ldrb	r3, [r3]	@ zero_extendqisi2
ARM GAS  C:\Users\kotaro\AppData\Local\Temp\ccWGe4CN.s 			page 22


 968 012a 002B     		cmp	r3, #0
 969 012c FBD0     		beq	.L53
 234:Src/motion.c  ****     {
 235:Src/motion.c  ****     }
 236:Src/motion.c  ****     enc.offset = 0;
 970              		.loc 1 236 0
 971 012e 044B     		ldr	r3, .L55
 972 0130 0022     		movs	r2, #0
 973 0132 9A60     		str	r2, [r3, #8]	@ float
 237:Src/motion.c  ****     prefront_flag = TRUE;
 974              		.loc 1 237 0
 975 0134 0F4B     		ldr	r3, .L55+52
 976 0136 0122     		movs	r2, #1
 977 0138 1A80     		strh	r2, [r3]	@ movhi
 238:Src/motion.c  **** }
 978              		.loc 1 238 0
 979 013a BDEC028B 		vldm	sp!, {d8}
 980              	.LCFI20:
 981              		.cfi_restore 80
 982              		.cfi_restore 81
 983              		.cfi_def_cfa_offset 8
 984 013e 08BD     		pop	{r3, pc}
 985              	.L56:
 986              		.align	2
 987              	.L55:
 988 0140 00000000 		.word	enc
 989 0144 00000000 		.word	0
 990 0148 00001644 		.word	1142292480
 991 014c 0080BB45 		.word	1169915904
 992 0150 0000B442 		.word	1119092736
 993 0154 00000000 		.word	motion_end_flag
 994 0158 00000000 		.word	straight
 995 015c 00000000 		.word	angle
 996 0160 00000000 		.word	error_ang_sum
 997 0164 00000000 		.word	error_ang_old
 998 0168 0000FA45 		.word	1174011904
 999 016c 0000C843 		.word	1137180672
 1000 0170 00003A43 		.word	1127874560
 1001 0174 00000000 		.word	.LANCHOR1
 1002              		.cfi_endproc
 1003              	.LFE166:
 1005              		.section	.text.Motion_WallSpinTurn,"ax",%progbits
 1006              		.align	1
 1007              		.global	Motion_WallSpinTurn
 1008              		.syntax unified
 1009              		.thumb
 1010              		.thumb_func
 1011              		.fpu fpv4-sp-d16
 1013              	Motion_WallSpinTurn:
 1014              	.LFB167:
 239:Src/motion.c  **** 
 240:Src/motion.c  **** void Motion_WallSpinTurn(void)
 241:Src/motion.c  **** {
 1015              		.loc 1 241 0
 1016              		.cfi_startproc
 1017              		@ args = 0, pretend = 0, frame = 0
 1018              		@ frame_needed = 0, uses_anonymous_args = 0
ARM GAS  C:\Users\kotaro\AppData\Local\Temp\ccWGe4CN.s 			page 23


 1019 0000 08B5     		push	{r3, lr}
 1020              	.LCFI21:
 1021              		.cfi_def_cfa_offset 8
 1022              		.cfi_offset 3, -8
 1023              		.cfi_offset 14, -4
 1024 0002 2DED028B 		vpush.64	{d8}
 1025              	.LCFI22:
 1026              		.cfi_def_cfa_offset 16
 1027              		.cfi_offset 80, -16
 1028              		.cfi_offset 81, -12
 242:Src/motion.c  ****     Control_StrCalculator(90.0f - enc.offset, VELO_S, VELO_S, 0, ACCEL_S, 1);
 1029              		.loc 1 242 0
 1030 0006 734B     		ldr	r3, .L64
 1031 0008 D3ED027A 		vldr.32	s15, [r3, #8]
 1032 000c 9FED728A 		vldr.32	s16, .L64+4
 1033 0010 DFED720A 		vldr.32	s1, .L64+8
 1034 0014 F7EE002A 		vmov.f32	s5, #1.0e+0
 1035 0018 9FED712A 		vldr.32	s4, .L64+12
 1036 001c F0EE481A 		vmov.f32	s3, s16
 1037 0020 B0EE601A 		vmov.f32	s2, s1
 1038 0024 9FED6F0A 		vldr.32	s0, .L64+16
 1039 0028 30EE670A 		vsub.f32	s0, s0, s15
 1040 002c FFF7FEFF 		bl	Control_StrCalculator
 1041              	.LVL49:
 243:Src/motion.c  ****     Control_AngCalculator(0, 0, 0, 0, 1, 0);
 1042              		.loc 1 243 0
 1043 0030 F0EE482A 		vmov.f32	s5, s16
 1044 0034 B7EE002A 		vmov.f32	s4, #1.0e+0
 1045 0038 F0EE481A 		vmov.f32	s3, s16
 1046 003c B0EE481A 		vmov.f32	s2, s16
 1047 0040 F0EE480A 		vmov.f32	s1, s16
 1048 0044 B0EE480A 		vmov.f32	s0, s16
 1049 0048 FFF7FEFF 		bl	Control_AngCalculator
 1050              	.LVL50:
 244:Src/motion.c  ****     motion_end_flag = FALSE;
 1051              		.loc 1 244 0
 1052 004c 664B     		ldr	r3, .L64+20
 1053 004e 0022     		movs	r2, #0
 1054 0050 1A70     		strb	r2, [r3]
 1055              	.L58:
 245:Src/motion.c  ****     while (motion_end_flag == FALSE)
 1056              		.loc 1 245 0 discriminator 1
 1057 0052 654B     		ldr	r3, .L64+20
 1058 0054 1B78     		ldrb	r3, [r3]	@ zero_extendqisi2
 1059 0056 002B     		cmp	r3, #0
 1060 0058 FBD0     		beq	.L58
 246:Src/motion.c  ****     {
 247:Src/motion.c  ****     }
 248:Src/motion.c  **** 
 249:Src/motion.c  ****     straight.v_now = 0;
 1061              		.loc 1 249 0
 1062 005a 0023     		movs	r3, #0
 1063 005c 634A     		ldr	r2, .L64+24
 1064 005e D360     		str	r3, [r2, #12]	@ float
 250:Src/motion.c  ****     angle.v_now = 0;
 1065              		.loc 1 250 0
 1066 0060 634A     		ldr	r2, .L64+28
ARM GAS  C:\Users\kotaro\AppData\Local\Temp\ccWGe4CN.s 			page 24


 1067 0062 D360     		str	r3, [r2, #12]	@ float
 251:Src/motion.c  ****     error_ang_sum = 0.0f;
 1068              		.loc 1 251 0
 1069 0064 634A     		ldr	r2, .L64+32
 1070 0066 1360     		str	r3, [r2]	@ float
 252:Src/motion.c  ****     error_ang_old = 0.0f;
 1071              		.loc 1 252 0
 1072 0068 634A     		ldr	r2, .L64+36
 1073 006a 1360     		str	r3, [r2]	@ float
 253:Src/motion.c  ****     HAL_Delay(500);
 1074              		.loc 1 253 0
 1075 006c 4FF4FA70 		mov	r0, #500
 1076 0070 FFF7FEFF 		bl	HAL_Delay
 1077              	.LVL51:
 254:Src/motion.c  **** 
 255:Src/motion.c  ****     front_wall_flag = TRUE;
 1078              		.loc 1 255 0
 1079 0074 614B     		ldr	r3, .L64+40
 1080 0076 0122     		movs	r2, #1
 1081 0078 1A70     		strb	r2, [r3]
 1082              	.L59:
 256:Src/motion.c  ****     while (front_wall_flag == TRUE)
 1083              		.loc 1 256 0 discriminator 1
 1084 007a 604B     		ldr	r3, .L64+40
 1085 007c 1B78     		ldrb	r3, [r3]	@ zero_extendqisi2
 1086 007e DBB2     		uxtb	r3, r3
 1087 0080 012B     		cmp	r3, #1
 1088 0082 FAD0     		beq	.L59
 257:Src/motion.c  ****     {
 258:Src/motion.c  ****     }
 259:Src/motion.c  **** 
 260:Src/motion.c  ****     straight.v_now = 0;
 1089              		.loc 1 260 0
 1090 0084 9FED548A 		vldr.32	s16, .L64+4
 1091 0088 584B     		ldr	r3, .L64+24
 1092 008a 83ED038A 		vstr.32	s16, [r3, #12]
 261:Src/motion.c  ****     angle.v_now = 0;
 1093              		.loc 1 261 0
 1094 008e 584B     		ldr	r3, .L64+28
 1095 0090 83ED038A 		vstr.32	s16, [r3, #12]
 262:Src/motion.c  ****     error_ang_sum = 0.0f;
 1096              		.loc 1 262 0
 1097 0094 574B     		ldr	r3, .L64+32
 1098 0096 83ED008A 		vstr.32	s16, [r3]
 263:Src/motion.c  ****     error_ang_old = 0.0f;
 1099              		.loc 1 263 0
 1100 009a 574B     		ldr	r3, .L64+36
 1101 009c 83ED008A 		vstr.32	s16, [r3]
 264:Src/motion.c  ****     HAL_Delay(500);
 1102              		.loc 1 264 0
 1103 00a0 4FF4FA70 		mov	r0, #500
 1104 00a4 FFF7FEFF 		bl	HAL_Delay
 1105              	.LVL52:
 265:Src/motion.c  **** 
 266:Src/motion.c  ****     Control_StrCalculator(0, 0, 0, 0, 1, 0);
 1106              		.loc 1 266 0
 1107 00a8 F0EE482A 		vmov.f32	s5, s16
ARM GAS  C:\Users\kotaro\AppData\Local\Temp\ccWGe4CN.s 			page 25


 1108 00ac B7EE002A 		vmov.f32	s4, #1.0e+0
 1109 00b0 F0EE481A 		vmov.f32	s3, s16
 1110 00b4 B0EE481A 		vmov.f32	s2, s16
 1111 00b8 F0EE480A 		vmov.f32	s1, s16
 1112 00bc B0EE480A 		vmov.f32	s0, s16
 1113 00c0 FFF7FEFF 		bl	Control_StrCalculator
 1114              	.LVL53:
 267:Src/motion.c  ****     Control_AngCalculator(186.0f, 0.0f, VELO_ANG_S, 0.0f, ACCEL_ANG_S, 1);
 1115              		.loc 1 267 0
 1116 00c4 F7EE002A 		vmov.f32	s5, #1.0e+0
 1117 00c8 9FED4D2A 		vldr.32	s4, .L64+44
 1118 00cc F0EE481A 		vmov.f32	s3, s16
 1119 00d0 9FED4C1A 		vldr.32	s2, .L64+48
 1120 00d4 F0EE480A 		vmov.f32	s1, s16
 1121 00d8 9FED4B0A 		vldr.32	s0, .L64+52
 1122 00dc FFF7FEFF 		bl	Control_AngCalculator
 1123              	.LVL54:
 268:Src/motion.c  ****     motion_end_flag = FALSE;
 1124              		.loc 1 268 0
 1125 00e0 414B     		ldr	r3, .L64+20
 1126 00e2 0022     		movs	r2, #0
 1127 00e4 1A70     		strb	r2, [r3]
 1128              	.L60:
 269:Src/motion.c  ****     while (motion_end_flag == FALSE)
 1129              		.loc 1 269 0 discriminator 1
 1130 00e6 404B     		ldr	r3, .L64+20
 1131 00e8 1B78     		ldrb	r3, [r3]	@ zero_extendqisi2
 1132 00ea 002B     		cmp	r3, #0
 1133 00ec FBD0     		beq	.L60
 270:Src/motion.c  ****     {
 271:Src/motion.c  ****     }
 272:Src/motion.c  ****     straight.v_now = 0;
 1134              		.loc 1 272 0
 1135 00ee 9FED3A8A 		vldr.32	s16, .L64+4
 1136 00f2 3E4B     		ldr	r3, .L64+24
 1137 00f4 83ED038A 		vstr.32	s16, [r3, #12]
 273:Src/motion.c  ****     angle.v_now = 0;
 1138              		.loc 1 273 0
 1139 00f8 3D4B     		ldr	r3, .L64+28
 1140 00fa 83ED038A 		vstr.32	s16, [r3, #12]
 274:Src/motion.c  ****     error_ang_sum = 0.0f;
 1141              		.loc 1 274 0
 1142 00fe 3D4B     		ldr	r3, .L64+32
 1143 0100 83ED008A 		vstr.32	s16, [r3]
 275:Src/motion.c  ****     error_ang_old = 0.0f;
 1144              		.loc 1 275 0
 1145 0104 3C4B     		ldr	r3, .L64+36
 1146 0106 83ED008A 		vstr.32	s16, [r3]
 276:Src/motion.c  ****     HAL_Delay(800);
 1147              		.loc 1 276 0
 1148 010a 4FF44870 		mov	r0, #800
 1149 010e FFF7FEFF 		bl	HAL_Delay
 1150              	.LVL55:
 277:Src/motion.c  **** 
 278:Src/motion.c  ****     Control_StrCalculator(52.0f, 0, 100, 0, 1000, -1);
 1151              		.loc 1 278 0
 1152 0112 FFEE002A 		vmov.f32	s5, #-1.0e+0
ARM GAS  C:\Users\kotaro\AppData\Local\Temp\ccWGe4CN.s 			page 26


 1153 0116 9FED3D2A 		vldr.32	s4, .L64+56
 1154 011a F0EE481A 		vmov.f32	s3, s16
 1155 011e 9FED3C1A 		vldr.32	s2, .L64+60
 1156 0122 F0EE480A 		vmov.f32	s1, s16
 1157 0126 9FED3B0A 		vldr.32	s0, .L64+64
 1158 012a FFF7FEFF 		bl	Control_StrCalculator
 1159              	.LVL56:
 279:Src/motion.c  ****     Control_AngCalculator(0, 0, 0, 0, 1, 0);
 1160              		.loc 1 279 0
 1161 012e F0EE482A 		vmov.f32	s5, s16
 1162 0132 B7EE002A 		vmov.f32	s4, #1.0e+0
 1163 0136 F0EE481A 		vmov.f32	s3, s16
 1164 013a B0EE481A 		vmov.f32	s2, s16
 1165 013e F0EE480A 		vmov.f32	s1, s16
 1166 0142 B0EE480A 		vmov.f32	s0, s16
 1167 0146 FFF7FEFF 		bl	Control_AngCalculator
 1168              	.LVL57:
 280:Src/motion.c  ****     motion_end_flag = FALSE;
 1169              		.loc 1 280 0
 1170 014a 274B     		ldr	r3, .L64+20
 1171 014c 0022     		movs	r2, #0
 1172 014e 1A70     		strb	r2, [r3]
 1173              	.L61:
 281:Src/motion.c  ****     while (motion_end_flag == FALSE)
 1174              		.loc 1 281 0 discriminator 1
 1175 0150 254B     		ldr	r3, .L64+20
 1176 0152 1B78     		ldrb	r3, [r3]	@ zero_extendqisi2
 1177 0154 002B     		cmp	r3, #0
 1178 0156 FBD0     		beq	.L61
 282:Src/motion.c  ****     {
 283:Src/motion.c  ****     }
 284:Src/motion.c  ****     straight.v_now = 0;
 1179              		.loc 1 284 0
 1180 0158 9FED1F8A 		vldr.32	s16, .L64+4
 1181 015c 234B     		ldr	r3, .L64+24
 1182 015e 83ED038A 		vstr.32	s16, [r3, #12]
 285:Src/motion.c  ****     angle.v_now = 0;
 1183              		.loc 1 285 0
 1184 0162 234B     		ldr	r3, .L64+28
 1185 0164 83ED038A 		vstr.32	s16, [r3, #12]
 286:Src/motion.c  ****     error_ang_sum = 0.0f;
 1186              		.loc 1 286 0
 1187 0168 224B     		ldr	r3, .L64+32
 1188 016a 83ED008A 		vstr.32	s16, [r3]
 287:Src/motion.c  ****     error_ang_old = 0.0f;
 1189              		.loc 1 287 0
 1190 016e 224B     		ldr	r3, .L64+36
 1191 0170 83ED008A 		vstr.32	s16, [r3]
 288:Src/motion.c  ****     HAL_Delay(500);
 1192              		.loc 1 288 0
 1193 0174 4FF4FA70 		mov	r0, #500
 1194 0178 FFF7FEFF 		bl	HAL_Delay
 1195              	.LVL58:
 289:Src/motion.c  **** 
 290:Src/motion.c  ****     Control_StrCalculator(130.0f, 0, VELO_S, VELO_S, ACCEL_S, 1);
 1196              		.loc 1 290 0
 1197 017c 9FED171A 		vldr.32	s2, .L64+8
ARM GAS  C:\Users\kotaro\AppData\Local\Temp\ccWGe4CN.s 			page 27


 1198 0180 F7EE002A 		vmov.f32	s5, #1.0e+0
 1199 0184 9FED162A 		vldr.32	s4, .L64+12
 1200 0188 F0EE411A 		vmov.f32	s3, s2
 1201 018c F0EE480A 		vmov.f32	s1, s16
 1202 0190 9FED210A 		vldr.32	s0, .L64+68
 1203 0194 FFF7FEFF 		bl	Control_StrCalculator
 1204              	.LVL59:
 291:Src/motion.c  ****     Control_AngCalculator(0, 0, 0, 0, 1, 0);
 1205              		.loc 1 291 0
 1206 0198 F0EE482A 		vmov.f32	s5, s16
 1207 019c B7EE002A 		vmov.f32	s4, #1.0e+0
 1208 01a0 F0EE481A 		vmov.f32	s3, s16
 1209 01a4 B0EE481A 		vmov.f32	s2, s16
 1210 01a8 F0EE480A 		vmov.f32	s1, s16
 1211 01ac B0EE480A 		vmov.f32	s0, s16
 1212 01b0 FFF7FEFF 		bl	Control_AngCalculator
 1213              	.LVL60:
 292:Src/motion.c  ****     motion_end_flag = FALSE;
 1214              		.loc 1 292 0
 1215 01b4 0C4B     		ldr	r3, .L64+20
 1216 01b6 0022     		movs	r2, #0
 1217 01b8 1A70     		strb	r2, [r3]
 1218              	.L62:
 293:Src/motion.c  ****     while (motion_end_flag == FALSE)
 1219              		.loc 1 293 0 discriminator 1
 1220 01ba 0B4B     		ldr	r3, .L64+20
 1221 01bc 1B78     		ldrb	r3, [r3]	@ zero_extendqisi2
 1222 01be 002B     		cmp	r3, #0
 1223 01c0 FBD0     		beq	.L62
 294:Src/motion.c  ****     {
 295:Src/motion.c  ****     }
 296:Src/motion.c  ****     enc.offset = 0.0f;
 1224              		.loc 1 296 0
 1225 01c2 044B     		ldr	r3, .L64
 1226 01c4 0022     		movs	r2, #0
 1227 01c6 9A60     		str	r2, [r3, #8]	@ float
 297:Src/motion.c  ****     prefront_flag = TRUE;
 1228              		.loc 1 297 0
 1229 01c8 144B     		ldr	r3, .L64+72
 1230 01ca 0122     		movs	r2, #1
 1231 01cc 1A80     		strh	r2, [r3]	@ movhi
 298:Src/motion.c  **** }
 1232              		.loc 1 298 0
 1233 01ce BDEC028B 		vldm	sp!, {d8}
 1234              	.LCFI23:
 1235              		.cfi_restore 80
 1236              		.cfi_restore 81
 1237              		.cfi_def_cfa_offset 8
 1238 01d2 08BD     		pop	{r3, pc}
 1239              	.L65:
 1240              		.align	2
 1241              	.L64:
 1242 01d4 00000000 		.word	enc
 1243 01d8 00000000 		.word	0
 1244 01dc 00001644 		.word	1142292480
 1245 01e0 0080BB45 		.word	1169915904
 1246 01e4 0000B442 		.word	1119092736
ARM GAS  C:\Users\kotaro\AppData\Local\Temp\ccWGe4CN.s 			page 28


 1247 01e8 00000000 		.word	motion_end_flag
 1248 01ec 00000000 		.word	straight
 1249 01f0 00000000 		.word	angle
 1250 01f4 00000000 		.word	error_ang_sum
 1251 01f8 00000000 		.word	error_ang_old
 1252 01fc 00000000 		.word	front_wall_flag
 1253 0200 0000FA45 		.word	1174011904
 1254 0204 0000C843 		.word	1137180672
 1255 0208 00003A43 		.word	1127874560
 1256 020c 00007A44 		.word	1148846080
 1257 0210 0000C842 		.word	1120403456
 1258 0214 00005042 		.word	1112539136
 1259 0218 00000243 		.word	1124204544
 1260 021c 00000000 		.word	.LANCHOR1
 1261              		.cfi_endproc
 1262              	.LFE167:
 1264              		.section	.text.Motion_LeftTurn,"ax",%progbits
 1265              		.align	1
 1266              		.global	Motion_LeftTurn
 1267              		.syntax unified
 1268              		.thumb
 1269              		.thumb_func
 1270              		.fpu fpv4-sp-d16
 1272              	Motion_LeftTurn:
 1273              	.LFB168:
 299:Src/motion.c  **** 
 300:Src/motion.c  **** void Motion_LeftTurn(void)
 301:Src/motion.c  **** {
 1274              		.loc 1 301 0
 1275              		.cfi_startproc
 1276              		@ args = 0, pretend = 0, frame = 0
 1277              		@ frame_needed = 0, uses_anonymous_args = 0
 1278 0000 08B5     		push	{r3, lr}
 1279              	.LCFI24:
 1280              		.cfi_def_cfa_offset 8
 1281              		.cfi_offset 3, -8
 1282              		.cfi_offset 14, -4
 1283 0002 2DED028B 		vpush.64	{d8}
 1284              	.LCFI25:
 1285              		.cfi_def_cfa_offset 16
 1286              		.cfi_offset 80, -16
 1287              		.cfi_offset 81, -12
 302:Src/motion.c  ****     //offset in
 303:Src/motion.c  ****     if (sen_front.is_wall == TRUE)
 1288              		.loc 1 303 0
 1289 0006 444B     		ldr	r3, .L74
 1290 0008 1B7F     		ldrb	r3, [r3, #28]	@ zero_extendqisi2
 1291 000a 012B     		cmp	r3, #1
 1292 000c 5BD1     		bne	.L67
 1293              	.L68:
 304:Src/motion.c  ****     {
 305:Src/motion.c  ****         while (sen_front.now < 128)
 1294              		.loc 1 305 0 discriminator 1
 1295 000e 424B     		ldr	r3, .L74
 1296 0010 B3F90030 		ldrsh	r3, [r3]
 1297 0014 7F2B     		cmp	r3, #127
 1298 0016 FADD     		ble	.L68
ARM GAS  C:\Users\kotaro\AppData\Local\Temp\ccWGe4CN.s 			page 29


 1299              	.L69:
 306:Src/motion.c  ****             ;
 307:Src/motion.c  ****     }
 308:Src/motion.c  ****     else
 309:Src/motion.c  ****     {
 310:Src/motion.c  ****         Control_StrCalculator(31.0f - enc.offset, VELO_S, VELO_S, VELO_S, 1, 1);
 311:Src/motion.c  ****         Control_AngCalculator(0, 0, 0, 0, 1, 0);
 312:Src/motion.c  ****         motion_end_flag = FALSE;
 313:Src/motion.c  ****         while (motion_end_flag == FALSE)
 314:Src/motion.c  ****         {
 315:Src/motion.c  ****         }
 316:Src/motion.c  ****     }
 317:Src/motion.c  ****     //turn
 318:Src/motion.c  ****     Control_StrCalculator(180.0f, VELO_S, VELO_S, VELO_S, 1, 1);
 1300              		.loc 1 318 0
 1301 0018 DFED400A 		vldr.32	s1, .L74+4
 1302 001c F7EE002A 		vmov.f32	s5, #1.0e+0
 1303 0020 B0EE622A 		vmov.f32	s4, s5
 1304 0024 F0EE601A 		vmov.f32	s3, s1
 1305 0028 B0EE601A 		vmov.f32	s2, s1
 1306 002c 9FED3C0A 		vldr.32	s0, .L74+8
 1307 0030 FFF7FEFF 		bl	Control_StrCalculator
 1308              	.LVL61:
 319:Src/motion.c  ****     Control_AngCalculator(90.8f, 0, 900.0, 0, 15000.0, 1); //90.88f
 1309              		.loc 1 319 0
 1310 0034 DFED3B0A 		vldr.32	s1, .L74+12
 1311 0038 F7EE002A 		vmov.f32	s5, #1.0e+0
 1312 003c 9FED3A2A 		vldr.32	s4, .L74+16
 1313 0040 F0EE601A 		vmov.f32	s3, s1
 1314 0044 9FED391A 		vldr.32	s2, .L74+20
 1315 0048 9FED390A 		vldr.32	s0, .L74+24
 1316 004c FFF7FEFF 		bl	Control_AngCalculator
 1317              	.LVL62:
 320:Src/motion.c  ****     motion_end_flag = FALSE;
 1318              		.loc 1 320 0
 1319 0050 384B     		ldr	r3, .L74+28
 1320 0052 0022     		movs	r2, #0
 1321 0054 1A70     		strb	r2, [r3]
 1322              	.L71:
 321:Src/motion.c  ****     while (motion_end_flag == FALSE)
 1323              		.loc 1 321 0 discriminator 1
 1324 0056 374B     		ldr	r3, .L74+28
 1325 0058 1B78     		ldrb	r3, [r3]	@ zero_extendqisi2
 1326 005a 002B     		cmp	r3, #0
 1327 005c FBD0     		beq	.L71
 322:Src/motion.c  ****     {
 323:Src/motion.c  ****     }
 324:Src/motion.c  ****     error_ang_sum = 0.0f;
 1328              		.loc 1 324 0
 1329 005e 9FED318A 		vldr.32	s16, .L74+12
 1330 0062 354B     		ldr	r3, .L74+32
 1331 0064 83ED008A 		vstr.32	s16, [r3]
 325:Src/motion.c  ****     error_ang_old = 0.0f;
 1332              		.loc 1 325 0
 1333 0068 344B     		ldr	r3, .L74+36
 1334 006a 83ED008A 		vstr.32	s16, [r3]
 326:Src/motion.c  ****     //offset out
ARM GAS  C:\Users\kotaro\AppData\Local\Temp\ccWGe4CN.s 			page 30


 327:Src/motion.c  ****     Control_StrCalculator(40.5f, VELO_S, VELO_S, VELO_S, 1, 1);
 1335              		.loc 1 327 0
 1336 006e DFED2B0A 		vldr.32	s1, .L74+4
 1337 0072 F7EE002A 		vmov.f32	s5, #1.0e+0
 1338 0076 B0EE622A 		vmov.f32	s4, s5
 1339 007a F0EE601A 		vmov.f32	s3, s1
 1340 007e B0EE601A 		vmov.f32	s2, s1
 1341 0082 9FED2F0A 		vldr.32	s0, .L74+40
 1342 0086 FFF7FEFF 		bl	Control_StrCalculator
 1343              	.LVL63:
 328:Src/motion.c  ****     Control_AngCalculator(0, 0, 0, 0, 1, 0);
 1344              		.loc 1 328 0
 1345 008a F0EE482A 		vmov.f32	s5, s16
 1346 008e B7EE002A 		vmov.f32	s4, #1.0e+0
 1347 0092 F0EE481A 		vmov.f32	s3, s16
 1348 0096 B0EE481A 		vmov.f32	s2, s16
 1349 009a F0EE480A 		vmov.f32	s1, s16
 1350 009e B0EE480A 		vmov.f32	s0, s16
 1351 00a2 FFF7FEFF 		bl	Control_AngCalculator
 1352              	.LVL64:
 329:Src/motion.c  ****     motion_end_flag = FALSE;
 1353              		.loc 1 329 0
 1354 00a6 234B     		ldr	r3, .L74+28
 1355 00a8 0022     		movs	r2, #0
 1356 00aa 1A70     		strb	r2, [r3]
 1357              	.L72:
 330:Src/motion.c  ****     while (motion_end_flag == FALSE)
 1358              		.loc 1 330 0 discriminator 1
 1359 00ac 214B     		ldr	r3, .L74+28
 1360 00ae 1B78     		ldrb	r3, [r3]	@ zero_extendqisi2
 1361 00b0 002B     		cmp	r3, #0
 1362 00b2 FBD0     		beq	.L72
 331:Src/motion.c  ****     {
 332:Src/motion.c  ****     }
 333:Src/motion.c  ****     enc.offset = 0.0f;
 1363              		.loc 1 333 0
 1364 00b4 234B     		ldr	r3, .L74+44
 1365 00b6 0022     		movs	r2, #0
 1366 00b8 9A60     		str	r2, [r3, #8]	@ float
 334:Src/motion.c  ****     prefront_flag = FALSE;
 1367              		.loc 1 334 0
 1368 00ba 234B     		ldr	r3, .L74+48
 1369 00bc 0022     		movs	r2, #0
 1370 00be 1A80     		strh	r2, [r3]	@ movhi
 335:Src/motion.c  **** }
 1371              		.loc 1 335 0
 1372 00c0 BDEC028B 		vldm	sp!, {d8}
 1373              	.LCFI26:
 1374              		.cfi_remember_state
 1375              		.cfi_restore 80
 1376              		.cfi_restore 81
 1377              		.cfi_def_cfa_offset 8
 1378 00c4 08BD     		pop	{r3, pc}
 1379              	.L67:
 1380              	.LCFI27:
 1381              		.cfi_restore_state
 310:Src/motion.c  ****         Control_AngCalculator(0, 0, 0, 0, 1, 0);
ARM GAS  C:\Users\kotaro\AppData\Local\Temp\ccWGe4CN.s 			page 31


 1382              		.loc 1 310 0
 1383 00c6 1F4B     		ldr	r3, .L74+44
 1384 00c8 D3ED027A 		vldr.32	s15, [r3, #8]
 1385 00cc DFED130A 		vldr.32	s1, .L74+4
 1386 00d0 F7EE002A 		vmov.f32	s5, #1.0e+0
 1387 00d4 B0EE622A 		vmov.f32	s4, s5
 1388 00d8 F0EE601A 		vmov.f32	s3, s1
 1389 00dc B0EE601A 		vmov.f32	s2, s1
 1390 00e0 B3EE0F0A 		vmov.f32	s0, #3.1e+1
 1391 00e4 30EE670A 		vsub.f32	s0, s0, s15
 1392 00e8 FFF7FEFF 		bl	Control_StrCalculator
 1393              	.LVL65:
 311:Src/motion.c  ****         motion_end_flag = FALSE;
 1394              		.loc 1 311 0
 1395 00ec 9FED0D0A 		vldr.32	s0, .L74+12
 1396 00f0 F0EE402A 		vmov.f32	s5, s0
 1397 00f4 B7EE002A 		vmov.f32	s4, #1.0e+0
 1398 00f8 F0EE401A 		vmov.f32	s3, s0
 1399 00fc B0EE401A 		vmov.f32	s2, s0
 1400 0100 F0EE400A 		vmov.f32	s1, s0
 1401 0104 FFF7FEFF 		bl	Control_AngCalculator
 1402              	.LVL66:
 312:Src/motion.c  ****         while (motion_end_flag == FALSE)
 1403              		.loc 1 312 0
 1404 0108 0A4B     		ldr	r3, .L74+28
 1405 010a 0022     		movs	r2, #0
 1406 010c 1A70     		strb	r2, [r3]
 1407              	.L70:
 313:Src/motion.c  ****         {
 1408              		.loc 1 313 0 discriminator 1
 1409 010e 094B     		ldr	r3, .L74+28
 1410 0110 1B78     		ldrb	r3, [r3]	@ zero_extendqisi2
 1411 0112 002B     		cmp	r3, #0
 1412 0114 FBD0     		beq	.L70
 1413 0116 7FE7     		b	.L69
 1414              	.L75:
 1415              		.align	2
 1416              	.L74:
 1417 0118 00000000 		.word	sen_front
 1418 011c 00001644 		.word	1142292480
 1419 0120 00003443 		.word	1127481344
 1420 0124 00000000 		.word	0
 1421 0128 00606A46 		.word	1181376512
 1422 012c 00006144 		.word	1147207680
 1423 0130 9A99B542 		.word	1119197594
 1424 0134 00000000 		.word	motion_end_flag
 1425 0138 00000000 		.word	error_ang_sum
 1426 013c 00000000 		.word	error_ang_old
 1427 0140 00002242 		.word	1109524480
 1428 0144 00000000 		.word	enc
 1429 0148 00000000 		.word	.LANCHOR1
 1430              		.cfi_endproc
 1431              	.LFE168:
 1433              		.section	.text.Motion_RightTurn,"ax",%progbits
 1434              		.align	1
 1435              		.global	Motion_RightTurn
 1436              		.syntax unified
ARM GAS  C:\Users\kotaro\AppData\Local\Temp\ccWGe4CN.s 			page 32


 1437              		.thumb
 1438              		.thumb_func
 1439              		.fpu fpv4-sp-d16
 1441              	Motion_RightTurn:
 1442              	.LFB169:
 336:Src/motion.c  **** 
 337:Src/motion.c  **** void Motion_RightTurn(void)
 338:Src/motion.c  **** {
 1443              		.loc 1 338 0
 1444              		.cfi_startproc
 1445              		@ args = 0, pretend = 0, frame = 0
 1446              		@ frame_needed = 0, uses_anonymous_args = 0
 1447 0000 08B5     		push	{r3, lr}
 1448              	.LCFI28:
 1449              		.cfi_def_cfa_offset 8
 1450              		.cfi_offset 3, -8
 1451              		.cfi_offset 14, -4
 1452 0002 2DED028B 		vpush.64	{d8}
 1453              	.LCFI29:
 1454              		.cfi_def_cfa_offset 16
 1455              		.cfi_offset 80, -16
 1456              		.cfi_offset 81, -12
 339:Src/motion.c  ****     //offset in
 340:Src/motion.c  ****     if (sen_front.is_wall == TRUE)
 1457              		.loc 1 340 0
 1458 0006 444B     		ldr	r3, .L84
 1459 0008 1B7F     		ldrb	r3, [r3, #28]	@ zero_extendqisi2
 1460 000a 012B     		cmp	r3, #1
 1461 000c 5BD1     		bne	.L77
 1462              	.L78:
 341:Src/motion.c  ****     {
 342:Src/motion.c  ****         while (sen_front.now < 128)
 1463              		.loc 1 342 0 discriminator 1
 1464 000e 424B     		ldr	r3, .L84
 1465 0010 B3F90030 		ldrsh	r3, [r3]
 1466 0014 7F2B     		cmp	r3, #127
 1467 0016 FADD     		ble	.L78
 1468              	.L79:
 343:Src/motion.c  ****             ;
 344:Src/motion.c  ****     }
 345:Src/motion.c  ****     else
 346:Src/motion.c  ****     {
 347:Src/motion.c  ****         Control_StrCalculator(36.0f - enc.offset, VELO_S, VELO_S, VELO_S, 1, 1);
 348:Src/motion.c  ****         Control_AngCalculator(0, 0, 0, 0, 1, 0);
 349:Src/motion.c  ****         motion_end_flag = FALSE;
 350:Src/motion.c  ****         while (motion_end_flag == FALSE)
 351:Src/motion.c  ****         {
 352:Src/motion.c  ****         }
 353:Src/motion.c  ****     }
 354:Src/motion.c  ****     //turn
 355:Src/motion.c  ****     Control_StrCalculator(180.0f, VELO_S, VELO_S, VELO_S, 1, 1);
 1469              		.loc 1 355 0
 1470 0018 DFED400A 		vldr.32	s1, .L84+4
 1471 001c F7EE002A 		vmov.f32	s5, #1.0e+0
 1472 0020 B0EE622A 		vmov.f32	s4, s5
 1473 0024 F0EE601A 		vmov.f32	s3, s1
 1474 0028 B0EE601A 		vmov.f32	s2, s1
ARM GAS  C:\Users\kotaro\AppData\Local\Temp\ccWGe4CN.s 			page 33


 1475 002c 9FED3C0A 		vldr.32	s0, .L84+8
 1476 0030 FFF7FEFF 		bl	Control_StrCalculator
 1477              	.LVL67:
 356:Src/motion.c  ****     Control_AngCalculator(90.8f, 0, 900.0, 0, 15000.0, -1); //90.80f
 1478              		.loc 1 356 0
 1479 0034 DFED3B0A 		vldr.32	s1, .L84+12
 1480 0038 FFEE002A 		vmov.f32	s5, #-1.0e+0
 1481 003c 9FED3A2A 		vldr.32	s4, .L84+16
 1482 0040 F0EE601A 		vmov.f32	s3, s1
 1483 0044 9FED391A 		vldr.32	s2, .L84+20
 1484 0048 9FED390A 		vldr.32	s0, .L84+24
 1485 004c FFF7FEFF 		bl	Control_AngCalculator
 1486              	.LVL68:
 357:Src/motion.c  ****     motion_end_flag = FALSE;
 1487              		.loc 1 357 0
 1488 0050 384B     		ldr	r3, .L84+28
 1489 0052 0022     		movs	r2, #0
 1490 0054 1A70     		strb	r2, [r3]
 1491              	.L81:
 358:Src/motion.c  ****     while (motion_end_flag == FALSE)
 1492              		.loc 1 358 0 discriminator 1
 1493 0056 374B     		ldr	r3, .L84+28
 1494 0058 1B78     		ldrb	r3, [r3]	@ zero_extendqisi2
 1495 005a 002B     		cmp	r3, #0
 1496 005c FBD0     		beq	.L81
 359:Src/motion.c  ****     {
 360:Src/motion.c  ****     }
 361:Src/motion.c  ****     error_ang_sum = 0.0f;
 1497              		.loc 1 361 0
 1498 005e 9FED318A 		vldr.32	s16, .L84+12
 1499 0062 354B     		ldr	r3, .L84+32
 1500 0064 83ED008A 		vstr.32	s16, [r3]
 362:Src/motion.c  ****     error_ang_old = 0.0f;
 1501              		.loc 1 362 0
 1502 0068 344B     		ldr	r3, .L84+36
 1503 006a 83ED008A 		vstr.32	s16, [r3]
 363:Src/motion.c  ****     //offset out
 364:Src/motion.c  ****     Control_StrCalculator(42.0f, VELO_S, VELO_S, VELO_S, 1, 1);
 1504              		.loc 1 364 0
 1505 006e DFED2B0A 		vldr.32	s1, .L84+4
 1506 0072 F7EE002A 		vmov.f32	s5, #1.0e+0
 1507 0076 B0EE622A 		vmov.f32	s4, s5
 1508 007a F0EE601A 		vmov.f32	s3, s1
 1509 007e B0EE601A 		vmov.f32	s2, s1
 1510 0082 9FED2F0A 		vldr.32	s0, .L84+40
 1511 0086 FFF7FEFF 		bl	Control_StrCalculator
 1512              	.LVL69:
 365:Src/motion.c  ****     Control_AngCalculator(0, 0, 0, 0, 1, 0);
 1513              		.loc 1 365 0
 1514 008a F0EE482A 		vmov.f32	s5, s16
 1515 008e B7EE002A 		vmov.f32	s4, #1.0e+0
 1516 0092 F0EE481A 		vmov.f32	s3, s16
 1517 0096 B0EE481A 		vmov.f32	s2, s16
 1518 009a F0EE480A 		vmov.f32	s1, s16
 1519 009e B0EE480A 		vmov.f32	s0, s16
 1520 00a2 FFF7FEFF 		bl	Control_AngCalculator
 1521              	.LVL70:
ARM GAS  C:\Users\kotaro\AppData\Local\Temp\ccWGe4CN.s 			page 34


 366:Src/motion.c  ****     motion_end_flag = FALSE;
 1522              		.loc 1 366 0
 1523 00a6 234B     		ldr	r3, .L84+28
 1524 00a8 0022     		movs	r2, #0
 1525 00aa 1A70     		strb	r2, [r3]
 1526              	.L82:
 367:Src/motion.c  ****     while (motion_end_flag == FALSE)
 1527              		.loc 1 367 0 discriminator 1
 1528 00ac 214B     		ldr	r3, .L84+28
 1529 00ae 1B78     		ldrb	r3, [r3]	@ zero_extendqisi2
 1530 00b0 002B     		cmp	r3, #0
 1531 00b2 FBD0     		beq	.L82
 368:Src/motion.c  ****     {
 369:Src/motion.c  ****     }
 370:Src/motion.c  ****     enc.offset = 0.0f;
 1532              		.loc 1 370 0
 1533 00b4 234B     		ldr	r3, .L84+44
 1534 00b6 0022     		movs	r2, #0
 1535 00b8 9A60     		str	r2, [r3, #8]	@ float
 371:Src/motion.c  ****     prefront_flag = FALSE;
 1536              		.loc 1 371 0
 1537 00ba 234B     		ldr	r3, .L84+48
 1538 00bc 0022     		movs	r2, #0
 1539 00be 1A80     		strh	r2, [r3]	@ movhi
 372:Src/motion.c  **** }
 1540              		.loc 1 372 0
 1541 00c0 BDEC028B 		vldm	sp!, {d8}
 1542              	.LCFI30:
 1543              		.cfi_remember_state
 1544              		.cfi_restore 80
 1545              		.cfi_restore 81
 1546              		.cfi_def_cfa_offset 8
 1547 00c4 08BD     		pop	{r3, pc}
 1548              	.L77:
 1549              	.LCFI31:
 1550              		.cfi_restore_state
 347:Src/motion.c  ****         Control_AngCalculator(0, 0, 0, 0, 1, 0);
 1551              		.loc 1 347 0
 1552 00c6 1F4B     		ldr	r3, .L84+44
 1553 00c8 D3ED027A 		vldr.32	s15, [r3, #8]
 1554 00cc DFED130A 		vldr.32	s1, .L84+4
 1555 00d0 F7EE002A 		vmov.f32	s5, #1.0e+0
 1556 00d4 B0EE622A 		vmov.f32	s4, s5
 1557 00d8 F0EE601A 		vmov.f32	s3, s1
 1558 00dc B0EE601A 		vmov.f32	s2, s1
 1559 00e0 9FED1A0A 		vldr.32	s0, .L84+52
 1560 00e4 30EE670A 		vsub.f32	s0, s0, s15
 1561 00e8 FFF7FEFF 		bl	Control_StrCalculator
 1562              	.LVL71:
 348:Src/motion.c  ****         motion_end_flag = FALSE;
 1563              		.loc 1 348 0
 1564 00ec 9FED0D0A 		vldr.32	s0, .L84+12
 1565 00f0 F0EE402A 		vmov.f32	s5, s0
 1566 00f4 B7EE002A 		vmov.f32	s4, #1.0e+0
 1567 00f8 F0EE401A 		vmov.f32	s3, s0
 1568 00fc B0EE401A 		vmov.f32	s2, s0
 1569 0100 F0EE400A 		vmov.f32	s1, s0
ARM GAS  C:\Users\kotaro\AppData\Local\Temp\ccWGe4CN.s 			page 35


 1570 0104 FFF7FEFF 		bl	Control_AngCalculator
 1571              	.LVL72:
 349:Src/motion.c  ****         while (motion_end_flag == FALSE)
 1572              		.loc 1 349 0
 1573 0108 0A4B     		ldr	r3, .L84+28
 1574 010a 0022     		movs	r2, #0
 1575 010c 1A70     		strb	r2, [r3]
 1576              	.L80:
 350:Src/motion.c  ****         {
 1577              		.loc 1 350 0 discriminator 1
 1578 010e 094B     		ldr	r3, .L84+28
 1579 0110 1B78     		ldrb	r3, [r3]	@ zero_extendqisi2
 1580 0112 002B     		cmp	r3, #0
 1581 0114 FBD0     		beq	.L80
 1582 0116 7FE7     		b	.L79
 1583              	.L85:
 1584              		.align	2
 1585              	.L84:
 1586 0118 00000000 		.word	sen_front
 1587 011c 00001644 		.word	1142292480
 1588 0120 00003443 		.word	1127481344
 1589 0124 00000000 		.word	0
 1590 0128 00606A46 		.word	1181376512
 1591 012c 00006144 		.word	1147207680
 1592 0130 9A99B542 		.word	1119197594
 1593 0134 00000000 		.word	motion_end_flag
 1594 0138 00000000 		.word	error_ang_sum
 1595 013c 00000000 		.word	error_ang_old
 1596 0140 00002842 		.word	1109917696
 1597 0144 00000000 		.word	enc
 1598 0148 00000000 		.word	.LANCHOR1
 1599 014c 00001042 		.word	1108344832
 1600              		.cfi_endproc
 1601              	.LFE169:
 1603              		.section	.text.Motion_Switch,"ax",%progbits
 1604              		.align	1
 1605              		.global	Motion_Switch
 1606              		.syntax unified
 1607              		.thumb
 1608              		.thumb_func
 1609              		.fpu fpv4-sp-d16
 1611              	Motion_Switch:
 1612              	.LFB170:
 373:Src/motion.c  **** 
 374:Src/motion.c  **** void Motion_Switch(uint8_t motion)
 375:Src/motion.c  **** {
 1613              		.loc 1 375 0
 1614              		.cfi_startproc
 1615              		@ args = 0, pretend = 0, frame = 0
 1616              		@ frame_needed = 0, uses_anonymous_args = 0
 1617              	.LVL73:
 1618 0000 08B5     		push	{r3, lr}
 1619              	.LCFI32:
 1620              		.cfi_def_cfa_offset 8
 1621              		.cfi_offset 3, -8
 1622              		.cfi_offset 14, -4
 376:Src/motion.c  ****     switch (motion & 0xf)
ARM GAS  C:\Users\kotaro\AppData\Local\Temp\ccWGe4CN.s 			page 36


 1623              		.loc 1 376 0
 1624 0002 00F00F03 		and	r3, r0, #15
 1625 0006 042B     		cmp	r3, #4
 1626 0008 14D8     		bhi	.L87
 1627 000a DFE803F0 		tbb	[pc, r3]
 1628              	.L89:
 1629 000e 03       		.byte	(.L88-.L89)/2
 1630 000f 0A       		.byte	(.L90-.L89)/2
 1631 0010 07       		.byte	(.L91-.L89)/2
 1632 0011 0D       		.byte	(.L92-.L89)/2
 1633 0012 10       		.byte	(.L93-.L89)/2
 1634 0013 00       		.p2align 1
 1635              	.L88:
 377:Src/motion.c  ****     {
 378:Src/motion.c  ****     case FRONT:
 379:Src/motion.c  ****         Motion_Straight(motion >> 4);
 1636              		.loc 1 379 0
 1637 0014 0009     		lsrs	r0, r0, #4
 1638              	.LVL74:
 1639 0016 FFF7FEFF 		bl	Motion_Straight
 1640              	.LVL75:
 1641              	.L86:
 380:Src/motion.c  ****         break;
 381:Src/motion.c  ****     case RIGHT:
 382:Src/motion.c  ****         Motion_RightTurn();
 383:Src/motion.c  ****         break;
 384:Src/motion.c  ****     case LEFT:
 385:Src/motion.c  ****         Motion_LeftTurn();
 386:Src/motion.c  ****         break;
 387:Src/motion.c  ****     case REAR:
 388:Src/motion.c  ****         Motion_SpinTurn();
 389:Src/motion.c  ****         break;
 390:Src/motion.c  ****     case PIVO_REAR:
 391:Src/motion.c  ****         Motion_WallSpinTurn();
 392:Src/motion.c  ****         break;
 393:Src/motion.c  ****     default:
 394:Src/motion.c  ****         motor_flag = FALSE;
 395:Src/motion.c  ****         break;
 396:Src/motion.c  ****     }
 397:Src/motion.c  **** }
 1642              		.loc 1 397 0
 1643 001a 08BD     		pop	{r3, pc}
 1644              	.LVL76:
 1645              	.L91:
 382:Src/motion.c  ****         break;
 1646              		.loc 1 382 0
 1647 001c FFF7FEFF 		bl	Motion_RightTurn
 1648              	.LVL77:
 383:Src/motion.c  ****     case LEFT:
 1649              		.loc 1 383 0
 1650 0020 FBE7     		b	.L86
 1651              	.LVL78:
 1652              	.L90:
 385:Src/motion.c  ****         break;
 1653              		.loc 1 385 0
 1654 0022 FFF7FEFF 		bl	Motion_LeftTurn
 1655              	.LVL79:
ARM GAS  C:\Users\kotaro\AppData\Local\Temp\ccWGe4CN.s 			page 37


 386:Src/motion.c  ****     case REAR:
 1656              		.loc 1 386 0
 1657 0026 F8E7     		b	.L86
 1658              	.LVL80:
 1659              	.L92:
 388:Src/motion.c  ****         break;
 1660              		.loc 1 388 0
 1661 0028 FFF7FEFF 		bl	Motion_SpinTurn
 1662              	.LVL81:
 389:Src/motion.c  ****     case PIVO_REAR:
 1663              		.loc 1 389 0
 1664 002c F5E7     		b	.L86
 1665              	.LVL82:
 1666              	.L93:
 391:Src/motion.c  ****         break;
 1667              		.loc 1 391 0
 1668 002e FFF7FEFF 		bl	Motion_WallSpinTurn
 1669              	.LVL83:
 392:Src/motion.c  ****     default:
 1670              		.loc 1 392 0
 1671 0032 F2E7     		b	.L86
 1672              	.LVL84:
 1673              	.L87:
 394:Src/motion.c  ****         break;
 1674              		.loc 1 394 0
 1675 0034 014B     		ldr	r3, .L96
 1676 0036 0022     		movs	r2, #0
 1677 0038 1A70     		strb	r2, [r3]
 1678              		.loc 1 397 0
 1679 003a EEE7     		b	.L86
 1680              	.L97:
 1681              		.align	2
 1682              	.L96:
 1683 003c 00000000 		.word	motor_flag
 1684              		.cfi_endproc
 1685              	.LFE170:
 1687              		.section	.text.Motion_FastStart,"ax",%progbits
 1688              		.align	1
 1689              		.global	Motion_FastStart
 1690              		.syntax unified
 1691              		.thumb
 1692              		.thumb_func
 1693              		.fpu fpv4-sp-d16
 1695              	Motion_FastStart:
 1696              	.LFB171:
 398:Src/motion.c  **** 
 399:Src/motion.c  **** void Motion_FastStart(uint8_t step, float velo_end)
 400:Src/motion.c  **** {
 1697              		.loc 1 400 0
 1698              		.cfi_startproc
 1699              		@ args = 0, pretend = 0, frame = 0
 1700              		@ frame_needed = 0, uses_anonymous_args = 0
 1701              	.LVL85:
 1702 0000 10B5     		push	{r4, lr}
 1703              	.LCFI33:
 1704              		.cfi_def_cfa_offset 8
 1705              		.cfi_offset 4, -8
ARM GAS  C:\Users\kotaro\AppData\Local\Temp\ccWGe4CN.s 			page 38


 1706              		.cfi_offset 14, -4
 1707 0002 2DED028B 		vpush.64	{d8}
 1708              	.LCFI34:
 1709              		.cfi_def_cfa_offset 16
 1710              		.cfi_offset 80, -16
 1711              		.cfi_offset 81, -12
 1712 0006 0446     		mov	r4, r0
 1713 0008 F0EE408A 		vmov.f32	s17, s0
 401:Src/motion.c  ****     diagonal_step = 90.0f * sqrt(2);
 1714              		.loc 1 401 0
 1715 000c 274B     		ldr	r3, .L103
 1716 000e 284A     		ldr	r2, .L103+4
 1717 0010 1A60     		str	r2, [r3]	@ float
 402:Src/motion.c  ****     Control_ResetVelo();
 1718              		.loc 1 402 0
 1719 0012 FFF7FEFF 		bl	Control_ResetVelo
 1720              	.LVL86:
 403:Src/motion.c  ****     float velo = VELO_F + gain_velo * (float)(step - 1);
 1721              		.loc 1 403 0
 1722 0016 631E     		subs	r3, r4, #1
 1723 0018 01EE103A 		vmov	s2, r3	@ int
 1724 001c B8EEC11A 		vcvt.f32.s32	s2, s2
 1725 0020 244B     		ldr	r3, .L103+8
 1726 0022 D3ED007A 		vldr.32	s15, [r3]
 1727 0026 21EE271A 		vmul.f32	s2, s2, s15
 1728 002a DFED237A 		vldr.32	s15, .L103+12
 1729 002e 31EE271A 		vadd.f32	s2, s2, s15
 1730              	.LVL87:
 404:Src/motion.c  ****     if (velo > 2400)
 1731              		.loc 1 404 0
 1732 0032 DFED227A 		vldr.32	s15, .L103+16
 1733 0036 B4EEE71A 		vcmpe.f32	s2, s15
 1734 003a F1EE10FA 		vmrs	APSR_nzcv, FPSCR
 1735 003e 01DD     		ble	.L99
 405:Src/motion.c  ****     {
 406:Src/motion.c  ****         velo = 2400;
 1736              		.loc 1 406 0
 1737 0040 B0EE671A 		vmov.f32	s2, s15
 1738              	.LVL88:
 1739              	.L99:
 407:Src/motion.c  ****     }
 408:Src/motion.c  ****     Control_StrCalculator(40.0f + 90.0f * (float)step, 0.0f, velo, velo_end, ACCEL_F, 1);
 1740              		.loc 1 408 0
 1741 0044 07EE904A 		vmov	s15, r4	@ int
 1742 0048 F8EE677A 		vcvt.f32.u32	s15, s15
 1743 004c 9FED1C0A 		vldr.32	s0, .L103+20
 1744 0050 67EE807A 		vmul.f32	s15, s15, s0
 1745 0054 9FED1B8A 		vldr.32	s16, .L103+24
 1746 0058 F7EE002A 		vmov.f32	s5, #1.0e+0
 1747 005c 9FED1A2A 		vldr.32	s4, .L103+28
 1748 0060 F0EE681A 		vmov.f32	s3, s17
 1749 0064 F0EE480A 		vmov.f32	s1, s16
 1750 0068 9FED180A 		vldr.32	s0, .L103+32
 1751 006c 37EE800A 		vadd.f32	s0, s15, s0
 1752 0070 FFF7FEFF 		bl	Control_StrCalculator
 1753              	.LVL89:
 409:Src/motion.c  ****     Control_AngCalculator(0, 0, 0, 0, 1, 0);
ARM GAS  C:\Users\kotaro\AppData\Local\Temp\ccWGe4CN.s 			page 39


 1754              		.loc 1 409 0
 1755 0074 F0EE482A 		vmov.f32	s5, s16
 1756 0078 B7EE002A 		vmov.f32	s4, #1.0e+0
 1757 007c F0EE481A 		vmov.f32	s3, s16
 1758 0080 B0EE481A 		vmov.f32	s2, s16
 1759 0084 F0EE480A 		vmov.f32	s1, s16
 1760 0088 B0EE480A 		vmov.f32	s0, s16
 1761 008c FFF7FEFF 		bl	Control_AngCalculator
 1762              	.LVL90:
 410:Src/motion.c  ****     motion_end_flag = FALSE;
 1763              		.loc 1 410 0
 1764 0090 0F4B     		ldr	r3, .L103+36
 1765 0092 0022     		movs	r2, #0
 1766 0094 1A70     		strb	r2, [r3]
 1767              	.L100:
 411:Src/motion.c  ****     while (motion_end_flag == FALSE)
 1768              		.loc 1 411 0 discriminator 1
 1769 0096 0E4B     		ldr	r3, .L103+36
 1770 0098 1B78     		ldrb	r3, [r3]	@ zero_extendqisi2
 1771 009a 002B     		cmp	r3, #0
 1772 009c FBD0     		beq	.L100
 412:Src/motion.c  ****     {
 413:Src/motion.c  ****     }
 414:Src/motion.c  ****     enc.offset = 0.0f;
 1773              		.loc 1 414 0
 1774 009e 0D4B     		ldr	r3, .L103+40
 1775 00a0 0022     		movs	r2, #0
 1776 00a2 9A60     		str	r2, [r3, #8]	@ float
 415:Src/motion.c  **** }
 1777              		.loc 1 415 0
 1778 00a4 BDEC028B 		vldm	sp!, {d8}
 1779              	.LCFI35:
 1780              		.cfi_restore 80
 1781              		.cfi_restore 81
 1782              		.cfi_def_cfa_offset 8
 1783 00a8 10BD     		pop	{r4, pc}
 1784              	.L104:
 1785 00aa 00BF     		.align	2
 1786              	.L103:
 1787 00ac 00000000 		.word	.LANCHOR2
 1788 00b0 F68EFE42 		.word	1123978998
 1789 00b4 00000000 		.word	.LANCHOR0
 1790 00b8 00004844 		.word	1145569280
 1791 00bc 00001645 		.word	1159069696
 1792 00c0 0000B442 		.word	1119092736
 1793 00c4 00000000 		.word	0
 1794 00c8 0000FA45 		.word	1174011904
 1795 00cc 00002042 		.word	1109393408
 1796 00d0 00000000 		.word	motion_end_flag
 1797 00d4 00000000 		.word	enc
 1798              		.cfi_endproc
 1799              	.LFE171:
 1801              		.section	.text.Motion_FastStraight,"ax",%progbits
 1802              		.align	1
 1803              		.global	Motion_FastStraight
 1804              		.syntax unified
 1805              		.thumb
ARM GAS  C:\Users\kotaro\AppData\Local\Temp\ccWGe4CN.s 			page 40


 1806              		.thumb_func
 1807              		.fpu fpv4-sp-d16
 1809              	Motion_FastStraight:
 1810              	.LFB172:
 416:Src/motion.c  **** 
 417:Src/motion.c  **** void Motion_FastStraight(uint8_t step, float v_start, float v_end)
 418:Src/motion.c  **** {
 1811              		.loc 1 418 0
 1812              		.cfi_startproc
 1813              		@ args = 0, pretend = 0, frame = 0
 1814              		@ frame_needed = 0, uses_anonymous_args = 0
 1815              	.LVL91:
 1816 0000 08B5     		push	{r3, lr}
 1817              	.LCFI36:
 1818              		.cfi_def_cfa_offset 8
 1819              		.cfi_offset 3, -8
 1820              		.cfi_offset 14, -4
 1821 0002 F0EE601A 		vmov.f32	s3, s1
 419:Src/motion.c  ****     float velo = VELO_F + gain_velo * (float)step;
 1822              		.loc 1 419 0
 1823 0006 07EE900A 		vmov	s15, r0	@ int
 1824 000a F8EE677A 		vcvt.f32.u32	s15, s15
 1825 000e 1E4B     		ldr	r3, .L110
 1826 0010 93ED001A 		vldr.32	s2, [r3]
 1827 0014 27EE811A 		vmul.f32	s2, s15, s2
 1828 0018 9FED1C7A 		vldr.32	s14, .L110+4
 1829 001c 31EE071A 		vadd.f32	s2, s2, s14
 1830              	.LVL92:
 420:Src/motion.c  ****     if (velo > 2400)
 1831              		.loc 1 420 0
 1832 0020 9FED1B7A 		vldr.32	s14, .L110+8
 1833 0024 B4EEC71A 		vcmpe.f32	s2, s14
 1834 0028 F1EE10FA 		vmrs	APSR_nzcv, FPSCR
 1835 002c 01DD     		ble	.L106
 421:Src/motion.c  ****     {
 422:Src/motion.c  ****         velo = 2400;
 1836              		.loc 1 422 0
 1837 002e B0EE471A 		vmov.f32	s2, s14
 1838              	.LVL93:
 1839              	.L106:
 423:Src/motion.c  ****     }
 424:Src/motion.c  ****     Control_StrCalculator(90.0f * (float)step - enc.offset, v_start, velo, v_end, ACCEL_F, 1);
 1840              		.loc 1 424 0
 1841 0032 9FED187A 		vldr.32	s14, .L110+12
 1842 0036 67EE877A 		vmul.f32	s15, s15, s14
 1843 003a 174B     		ldr	r3, .L110+16
 1844 003c 93ED027A 		vldr.32	s14, [r3, #8]
 1845 0040 F7EE002A 		vmov.f32	s5, #1.0e+0
 1846 0044 9FED152A 		vldr.32	s4, .L110+20
 1847 0048 F0EE400A 		vmov.f32	s1, s0
 1848              	.LVL94:
 1849 004c 37EEC70A 		vsub.f32	s0, s15, s14
 1850              	.LVL95:
 1851 0050 FFF7FEFF 		bl	Control_StrCalculator
 1852              	.LVL96:
 425:Src/motion.c  ****     Control_AngCalculator(0, 0, 0, 0, 1, 0);
 1853              		.loc 1 425 0
ARM GAS  C:\Users\kotaro\AppData\Local\Temp\ccWGe4CN.s 			page 41


 1854 0054 9FED120A 		vldr.32	s0, .L110+24
 1855 0058 F0EE402A 		vmov.f32	s5, s0
 1856 005c B7EE002A 		vmov.f32	s4, #1.0e+0
 1857 0060 F0EE401A 		vmov.f32	s3, s0
 1858 0064 B0EE401A 		vmov.f32	s2, s0
 1859 0068 F0EE400A 		vmov.f32	s1, s0
 1860 006c FFF7FEFF 		bl	Control_AngCalculator
 1861              	.LVL97:
 426:Src/motion.c  ****     motion_end_flag = FALSE;
 1862              		.loc 1 426 0
 1863 0070 0C4B     		ldr	r3, .L110+28
 1864 0072 0022     		movs	r2, #0
 1865 0074 1A70     		strb	r2, [r3]
 1866              	.L107:
 427:Src/motion.c  ****     while (motion_end_flag == FALSE)
 1867              		.loc 1 427 0 discriminator 1
 1868 0076 0B4B     		ldr	r3, .L110+28
 1869 0078 1B78     		ldrb	r3, [r3]	@ zero_extendqisi2
 1870 007a 002B     		cmp	r3, #0
 1871 007c FBD0     		beq	.L107
 428:Src/motion.c  ****     {
 429:Src/motion.c  ****     }
 430:Src/motion.c  ****     enc.offset = 0.0f;
 1872              		.loc 1 430 0
 1873 007e 064B     		ldr	r3, .L110+16
 1874 0080 0022     		movs	r2, #0
 1875 0082 9A60     		str	r2, [r3, #8]	@ float
 431:Src/motion.c  **** }
 1876              		.loc 1 431 0
 1877 0084 08BD     		pop	{r3, pc}
 1878              	.L111:
 1879 0086 00BF     		.align	2
 1880              	.L110:
 1881 0088 00000000 		.word	.LANCHOR0
 1882 008c 00004844 		.word	1145569280
 1883 0090 00001645 		.word	1159069696
 1884 0094 0000B442 		.word	1119092736
 1885 0098 00000000 		.word	enc
 1886 009c 0000FA45 		.word	1174011904
 1887 00a0 00000000 		.word	0
 1888 00a4 00000000 		.word	motion_end_flag
 1889              		.cfi_endproc
 1890              	.LFE172:
 1892              		.section	.text.Motion_Adjust,"ax",%progbits
 1893              		.align	1
 1894              		.global	Motion_Adjust
 1895              		.syntax unified
 1896              		.thumb
 1897              		.thumb_func
 1898              		.fpu fpv4-sp-d16
 1900              	Motion_Adjust:
 1901              	.LFB173:
 432:Src/motion.c  **** 
 433:Src/motion.c  **** void Motion_Adjust(uint16_t step, float velo_s)
 434:Src/motion.c  **** {
 1902              		.loc 1 434 0
 1903              		.cfi_startproc
ARM GAS  C:\Users\kotaro\AppData\Local\Temp\ccWGe4CN.s 			page 42


 1904              		@ args = 0, pretend = 0, frame = 0
 1905              		@ frame_needed = 0, uses_anonymous_args = 0
 1906              	.LVL98:
 1907 0000 08B5     		push	{r3, lr}
 1908              	.LCFI37:
 1909              		.cfi_def_cfa_offset 8
 1910              		.cfi_offset 3, -8
 1911              		.cfi_offset 14, -4
 1912 0002 2DED028B 		vpush.64	{d8}
 1913              	.LCFI38:
 1914              		.cfi_def_cfa_offset 16
 1915              		.cfi_offset 80, -16
 1916              		.cfi_offset 81, -12
 435:Src/motion.c  ****     if (step == 1)
 1917              		.loc 1 435 0
 1918 0006 0128     		cmp	r0, #1
 1919 0008 33D0     		beq	.L117
 436:Src/motion.c  ****     {
 437:Src/motion.c  ****         Control_EdgeSet(20.0f);
 438:Src/motion.c  ****         Control_StrCalculator(110.0f - enc.offset, velo_s, VELO_F, VELO_F, ACCEL_F, 1); //110
 439:Src/motion.c  ****         Control_AngCalculator(0, 0, 0, 0, 1, 0);
 440:Src/motion.c  ****     }
 441:Src/motion.c  ****     else
 442:Src/motion.c  ****     {
 443:Src/motion.c  ****         Control_EdgeSet(0);
 1920              		.loc 1 443 0
 1921 000a 9FED2E8A 		vldr.32	s16, .L118
 1922 000e B0EE480A 		vmov.f32	s0, s16
 1923              	.LVL99:
 1924 0012 FFF7FEFF 		bl	Control_EdgeSet
 1925              	.LVL100:
 444:Src/motion.c  ****         Control_StrCalculator(180.0f - enc.offset, VELO_S, VELO_S, VELO_S, 1, 1);
 1926              		.loc 1 444 0
 1927 0016 2C4B     		ldr	r3, .L118+4
 1928 0018 D3ED027A 		vldr.32	s15, [r3, #8]
 1929 001c DFED2B0A 		vldr.32	s1, .L118+8
 1930 0020 F7EE002A 		vmov.f32	s5, #1.0e+0
 1931 0024 B0EE622A 		vmov.f32	s4, s5
 1932 0028 F0EE601A 		vmov.f32	s3, s1
 1933 002c B0EE601A 		vmov.f32	s2, s1
 1934 0030 9FED270A 		vldr.32	s0, .L118+12
 1935 0034 30EE670A 		vsub.f32	s0, s0, s15
 1936 0038 FFF7FEFF 		bl	Control_StrCalculator
 1937              	.LVL101:
 445:Src/motion.c  ****         Control_AngCalculator(0, 0, 0, 0, 1, 0);
 1938              		.loc 1 445 0
 1939 003c F0EE482A 		vmov.f32	s5, s16
 1940 0040 B7EE002A 		vmov.f32	s4, #1.0e+0
 1941 0044 F0EE481A 		vmov.f32	s3, s16
 1942 0048 B0EE481A 		vmov.f32	s2, s16
 1943 004c F0EE480A 		vmov.f32	s1, s16
 1944 0050 B0EE480A 		vmov.f32	s0, s16
 1945 0054 FFF7FEFF 		bl	Control_AngCalculator
 1946              	.LVL102:
 1947              	.L114:
 446:Src/motion.c  ****     }
 447:Src/motion.c  ****     motion_end_flag = FALSE;
ARM GAS  C:\Users\kotaro\AppData\Local\Temp\ccWGe4CN.s 			page 43


 1948              		.loc 1 447 0
 1949 0058 1E4B     		ldr	r3, .L118+16
 1950 005a 0022     		movs	r2, #0
 1951 005c 1A70     		strb	r2, [r3]
 1952              	.L115:
 448:Src/motion.c  ****     while (motion_end_flag == FALSE)
 1953              		.loc 1 448 0 discriminator 1
 1954 005e 1D4B     		ldr	r3, .L118+16
 1955 0060 1B78     		ldrb	r3, [r3]	@ zero_extendqisi2
 1956 0062 002B     		cmp	r3, #0
 1957 0064 FBD0     		beq	.L115
 449:Src/motion.c  ****     {
 450:Src/motion.c  ****     }
 451:Src/motion.c  ****     enc.offset = 0.0f;
 1958              		.loc 1 451 0
 1959 0066 184B     		ldr	r3, .L118+4
 1960 0068 0022     		movs	r2, #0
 1961 006a 9A60     		str	r2, [r3, #8]	@ float
 452:Src/motion.c  **** }
 1962              		.loc 1 452 0
 1963 006c BDEC028B 		vldm	sp!, {d8}
 1964              	.LCFI39:
 1965              		.cfi_remember_state
 1966              		.cfi_restore 80
 1967              		.cfi_restore 81
 1968              		.cfi_def_cfa_offset 8
 1969 0070 08BD     		pop	{r3, pc}
 1970              	.LVL103:
 1971              	.L117:
 1972              	.LCFI40:
 1973              		.cfi_restore_state
 1974 0072 B0EE408A 		vmov.f32	s16, s0
 437:Src/motion.c  ****         Control_StrCalculator(110.0f - enc.offset, velo_s, VELO_F, VELO_F, ACCEL_F, 1); //110
 1975              		.loc 1 437 0
 1976 0076 B3EE040A 		vmov.f32	s0, #2.0e+1
 1977              	.LVL104:
 1978 007a FFF7FEFF 		bl	Control_EdgeSet
 1979              	.LVL105:
 438:Src/motion.c  ****         Control_AngCalculator(0, 0, 0, 0, 1, 0);
 1980              		.loc 1 438 0
 1981 007e 124B     		ldr	r3, .L118+4
 1982 0080 D3ED027A 		vldr.32	s15, [r3, #8]
 1983 0084 9FED141A 		vldr.32	s2, .L118+20
 1984 0088 F7EE002A 		vmov.f32	s5, #1.0e+0
 1985 008c 9FED132A 		vldr.32	s4, .L118+24
 1986 0090 F0EE411A 		vmov.f32	s3, s2
 1987 0094 F0EE480A 		vmov.f32	s1, s16
 1988 0098 9FED110A 		vldr.32	s0, .L118+28
 1989 009c 30EE670A 		vsub.f32	s0, s0, s15
 1990 00a0 FFF7FEFF 		bl	Control_StrCalculator
 1991              	.LVL106:
 439:Src/motion.c  ****     }
 1992              		.loc 1 439 0
 1993 00a4 9FED070A 		vldr.32	s0, .L118
 1994 00a8 F0EE402A 		vmov.f32	s5, s0
 1995 00ac B7EE002A 		vmov.f32	s4, #1.0e+0
 1996 00b0 F0EE401A 		vmov.f32	s3, s0
ARM GAS  C:\Users\kotaro\AppData\Local\Temp\ccWGe4CN.s 			page 44


 1997 00b4 B0EE401A 		vmov.f32	s2, s0
 1998 00b8 F0EE400A 		vmov.f32	s1, s0
 1999 00bc FFF7FEFF 		bl	Control_AngCalculator
 2000              	.LVL107:
 2001 00c0 CAE7     		b	.L114
 2002              	.L119:
 2003 00c2 00BF     		.align	2
 2004              	.L118:
 2005 00c4 00000000 		.word	0
 2006 00c8 00000000 		.word	enc
 2007 00cc 00001644 		.word	1142292480
 2008 00d0 00003443 		.word	1127481344
 2009 00d4 00000000 		.word	motion_end_flag
 2010 00d8 00004844 		.word	1145569280
 2011 00dc 0000FA45 		.word	1174011904
 2012 00e0 0000DC42 		.word	1121714176
 2013              		.cfi_endproc
 2014              	.LFE173:
 2016              		.section	.text.Motion_Adjust_L,"ax",%progbits
 2017              		.align	1
 2018              		.global	Motion_Adjust_L
 2019              		.syntax unified
 2020              		.thumb
 2021              		.thumb_func
 2022              		.fpu fpv4-sp-d16
 2024              	Motion_Adjust_L:
 2025              	.LFB174:
 453:Src/motion.c  **** 
 454:Src/motion.c  **** void Motion_Adjust_L(uint16_t step, float velo_s)
 455:Src/motion.c  **** {
 2026              		.loc 1 455 0
 2027              		.cfi_startproc
 2028              		@ args = 0, pretend = 0, frame = 0
 2029              		@ frame_needed = 0, uses_anonymous_args = 0
 2030              	.LVL108:
 2031 0000 08B5     		push	{r3, lr}
 2032              	.LCFI41:
 2033              		.cfi_def_cfa_offset 8
 2034              		.cfi_offset 3, -8
 2035              		.cfi_offset 14, -4
 2036 0002 2DED028B 		vpush.64	{d8}
 2037              	.LCFI42:
 2038              		.cfi_def_cfa_offset 16
 2039              		.cfi_offset 80, -16
 2040              		.cfi_offset 81, -12
 456:Src/motion.c  ****     if (step == 1)
 2041              		.loc 1 456 0
 2042 0006 0128     		cmp	r0, #1
 2043 0008 2ED1     		bne	.L121
 2044              	.L122:
 457:Src/motion.c  ****     {
 458:Src/motion.c  ****         while (sen_l.diff > -9)
 2045              		.loc 1 458 0 discriminator 1
 2046 000a 2B4B     		ldr	r3, .L126
 2047 000c B3F91A30 		ldrsh	r3, [r3, #26]
 2048 0010 13F1080F 		cmn	r3, #8
 2049 0014 F9DA     		bge	.L122
ARM GAS  C:\Users\kotaro\AppData\Local\Temp\ccWGe4CN.s 			page 45


 459:Src/motion.c  ****             ;
 460:Src/motion.c  ****         Control_StrCalculator(12.0f, velo_s, VELO_F, VELO_F, ACCEL_F, 1);
 2050              		.loc 1 460 0
 2051 0016 9FED291A 		vldr.32	s2, .L126+4
 2052 001a F7EE002A 		vmov.f32	s5, #1.0e+0
 2053 001e 9FED282A 		vldr.32	s4, .L126+8
 2054 0022 F0EE411A 		vmov.f32	s3, s2
 2055 0026 F0EE400A 		vmov.f32	s1, s0
 2056 002a B2EE080A 		vmov.f32	s0, #1.2e+1
 2057              	.LVL109:
 2058 002e FFF7FEFF 		bl	Control_StrCalculator
 2059              	.LVL110:
 461:Src/motion.c  ****         Control_AngCalculator(0, 0, 0, 0, 1, 0);
 2060              		.loc 1 461 0
 2061 0032 9FED240A 		vldr.32	s0, .L126+12
 2062 0036 F0EE402A 		vmov.f32	s5, s0
 2063 003a B7EE002A 		vmov.f32	s4, #1.0e+0
 2064 003e F0EE401A 		vmov.f32	s3, s0
 2065 0042 B0EE401A 		vmov.f32	s2, s0
 2066 0046 F0EE400A 		vmov.f32	s1, s0
 2067 004a FFF7FEFF 		bl	Control_AngCalculator
 2068              	.LVL111:
 2069              	.L123:
 462:Src/motion.c  ****     }
 463:Src/motion.c  ****     else
 464:Src/motion.c  ****     {
 465:Src/motion.c  ****         Control_EdgeSet(0);
 466:Src/motion.c  ****         Control_StrCalculator(180.0f - enc.offset, VELO_S, VELO_S, VELO_S, 1, 1);
 467:Src/motion.c  ****         Control_AngCalculator(0, 0, 0, 0, 1, 0);
 468:Src/motion.c  ****     }
 469:Src/motion.c  ****     motion_end_flag = FALSE;
 2070              		.loc 1 469 0
 2071 004e 1E4B     		ldr	r3, .L126+16
 2072 0050 0022     		movs	r2, #0
 2073 0052 1A70     		strb	r2, [r3]
 2074              	.L124:
 470:Src/motion.c  ****     while (motion_end_flag == FALSE)
 2075              		.loc 1 470 0 discriminator 1
 2076 0054 1C4B     		ldr	r3, .L126+16
 2077 0056 1B78     		ldrb	r3, [r3]	@ zero_extendqisi2
 2078 0058 002B     		cmp	r3, #0
 2079 005a FBD0     		beq	.L124
 471:Src/motion.c  ****     {
 472:Src/motion.c  ****     }
 473:Src/motion.c  ****     enc.offset = 0.0f;
 2080              		.loc 1 473 0
 2081 005c 1B4B     		ldr	r3, .L126+20
 2082 005e 0022     		movs	r2, #0
 2083 0060 9A60     		str	r2, [r3, #8]	@ float
 474:Src/motion.c  **** }
 2084              		.loc 1 474 0
 2085 0062 BDEC028B 		vldm	sp!, {d8}
 2086              	.LCFI43:
 2087              		.cfi_remember_state
 2088              		.cfi_restore 80
 2089              		.cfi_restore 81
 2090              		.cfi_def_cfa_offset 8
ARM GAS  C:\Users\kotaro\AppData\Local\Temp\ccWGe4CN.s 			page 46


 2091 0066 08BD     		pop	{r3, pc}
 2092              	.LVL112:
 2093              	.L121:
 2094              	.LCFI44:
 2095              		.cfi_restore_state
 465:Src/motion.c  ****         Control_StrCalculator(180.0f - enc.offset, VELO_S, VELO_S, VELO_S, 1, 1);
 2096              		.loc 1 465 0
 2097 0068 9FED168A 		vldr.32	s16, .L126+12
 2098 006c B0EE480A 		vmov.f32	s0, s16
 2099              	.LVL113:
 2100 0070 FFF7FEFF 		bl	Control_EdgeSet
 2101              	.LVL114:
 466:Src/motion.c  ****         Control_AngCalculator(0, 0, 0, 0, 1, 0);
 2102              		.loc 1 466 0
 2103 0074 154B     		ldr	r3, .L126+20
 2104 0076 D3ED027A 		vldr.32	s15, [r3, #8]
 2105 007a DFED150A 		vldr.32	s1, .L126+24
 2106 007e F7EE002A 		vmov.f32	s5, #1.0e+0
 2107 0082 B0EE622A 		vmov.f32	s4, s5
 2108 0086 F0EE601A 		vmov.f32	s3, s1
 2109 008a B0EE601A 		vmov.f32	s2, s1
 2110 008e 9FED110A 		vldr.32	s0, .L126+28
 2111 0092 30EE670A 		vsub.f32	s0, s0, s15
 2112 0096 FFF7FEFF 		bl	Control_StrCalculator
 2113              	.LVL115:
 467:Src/motion.c  ****     }
 2114              		.loc 1 467 0
 2115 009a F0EE482A 		vmov.f32	s5, s16
 2116 009e B7EE002A 		vmov.f32	s4, #1.0e+0
 2117 00a2 F0EE481A 		vmov.f32	s3, s16
 2118 00a6 B0EE481A 		vmov.f32	s2, s16
 2119 00aa F0EE480A 		vmov.f32	s1, s16
 2120 00ae B0EE480A 		vmov.f32	s0, s16
 2121 00b2 FFF7FEFF 		bl	Control_AngCalculator
 2122              	.LVL116:
 2123 00b6 CAE7     		b	.L123
 2124              	.L127:
 2125              		.align	2
 2126              	.L126:
 2127 00b8 00000000 		.word	sen_l
 2128 00bc 00004844 		.word	1145569280
 2129 00c0 0000FA45 		.word	1174011904
 2130 00c4 00000000 		.word	0
 2131 00c8 00000000 		.word	motion_end_flag
 2132 00cc 00000000 		.word	enc
 2133 00d0 00001644 		.word	1142292480
 2134 00d4 00003443 		.word	1127481344
 2135              		.cfi_endproc
 2136              	.LFE174:
 2138              		.section	.text.Motion_Adjust_R,"ax",%progbits
 2139              		.align	1
 2140              		.global	Motion_Adjust_R
 2141              		.syntax unified
 2142              		.thumb
 2143              		.thumb_func
 2144              		.fpu fpv4-sp-d16
 2146              	Motion_Adjust_R:
ARM GAS  C:\Users\kotaro\AppData\Local\Temp\ccWGe4CN.s 			page 47


 2147              	.LFB175:
 475:Src/motion.c  **** 
 476:Src/motion.c  **** void Motion_Adjust_R(uint16_t step, float velo_s)
 477:Src/motion.c  **** {
 2148              		.loc 1 477 0
 2149              		.cfi_startproc
 2150              		@ args = 0, pretend = 0, frame = 0
 2151              		@ frame_needed = 0, uses_anonymous_args = 0
 2152              	.LVL117:
 2153 0000 08B5     		push	{r3, lr}
 2154              	.LCFI45:
 2155              		.cfi_def_cfa_offset 8
 2156              		.cfi_offset 3, -8
 2157              		.cfi_offset 14, -4
 2158 0002 2DED028B 		vpush.64	{d8}
 2159              	.LCFI46:
 2160              		.cfi_def_cfa_offset 16
 2161              		.cfi_offset 80, -16
 2162              		.cfi_offset 81, -12
 478:Src/motion.c  ****     if (step == 1)
 2163              		.loc 1 478 0
 2164 0006 0128     		cmp	r0, #1
 2165 0008 2ED1     		bne	.L129
 2166              	.L130:
 479:Src/motion.c  ****     {
 480:Src/motion.c  ****         while (sen_r.diff > -9)
 2167              		.loc 1 480 0 discriminator 1
 2168 000a 2B4B     		ldr	r3, .L134
 2169 000c B3F91A30 		ldrsh	r3, [r3, #26]
 2170 0010 13F1080F 		cmn	r3, #8
 2171 0014 F9DA     		bge	.L130
 481:Src/motion.c  ****             ;
 482:Src/motion.c  ****         Control_StrCalculator(20.0f, velo_s, VELO_F, VELO_F, ACCEL_F, 1);
 2172              		.loc 1 482 0
 2173 0016 9FED291A 		vldr.32	s2, .L134+4
 2174 001a F7EE002A 		vmov.f32	s5, #1.0e+0
 2175 001e 9FED282A 		vldr.32	s4, .L134+8
 2176 0022 F0EE411A 		vmov.f32	s3, s2
 2177 0026 F0EE400A 		vmov.f32	s1, s0
 2178 002a B3EE040A 		vmov.f32	s0, #2.0e+1
 2179              	.LVL118:
 2180 002e FFF7FEFF 		bl	Control_StrCalculator
 2181              	.LVL119:
 483:Src/motion.c  ****         Control_AngCalculator(0, 0, 0, 0, 1, 0);
 2182              		.loc 1 483 0
 2183 0032 9FED240A 		vldr.32	s0, .L134+12
 2184 0036 F0EE402A 		vmov.f32	s5, s0
 2185 003a B7EE002A 		vmov.f32	s4, #1.0e+0
 2186 003e F0EE401A 		vmov.f32	s3, s0
 2187 0042 B0EE401A 		vmov.f32	s2, s0
 2188 0046 F0EE400A 		vmov.f32	s1, s0
 2189 004a FFF7FEFF 		bl	Control_AngCalculator
 2190              	.LVL120:
 2191              	.L131:
 484:Src/motion.c  ****     }
 485:Src/motion.c  ****     else
 486:Src/motion.c  ****     {
ARM GAS  C:\Users\kotaro\AppData\Local\Temp\ccWGe4CN.s 			page 48


 487:Src/motion.c  ****         Control_EdgeSet(0);
 488:Src/motion.c  ****         Control_StrCalculator(180.0f - enc.offset, VELO_S, VELO_S, VELO_S, 1, 1);
 489:Src/motion.c  ****         Control_AngCalculator(0, 0, 0, 0, 1, 0);
 490:Src/motion.c  ****     }
 491:Src/motion.c  ****     motion_end_flag = FALSE;
 2192              		.loc 1 491 0
 2193 004e 1E4B     		ldr	r3, .L134+16
 2194 0050 0022     		movs	r2, #0
 2195 0052 1A70     		strb	r2, [r3]
 2196              	.L132:
 492:Src/motion.c  ****     while (motion_end_flag == FALSE)
 2197              		.loc 1 492 0 discriminator 1
 2198 0054 1C4B     		ldr	r3, .L134+16
 2199 0056 1B78     		ldrb	r3, [r3]	@ zero_extendqisi2
 2200 0058 002B     		cmp	r3, #0
 2201 005a FBD0     		beq	.L132
 493:Src/motion.c  ****     {
 494:Src/motion.c  ****     }
 495:Src/motion.c  ****     enc.offset = 0.0f;
 2202              		.loc 1 495 0
 2203 005c 1B4B     		ldr	r3, .L134+20
 2204 005e 0022     		movs	r2, #0
 2205 0060 9A60     		str	r2, [r3, #8]	@ float
 496:Src/motion.c  **** }
 2206              		.loc 1 496 0
 2207 0062 BDEC028B 		vldm	sp!, {d8}
 2208              	.LCFI47:
 2209              		.cfi_remember_state
 2210              		.cfi_restore 80
 2211              		.cfi_restore 81
 2212              		.cfi_def_cfa_offset 8
 2213 0066 08BD     		pop	{r3, pc}
 2214              	.LVL121:
 2215              	.L129:
 2216              	.LCFI48:
 2217              		.cfi_restore_state
 487:Src/motion.c  ****         Control_StrCalculator(180.0f - enc.offset, VELO_S, VELO_S, VELO_S, 1, 1);
 2218              		.loc 1 487 0
 2219 0068 9FED168A 		vldr.32	s16, .L134+12
 2220 006c B0EE480A 		vmov.f32	s0, s16
 2221              	.LVL122:
 2222 0070 FFF7FEFF 		bl	Control_EdgeSet
 2223              	.LVL123:
 488:Src/motion.c  ****         Control_AngCalculator(0, 0, 0, 0, 1, 0);
 2224              		.loc 1 488 0
 2225 0074 154B     		ldr	r3, .L134+20
 2226 0076 D3ED027A 		vldr.32	s15, [r3, #8]
 2227 007a DFED150A 		vldr.32	s1, .L134+24
 2228 007e F7EE002A 		vmov.f32	s5, #1.0e+0
 2229 0082 B0EE622A 		vmov.f32	s4, s5
 2230 0086 F0EE601A 		vmov.f32	s3, s1
 2231 008a B0EE601A 		vmov.f32	s2, s1
 2232 008e 9FED110A 		vldr.32	s0, .L134+28
 2233 0092 30EE670A 		vsub.f32	s0, s0, s15
 2234 0096 FFF7FEFF 		bl	Control_StrCalculator
 2235              	.LVL124:
 489:Src/motion.c  ****     }
ARM GAS  C:\Users\kotaro\AppData\Local\Temp\ccWGe4CN.s 			page 49


 2236              		.loc 1 489 0
 2237 009a F0EE482A 		vmov.f32	s5, s16
 2238 009e B7EE002A 		vmov.f32	s4, #1.0e+0
 2239 00a2 F0EE481A 		vmov.f32	s3, s16
 2240 00a6 B0EE481A 		vmov.f32	s2, s16
 2241 00aa F0EE480A 		vmov.f32	s1, s16
 2242 00ae B0EE480A 		vmov.f32	s0, s16
 2243 00b2 FFF7FEFF 		bl	Control_AngCalculator
 2244              	.LVL125:
 2245 00b6 CAE7     		b	.L131
 2246              	.L135:
 2247              		.align	2
 2248              	.L134:
 2249 00b8 00000000 		.word	sen_r
 2250 00bc 00004844 		.word	1145569280
 2251 00c0 0000FA45 		.word	1174011904
 2252 00c4 00000000 		.word	0
 2253 00c8 00000000 		.word	motion_end_flag
 2254 00cc 00000000 		.word	enc
 2255 00d0 00001644 		.word	1142292480
 2256 00d4 00003443 		.word	1127481344
 2257              		.cfi_endproc
 2258              	.LFE175:
 2260              		.section	.text.Motion_FastGoal,"ax",%progbits
 2261              		.align	1
 2262              		.global	Motion_FastGoal
 2263              		.syntax unified
 2264              		.thumb
 2265              		.thumb_func
 2266              		.fpu fpv4-sp-d16
 2268              	Motion_FastGoal:
 2269              	.LFB176:
 497:Src/motion.c  **** 
 498:Src/motion.c  **** void Motion_FastGoal(uint8_t step, float v_start)
 499:Src/motion.c  **** {
 2270              		.loc 1 499 0
 2271              		.cfi_startproc
 2272              		@ args = 0, pretend = 0, frame = 0
 2273              		@ frame_needed = 0, uses_anonymous_args = 0
 2274              	.LVL126:
 2275 0000 08B5     		push	{r3, lr}
 2276              	.LCFI49:
 2277              		.cfi_def_cfa_offset 8
 2278              		.cfi_offset 3, -8
 2279              		.cfi_offset 14, -4
 2280 0002 2DED028B 		vpush.64	{d8}
 2281              	.LCFI50:
 2282              		.cfi_def_cfa_offset 16
 2283              		.cfi_offset 80, -16
 2284              		.cfi_offset 81, -12
 2285 0006 F0EE400A 		vmov.f32	s1, s0
 500:Src/motion.c  ****     step--;
 2286              		.loc 1 500 0
 2287 000a 0138     		subs	r0, r0, #1
 2288              	.LVL127:
 2289 000c C3B2     		uxtb	r3, r0
 2290 000e 07EE903A 		vmov	s15, r3	@ int
ARM GAS  C:\Users\kotaro\AppData\Local\Temp\ccWGe4CN.s 			page 50


 2291              	.LVL128:
 501:Src/motion.c  ****     float velo = VELO_F + gain_velo * step;
 2292              		.loc 1 501 0
 2293 0012 B8EEE71A 		vcvt.f32.s32	s2, s15
 2294 0016 254B     		ldr	r3, .L141
 2295 0018 93ED007A 		vldr.32	s14, [r3]
 2296 001c 21EE071A 		vmul.f32	s2, s2, s14
 2297 0020 9FED237A 		vldr.32	s14, .L141+4
 2298 0024 31EE071A 		vadd.f32	s2, s2, s14
 2299              	.LVL129:
 502:Src/motion.c  ****     if (velo > 2400)
 2300              		.loc 1 502 0
 2301 0028 9FED227A 		vldr.32	s14, .L141+8
 2302 002c B4EEC71A 		vcmpe.f32	s2, s14
 2303 0030 F1EE10FA 		vmrs	APSR_nzcv, FPSCR
 2304 0034 01DD     		ble	.L137
 503:Src/motion.c  ****     {
 504:Src/motion.c  ****         velo = 2400;
 2305              		.loc 1 504 0
 2306 0036 B0EE471A 		vmov.f32	s2, s14
 2307              	.LVL130:
 2308              	.L137:
 505:Src/motion.c  ****     }
 506:Src/motion.c  ****     Control_StrCalculator(90.0f + 90.0f * (float)step - enc.offset, v_start, velo, 0, ACCEL_F, 1);
 2309              		.loc 1 506 0
 2310 003a F8EE677A 		vcvt.f32.u32	s15, s15
 2311 003e 9FED1E7A 		vldr.32	s14, .L141+12
 2312 0042 67EE877A 		vmul.f32	s15, s15, s14
 2313 0046 77EE877A 		vadd.f32	s15, s15, s14
 2314 004a 1C4B     		ldr	r3, .L141+16
 2315 004c 93ED020A 		vldr.32	s0, [r3, #8]
 2316              	.LVL131:
 2317 0050 9FED1B8A 		vldr.32	s16, .L141+20
 2318 0054 F7EE002A 		vmov.f32	s5, #1.0e+0
 2319 0058 9FED1A2A 		vldr.32	s4, .L141+24
 2320 005c F0EE481A 		vmov.f32	s3, s16
 2321 0060 37EEC00A 		vsub.f32	s0, s15, s0
 2322 0064 FFF7FEFF 		bl	Control_StrCalculator
 2323              	.LVL132:
 507:Src/motion.c  ****     Control_AngCalculator(0, 0, 0, 0, 1, 0);
 2324              		.loc 1 507 0
 2325 0068 F0EE482A 		vmov.f32	s5, s16
 2326 006c B7EE002A 		vmov.f32	s4, #1.0e+0
 2327 0070 F0EE481A 		vmov.f32	s3, s16
 2328 0074 B0EE481A 		vmov.f32	s2, s16
 2329 0078 F0EE480A 		vmov.f32	s1, s16
 2330 007c B0EE480A 		vmov.f32	s0, s16
 2331 0080 FFF7FEFF 		bl	Control_AngCalculator
 2332              	.LVL133:
 508:Src/motion.c  ****     motion_end_flag = FALSE;
 2333              		.loc 1 508 0
 2334 0084 104B     		ldr	r3, .L141+28
 2335 0086 0022     		movs	r2, #0
 2336 0088 1A70     		strb	r2, [r3]
 2337              	.L138:
 509:Src/motion.c  ****     while (motion_end_flag == FALSE)
 2338              		.loc 1 509 0 discriminator 1
ARM GAS  C:\Users\kotaro\AppData\Local\Temp\ccWGe4CN.s 			page 51


 2339 008a 0F4B     		ldr	r3, .L141+28
 2340 008c 1B78     		ldrb	r3, [r3]	@ zero_extendqisi2
 2341 008e 002B     		cmp	r3, #0
 2342 0090 FBD0     		beq	.L138
 510:Src/motion.c  ****     {
 511:Src/motion.c  ****     }
 512:Src/motion.c  ****     straight.v_now = 0;
 2343              		.loc 1 512 0
 2344 0092 0023     		movs	r3, #0
 2345 0094 0D4A     		ldr	r2, .L141+32
 2346 0096 D360     		str	r3, [r2, #12]	@ float
 513:Src/motion.c  ****     angle.v_now = 0;
 2347              		.loc 1 513 0
 2348 0098 0D4A     		ldr	r2, .L141+36
 2349 009a D360     		str	r3, [r2, #12]	@ float
 514:Src/motion.c  ****     HAL_Delay(800);
 2350              		.loc 1 514 0
 2351 009c 4FF44870 		mov	r0, #800
 2352 00a0 FFF7FEFF 		bl	HAL_Delay
 2353              	.LVL134:
 515:Src/motion.c  **** }
 2354              		.loc 1 515 0
 2355 00a4 BDEC028B 		vldm	sp!, {d8}
 2356              	.LCFI51:
 2357              		.cfi_restore 80
 2358              		.cfi_restore 81
 2359              		.cfi_def_cfa_offset 8
 2360 00a8 08BD     		pop	{r3, pc}
 2361              	.L142:
 2362 00aa 00BF     		.align	2
 2363              	.L141:
 2364 00ac 00000000 		.word	.LANCHOR0
 2365 00b0 00004844 		.word	1145569280
 2366 00b4 00001645 		.word	1159069696
 2367 00b8 0000B442 		.word	1119092736
 2368 00bc 00000000 		.word	enc
 2369 00c0 00000000 		.word	0
 2370 00c4 0000FA45 		.word	1174011904
 2371 00c8 00000000 		.word	motion_end_flag
 2372 00cc 00000000 		.word	straight
 2373 00d0 00000000 		.word	angle
 2374              		.cfi_endproc
 2375              	.LFE176:
 2377              		.section	.text.Motion_Diagonal,"ax",%progbits
 2378              		.align	1
 2379              		.global	Motion_Diagonal
 2380              		.syntax unified
 2381              		.thumb
 2382              		.thumb_func
 2383              		.fpu fpv4-sp-d16
 2385              	Motion_Diagonal:
 2386              	.LFB177:
 516:Src/motion.c  **** 
 517:Src/motion.c  **** void Motion_Diagonal(uint8_t step)
 518:Src/motion.c  **** {
 2387              		.loc 1 518 0
 2388              		.cfi_startproc
ARM GAS  C:\Users\kotaro\AppData\Local\Temp\ccWGe4CN.s 			page 52


 2389              		@ args = 0, pretend = 0, frame = 0
 2390              		@ frame_needed = 0, uses_anonymous_args = 0
 2391              	.LVL135:
 2392 0000 08B5     		push	{r3, lr}
 2393              	.LCFI52:
 2394              		.cfi_def_cfa_offset 8
 2395              		.cfi_offset 3, -8
 2396              		.cfi_offset 14, -4
 519:Src/motion.c  ****     Control_StrCalculator(diagonal_step * (float)step - enc.offset, VELO_F, VELO_F, VELO_F, ACCEL_F
 2397              		.loc 1 519 0
 2398 0002 07EE900A 		vmov	s15, r0	@ int
 2399 0006 F8EE677A 		vcvt.f32.u32	s15, s15
 2400 000a 174B     		ldr	r3, .L146
 2401 000c 93ED000A 		vldr.32	s0, [r3]
 2402 0010 67EE807A 		vmul.f32	s15, s15, s0
 2403 0014 154B     		ldr	r3, .L146+4
 2404 0016 93ED020A 		vldr.32	s0, [r3, #8]
 2405 001a DFED150A 		vldr.32	s1, .L146+8
 2406 001e F7EE002A 		vmov.f32	s5, #1.0e+0
 2407 0022 9FED142A 		vldr.32	s4, .L146+12
 2408 0026 F0EE601A 		vmov.f32	s3, s1
 2409 002a B0EE601A 		vmov.f32	s2, s1
 2410 002e 37EEC00A 		vsub.f32	s0, s15, s0
 2411 0032 FFF7FEFF 		bl	Control_StrCalculator
 2412              	.LVL136:
 520:Src/motion.c  ****     Control_AngCalculator(0, 0, 0, 0, 1, 0);
 2413              		.loc 1 520 0
 2414 0036 9FED100A 		vldr.32	s0, .L146+16
 2415 003a F0EE402A 		vmov.f32	s5, s0
 2416 003e B7EE002A 		vmov.f32	s4, #1.0e+0
 2417 0042 F0EE401A 		vmov.f32	s3, s0
 2418 0046 B0EE401A 		vmov.f32	s2, s0
 2419 004a F0EE400A 		vmov.f32	s1, s0
 2420 004e FFF7FEFF 		bl	Control_AngCalculator
 2421              	.LVL137:
 521:Src/motion.c  ****     motion_end_flag = FALSE;
 2422              		.loc 1 521 0
 2423 0052 0A4B     		ldr	r3, .L146+20
 2424 0054 0022     		movs	r2, #0
 2425 0056 1A70     		strb	r2, [r3]
 2426              	.L144:
 522:Src/motion.c  ****     while (motion_end_flag == FALSE)
 2427              		.loc 1 522 0 discriminator 1
 2428 0058 084B     		ldr	r3, .L146+20
 2429 005a 1B78     		ldrb	r3, [r3]	@ zero_extendqisi2
 2430 005c 002B     		cmp	r3, #0
 2431 005e FBD0     		beq	.L144
 523:Src/motion.c  ****     {
 524:Src/motion.c  ****     }
 525:Src/motion.c  ****     enc.offset = 0.0f;
 2432              		.loc 1 525 0
 2433 0060 024B     		ldr	r3, .L146+4
 2434 0062 0022     		movs	r2, #0
 2435 0064 9A60     		str	r2, [r3, #8]	@ float
 526:Src/motion.c  **** }
 2436              		.loc 1 526 0
 2437 0066 08BD     		pop	{r3, pc}
ARM GAS  C:\Users\kotaro\AppData\Local\Temp\ccWGe4CN.s 			page 53


 2438              	.L147:
 2439              		.align	2
 2440              	.L146:
 2441 0068 00000000 		.word	.LANCHOR2
 2442 006c 00000000 		.word	enc
 2443 0070 00004844 		.word	1145569280
 2444 0074 0000FA45 		.word	1174011904
 2445 0078 00000000 		.word	0
 2446 007c 00000000 		.word	motion_end_flag
 2447              		.cfi_endproc
 2448              	.LFE177:
 2450              		.section	.text.Motion_DiagonalLeft,"ax",%progbits
 2451              		.align	1
 2452              		.global	Motion_DiagonalLeft
 2453              		.syntax unified
 2454              		.thumb
 2455              		.thumb_func
 2456              		.fpu fpv4-sp-d16
 2458              	Motion_DiagonalLeft:
 2459              	.LFB178:
 527:Src/motion.c  **** 
 528:Src/motion.c  **** void Motion_DiagonalLeft(uint8_t step)
 529:Src/motion.c  **** {
 2460              		.loc 1 529 0
 2461              		.cfi_startproc
 2462              		@ args = 0, pretend = 0, frame = 0
 2463              		@ frame_needed = 0, uses_anonymous_args = 0
 2464              	.LVL138:
 2465 0000 08B5     		push	{r3, lr}
 2466              	.LCFI53:
 2467              		.cfi_def_cfa_offset 8
 2468              		.cfi_offset 3, -8
 2469              		.cfi_offset 14, -4
 530:Src/motion.c  ****     if (step > 1)
 2470              		.loc 1 530 0
 2471 0002 0128     		cmp	r0, #1
 2472 0004 46D9     		bls	.L152
 2473              	.LBB3:
 531:Src/motion.c  ****     {
 532:Src/motion.c  ****         step--;
 2474              		.loc 1 532 0
 2475 0006 0138     		subs	r0, r0, #1
 2476              	.LVL139:
 2477 0008 C3B2     		uxtb	r3, r0
 2478 000a 00EE103A 		vmov	s0, r3	@ int
 2479              	.LVL140:
 533:Src/motion.c  ****         float velo = VELO_F + gain_velo / 2.0f * step;
 2480              		.loc 1 533 0
 2481 000e 384B     		ldr	r3, .L156
 2482 0010 93ED001A 		vldr.32	s2, [r3]
 2483 0014 F6EE007A 		vmov.f32	s15, #5.0e-1
 2484 0018 61EE277A 		vmul.f32	s15, s2, s15
 2485 001c B8EEC01A 		vcvt.f32.s32	s2, s0
 2486 0020 21EE271A 		vmul.f32	s2, s2, s15
 2487 0024 DFED337A 		vldr.32	s15, .L156+4
 2488 0028 31EE271A 		vadd.f32	s2, s2, s15
 2489              	.LVL141:
ARM GAS  C:\Users\kotaro\AppData\Local\Temp\ccWGe4CN.s 			page 54


 534:Src/motion.c  ****         if (velo > 2400.0f)
 2490              		.loc 1 534 0
 2491 002c DFED327A 		vldr.32	s15, .L156+8
 2492 0030 B4EEE71A 		vcmpe.f32	s2, s15
 2493 0034 F1EE10FA 		vmrs	APSR_nzcv, FPSCR
 2494 0038 01DD     		ble	.L150
 535:Src/motion.c  ****         {
 536:Src/motion.c  ****             velo = 2400.0f;
 2495              		.loc 1 536 0
 2496 003a B0EE671A 		vmov.f32	s2, s15
 2497              	.LVL142:
 2498              	.L150:
 537:Src/motion.c  ****         }
 538:Src/motion.c  ****         Control_StrCalculator(diagonal_step * (float)step - enc.offset, VELO_F, velo, VELO_F, ACCEL
 2499              		.loc 1 538 0
 2500 003e B8EE400A 		vcvt.f32.u32	s0, s0
 2501 0042 2E4B     		ldr	r3, .L156+12
 2502 0044 D3ED007A 		vldr.32	s15, [r3]
 2503 0048 20EE270A 		vmul.f32	s0, s0, s15
 2504 004c 2C4B     		ldr	r3, .L156+16
 2505 004e D3ED027A 		vldr.32	s15, [r3, #8]
 2506 0052 DFED280A 		vldr.32	s1, .L156+4
 2507 0056 F7EE002A 		vmov.f32	s5, #1.0e+0
 2508 005a 9FED2A2A 		vldr.32	s4, .L156+20
 2509 005e F0EE601A 		vmov.f32	s3, s1
 2510 0062 30EE670A 		vsub.f32	s0, s0, s15
 2511 0066 FFF7FEFF 		bl	Control_StrCalculator
 2512              	.LVL143:
 539:Src/motion.c  ****         Control_AngCalculator(0, 0, 0, 0, 1, 0);
 2513              		.loc 1 539 0
 2514 006a 9FED270A 		vldr.32	s0, .L156+24
 2515 006e F0EE402A 		vmov.f32	s5, s0
 2516 0072 B7EE002A 		vmov.f32	s4, #1.0e+0
 2517 0076 F0EE401A 		vmov.f32	s3, s0
 2518 007a B0EE401A 		vmov.f32	s2, s0
 2519 007e F0EE400A 		vmov.f32	s1, s0
 2520 0082 FFF7FEFF 		bl	Control_AngCalculator
 2521              	.LVL144:
 540:Src/motion.c  ****         motion_end_flag = FALSE;
 2522              		.loc 1 540 0
 2523 0086 214B     		ldr	r3, .L156+28
 2524 0088 0022     		movs	r2, #0
 2525 008a 1A70     		strb	r2, [r3]
 2526              	.L151:
 541:Src/motion.c  ****         while (motion_end_flag == FALSE)
 2527              		.loc 1 541 0 discriminator 1
 2528 008c 1F4B     		ldr	r3, .L156+28
 2529 008e 1B78     		ldrb	r3, [r3]	@ zero_extendqisi2
 2530 0090 002B     		cmp	r3, #0
 2531 0092 FBD0     		beq	.L151
 2532              	.L152:
 2533              	.LBE3:
 542:Src/motion.c  ****         {
 543:Src/motion.c  ****         }
 544:Src/motion.c  ****     }
 545:Src/motion.c  ****     while (sen_l.diff > -9)
 2534              		.loc 1 545 0 discriminator 1
ARM GAS  C:\Users\kotaro\AppData\Local\Temp\ccWGe4CN.s 			page 55


 2535 0094 1E4B     		ldr	r3, .L156+32
 2536 0096 B3F91A30 		ldrsh	r3, [r3, #26]
 2537 009a 13F1080F 		cmn	r3, #8
 2538 009e F9DA     		bge	.L152
 546:Src/motion.c  ****         ;
 547:Src/motion.c  ****     Control_StrCalculator(20.0f, VELO_F, VELO_F, VELO_F, ACCEL_F, 1); //26
 2539              		.loc 1 547 0
 2540 00a0 DFED140A 		vldr.32	s1, .L156+4
 2541 00a4 F7EE002A 		vmov.f32	s5, #1.0e+0
 2542 00a8 9FED162A 		vldr.32	s4, .L156+20
 2543 00ac F0EE601A 		vmov.f32	s3, s1
 2544 00b0 B0EE601A 		vmov.f32	s2, s1
 2545 00b4 B3EE040A 		vmov.f32	s0, #2.0e+1
 2546 00b8 FFF7FEFF 		bl	Control_StrCalculator
 2547              	.LVL145:
 548:Src/motion.c  ****     Control_AngCalculator(0, 0, 0, 0, 1, 0);
 2548              		.loc 1 548 0
 2549 00bc 9FED120A 		vldr.32	s0, .L156+24
 2550 00c0 F0EE402A 		vmov.f32	s5, s0
 2551 00c4 B7EE002A 		vmov.f32	s4, #1.0e+0
 2552 00c8 F0EE401A 		vmov.f32	s3, s0
 2553 00cc B0EE401A 		vmov.f32	s2, s0
 2554 00d0 F0EE400A 		vmov.f32	s1, s0
 2555 00d4 FFF7FEFF 		bl	Control_AngCalculator
 2556              	.LVL146:
 549:Src/motion.c  ****     motion_end_flag = FALSE;
 2557              		.loc 1 549 0
 2558 00d8 0C4B     		ldr	r3, .L156+28
 2559 00da 0022     		movs	r2, #0
 2560 00dc 1A70     		strb	r2, [r3]
 2561              	.L153:
 550:Src/motion.c  ****     while (motion_end_flag == FALSE)
 2562              		.loc 1 550 0 discriminator 1
 2563 00de 0B4B     		ldr	r3, .L156+28
 2564 00e0 1B78     		ldrb	r3, [r3]	@ zero_extendqisi2
 2565 00e2 002B     		cmp	r3, #0
 2566 00e4 FBD0     		beq	.L153
 551:Src/motion.c  ****     {
 552:Src/motion.c  ****     }
 553:Src/motion.c  ****     enc.offset = 0.0f;
 2567              		.loc 1 553 0
 2568 00e6 064B     		ldr	r3, .L156+16
 2569 00e8 0022     		movs	r2, #0
 2570 00ea 9A60     		str	r2, [r3, #8]	@ float
 554:Src/motion.c  **** }
 2571              		.loc 1 554 0
 2572 00ec 08BD     		pop	{r3, pc}
 2573              	.L157:
 2574 00ee 00BF     		.align	2
 2575              	.L156:
 2576 00f0 00000000 		.word	.LANCHOR0
 2577 00f4 00004844 		.word	1145569280
 2578 00f8 00001645 		.word	1159069696
 2579 00fc 00000000 		.word	.LANCHOR2
 2580 0100 00000000 		.word	enc
 2581 0104 0000FA45 		.word	1174011904
 2582 0108 00000000 		.word	0
ARM GAS  C:\Users\kotaro\AppData\Local\Temp\ccWGe4CN.s 			page 56


 2583 010c 00000000 		.word	motion_end_flag
 2584 0110 00000000 		.word	sen_l
 2585              		.cfi_endproc
 2586              	.LFE178:
 2588              		.section	.text.Motion_DiagonalRight,"ax",%progbits
 2589              		.align	1
 2590              		.global	Motion_DiagonalRight
 2591              		.syntax unified
 2592              		.thumb
 2593              		.thumb_func
 2594              		.fpu fpv4-sp-d16
 2596              	Motion_DiagonalRight:
 2597              	.LFB179:
 555:Src/motion.c  **** 
 556:Src/motion.c  **** void Motion_DiagonalRight(uint8_t step)
 557:Src/motion.c  **** {
 2598              		.loc 1 557 0
 2599              		.cfi_startproc
 2600              		@ args = 0, pretend = 0, frame = 0
 2601              		@ frame_needed = 0, uses_anonymous_args = 0
 2602              	.LVL147:
 2603 0000 08B5     		push	{r3, lr}
 2604              	.LCFI54:
 2605              		.cfi_def_cfa_offset 8
 2606              		.cfi_offset 3, -8
 2607              		.cfi_offset 14, -4
 558:Src/motion.c  ****     if (step > 1)
 2608              		.loc 1 558 0
 2609 0002 0128     		cmp	r0, #1
 2610 0004 44D9     		bls	.L162
 2611              	.LBB4:
 559:Src/motion.c  ****     {
 560:Src/motion.c  ****         step--;
 2612              		.loc 1 560 0
 2613 0006 0138     		subs	r0, r0, #1
 2614              	.LVL148:
 2615 0008 C0B2     		uxtb	r0, r0
 2616              	.LVL149:
 561:Src/motion.c  ****         float velo = VELO_F + gain_velo / 2.0f * (float)step;
 2617              		.loc 1 561 0
 2618 000a 384B     		ldr	r3, .L166
 2619 000c 93ED001A 		vldr.32	s2, [r3]
 2620 0010 F6EE007A 		vmov.f32	s15, #5.0e-1
 2621 0014 21EE271A 		vmul.f32	s2, s2, s15
 2622 0018 07EE900A 		vmov	s15, r0	@ int
 2623 001c B8EE670A 		vcvt.f32.u32	s0, s15
 2624 0020 21EE001A 		vmul.f32	s2, s2, s0
 2625 0024 DFED327A 		vldr.32	s15, .L166+4
 2626 0028 31EE271A 		vadd.f32	s2, s2, s15
 2627              	.LVL150:
 562:Src/motion.c  ****         if (velo > 2400.0f)
 2628              		.loc 1 562 0
 2629 002c DFED317A 		vldr.32	s15, .L166+8
 2630 0030 B4EEE71A 		vcmpe.f32	s2, s15
 2631 0034 F1EE10FA 		vmrs	APSR_nzcv, FPSCR
 2632 0038 01DD     		ble	.L160
 563:Src/motion.c  ****         {
ARM GAS  C:\Users\kotaro\AppData\Local\Temp\ccWGe4CN.s 			page 57


 564:Src/motion.c  ****             velo = 2400.0f;
 2633              		.loc 1 564 0
 2634 003a B0EE671A 		vmov.f32	s2, s15
 2635              	.LVL151:
 2636              	.L160:
 565:Src/motion.c  ****         }
 566:Src/motion.c  ****         Control_StrCalculator(diagonal_step * (float)step - enc.offset, VELO_F, velo, VELO_F, ACCEL
 2637              		.loc 1 566 0
 2638 003e 2E4B     		ldr	r3, .L166+12
 2639 0040 D3ED007A 		vldr.32	s15, [r3]
 2640 0044 20EE270A 		vmul.f32	s0, s0, s15
 2641 0048 2C4B     		ldr	r3, .L166+16
 2642 004a D3ED027A 		vldr.32	s15, [r3, #8]
 2643 004e DFED280A 		vldr.32	s1, .L166+4
 2644 0052 F7EE002A 		vmov.f32	s5, #1.0e+0
 2645 0056 9FED2A2A 		vldr.32	s4, .L166+20
 2646 005a F0EE601A 		vmov.f32	s3, s1
 2647 005e 30EE670A 		vsub.f32	s0, s0, s15
 2648 0062 FFF7FEFF 		bl	Control_StrCalculator
 2649              	.LVL152:
 567:Src/motion.c  ****         Control_AngCalculator(0, 0, 0, 0, 1, 0);
 2650              		.loc 1 567 0
 2651 0066 9FED270A 		vldr.32	s0, .L166+24
 2652 006a F0EE402A 		vmov.f32	s5, s0
 2653 006e B7EE002A 		vmov.f32	s4, #1.0e+0
 2654 0072 F0EE401A 		vmov.f32	s3, s0
 2655 0076 B0EE401A 		vmov.f32	s2, s0
 2656 007a F0EE400A 		vmov.f32	s1, s0
 2657 007e FFF7FEFF 		bl	Control_AngCalculator
 2658              	.LVL153:
 568:Src/motion.c  ****         motion_end_flag = FALSE;
 2659              		.loc 1 568 0
 2660 0082 214B     		ldr	r3, .L166+28
 2661 0084 0022     		movs	r2, #0
 2662 0086 1A70     		strb	r2, [r3]
 2663              	.L161:
 569:Src/motion.c  ****         while (motion_end_flag == FALSE)
 2664              		.loc 1 569 0 discriminator 1
 2665 0088 1F4B     		ldr	r3, .L166+28
 2666 008a 1B78     		ldrb	r3, [r3]	@ zero_extendqisi2
 2667 008c 002B     		cmp	r3, #0
 2668 008e FBD0     		beq	.L161
 2669              	.L162:
 2670              	.LBE4:
 570:Src/motion.c  ****         {
 571:Src/motion.c  ****         }
 572:Src/motion.c  ****     }
 573:Src/motion.c  ****     while (sen_r.diff > -9)
 2671              		.loc 1 573 0 discriminator 1
 2672 0090 1E4B     		ldr	r3, .L166+32
 2673 0092 B3F91A30 		ldrsh	r3, [r3, #26]
 2674 0096 13F1080F 		cmn	r3, #8
 2675 009a F9DA     		bge	.L162
 574:Src/motion.c  ****         ;
 575:Src/motion.c  ****     Control_StrCalculator(21.0f, VELO_F, VELO_F, VELO_F, ACCEL_F, 1); //20
 2676              		.loc 1 575 0
 2677 009c DFED140A 		vldr.32	s1, .L166+4
ARM GAS  C:\Users\kotaro\AppData\Local\Temp\ccWGe4CN.s 			page 58


 2678 00a0 F7EE002A 		vmov.f32	s5, #1.0e+0
 2679 00a4 9FED162A 		vldr.32	s4, .L166+20
 2680 00a8 F0EE601A 		vmov.f32	s3, s1
 2681 00ac B0EE601A 		vmov.f32	s2, s1
 2682 00b0 B3EE050A 		vmov.f32	s0, #2.1e+1
 2683 00b4 FFF7FEFF 		bl	Control_StrCalculator
 2684              	.LVL154:
 576:Src/motion.c  ****     Control_AngCalculator(0, 0, 0, 0, 1, 0);
 2685              		.loc 1 576 0
 2686 00b8 9FED120A 		vldr.32	s0, .L166+24
 2687 00bc F0EE402A 		vmov.f32	s5, s0
 2688 00c0 B7EE002A 		vmov.f32	s4, #1.0e+0
 2689 00c4 F0EE401A 		vmov.f32	s3, s0
 2690 00c8 B0EE401A 		vmov.f32	s2, s0
 2691 00cc F0EE400A 		vmov.f32	s1, s0
 2692 00d0 FFF7FEFF 		bl	Control_AngCalculator
 2693              	.LVL155:
 577:Src/motion.c  ****     motion_end_flag = FALSE;
 2694              		.loc 1 577 0
 2695 00d4 0C4B     		ldr	r3, .L166+28
 2696 00d6 0022     		movs	r2, #0
 2697 00d8 1A70     		strb	r2, [r3]
 2698              	.L163:
 578:Src/motion.c  ****     while (motion_end_flag == FALSE)
 2699              		.loc 1 578 0 discriminator 1
 2700 00da 0B4B     		ldr	r3, .L166+28
 2701 00dc 1B78     		ldrb	r3, [r3]	@ zero_extendqisi2
 2702 00de 002B     		cmp	r3, #0
 2703 00e0 FBD0     		beq	.L163
 579:Src/motion.c  ****     {
 580:Src/motion.c  ****     }
 581:Src/motion.c  ****     enc.offset = 0.0f;
 2704              		.loc 1 581 0
 2705 00e2 064B     		ldr	r3, .L166+16
 2706 00e4 0022     		movs	r2, #0
 2707 00e6 9A60     		str	r2, [r3, #8]	@ float
 582:Src/motion.c  **** }
 2708              		.loc 1 582 0
 2709 00e8 08BD     		pop	{r3, pc}
 2710              	.L167:
 2711 00ea 00BF     		.align	2
 2712              	.L166:
 2713 00ec 00000000 		.word	.LANCHOR0
 2714 00f0 00004844 		.word	1145569280
 2715 00f4 00001645 		.word	1159069696
 2716 00f8 00000000 		.word	.LANCHOR2
 2717 00fc 00000000 		.word	enc
 2718 0100 0000FA45 		.word	1174011904
 2719 0104 00000000 		.word	0
 2720 0108 00000000 		.word	motion_end_flag
 2721 010c 00000000 		.word	sen_r
 2722              		.cfi_endproc
 2723              	.LFE179:
 2725              		.section	.text.Motion_DiagonalStart,"ax",%progbits
 2726              		.align	1
 2727              		.global	Motion_DiagonalStart
 2728              		.syntax unified
ARM GAS  C:\Users\kotaro\AppData\Local\Temp\ccWGe4CN.s 			page 59


 2729              		.thumb
 2730              		.thumb_func
 2731              		.fpu fpv4-sp-d16
 2733              	Motion_DiagonalStart:
 2734              	.LFB180:
 583:Src/motion.c  **** 
 584:Src/motion.c  **** void Motion_DiagonalStart(void)
 585:Src/motion.c  **** {
 2735              		.loc 1 585 0
 2736              		.cfi_startproc
 2737              		@ args = 0, pretend = 0, frame = 0
 2738              		@ frame_needed = 0, uses_anonymous_args = 0
 2739 0000 08B5     		push	{r3, lr}
 2740              	.LCFI55:
 2741              		.cfi_def_cfa_offset 8
 2742              		.cfi_offset 3, -8
 2743              		.cfi_offset 14, -4
 2744 0002 2DED028B 		vpush.64	{d8}
 2745              	.LCFI56:
 2746              		.cfi_def_cfa_offset 16
 2747              		.cfi_offset 80, -16
 2748              		.cfi_offset 81, -12
 586:Src/motion.c  ****     Control_ResetVelo();
 2749              		.loc 1 586 0
 2750 0006 FFF7FEFF 		bl	Control_ResetVelo
 2751              	.LVL156:
 587:Src/motion.c  ****     diagonal_step = 90.0f * sqrt(2);
 2752              		.loc 1 587 0
 2753 000a 174B     		ldr	r3, .L171
 2754 000c 174A     		ldr	r2, .L171+4
 2755 000e 1A60     		str	r2, [r3]	@ float
 588:Src/motion.c  ****     Control_StrCalculator(diagonal_step * 2.0f, 0, VELO_F, VELO_F, ACCEL_F, 1);
 2756              		.loc 1 588 0
 2757 0010 9FED171A 		vldr.32	s2, .L171+8
 2758 0014 9FED178A 		vldr.32	s16, .L171+12
 2759 0018 F7EE002A 		vmov.f32	s5, #1.0e+0
 2760 001c 9FED162A 		vldr.32	s4, .L171+16
 2761 0020 F0EE411A 		vmov.f32	s3, s2
 2762 0024 F0EE480A 		vmov.f32	s1, s16
 2763 0028 9FED140A 		vldr.32	s0, .L171+20
 2764 002c FFF7FEFF 		bl	Control_StrCalculator
 2765              	.LVL157:
 589:Src/motion.c  ****     Control_AngCalculator(0, 0, 0, 0, 1, 0);
 2766              		.loc 1 589 0
 2767 0030 F0EE482A 		vmov.f32	s5, s16
 2768 0034 B7EE002A 		vmov.f32	s4, #1.0e+0
 2769 0038 F0EE481A 		vmov.f32	s3, s16
 2770 003c B0EE481A 		vmov.f32	s2, s16
 2771 0040 F0EE480A 		vmov.f32	s1, s16
 2772 0044 B0EE480A 		vmov.f32	s0, s16
 2773 0048 FFF7FEFF 		bl	Control_AngCalculator
 2774              	.LVL158:
 590:Src/motion.c  ****     motion_end_flag = FALSE;
 2775              		.loc 1 590 0
 2776 004c 0C4B     		ldr	r3, .L171+24
 2777 004e 0022     		movs	r2, #0
 2778 0050 1A70     		strb	r2, [r3]
ARM GAS  C:\Users\kotaro\AppData\Local\Temp\ccWGe4CN.s 			page 60


 2779              	.L169:
 591:Src/motion.c  ****     while (motion_end_flag == FALSE)
 2780              		.loc 1 591 0 discriminator 1
 2781 0052 0B4B     		ldr	r3, .L171+24
 2782 0054 1B78     		ldrb	r3, [r3]	@ zero_extendqisi2
 2783 0056 002B     		cmp	r3, #0
 2784 0058 FBD0     		beq	.L169
 592:Src/motion.c  ****     {
 593:Src/motion.c  ****     }
 594:Src/motion.c  ****     enc.offset = 0;
 2785              		.loc 1 594 0
 2786 005a 0A4B     		ldr	r3, .L171+28
 2787 005c 0022     		movs	r2, #0
 2788 005e 9A60     		str	r2, [r3, #8]	@ float
 595:Src/motion.c  **** }
 2789              		.loc 1 595 0
 2790 0060 BDEC028B 		vldm	sp!, {d8}
 2791              	.LCFI57:
 2792              		.cfi_restore 80
 2793              		.cfi_restore 81
 2794              		.cfi_def_cfa_offset 8
 2795 0064 08BD     		pop	{r3, pc}
 2796              	.L172:
 2797 0066 00BF     		.align	2
 2798              	.L171:
 2799 0068 00000000 		.word	.LANCHOR2
 2800 006c F68EFE42 		.word	1123978998
 2801 0070 00004844 		.word	1145569280
 2802 0074 00000000 		.word	0
 2803 0078 0000FA45 		.word	1174011904
 2804 007c F68E7E43 		.word	1132367606
 2805 0080 00000000 		.word	motion_end_flag
 2806 0084 00000000 		.word	enc
 2807              		.cfi_endproc
 2808              	.LFE180:
 2810              		.section	.text.Motion_DiagonalStop,"ax",%progbits
 2811              		.align	1
 2812              		.global	Motion_DiagonalStop
 2813              		.syntax unified
 2814              		.thumb
 2815              		.thumb_func
 2816              		.fpu fpv4-sp-d16
 2818              	Motion_DiagonalStop:
 2819              	.LFB181:
 596:Src/motion.c  **** 
 597:Src/motion.c  **** void Motion_DiagonalStop(void)
 598:Src/motion.c  **** {
 2820              		.loc 1 598 0
 2821              		.cfi_startproc
 2822              		@ args = 0, pretend = 0, frame = 0
 2823              		@ frame_needed = 0, uses_anonymous_args = 0
 2824 0000 08B5     		push	{r3, lr}
 2825              	.LCFI58:
 2826              		.cfi_def_cfa_offset 8
 2827              		.cfi_offset 3, -8
 2828              		.cfi_offset 14, -4
 2829 0002 2DED028B 		vpush.64	{d8}
ARM GAS  C:\Users\kotaro\AppData\Local\Temp\ccWGe4CN.s 			page 61


 2830              	.LCFI59:
 2831              		.cfi_def_cfa_offset 16
 2832              		.cfi_offset 80, -16
 2833              		.cfi_offset 81, -12
 599:Src/motion.c  ****     Control_StrCalculator(diagonal_step * 2.0f - enc.offset, VELO_F, VELO_F, 0, ACCEL_F, 1);
 2834              		.loc 1 599 0
 2835 0006 1E4B     		ldr	r3, .L176
 2836 0008 93ED000A 		vldr.32	s0, [r3]
 2837 000c 30EE000A 		vadd.f32	s0, s0, s0
 2838 0010 1C4B     		ldr	r3, .L176+4
 2839 0012 D3ED027A 		vldr.32	s15, [r3, #8]
 2840 0016 9FED1C8A 		vldr.32	s16, .L176+8
 2841 001a DFED1C0A 		vldr.32	s1, .L176+12
 2842 001e F7EE002A 		vmov.f32	s5, #1.0e+0
 2843 0022 9FED1B2A 		vldr.32	s4, .L176+16
 2844 0026 F0EE481A 		vmov.f32	s3, s16
 2845 002a B0EE601A 		vmov.f32	s2, s1
 2846 002e 30EE670A 		vsub.f32	s0, s0, s15
 2847 0032 FFF7FEFF 		bl	Control_StrCalculator
 2848              	.LVL159:
 600:Src/motion.c  ****     Control_AngCalculator(0, 0, 0, 0, 1, 0);
 2849              		.loc 1 600 0
 2850 0036 F0EE482A 		vmov.f32	s5, s16
 2851 003a B7EE002A 		vmov.f32	s4, #1.0e+0
 2852 003e F0EE481A 		vmov.f32	s3, s16
 2853 0042 B0EE481A 		vmov.f32	s2, s16
 2854 0046 F0EE480A 		vmov.f32	s1, s16
 2855 004a B0EE480A 		vmov.f32	s0, s16
 2856 004e FFF7FEFF 		bl	Control_AngCalculator
 2857              	.LVL160:
 601:Src/motion.c  ****     motion_end_flag = FALSE;
 2858              		.loc 1 601 0
 2859 0052 104B     		ldr	r3, .L176+20
 2860 0054 0022     		movs	r2, #0
 2861 0056 1A70     		strb	r2, [r3]
 2862              	.L174:
 602:Src/motion.c  ****     while (motion_end_flag == FALSE)
 2863              		.loc 1 602 0 discriminator 1
 2864 0058 0E4B     		ldr	r3, .L176+20
 2865 005a 1B78     		ldrb	r3, [r3]	@ zero_extendqisi2
 2866 005c 002B     		cmp	r3, #0
 2867 005e FBD0     		beq	.L174
 603:Src/motion.c  ****     {
 604:Src/motion.c  ****     }
 605:Src/motion.c  ****     straight.v_now = 0;
 2868              		.loc 1 605 0
 2869 0060 0023     		movs	r3, #0
 2870 0062 0D4A     		ldr	r2, .L176+24
 2871 0064 D360     		str	r3, [r2, #12]	@ float
 606:Src/motion.c  ****     angle.v_now = 0;
 2872              		.loc 1 606 0
 2873 0066 0D4A     		ldr	r2, .L176+28
 2874 0068 D360     		str	r3, [r2, #12]	@ float
 607:Src/motion.c  ****     error_ang_sum = 0.0f;
 2875              		.loc 1 607 0
 2876 006a 0D4A     		ldr	r2, .L176+32
 2877 006c 1360     		str	r3, [r2]	@ float
ARM GAS  C:\Users\kotaro\AppData\Local\Temp\ccWGe4CN.s 			page 62


 608:Src/motion.c  ****     error_ang_old = 0.0f;
 2878              		.loc 1 608 0
 2879 006e 0D4A     		ldr	r2, .L176+36
 2880 0070 1360     		str	r3, [r2]	@ float
 609:Src/motion.c  ****     HAL_Delay(500);
 2881              		.loc 1 609 0
 2882 0072 4FF4FA70 		mov	r0, #500
 2883 0076 FFF7FEFF 		bl	HAL_Delay
 2884              	.LVL161:
 610:Src/motion.c  **** }
 2885              		.loc 1 610 0
 2886 007a BDEC028B 		vldm	sp!, {d8}
 2887              	.LCFI60:
 2888              		.cfi_restore 80
 2889              		.cfi_restore 81
 2890              		.cfi_def_cfa_offset 8
 2891 007e 08BD     		pop	{r3, pc}
 2892              	.L177:
 2893              		.align	2
 2894              	.L176:
 2895 0080 00000000 		.word	.LANCHOR2
 2896 0084 00000000 		.word	enc
 2897 0088 00000000 		.word	0
 2898 008c 00004844 		.word	1145569280
 2899 0090 0000FA45 		.word	1174011904
 2900 0094 00000000 		.word	motion_end_flag
 2901 0098 00000000 		.word	straight
 2902 009c 00000000 		.word	angle
 2903 00a0 00000000 		.word	error_ang_sum
 2904 00a4 00000000 		.word	error_ang_old
 2905              		.cfi_endproc
 2906              	.LFE181:
 2908              		.section	.text.Motion_InLeft45Turn,"ax",%progbits
 2909              		.align	1
 2910              		.global	Motion_InLeft45Turn
 2911              		.syntax unified
 2912              		.thumb
 2913              		.thumb_func
 2914              		.fpu fpv4-sp-d16
 2916              	Motion_InLeft45Turn:
 2917              	.LFB182:
 611:Src/motion.c  **** 
 612:Src/motion.c  **** void Motion_InLeft45Turn(void)
 613:Src/motion.c  **** {
 2918              		.loc 1 613 0
 2919              		.cfi_startproc
 2920              		@ args = 0, pretend = 0, frame = 0
 2921              		@ frame_needed = 0, uses_anonymous_args = 0
 2922 0000 08B5     		push	{r3, lr}
 2923              	.LCFI61:
 2924              		.cfi_def_cfa_offset 8
 2925              		.cfi_offset 3, -8
 2926              		.cfi_offset 14, -4
 614:Src/motion.c  ****     //offset in
 615:Src/motion.c  ****     Control_StrCalculator(41.0f - enc.offset, VELO_F, VELO_F, VELO_F, ACCEL_F, 1); //
 2927              		.loc 1 615 0
 2928 0002 404B     		ldr	r3, .L184
ARM GAS  C:\Users\kotaro\AppData\Local\Temp\ccWGe4CN.s 			page 63


 2929 0004 D3ED027A 		vldr.32	s15, [r3, #8]
 2930 0008 DFED3F0A 		vldr.32	s1, .L184+4
 2931 000c F7EE002A 		vmov.f32	s5, #1.0e+0
 2932 0010 9FED3E2A 		vldr.32	s4, .L184+8
 2933 0014 F0EE601A 		vmov.f32	s3, s1
 2934 0018 B0EE601A 		vmov.f32	s2, s1
 2935 001c 9FED3C0A 		vldr.32	s0, .L184+12
 2936 0020 30EE670A 		vsub.f32	s0, s0, s15
 2937 0024 FFF7FEFF 		bl	Control_StrCalculator
 2938              	.LVL162:
 616:Src/motion.c  ****     Control_AngCalculator(0, 0, 0, 0, 1, 0);
 2939              		.loc 1 616 0
 2940 0028 9FED3A0A 		vldr.32	s0, .L184+16
 2941 002c F0EE402A 		vmov.f32	s5, s0
 2942 0030 B7EE002A 		vmov.f32	s4, #1.0e+0
 2943 0034 F0EE401A 		vmov.f32	s3, s0
 2944 0038 B0EE401A 		vmov.f32	s2, s0
 2945 003c F0EE400A 		vmov.f32	s1, s0
 2946 0040 FFF7FEFF 		bl	Control_AngCalculator
 2947              	.LVL163:
 617:Src/motion.c  ****     motion_end_flag = FALSE;
 2948              		.loc 1 617 0
 2949 0044 344B     		ldr	r3, .L184+20
 2950 0046 0022     		movs	r2, #0
 2951 0048 1A70     		strb	r2, [r3]
 2952              	.L179:
 618:Src/motion.c  ****     while (motion_end_flag == FALSE)
 2953              		.loc 1 618 0 discriminator 1
 2954 004a 334B     		ldr	r3, .L184+20
 2955 004c 1B78     		ldrb	r3, [r3]	@ zero_extendqisi2
 2956 004e 002B     		cmp	r3, #0
 2957 0050 FBD0     		beq	.L179
 619:Src/motion.c  ****     {
 620:Src/motion.c  ****     }
 621:Src/motion.c  ****     //turn
 622:Src/motion.c  ****     Control_StrCalculator(800.0f, VELO_F, VELO_F, VELO_F, 1, 1);
 2958              		.loc 1 622 0
 2959 0052 9FED2D0A 		vldr.32	s0, .L184+4
 2960 0056 F7EE002A 		vmov.f32	s5, #1.0e+0
 2961 005a B0EE622A 		vmov.f32	s4, s5
 2962 005e F0EE401A 		vmov.f32	s3, s0
 2963 0062 B0EE401A 		vmov.f32	s2, s0
 2964 0066 F0EE400A 		vmov.f32	s1, s0
 2965 006a FFF7FEFF 		bl	Control_StrCalculator
 2966              	.LVL164:
 623:Src/motion.c  ****     Control_AngCalculator(45.0f, 0, 600.0f, 0, 20000.0f, 1);
 2967              		.loc 1 623 0
 2968 006e DFED290A 		vldr.32	s1, .L184+16
 2969 0072 F7EE002A 		vmov.f32	s5, #1.0e+0
 2970 0076 9FED292A 		vldr.32	s4, .L184+24
 2971 007a F0EE601A 		vmov.f32	s3, s1
 2972 007e 9FED281A 		vldr.32	s2, .L184+28
 2973 0082 9FED280A 		vldr.32	s0, .L184+32
 2974 0086 FFF7FEFF 		bl	Control_AngCalculator
 2975              	.LVL165:
 624:Src/motion.c  ****     motion_end_flag = FALSE;
 2976              		.loc 1 624 0
ARM GAS  C:\Users\kotaro\AppData\Local\Temp\ccWGe4CN.s 			page 64


 2977 008a 234B     		ldr	r3, .L184+20
 2978 008c 0022     		movs	r2, #0
 2979 008e 1A70     		strb	r2, [r3]
 2980              	.L180:
 625:Src/motion.c  ****     while (motion_end_flag == FALSE)
 2981              		.loc 1 625 0 discriminator 1
 2982 0090 214B     		ldr	r3, .L184+20
 2983 0092 1B78     		ldrb	r3, [r3]	@ zero_extendqisi2
 2984 0094 002B     		cmp	r3, #0
 2985 0096 FBD0     		beq	.L180
 626:Src/motion.c  ****     {
 627:Src/motion.c  ****     }
 628:Src/motion.c  ****     error_ang_sum = 0.0f;
 2986              		.loc 1 628 0
 2987 0098 0023     		movs	r3, #0
 2988 009a 234A     		ldr	r2, .L184+36
 2989 009c 1360     		str	r3, [r2]	@ float
 629:Src/motion.c  ****     error_ang_old = 0.0f;
 2990              		.loc 1 629 0
 2991 009e 234A     		ldr	r2, .L184+40
 2992 00a0 1360     		str	r3, [r2]	@ float
 630:Src/motion.c  ****     //offset out
 631:Src/motion.c  ****     control_wall_flag = 3;
 2993              		.loc 1 631 0
 2994 00a2 234B     		ldr	r3, .L184+44
 2995 00a4 0322     		movs	r2, #3
 2996 00a6 1A70     		strb	r2, [r3]
 2997              	.L181:
 632:Src/motion.c  ****     while (sen_r.diff > -9)
 2998              		.loc 1 632 0 discriminator 1
 2999 00a8 224B     		ldr	r3, .L184+48
 3000 00aa B3F91A30 		ldrsh	r3, [r3, #26]
 3001 00ae 13F1080F 		cmn	r3, #8
 3002 00b2 F9DA     		bge	.L181
 633:Src/motion.c  ****         ;
 634:Src/motion.c  ****     Control_StrCalculator(19.0f, VELO_F, VELO_F, VELO_F, 1, 1); //
 3003              		.loc 1 634 0
 3004 00b4 DFED140A 		vldr.32	s1, .L184+4
 3005 00b8 F7EE002A 		vmov.f32	s5, #1.0e+0
 3006 00bc B0EE622A 		vmov.f32	s4, s5
 3007 00c0 F0EE601A 		vmov.f32	s3, s1
 3008 00c4 B0EE601A 		vmov.f32	s2, s1
 3009 00c8 B3EE030A 		vmov.f32	s0, #1.9e+1
 3010 00cc FFF7FEFF 		bl	Control_StrCalculator
 3011              	.LVL166:
 635:Src/motion.c  ****     Control_AngCalculator(0, 0, 0, 0, 1, 0);
 3012              		.loc 1 635 0
 3013 00d0 9FED100A 		vldr.32	s0, .L184+16
 3014 00d4 F0EE402A 		vmov.f32	s5, s0
 3015 00d8 B7EE002A 		vmov.f32	s4, #1.0e+0
 3016 00dc F0EE401A 		vmov.f32	s3, s0
 3017 00e0 B0EE401A 		vmov.f32	s2, s0
 3018 00e4 F0EE400A 		vmov.f32	s1, s0
 3019 00e8 FFF7FEFF 		bl	Control_AngCalculator
 3020              	.LVL167:
 636:Src/motion.c  ****     motion_end_flag = FALSE;
 3021              		.loc 1 636 0
ARM GAS  C:\Users\kotaro\AppData\Local\Temp\ccWGe4CN.s 			page 65


 3022 00ec 0A4B     		ldr	r3, .L184+20
 3023 00ee 0022     		movs	r2, #0
 3024 00f0 1A70     		strb	r2, [r3]
 3025              	.L182:
 637:Src/motion.c  ****     while (motion_end_flag == FALSE)
 3026              		.loc 1 637 0 discriminator 1
 3027 00f2 094B     		ldr	r3, .L184+20
 3028 00f4 1B78     		ldrb	r3, [r3]	@ zero_extendqisi2
 3029 00f6 002B     		cmp	r3, #0
 3030 00f8 FBD0     		beq	.L182
 638:Src/motion.c  ****     {
 639:Src/motion.c  ****     }
 640:Src/motion.c  ****     enc.offset = 0.0f;
 3031              		.loc 1 640 0
 3032 00fa 024B     		ldr	r3, .L184
 3033 00fc 0022     		movs	r2, #0
 3034 00fe 9A60     		str	r2, [r3, #8]	@ float
 641:Src/motion.c  **** }
 3035              		.loc 1 641 0
 3036 0100 08BD     		pop	{r3, pc}
 3037              	.L185:
 3038 0102 00BF     		.align	2
 3039              	.L184:
 3040 0104 00000000 		.word	enc
 3041 0108 00004844 		.word	1145569280
 3042 010c 0000FA45 		.word	1174011904
 3043 0110 00002442 		.word	1109655552
 3044 0114 00000000 		.word	0
 3045 0118 00000000 		.word	motion_end_flag
 3046 011c 00409C46 		.word	1184645120
 3047 0120 00001644 		.word	1142292480
 3048 0124 00003442 		.word	1110704128
 3049 0128 00000000 		.word	error_ang_sum
 3050 012c 00000000 		.word	error_ang_old
 3051 0130 00000000 		.word	control_wall_flag
 3052 0134 00000000 		.word	sen_r
 3053              		.cfi_endproc
 3054              	.LFE182:
 3056              		.section	.text.Motion_InRight45Turn,"ax",%progbits
 3057              		.align	1
 3058              		.global	Motion_InRight45Turn
 3059              		.syntax unified
 3060              		.thumb
 3061              		.thumb_func
 3062              		.fpu fpv4-sp-d16
 3064              	Motion_InRight45Turn:
 3065              	.LFB183:
 642:Src/motion.c  **** 
 643:Src/motion.c  **** void Motion_InRight45Turn(void)
 644:Src/motion.c  **** {
 3066              		.loc 1 644 0
 3067              		.cfi_startproc
 3068              		@ args = 0, pretend = 0, frame = 0
 3069              		@ frame_needed = 0, uses_anonymous_args = 0
 3070 0000 08B5     		push	{r3, lr}
 3071              	.LCFI62:
 3072              		.cfi_def_cfa_offset 8
ARM GAS  C:\Users\kotaro\AppData\Local\Temp\ccWGe4CN.s 			page 66


 3073              		.cfi_offset 3, -8
 3074              		.cfi_offset 14, -4
 645:Src/motion.c  ****     //offset in
 646:Src/motion.c  ****     Control_StrCalculator(43.0f - enc.offset, VELO_F, VELO_F, VELO_F, ACCEL_F, 1); //43
 3075              		.loc 1 646 0
 3076 0002 404B     		ldr	r3, .L192
 3077 0004 D3ED027A 		vldr.32	s15, [r3, #8]
 3078 0008 DFED3F0A 		vldr.32	s1, .L192+4
 3079 000c F7EE002A 		vmov.f32	s5, #1.0e+0
 3080 0010 9FED3E2A 		vldr.32	s4, .L192+8
 3081 0014 F0EE601A 		vmov.f32	s3, s1
 3082 0018 B0EE601A 		vmov.f32	s2, s1
 3083 001c 9FED3C0A 		vldr.32	s0, .L192+12
 3084 0020 30EE670A 		vsub.f32	s0, s0, s15
 3085 0024 FFF7FEFF 		bl	Control_StrCalculator
 3086              	.LVL168:
 647:Src/motion.c  ****     Control_AngCalculator(0, 0, 0, 0, 1, 0);
 3087              		.loc 1 647 0
 3088 0028 9FED3A0A 		vldr.32	s0, .L192+16
 3089 002c F0EE402A 		vmov.f32	s5, s0
 3090 0030 B7EE002A 		vmov.f32	s4, #1.0e+0
 3091 0034 F0EE401A 		vmov.f32	s3, s0
 3092 0038 B0EE401A 		vmov.f32	s2, s0
 3093 003c F0EE400A 		vmov.f32	s1, s0
 3094 0040 FFF7FEFF 		bl	Control_AngCalculator
 3095              	.LVL169:
 648:Src/motion.c  ****     motion_end_flag = FALSE;
 3096              		.loc 1 648 0
 3097 0044 344B     		ldr	r3, .L192+20
 3098 0046 0022     		movs	r2, #0
 3099 0048 1A70     		strb	r2, [r3]
 3100              	.L187:
 649:Src/motion.c  ****     while (motion_end_flag == FALSE)
 3101              		.loc 1 649 0 discriminator 1
 3102 004a 334B     		ldr	r3, .L192+20
 3103 004c 1B78     		ldrb	r3, [r3]	@ zero_extendqisi2
 3104 004e 002B     		cmp	r3, #0
 3105 0050 FBD0     		beq	.L187
 650:Src/motion.c  ****     {
 651:Src/motion.c  ****     }
 652:Src/motion.c  ****     //turn
 653:Src/motion.c  ****     Control_StrCalculator(800.0f, VELO_F, VELO_F, VELO_F, 1, 1);
 3106              		.loc 1 653 0
 3107 0052 9FED2D0A 		vldr.32	s0, .L192+4
 3108 0056 F7EE002A 		vmov.f32	s5, #1.0e+0
 3109 005a B0EE622A 		vmov.f32	s4, s5
 3110 005e F0EE401A 		vmov.f32	s3, s0
 3111 0062 B0EE401A 		vmov.f32	s2, s0
 3112 0066 F0EE400A 		vmov.f32	s1, s0
 3113 006a FFF7FEFF 		bl	Control_StrCalculator
 3114              	.LVL170:
 654:Src/motion.c  ****     Control_AngCalculator(45.0f, 0, 600.0f, 0, 20000.0f, -1);
 3115              		.loc 1 654 0
 3116 006e DFED290A 		vldr.32	s1, .L192+16
 3117 0072 FFEE002A 		vmov.f32	s5, #-1.0e+0
 3118 0076 9FED292A 		vldr.32	s4, .L192+24
 3119 007a F0EE601A 		vmov.f32	s3, s1
ARM GAS  C:\Users\kotaro\AppData\Local\Temp\ccWGe4CN.s 			page 67


 3120 007e 9FED281A 		vldr.32	s2, .L192+28
 3121 0082 9FED280A 		vldr.32	s0, .L192+32
 3122 0086 FFF7FEFF 		bl	Control_AngCalculator
 3123              	.LVL171:
 655:Src/motion.c  ****     motion_end_flag = FALSE;
 3124              		.loc 1 655 0
 3125 008a 234B     		ldr	r3, .L192+20
 3126 008c 0022     		movs	r2, #0
 3127 008e 1A70     		strb	r2, [r3]
 3128              	.L188:
 656:Src/motion.c  ****     while (motion_end_flag == FALSE)
 3129              		.loc 1 656 0 discriminator 1
 3130 0090 214B     		ldr	r3, .L192+20
 3131 0092 1B78     		ldrb	r3, [r3]	@ zero_extendqisi2
 3132 0094 002B     		cmp	r3, #0
 3133 0096 FBD0     		beq	.L188
 657:Src/motion.c  ****     {
 658:Src/motion.c  ****     }
 659:Src/motion.c  ****     error_ang_sum = 0.0f;
 3134              		.loc 1 659 0
 3135 0098 0023     		movs	r3, #0
 3136 009a 234A     		ldr	r2, .L192+36
 3137 009c 1360     		str	r3, [r2]	@ float
 660:Src/motion.c  ****     error_ang_old = 0.0f;
 3138              		.loc 1 660 0
 3139 009e 234A     		ldr	r2, .L192+40
 3140 00a0 1360     		str	r3, [r2]	@ float
 661:Src/motion.c  ****     //offset out
 662:Src/motion.c  ****     control_wall_flag = 3;
 3141              		.loc 1 662 0
 3142 00a2 234B     		ldr	r3, .L192+44
 3143 00a4 0322     		movs	r2, #3
 3144 00a6 1A70     		strb	r2, [r3]
 3145              	.L189:
 663:Src/motion.c  ****     while (sen_l.diff > -9)
 3146              		.loc 1 663 0 discriminator 1
 3147 00a8 224B     		ldr	r3, .L192+48
 3148 00aa B3F91A30 		ldrsh	r3, [r3, #26]
 3149 00ae 13F1080F 		cmn	r3, #8
 3150 00b2 F9DA     		bge	.L189
 664:Src/motion.c  ****         ;
 665:Src/motion.c  ****     Control_StrCalculator(14.0f, VELO_F, VELO_F, VELO_F, 1, 1); //17
 3151              		.loc 1 665 0
 3152 00b4 DFED140A 		vldr.32	s1, .L192+4
 3153 00b8 F7EE002A 		vmov.f32	s5, #1.0e+0
 3154 00bc B0EE622A 		vmov.f32	s4, s5
 3155 00c0 F0EE601A 		vmov.f32	s3, s1
 3156 00c4 B0EE601A 		vmov.f32	s2, s1
 3157 00c8 B2EE0C0A 		vmov.f32	s0, #1.4e+1
 3158 00cc FFF7FEFF 		bl	Control_StrCalculator
 3159              	.LVL172:
 666:Src/motion.c  ****     Control_AngCalculator(0, 0, 0, 0, 1, 0);
 3160              		.loc 1 666 0
 3161 00d0 9FED100A 		vldr.32	s0, .L192+16
 3162 00d4 F0EE402A 		vmov.f32	s5, s0
 3163 00d8 B7EE002A 		vmov.f32	s4, #1.0e+0
 3164 00dc F0EE401A 		vmov.f32	s3, s0
ARM GAS  C:\Users\kotaro\AppData\Local\Temp\ccWGe4CN.s 			page 68


 3165 00e0 B0EE401A 		vmov.f32	s2, s0
 3166 00e4 F0EE400A 		vmov.f32	s1, s0
 3167 00e8 FFF7FEFF 		bl	Control_AngCalculator
 3168              	.LVL173:
 667:Src/motion.c  ****     motion_end_flag = FALSE;
 3169              		.loc 1 667 0
 3170 00ec 0A4B     		ldr	r3, .L192+20
 3171 00ee 0022     		movs	r2, #0
 3172 00f0 1A70     		strb	r2, [r3]
 3173              	.L190:
 668:Src/motion.c  ****     while (motion_end_flag == FALSE)
 3174              		.loc 1 668 0 discriminator 1
 3175 00f2 094B     		ldr	r3, .L192+20
 3176 00f4 1B78     		ldrb	r3, [r3]	@ zero_extendqisi2
 3177 00f6 002B     		cmp	r3, #0
 3178 00f8 FBD0     		beq	.L190
 669:Src/motion.c  ****     {
 670:Src/motion.c  ****     }
 671:Src/motion.c  ****     enc.offset = 0.0f;
 3179              		.loc 1 671 0
 3180 00fa 024B     		ldr	r3, .L192
 3181 00fc 0022     		movs	r2, #0
 3182 00fe 9A60     		str	r2, [r3, #8]	@ float
 672:Src/motion.c  **** }
 3183              		.loc 1 672 0
 3184 0100 08BD     		pop	{r3, pc}
 3185              	.L193:
 3186 0102 00BF     		.align	2
 3187              	.L192:
 3188 0104 00000000 		.word	enc
 3189 0108 00004844 		.word	1145569280
 3190 010c 0000FA45 		.word	1174011904
 3191 0110 00002C42 		.word	1110179840
 3192 0114 00000000 		.word	0
 3193 0118 00000000 		.word	motion_end_flag
 3194 011c 00409C46 		.word	1184645120
 3195 0120 00001644 		.word	1142292480
 3196 0124 00003442 		.word	1110704128
 3197 0128 00000000 		.word	error_ang_sum
 3198 012c 00000000 		.word	error_ang_old
 3199 0130 00000000 		.word	control_wall_flag
 3200 0134 00000000 		.word	sen_l
 3201              		.cfi_endproc
 3202              	.LFE183:
 3204              		.section	.text.Motion_OutLeft45Turn,"ax",%progbits
 3205              		.align	1
 3206              		.global	Motion_OutLeft45Turn
 3207              		.syntax unified
 3208              		.thumb
 3209              		.thumb_func
 3210              		.fpu fpv4-sp-d16
 3212              	Motion_OutLeft45Turn:
 3213              	.LFB184:
 673:Src/motion.c  **** 
 674:Src/motion.c  **** void Motion_OutLeft45Turn(float v_end)
 675:Src/motion.c  **** {
 3214              		.loc 1 675 0
ARM GAS  C:\Users\kotaro\AppData\Local\Temp\ccWGe4CN.s 			page 69


 3215              		.cfi_startproc
 3216              		@ args = 0, pretend = 0, frame = 0
 3217              		@ frame_needed = 0, uses_anonymous_args = 0
 3218              	.LVL174:
 3219 0000 08B5     		push	{r3, lr}
 3220              	.LCFI63:
 3221              		.cfi_def_cfa_offset 8
 3222              		.cfi_offset 3, -8
 3223              		.cfi_offset 14, -4
 3224 0002 2DED028B 		vpush.64	{d8}
 3225              	.LCFI64:
 3226              		.cfi_def_cfa_offset 16
 3227              		.cfi_offset 80, -16
 3228              		.cfi_offset 81, -12
 3229 0006 B0EE408A 		vmov.f32	s16, s0
 676:Src/motion.c  ****     //offset in
 677:Src/motion.c  ****     Control_StrCalculator(81.0f - enc.offset, VELO_F, VELO_F, VELO_F, 1, 1); //77
 3230              		.loc 1 677 0
 3231 000a 5B4B     		ldr	r3, .L202
 3232 000c D3ED027A 		vldr.32	s15, [r3, #8]
 3233 0010 DFED5A0A 		vldr.32	s1, .L202+4
 3234 0014 F7EE002A 		vmov.f32	s5, #1.0e+0
 3235 0018 B0EE622A 		vmov.f32	s4, s5
 3236 001c F0EE601A 		vmov.f32	s3, s1
 3237 0020 B0EE601A 		vmov.f32	s2, s1
 3238 0024 9FED560A 		vldr.32	s0, .L202+8
 3239              	.LVL175:
 3240 0028 30EE670A 		vsub.f32	s0, s0, s15
 3241 002c FFF7FEFF 		bl	Control_StrCalculator
 3242              	.LVL176:
 678:Src/motion.c  ****     Control_AngCalculator(0, 0, 0, 0, 1, 0);
 3243              		.loc 1 678 0
 3244 0030 9FED540A 		vldr.32	s0, .L202+12
 3245 0034 F0EE402A 		vmov.f32	s5, s0
 3246 0038 B7EE002A 		vmov.f32	s4, #1.0e+0
 3247 003c F0EE401A 		vmov.f32	s3, s0
 3248 0040 B0EE401A 		vmov.f32	s2, s0
 3249 0044 F0EE400A 		vmov.f32	s1, s0
 3250 0048 FFF7FEFF 		bl	Control_AngCalculator
 3251              	.LVL177:
 679:Src/motion.c  ****     motion_end_flag = FALSE;
 3252              		.loc 1 679 0
 3253 004c 4E4B     		ldr	r3, .L202+16
 3254 004e 0022     		movs	r2, #0
 3255 0050 1A70     		strb	r2, [r3]
 3256              	.L195:
 680:Src/motion.c  ****     while (motion_end_flag == FALSE)
 3257              		.loc 1 680 0 discriminator 1
 3258 0052 4D4B     		ldr	r3, .L202+16
 3259 0054 1B78     		ldrb	r3, [r3]	@ zero_extendqisi2
 3260 0056 002B     		cmp	r3, #0
 3261 0058 FBD0     		beq	.L195
 681:Src/motion.c  ****     {
 682:Src/motion.c  ****     }
 683:Src/motion.c  ****     //turn
 684:Src/motion.c  ****     Control_StrCalculator(800.0f, VELO_F, VELO_F, VELO_F, 1, 1);
 3262              		.loc 1 684 0
ARM GAS  C:\Users\kotaro\AppData\Local\Temp\ccWGe4CN.s 			page 70


 3263 005a 9FED480A 		vldr.32	s0, .L202+4
 3264 005e F7EE002A 		vmov.f32	s5, #1.0e+0
 3265 0062 B0EE622A 		vmov.f32	s4, s5
 3266 0066 F0EE401A 		vmov.f32	s3, s0
 3267 006a B0EE401A 		vmov.f32	s2, s0
 3268 006e F0EE400A 		vmov.f32	s1, s0
 3269 0072 FFF7FEFF 		bl	Control_StrCalculator
 3270              	.LVL178:
 685:Src/motion.c  ****     Control_AngCalculator(45.5f, 0, 600.0f, 0, 20000.0f, 1);
 3271              		.loc 1 685 0
 3272 0076 DFED430A 		vldr.32	s1, .L202+12
 3273 007a F7EE002A 		vmov.f32	s5, #1.0e+0
 3274 007e 9FED432A 		vldr.32	s4, .L202+20
 3275 0082 F0EE601A 		vmov.f32	s3, s1
 3276 0086 9FED421A 		vldr.32	s2, .L202+24
 3277 008a 9FED420A 		vldr.32	s0, .L202+28
 3278 008e FFF7FEFF 		bl	Control_AngCalculator
 3279              	.LVL179:
 686:Src/motion.c  ****     motion_end_flag = FALSE;
 3280              		.loc 1 686 0
 3281 0092 3D4B     		ldr	r3, .L202+16
 3282 0094 0022     		movs	r2, #0
 3283 0096 1A70     		strb	r2, [r3]
 3284              	.L196:
 687:Src/motion.c  ****     while (motion_end_flag == FALSE)
 3285              		.loc 1 687 0 discriminator 1
 3286 0098 3B4B     		ldr	r3, .L202+16
 3287 009a 1B78     		ldrb	r3, [r3]	@ zero_extendqisi2
 3288 009c 002B     		cmp	r3, #0
 3289 009e FBD0     		beq	.L196
 688:Src/motion.c  ****     {
 689:Src/motion.c  ****     }
 690:Src/motion.c  ****     error_ang_sum = 0.0f;
 3290              		.loc 1 690 0
 3291 00a0 0023     		movs	r3, #0
 3292 00a2 3D4A     		ldr	r2, .L202+32
 3293 00a4 1360     		str	r3, [r2]	@ float
 691:Src/motion.c  ****     error_ang_old = 0.0f;
 3294              		.loc 1 691 0
 3295 00a6 3D4A     		ldr	r2, .L202+36
 3296 00a8 1360     		str	r3, [r2]	@ float
 692:Src/motion.c  ****     control_wall_flag = 2;
 3297              		.loc 1 692 0
 3298 00aa 3D4B     		ldr	r3, .L202+40
 3299 00ac 0222     		movs	r2, #2
 3300 00ae 1A70     		strb	r2, [r3]
 693:Src/motion.c  ****     //offset out
 694:Src/motion.c  ****     if (v_end == 0.0f)
 3301              		.loc 1 694 0
 3302 00b0 B5EE408A 		vcmp.f32	s16, #0
 3303 00b4 F1EE10FA 		vmrs	APSR_nzcv, FPSCR
 3304 00b8 32D1     		bne	.L197
 695:Src/motion.c  ****     {
 696:Src/motion.c  ****         Control_StrCalculator(50.0f, VELO_F, VELO_F, 0.0f, 10000.0f, 1); //110
 3305              		.loc 1 696 0
 3306 00ba 9FED328A 		vldr.32	s16, .L202+12
 3307              	.LVL180:
ARM GAS  C:\Users\kotaro\AppData\Local\Temp\ccWGe4CN.s 			page 71


 3308 00be DFED2F0A 		vldr.32	s1, .L202+4
 3309 00c2 F7EE002A 		vmov.f32	s5, #1.0e+0
 3310 00c6 9FED372A 		vldr.32	s4, .L202+44
 3311 00ca F0EE481A 		vmov.f32	s3, s16
 3312 00ce B0EE601A 		vmov.f32	s2, s1
 3313 00d2 9FED350A 		vldr.32	s0, .L202+48
 3314 00d6 FFF7FEFF 		bl	Control_StrCalculator
 3315              	.LVL181:
 697:Src/motion.c  ****         Control_AngCalculator(0, 0, 0, 0, 1, 0);
 3316              		.loc 1 697 0
 3317 00da F0EE482A 		vmov.f32	s5, s16
 3318 00de B7EE002A 		vmov.f32	s4, #1.0e+0
 3319 00e2 F0EE481A 		vmov.f32	s3, s16
 3320 00e6 B0EE481A 		vmov.f32	s2, s16
 3321 00ea F0EE480A 		vmov.f32	s1, s16
 3322 00ee B0EE480A 		vmov.f32	s0, s16
 3323 00f2 FFF7FEFF 		bl	Control_AngCalculator
 3324              	.LVL182:
 698:Src/motion.c  ****         motion_end_flag = FALSE;
 3325              		.loc 1 698 0
 3326 00f6 244B     		ldr	r3, .L202+16
 3327 00f8 0022     		movs	r2, #0
 3328 00fa 1A70     		strb	r2, [r3]
 3329              	.L198:
 699:Src/motion.c  ****         while (motion_end_flag == FALSE)
 3330              		.loc 1 699 0 discriminator 1
 3331 00fc 224B     		ldr	r3, .L202+16
 3332 00fe 1B78     		ldrb	r3, [r3]	@ zero_extendqisi2
 3333 0100 002B     		cmp	r3, #0
 3334 0102 FBD0     		beq	.L198
 700:Src/motion.c  ****         {
 701:Src/motion.c  ****         }
 702:Src/motion.c  ****         enc.offset = 0.0f;
 3335              		.loc 1 702 0
 3336 0104 0023     		movs	r3, #0
 3337 0106 1C4A     		ldr	r2, .L202
 3338 0108 9360     		str	r3, [r2, #8]	@ float
 703:Src/motion.c  ****         straight.v_now = 0;
 3339              		.loc 1 703 0
 3340 010a 284A     		ldr	r2, .L202+52
 3341 010c D360     		str	r3, [r2, #12]	@ float
 704:Src/motion.c  ****         angle.v_now = 0;
 3342              		.loc 1 704 0
 3343 010e 284A     		ldr	r2, .L202+56
 3344 0110 D360     		str	r3, [r2, #12]	@ float
 705:Src/motion.c  ****         HAL_Delay(800);
 3345              		.loc 1 705 0
 3346 0112 4FF44870 		mov	r0, #800
 3347 0116 FFF7FEFF 		bl	HAL_Delay
 3348              	.LVL183:
 3349              	.L194:
 706:Src/motion.c  ****     }
 707:Src/motion.c  ****     else
 708:Src/motion.c  ****     {
 709:Src/motion.c  ****         Control_EdgeSet(-40.0f + 20.0f);
 710:Src/motion.c  ****         Control_StrCalculator(50.0f + 20.0f, VELO_F, VELO_F, v_end, 1, 1); //110
 711:Src/motion.c  ****         Control_AngCalculator(0, 0, 0, 0, 1, 0);
ARM GAS  C:\Users\kotaro\AppData\Local\Temp\ccWGe4CN.s 			page 72


 712:Src/motion.c  ****         motion_end_flag = FALSE;
 713:Src/motion.c  ****         while (motion_end_flag == FALSE)
 714:Src/motion.c  ****         {
 715:Src/motion.c  ****         }
 716:Src/motion.c  ****         enc.offset = 0.0f;
 717:Src/motion.c  ****     }
 718:Src/motion.c  **** }
 3350              		.loc 1 718 0
 3351 011a BDEC028B 		vldm	sp!, {d8}
 3352              	.LCFI65:
 3353              		.cfi_remember_state
 3354              		.cfi_restore 80
 3355              		.cfi_restore 81
 3356              		.cfi_def_cfa_offset 8
 3357 011e 08BD     		pop	{r3, pc}
 3358              	.LVL184:
 3359              	.L197:
 3360              	.LCFI66:
 3361              		.cfi_restore_state
 709:Src/motion.c  ****         Control_StrCalculator(50.0f + 20.0f, VELO_F, VELO_F, v_end, 1, 1); //110
 3362              		.loc 1 709 0
 3363 0120 BBEE040A 		vmov.f32	s0, #-2.0e+1
 3364 0124 FFF7FEFF 		bl	Control_EdgeSet
 3365              	.LVL185:
 710:Src/motion.c  ****         Control_AngCalculator(0, 0, 0, 0, 1, 0);
 3366              		.loc 1 710 0
 3367 0128 DFED140A 		vldr.32	s1, .L202+4
 3368 012c F7EE002A 		vmov.f32	s5, #1.0e+0
 3369 0130 B0EE622A 		vmov.f32	s4, s5
 3370 0134 F0EE481A 		vmov.f32	s3, s16
 3371 0138 B0EE601A 		vmov.f32	s2, s1
 3372 013c 9FED1D0A 		vldr.32	s0, .L202+60
 3373 0140 FFF7FEFF 		bl	Control_StrCalculator
 3374              	.LVL186:
 711:Src/motion.c  ****         motion_end_flag = FALSE;
 3375              		.loc 1 711 0
 3376 0144 9FED0F0A 		vldr.32	s0, .L202+12
 3377 0148 F0EE402A 		vmov.f32	s5, s0
 3378 014c B7EE002A 		vmov.f32	s4, #1.0e+0
 3379 0150 F0EE401A 		vmov.f32	s3, s0
 3380 0154 B0EE401A 		vmov.f32	s2, s0
 3381 0158 F0EE400A 		vmov.f32	s1, s0
 3382 015c FFF7FEFF 		bl	Control_AngCalculator
 3383              	.LVL187:
 712:Src/motion.c  ****         while (motion_end_flag == FALSE)
 3384              		.loc 1 712 0
 3385 0160 094B     		ldr	r3, .L202+16
 3386 0162 0022     		movs	r2, #0
 3387 0164 1A70     		strb	r2, [r3]
 3388              	.L200:
 713:Src/motion.c  ****         {
 3389              		.loc 1 713 0 discriminator 1
 3390 0166 084B     		ldr	r3, .L202+16
 3391 0168 1B78     		ldrb	r3, [r3]	@ zero_extendqisi2
 3392 016a 002B     		cmp	r3, #0
 3393 016c FBD0     		beq	.L200
 716:Src/motion.c  ****     }
ARM GAS  C:\Users\kotaro\AppData\Local\Temp\ccWGe4CN.s 			page 73


 3394              		.loc 1 716 0
 3395 016e 024B     		ldr	r3, .L202
 3396 0170 0022     		movs	r2, #0
 3397 0172 9A60     		str	r2, [r3, #8]	@ float
 3398              		.loc 1 718 0
 3399 0174 D1E7     		b	.L194
 3400              	.L203:
 3401 0176 00BF     		.align	2
 3402              	.L202:
 3403 0178 00000000 		.word	enc
 3404 017c 00004844 		.word	1145569280
 3405 0180 0000A242 		.word	1117913088
 3406 0184 00000000 		.word	0
 3407 0188 00000000 		.word	motion_end_flag
 3408 018c 00409C46 		.word	1184645120
 3409 0190 00001644 		.word	1142292480
 3410 0194 00003642 		.word	1110835200
 3411 0198 00000000 		.word	error_ang_sum
 3412 019c 00000000 		.word	error_ang_old
 3413 01a0 00000000 		.word	control_wall_flag
 3414 01a4 00401C46 		.word	1176256512
 3415 01a8 00004842 		.word	1112014848
 3416 01ac 00000000 		.word	straight
 3417 01b0 00000000 		.word	angle
 3418 01b4 00008C42 		.word	1116471296
 3419              		.cfi_endproc
 3420              	.LFE184:
 3422              		.section	.text.Motion_OutRight45Turn,"ax",%progbits
 3423              		.align	1
 3424              		.global	Motion_OutRight45Turn
 3425              		.syntax unified
 3426              		.thumb
 3427              		.thumb_func
 3428              		.fpu fpv4-sp-d16
 3430              	Motion_OutRight45Turn:
 3431              	.LFB185:
 719:Src/motion.c  **** 
 720:Src/motion.c  **** void Motion_OutRight45Turn(float v_end)
 721:Src/motion.c  **** {
 3432              		.loc 1 721 0
 3433              		.cfi_startproc
 3434              		@ args = 0, pretend = 0, frame = 0
 3435              		@ frame_needed = 0, uses_anonymous_args = 0
 3436              	.LVL188:
 3437 0000 08B5     		push	{r3, lr}
 3438              	.LCFI67:
 3439              		.cfi_def_cfa_offset 8
 3440              		.cfi_offset 3, -8
 3441              		.cfi_offset 14, -4
 3442 0002 2DED028B 		vpush.64	{d8}
 3443              	.LCFI68:
 3444              		.cfi_def_cfa_offset 16
 3445              		.cfi_offset 80, -16
 3446              		.cfi_offset 81, -12
 3447 0006 B0EE408A 		vmov.f32	s16, s0
 722:Src/motion.c  ****     //offset in
 723:Src/motion.c  ****     Control_StrCalculator(86.0f - enc.offset, VELO_F, VELO_F, VELO_F, 1, 1);
ARM GAS  C:\Users\kotaro\AppData\Local\Temp\ccWGe4CN.s 			page 74


 3448              		.loc 1 723 0
 3449 000a 5B4B     		ldr	r3, .L212
 3450 000c D3ED027A 		vldr.32	s15, [r3, #8]
 3451 0010 DFED5A0A 		vldr.32	s1, .L212+4
 3452 0014 F7EE002A 		vmov.f32	s5, #1.0e+0
 3453 0018 B0EE622A 		vmov.f32	s4, s5
 3454 001c F0EE601A 		vmov.f32	s3, s1
 3455 0020 B0EE601A 		vmov.f32	s2, s1
 3456 0024 9FED560A 		vldr.32	s0, .L212+8
 3457              	.LVL189:
 3458 0028 30EE670A 		vsub.f32	s0, s0, s15
 3459 002c FFF7FEFF 		bl	Control_StrCalculator
 3460              	.LVL190:
 724:Src/motion.c  ****     Control_AngCalculator(0, 0, 0, 0, 1, 0);
 3461              		.loc 1 724 0
 3462 0030 9FED540A 		vldr.32	s0, .L212+12
 3463 0034 F0EE402A 		vmov.f32	s5, s0
 3464 0038 B7EE002A 		vmov.f32	s4, #1.0e+0
 3465 003c F0EE401A 		vmov.f32	s3, s0
 3466 0040 B0EE401A 		vmov.f32	s2, s0
 3467 0044 F0EE400A 		vmov.f32	s1, s0
 3468 0048 FFF7FEFF 		bl	Control_AngCalculator
 3469              	.LVL191:
 725:Src/motion.c  ****     motion_end_flag = FALSE;
 3470              		.loc 1 725 0
 3471 004c 4E4B     		ldr	r3, .L212+16
 3472 004e 0022     		movs	r2, #0
 3473 0050 1A70     		strb	r2, [r3]
 3474              	.L205:
 726:Src/motion.c  ****     while (motion_end_flag == FALSE)
 3475              		.loc 1 726 0 discriminator 1
 3476 0052 4D4B     		ldr	r3, .L212+16
 3477 0054 1B78     		ldrb	r3, [r3]	@ zero_extendqisi2
 3478 0056 002B     		cmp	r3, #0
 3479 0058 FBD0     		beq	.L205
 727:Src/motion.c  ****     {
 728:Src/motion.c  ****     }
 729:Src/motion.c  ****     //turn
 730:Src/motion.c  ****     Control_StrCalculator(800.0f, VELO_F, VELO_F, VELO_F, 1, 1);
 3480              		.loc 1 730 0
 3481 005a 9FED480A 		vldr.32	s0, .L212+4
 3482 005e F7EE002A 		vmov.f32	s5, #1.0e+0
 3483 0062 B0EE622A 		vmov.f32	s4, s5
 3484 0066 F0EE401A 		vmov.f32	s3, s0
 3485 006a B0EE401A 		vmov.f32	s2, s0
 3486 006e F0EE400A 		vmov.f32	s1, s0
 3487 0072 FFF7FEFF 		bl	Control_StrCalculator
 3488              	.LVL192:
 731:Src/motion.c  ****     Control_AngCalculator(45.5f, 0, 600.0f, 0, 20000.0f, -1);
 3489              		.loc 1 731 0
 3490 0076 DFED430A 		vldr.32	s1, .L212+12
 3491 007a FFEE002A 		vmov.f32	s5, #-1.0e+0
 3492 007e 9FED432A 		vldr.32	s4, .L212+20
 3493 0082 F0EE601A 		vmov.f32	s3, s1
 3494 0086 9FED421A 		vldr.32	s2, .L212+24
 3495 008a 9FED420A 		vldr.32	s0, .L212+28
 3496 008e FFF7FEFF 		bl	Control_AngCalculator
ARM GAS  C:\Users\kotaro\AppData\Local\Temp\ccWGe4CN.s 			page 75


 3497              	.LVL193:
 732:Src/motion.c  ****     motion_end_flag = FALSE;
 3498              		.loc 1 732 0
 3499 0092 3D4B     		ldr	r3, .L212+16
 3500 0094 0022     		movs	r2, #0
 3501 0096 1A70     		strb	r2, [r3]
 3502              	.L206:
 733:Src/motion.c  ****     while (motion_end_flag == FALSE)
 3503              		.loc 1 733 0 discriminator 1
 3504 0098 3B4B     		ldr	r3, .L212+16
 3505 009a 1B78     		ldrb	r3, [r3]	@ zero_extendqisi2
 3506 009c 002B     		cmp	r3, #0
 3507 009e FBD0     		beq	.L206
 734:Src/motion.c  ****     {
 735:Src/motion.c  ****     }
 736:Src/motion.c  ****     error_ang_sum = 0.0f;
 3508              		.loc 1 736 0
 3509 00a0 0023     		movs	r3, #0
 3510 00a2 3D4A     		ldr	r2, .L212+32
 3511 00a4 1360     		str	r3, [r2]	@ float
 737:Src/motion.c  ****     error_ang_old = 0.0f;
 3512              		.loc 1 737 0
 3513 00a6 3D4A     		ldr	r2, .L212+36
 3514 00a8 1360     		str	r3, [r2]	@ float
 738:Src/motion.c  ****     control_wall_flag = 2;
 3515              		.loc 1 738 0
 3516 00aa 3D4B     		ldr	r3, .L212+40
 3517 00ac 0222     		movs	r2, #2
 3518 00ae 1A70     		strb	r2, [r3]
 739:Src/motion.c  ****     //offset out
 740:Src/motion.c  ****     if (v_end == 0.0f)
 3519              		.loc 1 740 0
 3520 00b0 B5EE408A 		vcmp.f32	s16, #0
 3521 00b4 F1EE10FA 		vmrs	APSR_nzcv, FPSCR
 3522 00b8 32D1     		bne	.L207
 741:Src/motion.c  ****     {
 742:Src/motion.c  ****         Control_StrCalculator(54.0f, VELO_F, VELO_F, 0.0f, 10000.0f, 1); //54
 3523              		.loc 1 742 0
 3524 00ba 9FED328A 		vldr.32	s16, .L212+12
 3525              	.LVL194:
 3526 00be DFED2F0A 		vldr.32	s1, .L212+4
 3527 00c2 F7EE002A 		vmov.f32	s5, #1.0e+0
 3528 00c6 9FED372A 		vldr.32	s4, .L212+44
 3529 00ca F0EE481A 		vmov.f32	s3, s16
 3530 00ce B0EE601A 		vmov.f32	s2, s1
 3531 00d2 9FED350A 		vldr.32	s0, .L212+48
 3532 00d6 FFF7FEFF 		bl	Control_StrCalculator
 3533              	.LVL195:
 743:Src/motion.c  ****         Control_AngCalculator(0, 0, 0, 0, 1, 0);
 3534              		.loc 1 743 0
 3535 00da F0EE482A 		vmov.f32	s5, s16
 3536 00de B7EE002A 		vmov.f32	s4, #1.0e+0
 3537 00e2 F0EE481A 		vmov.f32	s3, s16
 3538 00e6 B0EE481A 		vmov.f32	s2, s16
 3539 00ea F0EE480A 		vmov.f32	s1, s16
 3540 00ee B0EE480A 		vmov.f32	s0, s16
 3541 00f2 FFF7FEFF 		bl	Control_AngCalculator
ARM GAS  C:\Users\kotaro\AppData\Local\Temp\ccWGe4CN.s 			page 76


 3542              	.LVL196:
 744:Src/motion.c  ****         motion_end_flag = FALSE;
 3543              		.loc 1 744 0
 3544 00f6 244B     		ldr	r3, .L212+16
 3545 00f8 0022     		movs	r2, #0
 3546 00fa 1A70     		strb	r2, [r3]
 3547              	.L208:
 745:Src/motion.c  ****         while (motion_end_flag == FALSE)
 3548              		.loc 1 745 0 discriminator 1
 3549 00fc 224B     		ldr	r3, .L212+16
 3550 00fe 1B78     		ldrb	r3, [r3]	@ zero_extendqisi2
 3551 0100 002B     		cmp	r3, #0
 3552 0102 FBD0     		beq	.L208
 746:Src/motion.c  ****         {
 747:Src/motion.c  ****         }
 748:Src/motion.c  ****         enc.offset = 0.0f;
 3553              		.loc 1 748 0
 3554 0104 0023     		movs	r3, #0
 3555 0106 1C4A     		ldr	r2, .L212
 3556 0108 9360     		str	r3, [r2, #8]	@ float
 749:Src/motion.c  ****         straight.v_now = 0;
 3557              		.loc 1 749 0
 3558 010a 284A     		ldr	r2, .L212+52
 3559 010c D360     		str	r3, [r2, #12]	@ float
 750:Src/motion.c  ****         angle.v_now = 0;
 3560              		.loc 1 750 0
 3561 010e 284A     		ldr	r2, .L212+56
 3562 0110 D360     		str	r3, [r2, #12]	@ float
 751:Src/motion.c  ****         HAL_Delay(800);
 3563              		.loc 1 751 0
 3564 0112 4FF44870 		mov	r0, #800
 3565 0116 FFF7FEFF 		bl	HAL_Delay
 3566              	.LVL197:
 3567              	.L204:
 752:Src/motion.c  ****     }
 753:Src/motion.c  ****     else
 754:Src/motion.c  ****     {
 755:Src/motion.c  ****         Control_EdgeSet(-36.0f + 20.0f);
 756:Src/motion.c  ****         Control_StrCalculator(54.0f + 20.0f, VELO_F, VELO_F, v_end, 1, 1); //54
 757:Src/motion.c  ****         Control_AngCalculator(0, 0, 0, 0, 1, 0);
 758:Src/motion.c  ****         motion_end_flag = FALSE;
 759:Src/motion.c  ****         while (motion_end_flag == FALSE)
 760:Src/motion.c  ****         {
 761:Src/motion.c  ****         }
 762:Src/motion.c  ****         enc.offset = 0.0f;
 763:Src/motion.c  ****     }
 764:Src/motion.c  **** }
 3568              		.loc 1 764 0
 3569 011a BDEC028B 		vldm	sp!, {d8}
 3570              	.LCFI69:
 3571              		.cfi_remember_state
 3572              		.cfi_restore 80
 3573              		.cfi_restore 81
 3574              		.cfi_def_cfa_offset 8
 3575 011e 08BD     		pop	{r3, pc}
 3576              	.LVL198:
 3577              	.L207:
ARM GAS  C:\Users\kotaro\AppData\Local\Temp\ccWGe4CN.s 			page 77


 3578              	.LCFI70:
 3579              		.cfi_restore_state
 755:Src/motion.c  ****         Control_StrCalculator(54.0f + 20.0f, VELO_F, VELO_F, v_end, 1, 1); //54
 3580              		.loc 1 755 0
 3581 0120 BBEE000A 		vmov.f32	s0, #-1.6e+1
 3582 0124 FFF7FEFF 		bl	Control_EdgeSet
 3583              	.LVL199:
 756:Src/motion.c  ****         Control_AngCalculator(0, 0, 0, 0, 1, 0);
 3584              		.loc 1 756 0
 3585 0128 DFED140A 		vldr.32	s1, .L212+4
 3586 012c F7EE002A 		vmov.f32	s5, #1.0e+0
 3587 0130 B0EE622A 		vmov.f32	s4, s5
 3588 0134 F0EE481A 		vmov.f32	s3, s16
 3589 0138 B0EE601A 		vmov.f32	s2, s1
 3590 013c 9FED1D0A 		vldr.32	s0, .L212+60
 3591 0140 FFF7FEFF 		bl	Control_StrCalculator
 3592              	.LVL200:
 757:Src/motion.c  ****         motion_end_flag = FALSE;
 3593              		.loc 1 757 0
 3594 0144 9FED0F0A 		vldr.32	s0, .L212+12
 3595 0148 F0EE402A 		vmov.f32	s5, s0
 3596 014c B7EE002A 		vmov.f32	s4, #1.0e+0
 3597 0150 F0EE401A 		vmov.f32	s3, s0
 3598 0154 B0EE401A 		vmov.f32	s2, s0
 3599 0158 F0EE400A 		vmov.f32	s1, s0
 3600 015c FFF7FEFF 		bl	Control_AngCalculator
 3601              	.LVL201:
 758:Src/motion.c  ****         while (motion_end_flag == FALSE)
 3602              		.loc 1 758 0
 3603 0160 094B     		ldr	r3, .L212+16
 3604 0162 0022     		movs	r2, #0
 3605 0164 1A70     		strb	r2, [r3]
 3606              	.L210:
 759:Src/motion.c  ****         {
 3607              		.loc 1 759 0 discriminator 1
 3608 0166 084B     		ldr	r3, .L212+16
 3609 0168 1B78     		ldrb	r3, [r3]	@ zero_extendqisi2
 3610 016a 002B     		cmp	r3, #0
 3611 016c FBD0     		beq	.L210
 762:Src/motion.c  ****     }
 3612              		.loc 1 762 0
 3613 016e 024B     		ldr	r3, .L212
 3614 0170 0022     		movs	r2, #0
 3615 0172 9A60     		str	r2, [r3, #8]	@ float
 3616              		.loc 1 764 0
 3617 0174 D1E7     		b	.L204
 3618              	.L213:
 3619 0176 00BF     		.align	2
 3620              	.L212:
 3621 0178 00000000 		.word	enc
 3622 017c 00004844 		.word	1145569280
 3623 0180 0000AC42 		.word	1118568448
 3624 0184 00000000 		.word	0
 3625 0188 00000000 		.word	motion_end_flag
 3626 018c 00409C46 		.word	1184645120
 3627 0190 00001644 		.word	1142292480
 3628 0194 00003642 		.word	1110835200
ARM GAS  C:\Users\kotaro\AppData\Local\Temp\ccWGe4CN.s 			page 78


 3629 0198 00000000 		.word	error_ang_sum
 3630 019c 00000000 		.word	error_ang_old
 3631 01a0 00000000 		.word	control_wall_flag
 3632 01a4 00401C46 		.word	1176256512
 3633 01a8 00005842 		.word	1113063424
 3634 01ac 00000000 		.word	straight
 3635 01b0 00000000 		.word	angle
 3636 01b4 00009442 		.word	1116995584
 3637              		.cfi_endproc
 3638              	.LFE185:
 3640              		.section	.text.Motion_Left90Turn,"ax",%progbits
 3641              		.align	1
 3642              		.global	Motion_Left90Turn
 3643              		.syntax unified
 3644              		.thumb
 3645              		.thumb_func
 3646              		.fpu fpv4-sp-d16
 3648              	Motion_Left90Turn:
 3649              	.LFB186:
 765:Src/motion.c  **** 
 766:Src/motion.c  **** void Motion_Left90Turn(float v_end)
 767:Src/motion.c  **** {
 3650              		.loc 1 767 0
 3651              		.cfi_startproc
 3652              		@ args = 0, pretend = 0, frame = 0
 3653              		@ frame_needed = 0, uses_anonymous_args = 0
 3654              	.LVL202:
 3655 0000 08B5     		push	{r3, lr}
 3656              	.LCFI71:
 3657              		.cfi_def_cfa_offset 8
 3658              		.cfi_offset 3, -8
 3659              		.cfi_offset 14, -4
 3660 0002 2DED028B 		vpush.64	{d8}
 3661              	.LCFI72:
 3662              		.cfi_def_cfa_offset 16
 3663              		.cfi_offset 80, -16
 3664              		.cfi_offset 81, -12
 3665 0006 B0EE408A 		vmov.f32	s16, s0
 768:Src/motion.c  ****     //offset in
 769:Src/motion.c  ****     Control_StrCalculator(23.0f - enc.offset, VELO_F, VELO_F, VELO_F, ACCEL_F, 1);
 3666              		.loc 1 769 0
 3667 000a 594B     		ldr	r3, .L222
 3668 000c D3ED027A 		vldr.32	s15, [r3, #8]
 3669 0010 DFED580A 		vldr.32	s1, .L222+4
 3670 0014 F7EE002A 		vmov.f32	s5, #1.0e+0
 3671 0018 9FED572A 		vldr.32	s4, .L222+8
 3672 001c F0EE601A 		vmov.f32	s3, s1
 3673 0020 B0EE601A 		vmov.f32	s2, s1
 3674 0024 B3EE070A 		vmov.f32	s0, #2.3e+1
 3675              	.LVL203:
 3676 0028 30EE670A 		vsub.f32	s0, s0, s15
 3677 002c FFF7FEFF 		bl	Control_StrCalculator
 3678              	.LVL204:
 770:Src/motion.c  ****     Control_AngCalculator(0, 0, 0, 0, 1, 0);
 3679              		.loc 1 770 0
 3680 0030 9FED520A 		vldr.32	s0, .L222+12
 3681 0034 F0EE402A 		vmov.f32	s5, s0
ARM GAS  C:\Users\kotaro\AppData\Local\Temp\ccWGe4CN.s 			page 79


 3682 0038 B7EE002A 		vmov.f32	s4, #1.0e+0
 3683 003c F0EE401A 		vmov.f32	s3, s0
 3684 0040 B0EE401A 		vmov.f32	s2, s0
 3685 0044 F0EE400A 		vmov.f32	s1, s0
 3686 0048 FFF7FEFF 		bl	Control_AngCalculator
 3687              	.LVL205:
 771:Src/motion.c  ****     motion_end_flag = FALSE;
 3688              		.loc 1 771 0
 3689 004c 4C4B     		ldr	r3, .L222+16
 3690 004e 0022     		movs	r2, #0
 3691 0050 1A70     		strb	r2, [r3]
 3692              	.L215:
 772:Src/motion.c  ****     while (motion_end_flag == FALSE)
 3693              		.loc 1 772 0 discriminator 1
 3694 0052 4B4B     		ldr	r3, .L222+16
 3695 0054 1B78     		ldrb	r3, [r3]	@ zero_extendqisi2
 3696 0056 002B     		cmp	r3, #0
 3697 0058 FBD0     		beq	.L215
 773:Src/motion.c  ****     {
 774:Src/motion.c  ****     }
 775:Src/motion.c  ****     //turn
 776:Src/motion.c  ****     Control_StrCalculator(VELO_F, VELO_F, VELO_F, VELO_F, 1, 1);
 3698              		.loc 1 776 0
 3699 005a 9FED460A 		vldr.32	s0, .L222+4
 3700 005e F7EE002A 		vmov.f32	s5, #1.0e+0
 3701 0062 B0EE622A 		vmov.f32	s4, s5
 3702 0066 F0EE401A 		vmov.f32	s3, s0
 3703 006a B0EE401A 		vmov.f32	s2, s0
 3704 006e F0EE400A 		vmov.f32	s1, s0
 3705 0072 FFF7FEFF 		bl	Control_StrCalculator
 3706              	.LVL206:
 777:Src/motion.c  ****     Control_AngCalculator(90.5f, 0, 400.0f, 0, 5000.0f, 1);
 3707              		.loc 1 777 0
 3708 0076 DFED410A 		vldr.32	s1, .L222+12
 3709 007a F7EE002A 		vmov.f32	s5, #1.0e+0
 3710 007e 9FED412A 		vldr.32	s4, .L222+20
 3711 0082 F0EE601A 		vmov.f32	s3, s1
 3712 0086 9FED401A 		vldr.32	s2, .L222+24
 3713 008a 9FED400A 		vldr.32	s0, .L222+28
 3714 008e FFF7FEFF 		bl	Control_AngCalculator
 3715              	.LVL207:
 778:Src/motion.c  ****     motion_end_flag = FALSE;
 3716              		.loc 1 778 0
 3717 0092 3B4B     		ldr	r3, .L222+16
 3718 0094 0022     		movs	r2, #0
 3719 0096 1A70     		strb	r2, [r3]
 3720              	.L216:
 779:Src/motion.c  ****     while (motion_end_flag == FALSE)
 3721              		.loc 1 779 0 discriminator 1
 3722 0098 394B     		ldr	r3, .L222+16
 3723 009a 1B78     		ldrb	r3, [r3]	@ zero_extendqisi2
 3724 009c 002B     		cmp	r3, #0
 3725 009e FBD0     		beq	.L216
 780:Src/motion.c  ****     {
 781:Src/motion.c  ****     }
 782:Src/motion.c  ****     error_ang_sum = 0.0f;
 3726              		.loc 1 782 0
ARM GAS  C:\Users\kotaro\AppData\Local\Temp\ccWGe4CN.s 			page 80


 3727 00a0 0023     		movs	r3, #0
 3728 00a2 3B4A     		ldr	r2, .L222+32
 3729 00a4 1360     		str	r3, [r2]	@ float
 783:Src/motion.c  ****     error_ang_old = 0.0f;
 3730              		.loc 1 783 0
 3731 00a6 3B4A     		ldr	r2, .L222+36
 3732 00a8 1360     		str	r3, [r2]	@ float
 784:Src/motion.c  ****     //offset out
 785:Src/motion.c  ****     if (v_end == 0.0f)
 3733              		.loc 1 785 0
 3734 00aa B5EE408A 		vcmp.f32	s16, #0
 3735 00ae F1EE10FA 		vmrs	APSR_nzcv, FPSCR
 3736 00b2 32D1     		bne	.L217
 786:Src/motion.c  ****     {
 787:Src/motion.c  ****         Control_StrCalculator(32.0f, VELO_F, VELO_F, 0.0f, 10000.0f, 1);
 3737              		.loc 1 787 0
 3738 00b4 08EE103A 		vmov	s16, r3
 3739              	.LVL208:
 3740 00b8 DFED2E0A 		vldr.32	s1, .L222+4
 3741 00bc F7EE002A 		vmov.f32	s5, #1.0e+0
 3742 00c0 9FED352A 		vldr.32	s4, .L222+40
 3743 00c4 01EE903A 		vmov	s3, r3
 3744 00c8 B0EE601A 		vmov.f32	s2, s1
 3745 00cc 9FED330A 		vldr.32	s0, .L222+44
 3746 00d0 FFF7FEFF 		bl	Control_StrCalculator
 3747              	.LVL209:
 788:Src/motion.c  ****         Control_AngCalculator(0, 0, 0, 0, 1, 0);
 3748              		.loc 1 788 0
 3749 00d4 F0EE482A 		vmov.f32	s5, s16
 3750 00d8 B7EE002A 		vmov.f32	s4, #1.0e+0
 3751 00dc F0EE481A 		vmov.f32	s3, s16
 3752 00e0 B0EE481A 		vmov.f32	s2, s16
 3753 00e4 F0EE480A 		vmov.f32	s1, s16
 3754 00e8 B0EE480A 		vmov.f32	s0, s16
 3755 00ec FFF7FEFF 		bl	Control_AngCalculator
 3756              	.LVL210:
 789:Src/motion.c  ****         motion_end_flag = FALSE;
 3757              		.loc 1 789 0
 3758 00f0 234B     		ldr	r3, .L222+16
 3759 00f2 0022     		movs	r2, #0
 3760 00f4 1A70     		strb	r2, [r3]
 3761              	.L218:
 790:Src/motion.c  ****         while (motion_end_flag == FALSE)
 3762              		.loc 1 790 0 discriminator 1
 3763 00f6 224B     		ldr	r3, .L222+16
 3764 00f8 1B78     		ldrb	r3, [r3]	@ zero_extendqisi2
 3765 00fa 002B     		cmp	r3, #0
 3766 00fc FBD0     		beq	.L218
 791:Src/motion.c  ****         {
 792:Src/motion.c  ****         }
 793:Src/motion.c  ****         enc.offset = 0.0f;
 3767              		.loc 1 793 0
 3768 00fe 0023     		movs	r3, #0
 3769 0100 1B4A     		ldr	r2, .L222
 3770 0102 9360     		str	r3, [r2, #8]	@ float
 794:Src/motion.c  ****         straight.v_now = 0;
 3771              		.loc 1 794 0
ARM GAS  C:\Users\kotaro\AppData\Local\Temp\ccWGe4CN.s 			page 81


 3772 0104 264A     		ldr	r2, .L222+48
 3773 0106 D360     		str	r3, [r2, #12]	@ float
 795:Src/motion.c  ****         angle.v_now = 0;
 3774              		.loc 1 795 0
 3775 0108 264A     		ldr	r2, .L222+52
 3776 010a D360     		str	r3, [r2, #12]	@ float
 796:Src/motion.c  ****         HAL_Delay(800);
 3777              		.loc 1 796 0
 3778 010c 4FF44870 		mov	r0, #800
 3779 0110 FFF7FEFF 		bl	HAL_Delay
 3780              	.LVL211:
 3781              	.L214:
 797:Src/motion.c  ****     }
 798:Src/motion.c  ****     else
 799:Src/motion.c  ****     {
 800:Src/motion.c  ****         Control_EdgeSet(-58.0f + 20.0f);
 801:Src/motion.c  ****         Control_StrCalculator(32.0f + 20.0f, VELO_F, VELO_F, v_end, 1, 1);
 802:Src/motion.c  ****         Control_AngCalculator(0, 0, 0, 0, 1, 0);
 803:Src/motion.c  ****         motion_end_flag = FALSE;
 804:Src/motion.c  ****         while (motion_end_flag == FALSE)
 805:Src/motion.c  ****         {
 806:Src/motion.c  ****         }
 807:Src/motion.c  ****         enc.offset = 0.0f;
 808:Src/motion.c  ****     }
 809:Src/motion.c  **** }
 3782              		.loc 1 809 0
 3783 0114 BDEC028B 		vldm	sp!, {d8}
 3784              	.LCFI73:
 3785              		.cfi_remember_state
 3786              		.cfi_restore 80
 3787              		.cfi_restore 81
 3788              		.cfi_def_cfa_offset 8
 3789 0118 08BD     		pop	{r3, pc}
 3790              	.LVL212:
 3791              	.L217:
 3792              	.LCFI74:
 3793              		.cfi_restore_state
 800:Src/motion.c  ****         Control_StrCalculator(32.0f + 20.0f, VELO_F, VELO_F, v_end, 1, 1);
 3794              		.loc 1 800 0
 3795 011a 9FED230A 		vldr.32	s0, .L222+56
 3796 011e FFF7FEFF 		bl	Control_EdgeSet
 3797              	.LVL213:
 801:Src/motion.c  ****         Control_AngCalculator(0, 0, 0, 0, 1, 0);
 3798              		.loc 1 801 0
 3799 0122 DFED140A 		vldr.32	s1, .L222+4
 3800 0126 F7EE002A 		vmov.f32	s5, #1.0e+0
 3801 012a B0EE622A 		vmov.f32	s4, s5
 3802 012e F0EE481A 		vmov.f32	s3, s16
 3803 0132 B0EE601A 		vmov.f32	s2, s1
 3804 0136 9FED1D0A 		vldr.32	s0, .L222+60
 3805 013a FFF7FEFF 		bl	Control_StrCalculator
 3806              	.LVL214:
 802:Src/motion.c  ****         motion_end_flag = FALSE;
 3807              		.loc 1 802 0
 3808 013e 9FED0F0A 		vldr.32	s0, .L222+12
 3809 0142 F0EE402A 		vmov.f32	s5, s0
 3810 0146 B7EE002A 		vmov.f32	s4, #1.0e+0
ARM GAS  C:\Users\kotaro\AppData\Local\Temp\ccWGe4CN.s 			page 82


 3811 014a F0EE401A 		vmov.f32	s3, s0
 3812 014e B0EE401A 		vmov.f32	s2, s0
 3813 0152 F0EE400A 		vmov.f32	s1, s0
 3814 0156 FFF7FEFF 		bl	Control_AngCalculator
 3815              	.LVL215:
 803:Src/motion.c  ****         while (motion_end_flag == FALSE)
 3816              		.loc 1 803 0
 3817 015a 094B     		ldr	r3, .L222+16
 3818 015c 0022     		movs	r2, #0
 3819 015e 1A70     		strb	r2, [r3]
 3820              	.L220:
 804:Src/motion.c  ****         {
 3821              		.loc 1 804 0 discriminator 1
 3822 0160 074B     		ldr	r3, .L222+16
 3823 0162 1B78     		ldrb	r3, [r3]	@ zero_extendqisi2
 3824 0164 002B     		cmp	r3, #0
 3825 0166 FBD0     		beq	.L220
 807:Src/motion.c  ****     }
 3826              		.loc 1 807 0
 3827 0168 014B     		ldr	r3, .L222
 3828 016a 0022     		movs	r2, #0
 3829 016c 9A60     		str	r2, [r3, #8]	@ float
 3830              		.loc 1 809 0
 3831 016e D1E7     		b	.L214
 3832              	.L223:
 3833              		.align	2
 3834              	.L222:
 3835 0170 00000000 		.word	enc
 3836 0174 00004844 		.word	1145569280
 3837 0178 0000FA45 		.word	1174011904
 3838 017c 00000000 		.word	0
 3839 0180 00000000 		.word	motion_end_flag
 3840 0184 00409C45 		.word	1167867904
 3841 0188 0000C843 		.word	1137180672
 3842 018c 0000B542 		.word	1119158272
 3843 0190 00000000 		.word	error_ang_sum
 3844 0194 00000000 		.word	error_ang_old
 3845 0198 00401C46 		.word	1176256512
 3846 019c 00000042 		.word	1107296256
 3847 01a0 00000000 		.word	straight
 3848 01a4 00000000 		.word	angle
 3849 01a8 000018C2 		.word	-1038614528
 3850 01ac 00005042 		.word	1112539136
 3851              		.cfi_endproc
 3852              	.LFE186:
 3854              		.section	.text.Motion_Right90Turn,"ax",%progbits
 3855              		.align	1
 3856              		.global	Motion_Right90Turn
 3857              		.syntax unified
 3858              		.thumb
 3859              		.thumb_func
 3860              		.fpu fpv4-sp-d16
 3862              	Motion_Right90Turn:
 3863              	.LFB187:
 810:Src/motion.c  **** 
 811:Src/motion.c  **** void Motion_Right90Turn(float v_end)
 812:Src/motion.c  **** {
ARM GAS  C:\Users\kotaro\AppData\Local\Temp\ccWGe4CN.s 			page 83


 3864              		.loc 1 812 0
 3865              		.cfi_startproc
 3866              		@ args = 0, pretend = 0, frame = 0
 3867              		@ frame_needed = 0, uses_anonymous_args = 0
 3868              	.LVL216:
 3869 0000 08B5     		push	{r3, lr}
 3870              	.LCFI75:
 3871              		.cfi_def_cfa_offset 8
 3872              		.cfi_offset 3, -8
 3873              		.cfi_offset 14, -4
 3874 0002 2DED028B 		vpush.64	{d8}
 3875              	.LCFI76:
 3876              		.cfi_def_cfa_offset 16
 3877              		.cfi_offset 80, -16
 3878              		.cfi_offset 81, -12
 3879 0006 B0EE408A 		vmov.f32	s16, s0
 813:Src/motion.c  ****     //offset in
 814:Src/motion.c  ****     Control_StrCalculator(28.5f - enc.offset, VELO_F, VELO_F, VELO_F, ACCEL_F, 1); //29
 3880              		.loc 1 814 0
 3881 000a 594B     		ldr	r3, .L232
 3882 000c D3ED027A 		vldr.32	s15, [r3, #8]
 3883 0010 DFED580A 		vldr.32	s1, .L232+4
 3884 0014 F7EE002A 		vmov.f32	s5, #1.0e+0
 3885 0018 9FED572A 		vldr.32	s4, .L232+8
 3886 001c F0EE601A 		vmov.f32	s3, s1
 3887 0020 B0EE601A 		vmov.f32	s2, s1
 3888 0024 9FED550A 		vldr.32	s0, .L232+12
 3889              	.LVL217:
 3890 0028 30EE670A 		vsub.f32	s0, s0, s15
 3891 002c FFF7FEFF 		bl	Control_StrCalculator
 3892              	.LVL218:
 815:Src/motion.c  ****     Control_AngCalculator(0, 0, 0, 0, 1, 0);
 3893              		.loc 1 815 0
 3894 0030 9FED530A 		vldr.32	s0, .L232+16
 3895 0034 F0EE402A 		vmov.f32	s5, s0
 3896 0038 B7EE002A 		vmov.f32	s4, #1.0e+0
 3897 003c F0EE401A 		vmov.f32	s3, s0
 3898 0040 B0EE401A 		vmov.f32	s2, s0
 3899 0044 F0EE400A 		vmov.f32	s1, s0
 3900 0048 FFF7FEFF 		bl	Control_AngCalculator
 3901              	.LVL219:
 816:Src/motion.c  ****     motion_end_flag = FALSE;
 3902              		.loc 1 816 0
 3903 004c 4D4B     		ldr	r3, .L232+20
 3904 004e 0022     		movs	r2, #0
 3905 0050 1A70     		strb	r2, [r3]
 3906              	.L225:
 817:Src/motion.c  ****     while (motion_end_flag == FALSE)
 3907              		.loc 1 817 0 discriminator 1
 3908 0052 4C4B     		ldr	r3, .L232+20
 3909 0054 1B78     		ldrb	r3, [r3]	@ zero_extendqisi2
 3910 0056 002B     		cmp	r3, #0
 3911 0058 FBD0     		beq	.L225
 818:Src/motion.c  ****     {
 819:Src/motion.c  ****     }
 820:Src/motion.c  ****     //turn
 821:Src/motion.c  ****     Control_StrCalculator(VELO_F, VELO_F, VELO_F, VELO_F, 1, 1);
ARM GAS  C:\Users\kotaro\AppData\Local\Temp\ccWGe4CN.s 			page 84


 3912              		.loc 1 821 0
 3913 005a 9FED460A 		vldr.32	s0, .L232+4
 3914 005e F7EE002A 		vmov.f32	s5, #1.0e+0
 3915 0062 B0EE622A 		vmov.f32	s4, s5
 3916 0066 F0EE401A 		vmov.f32	s3, s0
 3917 006a B0EE401A 		vmov.f32	s2, s0
 3918 006e F0EE400A 		vmov.f32	s1, s0
 3919 0072 FFF7FEFF 		bl	Control_StrCalculator
 3920              	.LVL220:
 822:Src/motion.c  ****     Control_AngCalculator(90.5f, 0, 400.0f, 0, 5000.0f, -1);
 3921              		.loc 1 822 0
 3922 0076 DFED420A 		vldr.32	s1, .L232+16
 3923 007a FFEE002A 		vmov.f32	s5, #-1.0e+0
 3924 007e 9FED422A 		vldr.32	s4, .L232+24
 3925 0082 F0EE601A 		vmov.f32	s3, s1
 3926 0086 9FED411A 		vldr.32	s2, .L232+28
 3927 008a 9FED410A 		vldr.32	s0, .L232+32
 3928 008e FFF7FEFF 		bl	Control_AngCalculator
 3929              	.LVL221:
 823:Src/motion.c  ****     motion_end_flag = FALSE;
 3930              		.loc 1 823 0
 3931 0092 3C4B     		ldr	r3, .L232+20
 3932 0094 0022     		movs	r2, #0
 3933 0096 1A70     		strb	r2, [r3]
 3934              	.L226:
 824:Src/motion.c  ****     while (motion_end_flag == FALSE)
 3935              		.loc 1 824 0 discriminator 1
 3936 0098 3A4B     		ldr	r3, .L232+20
 3937 009a 1B78     		ldrb	r3, [r3]	@ zero_extendqisi2
 3938 009c 002B     		cmp	r3, #0
 3939 009e FBD0     		beq	.L226
 825:Src/motion.c  ****     {
 826:Src/motion.c  ****     }
 827:Src/motion.c  ****     error_ang_sum = 0.0f;
 3940              		.loc 1 827 0
 3941 00a0 0023     		movs	r3, #0
 3942 00a2 3C4A     		ldr	r2, .L232+36
 3943 00a4 1360     		str	r3, [r2]	@ float
 828:Src/motion.c  ****     error_ang_old = 0.0f;
 3944              		.loc 1 828 0
 3945 00a6 3C4A     		ldr	r2, .L232+40
 3946 00a8 1360     		str	r3, [r2]	@ float
 829:Src/motion.c  ****     //offset out
 830:Src/motion.c  ****     if (v_end == 0.0f)
 3947              		.loc 1 830 0
 3948 00aa B5EE408A 		vcmp.f32	s16, #0
 3949 00ae F1EE10FA 		vmrs	APSR_nzcv, FPSCR
 3950 00b2 32D1     		bne	.L227
 831:Src/motion.c  ****     {
 832:Src/motion.c  ****         Control_StrCalculator(43.0f, VELO_F, VELO_F, 0.0f, 10000.0f, 1); //41
 3951              		.loc 1 832 0
 3952 00b4 08EE103A 		vmov	s16, r3
 3953              	.LVL222:
 3954 00b8 DFED2E0A 		vldr.32	s1, .L232+4
 3955 00bc F7EE002A 		vmov.f32	s5, #1.0e+0
 3956 00c0 9FED362A 		vldr.32	s4, .L232+44
 3957 00c4 01EE903A 		vmov	s3, r3
ARM GAS  C:\Users\kotaro\AppData\Local\Temp\ccWGe4CN.s 			page 85


 3958 00c8 B0EE601A 		vmov.f32	s2, s1
 3959 00cc 9FED340A 		vldr.32	s0, .L232+48
 3960 00d0 FFF7FEFF 		bl	Control_StrCalculator
 3961              	.LVL223:
 833:Src/motion.c  ****         Control_AngCalculator(0, 0, 0, 0, 1, 0);
 3962              		.loc 1 833 0
 3963 00d4 F0EE482A 		vmov.f32	s5, s16
 3964 00d8 B7EE002A 		vmov.f32	s4, #1.0e+0
 3965 00dc F0EE481A 		vmov.f32	s3, s16
 3966 00e0 B0EE481A 		vmov.f32	s2, s16
 3967 00e4 F0EE480A 		vmov.f32	s1, s16
 3968 00e8 B0EE480A 		vmov.f32	s0, s16
 3969 00ec FFF7FEFF 		bl	Control_AngCalculator
 3970              	.LVL224:
 834:Src/motion.c  ****         motion_end_flag = FALSE;
 3971              		.loc 1 834 0
 3972 00f0 244B     		ldr	r3, .L232+20
 3973 00f2 0022     		movs	r2, #0
 3974 00f4 1A70     		strb	r2, [r3]
 3975              	.L228:
 835:Src/motion.c  ****         while (motion_end_flag == FALSE)
 3976              		.loc 1 835 0 discriminator 1
 3977 00f6 234B     		ldr	r3, .L232+20
 3978 00f8 1B78     		ldrb	r3, [r3]	@ zero_extendqisi2
 3979 00fa 002B     		cmp	r3, #0
 3980 00fc FBD0     		beq	.L228
 836:Src/motion.c  ****         {
 837:Src/motion.c  ****         }
 838:Src/motion.c  ****         enc.offset = 0.0f;
 3981              		.loc 1 838 0
 3982 00fe 0023     		movs	r3, #0
 3983 0100 1B4A     		ldr	r2, .L232
 3984 0102 9360     		str	r3, [r2, #8]	@ float
 839:Src/motion.c  ****         straight.v_now = 0;
 3985              		.loc 1 839 0
 3986 0104 274A     		ldr	r2, .L232+52
 3987 0106 D360     		str	r3, [r2, #12]	@ float
 840:Src/motion.c  ****         angle.v_now = 0;
 3988              		.loc 1 840 0
 3989 0108 274A     		ldr	r2, .L232+56
 3990 010a D360     		str	r3, [r2, #12]	@ float
 841:Src/motion.c  ****         HAL_Delay(800);
 3991              		.loc 1 841 0
 3992 010c 4FF44870 		mov	r0, #800
 3993 0110 FFF7FEFF 		bl	HAL_Delay
 3994              	.LVL225:
 3995              	.L224:
 842:Src/motion.c  ****     }
 843:Src/motion.c  ****     else
 844:Src/motion.c  ****     {
 845:Src/motion.c  ****         Control_EdgeSet(-47.0f + 20.0f);
 846:Src/motion.c  ****         Control_StrCalculator(43.0f + 20.0f, VELO_F, VELO_F, v_end, 1, 1); //41
 847:Src/motion.c  ****         Control_AngCalculator(0, 0, 0, 0, 1, 0);
 848:Src/motion.c  ****         motion_end_flag = FALSE;
 849:Src/motion.c  ****         while (motion_end_flag == FALSE)
 850:Src/motion.c  ****         {
 851:Src/motion.c  ****         }
ARM GAS  C:\Users\kotaro\AppData\Local\Temp\ccWGe4CN.s 			page 86


 852:Src/motion.c  ****         enc.offset = 0.0f;
 853:Src/motion.c  ****     }
 854:Src/motion.c  **** }
 3996              		.loc 1 854 0
 3997 0114 BDEC028B 		vldm	sp!, {d8}
 3998              	.LCFI77:
 3999              		.cfi_remember_state
 4000              		.cfi_restore 80
 4001              		.cfi_restore 81
 4002              		.cfi_def_cfa_offset 8
 4003 0118 08BD     		pop	{r3, pc}
 4004              	.LVL226:
 4005              	.L227:
 4006              	.LCFI78:
 4007              		.cfi_restore_state
 845:Src/motion.c  ****         Control_StrCalculator(43.0f + 20.0f, VELO_F, VELO_F, v_end, 1, 1); //41
 4008              		.loc 1 845 0
 4009 011a BBEE0B0A 		vmov.f32	s0, #-2.7e+1
 4010 011e FFF7FEFF 		bl	Control_EdgeSet
 4011              	.LVL227:
 846:Src/motion.c  ****         Control_AngCalculator(0, 0, 0, 0, 1, 0);
 4012              		.loc 1 846 0
 4013 0122 DFED140A 		vldr.32	s1, .L232+4
 4014 0126 F7EE002A 		vmov.f32	s5, #1.0e+0
 4015 012a B0EE622A 		vmov.f32	s4, s5
 4016 012e F0EE481A 		vmov.f32	s3, s16
 4017 0132 B0EE601A 		vmov.f32	s2, s1
 4018 0136 9FED1D0A 		vldr.32	s0, .L232+60
 4019 013a FFF7FEFF 		bl	Control_StrCalculator
 4020              	.LVL228:
 847:Src/motion.c  ****         motion_end_flag = FALSE;
 4021              		.loc 1 847 0
 4022 013e 9FED100A 		vldr.32	s0, .L232+16
 4023 0142 F0EE402A 		vmov.f32	s5, s0
 4024 0146 B7EE002A 		vmov.f32	s4, #1.0e+0
 4025 014a F0EE401A 		vmov.f32	s3, s0
 4026 014e B0EE401A 		vmov.f32	s2, s0
 4027 0152 F0EE400A 		vmov.f32	s1, s0
 4028 0156 FFF7FEFF 		bl	Control_AngCalculator
 4029              	.LVL229:
 848:Src/motion.c  ****         while (motion_end_flag == FALSE)
 4030              		.loc 1 848 0
 4031 015a 0A4B     		ldr	r3, .L232+20
 4032 015c 0022     		movs	r2, #0
 4033 015e 1A70     		strb	r2, [r3]
 4034              	.L230:
 849:Src/motion.c  ****         {
 4035              		.loc 1 849 0 discriminator 1
 4036 0160 084B     		ldr	r3, .L232+20
 4037 0162 1B78     		ldrb	r3, [r3]	@ zero_extendqisi2
 4038 0164 002B     		cmp	r3, #0
 4039 0166 FBD0     		beq	.L230
 852:Src/motion.c  ****     }
 4040              		.loc 1 852 0
 4041 0168 014B     		ldr	r3, .L232
 4042 016a 0022     		movs	r2, #0
 4043 016c 9A60     		str	r2, [r3, #8]	@ float
ARM GAS  C:\Users\kotaro\AppData\Local\Temp\ccWGe4CN.s 			page 87


 4044              		.loc 1 854 0
 4045 016e D1E7     		b	.L224
 4046              	.L233:
 4047              		.align	2
 4048              	.L232:
 4049 0170 00000000 		.word	enc
 4050 0174 00004844 		.word	1145569280
 4051 0178 0000FA45 		.word	1174011904
 4052 017c 0000E441 		.word	1105461248
 4053 0180 00000000 		.word	0
 4054 0184 00000000 		.word	motion_end_flag
 4055 0188 00409C45 		.word	1167867904
 4056 018c 0000C843 		.word	1137180672
 4057 0190 0000B542 		.word	1119158272
 4058 0194 00000000 		.word	error_ang_sum
 4059 0198 00000000 		.word	error_ang_old
 4060 019c 00401C46 		.word	1176256512
 4061 01a0 00002C42 		.word	1110179840
 4062 01a4 00000000 		.word	straight
 4063 01a8 00000000 		.word	angle
 4064 01ac 00007C42 		.word	1115422720
 4065              		.cfi_endproc
 4066              	.LFE187:
 4068              		.section	.text.Turn,"ax",%progbits
 4069              		.align	1
 4070              		.global	Turn
 4071              		.syntax unified
 4072              		.thumb
 4073              		.thumb_func
 4074              		.fpu fpv4-sp-d16
 4076              	Turn:
 4077              	.LFB188:
 855:Src/motion.c  **** 
 856:Src/motion.c  **** void Turn(float offset_in, float offset_out, uint8_t d_flag, float velo, float v_end, float deg, fl
 857:Src/motion.c  **** {
 4078              		.loc 1 857 0
 4079              		.cfi_startproc
 4080              		@ args = 0, pretend = 0, frame = 0
 4081              		@ frame_needed = 0, uses_anonymous_args = 0
 4082              	.LVL230:
 4083 0000 70B5     		push	{r4, r5, r6, lr}
 4084              	.LCFI79:
 4085              		.cfi_def_cfa_offset 16
 4086              		.cfi_offset 4, -16
 4087              		.cfi_offset 5, -12
 4088              		.cfi_offset 6, -8
 4089              		.cfi_offset 14, -4
 4090 0002 2DED068B 		vpush.64	{d8, d9, d10}
 4091              	.LCFI80:
 4092              		.cfi_def_cfa_offset 40
 4093              		.cfi_offset 80, -40
 4094              		.cfi_offset 81, -36
 4095              		.cfi_offset 82, -32
 4096              		.cfi_offset 83, -28
 4097              		.cfi_offset 84, -24
 4098              		.cfi_offset 85, -20
 4099 0006 B0EE609A 		vmov.f32	s18, s1
ARM GAS  C:\Users\kotaro\AppData\Local\Temp\ccWGe4CN.s 			page 88


 4100 000a 0546     		mov	r5, r0
 4101 000c B0EE418A 		vmov.f32	s16, s2
 4102 0010 F0EE618A 		vmov.f32	s17, s3
 4103 0014 F0EE429A 		vmov.f32	s19, s4
 4104 0018 B0EE62AA 		vmov.f32	s20, s5
 4105 001c F0EE43AA 		vmov.f32	s21, s6
 4106 0020 0C46     		mov	r4, r1
 4107 0022 1646     		mov	r6, r2
 858:Src/motion.c  ****     //offset in
 859:Src/motion.c  ****     Control_StrCalculator(offset_in - enc.offset, velo, velo, velo, 1, 1);
 4108              		.loc 1 859 0
 4109 0024 754B     		ldr	r3, .L247
 4110 0026 D3ED027A 		vldr.32	s15, [r3, #8]
 4111 002a F7EE002A 		vmov.f32	s5, #1.0e+0
 4112              	.LVL231:
 4113 002e B0EE622A 		vmov.f32	s4, s5
 4114              	.LVL232:
 4115 0032 F0EE411A 		vmov.f32	s3, s2
 4116              	.LVL233:
 4117 0036 F0EE410A 		vmov.f32	s1, s2
 4118              	.LVL234:
 4119 003a 30EE670A 		vsub.f32	s0, s0, s15
 4120              	.LVL235:
 4121 003e FFF7FEFF 		bl	Control_StrCalculator
 4122              	.LVL236:
 860:Src/motion.c  ****     Control_AngCalculator(0, 0, 0, 0, 1, 0);
 4123              		.loc 1 860 0
 4124 0042 9FED6F0A 		vldr.32	s0, .L247+4
 4125 0046 F0EE402A 		vmov.f32	s5, s0
 4126 004a B7EE002A 		vmov.f32	s4, #1.0e+0
 4127 004e F0EE401A 		vmov.f32	s3, s0
 4128 0052 B0EE401A 		vmov.f32	s2, s0
 4129 0056 F0EE400A 		vmov.f32	s1, s0
 4130 005a FFF7FEFF 		bl	Control_AngCalculator
 4131              	.LVL237:
 861:Src/motion.c  ****     motion_end_flag = FALSE;
 4132              		.loc 1 861 0
 4133 005e 694B     		ldr	r3, .L247+8
 4134 0060 0022     		movs	r2, #0
 4135 0062 1A70     		strb	r2, [r3]
 4136              	.L235:
 862:Src/motion.c  ****     while (motion_end_flag == FALSE)
 4137              		.loc 1 862 0 discriminator 1
 4138 0064 674B     		ldr	r3, .L247+8
 4139 0066 1B78     		ldrb	r3, [r3]	@ zero_extendqisi2
 4140 0068 002B     		cmp	r3, #0
 4141 006a FBD0     		beq	.L235
 863:Src/motion.c  ****     {
 864:Src/motion.c  ****     }
 865:Src/motion.c  ****     //turn
 866:Src/motion.c  ****     Control_StrCalculator(800.0f, velo, velo, velo, 1.0f, 1.0f); //600
 4142              		.loc 1 866 0
 4143 006c F7EE002A 		vmov.f32	s5, #1.0e+0
 4144 0070 B0EE622A 		vmov.f32	s4, s5
 4145 0074 F0EE481A 		vmov.f32	s3, s16
 4146 0078 B0EE481A 		vmov.f32	s2, s16
 4147 007c F0EE480A 		vmov.f32	s1, s16
ARM GAS  C:\Users\kotaro\AppData\Local\Temp\ccWGe4CN.s 			page 89


 4148 0080 9FED610A 		vldr.32	s0, .L247+12
 4149 0084 FFF7FEFF 		bl	Control_StrCalculator
 4150              	.LVL238:
 867:Src/motion.c  ****     Control_AngCalculator(deg, 0, velo_ang, 0, accel_ang, dir);
 4151              		.loc 1 867 0
 4152 0088 DFED5D0A 		vldr.32	s1, .L247+4
 4153 008c 07EE904A 		vmov	s15, r4	@ int
 4154 0090 F8EE672A 		vcvt.f32.u32	s5, s15
 4155 0094 B0EE6A2A 		vmov.f32	s4, s21
 4156 0098 F0EE601A 		vmov.f32	s3, s1
 4157 009c B0EE4A1A 		vmov.f32	s2, s20
 4158 00a0 B0EE690A 		vmov.f32	s0, s19
 4159 00a4 FFF7FEFF 		bl	Control_AngCalculator
 4160              	.LVL239:
 868:Src/motion.c  ****     motion_end_flag = FALSE;
 4161              		.loc 1 868 0
 4162 00a8 564B     		ldr	r3, .L247+8
 4163 00aa 0022     		movs	r2, #0
 4164 00ac 1A70     		strb	r2, [r3]
 4165              	.L236:
 869:Src/motion.c  ****     while (motion_end_flag == FALSE)
 4166              		.loc 1 869 0 discriminator 1
 4167 00ae 554B     		ldr	r3, .L247+8
 4168 00b0 1B78     		ldrb	r3, [r3]	@ zero_extendqisi2
 4169 00b2 002B     		cmp	r3, #0
 4170 00b4 FBD0     		beq	.L236
 870:Src/motion.c  ****     {
 871:Src/motion.c  ****     }
 872:Src/motion.c  ****     error_ang_sum = 0.0f;
 4171              		.loc 1 872 0
 4172 00b6 0023     		movs	r3, #0
 4173 00b8 544A     		ldr	r2, .L247+16
 4174 00ba 1360     		str	r3, [r2]	@ float
 873:Src/motion.c  ****     error_ang_old = 0.0f;
 4175              		.loc 1 873 0
 4176 00bc 544A     		ldr	r2, .L247+20
 4177 00be 1360     		str	r3, [r2]	@ float
 874:Src/motion.c  ****     //offset out
 875:Src/motion.c  ****     control_wall_flag = wall_flag;
 4178              		.loc 1 875 0
 4179 00c0 544B     		ldr	r3, .L247+24
 4180 00c2 1E70     		strb	r6, [r3]
 876:Src/motion.c  ****     if (d_flag == 0)
 4181              		.loc 1 876 0
 4182 00c4 002D     		cmp	r5, #0
 4183 00c6 60D1     		bne	.L237
 877:Src/motion.c  ****     {
 878:Src/motion.c  ****         if (v_end == 0.0f)
 4184              		.loc 1 878 0
 4185 00c8 F5EE408A 		vcmp.f32	s17, #0
 4186 00cc F1EE10FA 		vmrs	APSR_nzcv, FPSCR
 4187 00d0 2ED1     		bne	.L238
 879:Src/motion.c  ****         {
 880:Src/motion.c  ****             Control_StrCalculator(offset_out, velo, velo, 0.0f, 8000.0f, 1);
 4188              		.loc 1 880 0
 4189 00d2 DFED4B8A 		vldr.32	s17, .L247+4
 4190              	.LVL240:
ARM GAS  C:\Users\kotaro\AppData\Local\Temp\ccWGe4CN.s 			page 90


 4191 00d6 F7EE002A 		vmov.f32	s5, #1.0e+0
 4192 00da 9FED4F2A 		vldr.32	s4, .L247+28
 4193 00de F0EE681A 		vmov.f32	s3, s17
 4194 00e2 B0EE481A 		vmov.f32	s2, s16
 4195 00e6 F0EE480A 		vmov.f32	s1, s16
 4196 00ea B0EE490A 		vmov.f32	s0, s18
 4197 00ee FFF7FEFF 		bl	Control_StrCalculator
 4198              	.LVL241:
 881:Src/motion.c  ****             Control_AngCalculator(0, 0, 0, 0, 1, 0);
 4199              		.loc 1 881 0
 4200 00f2 F0EE682A 		vmov.f32	s5, s17
 4201 00f6 B7EE002A 		vmov.f32	s4, #1.0e+0
 4202 00fa F0EE681A 		vmov.f32	s3, s17
 4203 00fe B0EE681A 		vmov.f32	s2, s17
 4204 0102 F0EE680A 		vmov.f32	s1, s17
 4205 0106 B0EE680A 		vmov.f32	s0, s17
 4206 010a FFF7FEFF 		bl	Control_AngCalculator
 4207              	.LVL242:
 882:Src/motion.c  ****             motion_end_flag = FALSE;
 4208              		.loc 1 882 0
 4209 010e 3D4B     		ldr	r3, .L247+8
 4210 0110 0022     		movs	r2, #0
 4211 0112 1A70     		strb	r2, [r3]
 4212              	.L239:
 883:Src/motion.c  ****             while (motion_end_flag == FALSE)
 4213              		.loc 1 883 0 discriminator 1
 4214 0114 3B4B     		ldr	r3, .L247+8
 4215 0116 1B78     		ldrb	r3, [r3]	@ zero_extendqisi2
 4216 0118 002B     		cmp	r3, #0
 4217 011a FBD0     		beq	.L239
 884:Src/motion.c  ****             {
 885:Src/motion.c  ****             }
 886:Src/motion.c  ****             straight.v_now = 0;
 4218              		.loc 1 886 0
 4219 011c 0023     		movs	r3, #0
 4220 011e 3F4A     		ldr	r2, .L247+32
 4221 0120 D360     		str	r3, [r2, #12]	@ float
 887:Src/motion.c  ****             angle.v_now = 0;
 4222              		.loc 1 887 0
 4223 0122 3F4A     		ldr	r2, .L247+36
 4224 0124 D360     		str	r3, [r2, #12]	@ float
 888:Src/motion.c  ****             HAL_Delay(800);
 4225              		.loc 1 888 0
 4226 0126 4FF44870 		mov	r0, #800
 4227 012a FFF7FEFF 		bl	HAL_Delay
 4228              	.LVL243:
 4229 012e 5AE0     		b	.L234
 4230              	.LVL244:
 4231              	.L238:
 889:Src/motion.c  ****         }
 890:Src/motion.c  ****         else
 891:Src/motion.c  ****         {
 892:Src/motion.c  ****             Control_EdgeSet(offset_out - 90.0f);
 4232              		.loc 1 892 0
 4233 0130 9FED3C0A 		vldr.32	s0, .L247+40
 4234 0134 39EE400A 		vsub.f32	s0, s18, s0
 4235 0138 FFF7FEFF 		bl	Control_EdgeSet
ARM GAS  C:\Users\kotaro\AppData\Local\Temp\ccWGe4CN.s 			page 91


 4236              	.LVL245:
 893:Src/motion.c  ****             Control_StrCalculator(offset_out, velo, velo, v_end, 1, 1);
 4237              		.loc 1 893 0
 4238 013c F7EE002A 		vmov.f32	s5, #1.0e+0
 4239 0140 B0EE622A 		vmov.f32	s4, s5
 4240 0144 F0EE681A 		vmov.f32	s3, s17
 4241 0148 B0EE481A 		vmov.f32	s2, s16
 4242 014c F0EE480A 		vmov.f32	s1, s16
 4243 0150 B0EE490A 		vmov.f32	s0, s18
 4244 0154 FFF7FEFF 		bl	Control_StrCalculator
 4245              	.LVL246:
 894:Src/motion.c  ****             Control_AngCalculator(0, 0, 0, 0, 1, 0);
 4246              		.loc 1 894 0
 4247 0158 9FED290A 		vldr.32	s0, .L247+4
 4248 015c F0EE402A 		vmov.f32	s5, s0
 4249 0160 B7EE002A 		vmov.f32	s4, #1.0e+0
 4250 0164 F0EE401A 		vmov.f32	s3, s0
 4251 0168 B0EE401A 		vmov.f32	s2, s0
 4252 016c F0EE400A 		vmov.f32	s1, s0
 4253 0170 FFF7FEFF 		bl	Control_AngCalculator
 4254              	.LVL247:
 895:Src/motion.c  ****             motion_end_flag = FALSE;
 4255              		.loc 1 895 0
 4256 0174 234B     		ldr	r3, .L247+8
 4257 0176 0022     		movs	r2, #0
 4258 0178 1A70     		strb	r2, [r3]
 4259              	.L241:
 896:Src/motion.c  ****             while (motion_end_flag == FALSE)
 4260              		.loc 1 896 0 discriminator 1
 4261 017a 224B     		ldr	r3, .L247+8
 4262 017c 1B78     		ldrb	r3, [r3]	@ zero_extendqisi2
 4263 017e 002B     		cmp	r3, #0
 4264 0180 FBD0     		beq	.L241
 897:Src/motion.c  ****             {
 898:Src/motion.c  ****             }
 899:Src/motion.c  ****             enc.offset = 0.0f;
 4265              		.loc 1 899 0
 4266 0182 1E4B     		ldr	r3, .L247
 4267 0184 0022     		movs	r2, #0
 4268 0186 9A60     		str	r2, [r3, #8]	@ float
 4269 0188 2DE0     		b	.L234
 4270              	.L237:
 900:Src/motion.c  ****         }
 901:Src/motion.c  ****     }
 902:Src/motion.c  ****     else
 903:Src/motion.c  ****     {
 904:Src/motion.c  ****         if (dir == 1)
 4271              		.loc 1 904 0
 4272 018a 012C     		cmp	r4, #1
 4273 018c 2ED0     		beq	.L243
 4274              	.L242:
 905:Src/motion.c  ****         {
 906:Src/motion.c  ****             while (sen_r.diff > -9)
 907:Src/motion.c  ****                 ;
 908:Src/motion.c  ****         }
 909:Src/motion.c  ****         else
 910:Src/motion.c  ****         {
ARM GAS  C:\Users\kotaro\AppData\Local\Temp\ccWGe4CN.s 			page 92


 911:Src/motion.c  ****             while (sen_l.diff > -9)
 4275              		.loc 1 911 0 discriminator 1
 4276 018e 264B     		ldr	r3, .L247+44
 4277 0190 B3F91A30 		ldrsh	r3, [r3, #26]
 4278 0194 13F1080F 		cmn	r3, #8
 4279 0198 F9DA     		bge	.L242
 4280              	.L244:
 912:Src/motion.c  ****                 ;
 913:Src/motion.c  ****         }
 914:Src/motion.c  ****         Control_StrCalculator(offset_out, velo, velo, v_end, 16000.0f, 1);
 4281              		.loc 1 914 0
 4282 019a F7EE002A 		vmov.f32	s5, #1.0e+0
 4283 019e 9FED232A 		vldr.32	s4, .L247+48
 4284 01a2 F0EE681A 		vmov.f32	s3, s17
 4285 01a6 B0EE481A 		vmov.f32	s2, s16
 4286 01aa F0EE480A 		vmov.f32	s1, s16
 4287 01ae B0EE490A 		vmov.f32	s0, s18
 4288 01b2 FFF7FEFF 		bl	Control_StrCalculator
 4289              	.LVL248:
 915:Src/motion.c  ****         Control_AngCalculator(0, 0, 0, 0, 1, 0);
 4290              		.loc 1 915 0
 4291 01b6 9FED120A 		vldr.32	s0, .L247+4
 4292 01ba F0EE402A 		vmov.f32	s5, s0
 4293 01be B7EE002A 		vmov.f32	s4, #1.0e+0
 4294 01c2 F0EE401A 		vmov.f32	s3, s0
 4295 01c6 B0EE401A 		vmov.f32	s2, s0
 4296 01ca F0EE400A 		vmov.f32	s1, s0
 4297 01ce FFF7FEFF 		bl	Control_AngCalculator
 4298              	.LVL249:
 916:Src/motion.c  ****         motion_end_flag = FALSE;
 4299              		.loc 1 916 0
 4300 01d2 0C4B     		ldr	r3, .L247+8
 4301 01d4 0022     		movs	r2, #0
 4302 01d6 1A70     		strb	r2, [r3]
 4303              	.L245:
 917:Src/motion.c  ****         while (motion_end_flag == FALSE)
 4304              		.loc 1 917 0 discriminator 1
 4305 01d8 0A4B     		ldr	r3, .L247+8
 4306 01da 1B78     		ldrb	r3, [r3]	@ zero_extendqisi2
 4307 01dc 002B     		cmp	r3, #0
 4308 01de FBD0     		beq	.L245
 918:Src/motion.c  ****         {
 919:Src/motion.c  ****         }
 920:Src/motion.c  ****         enc.offset = 0.0f;
 4309              		.loc 1 920 0
 4310 01e0 064B     		ldr	r3, .L247
 4311 01e2 0022     		movs	r2, #0
 4312 01e4 9A60     		str	r2, [r3, #8]	@ float
 4313              	.LVL250:
 4314              	.L234:
 921:Src/motion.c  ****     }
 922:Src/motion.c  **** }
 4315              		.loc 1 922 0
 4316 01e6 BDEC068B 		vldm	sp!, {d8-d10}
 4317              	.LCFI81:
 4318              		.cfi_remember_state
 4319              		.cfi_restore 84
ARM GAS  C:\Users\kotaro\AppData\Local\Temp\ccWGe4CN.s 			page 93


 4320              		.cfi_restore 85
 4321              		.cfi_restore 82
 4322              		.cfi_restore 83
 4323              		.cfi_restore 80
 4324              		.cfi_restore 81
 4325              		.cfi_def_cfa_offset 16
 4326              	.LVL251:
 4327 01ea 70BD     		pop	{r4, r5, r6, pc}
 4328              	.LVL252:
 4329              	.L243:
 4330              	.LCFI82:
 4331              		.cfi_restore_state
 906:Src/motion.c  ****                 ;
 4332              		.loc 1 906 0 discriminator 1
 4333 01ec 104B     		ldr	r3, .L247+52
 4334 01ee B3F91A30 		ldrsh	r3, [r3, #26]
 4335 01f2 13F1080F 		cmn	r3, #8
 4336 01f6 F9DA     		bge	.L243
 4337 01f8 CFE7     		b	.L244
 4338              	.L248:
 4339 01fa 00BF     		.align	2
 4340              	.L247:
 4341 01fc 00000000 		.word	enc
 4342 0200 00000000 		.word	0
 4343 0204 00000000 		.word	motion_end_flag
 4344 0208 00004844 		.word	1145569280
 4345 020c 00000000 		.word	error_ang_sum
 4346 0210 00000000 		.word	error_ang_old
 4347 0214 00000000 		.word	control_wall_flag
 4348 0218 0000FA45 		.word	1174011904
 4349 021c 00000000 		.word	straight
 4350 0220 00000000 		.word	angle
 4351 0224 0000B442 		.word	1119092736
 4352 0228 00000000 		.word	sen_l
 4353 022c 00007A46 		.word	1182400512
 4354 0230 00000000 		.word	sen_r
 4355              		.cfi_endproc
 4356              	.LFE188:
 4358              		.section	.text.Motion_FastLeftTurn,"ax",%progbits
 4359              		.align	1
 4360              		.global	Motion_FastLeftTurn
 4361              		.syntax unified
 4362              		.thumb
 4363              		.thumb_func
 4364              		.fpu fpv4-sp-d16
 4366              	Motion_FastLeftTurn:
 4367              	.LFB189:
 923:Src/motion.c  **** 
 924:Src/motion.c  **** void Motion_FastLeftTurn(uint8_t type, float v_end)
 925:Src/motion.c  **** {
 4368              		.loc 1 925 0
 4369              		.cfi_startproc
 4370              		@ args = 0, pretend = 0, frame = 0
 4371              		@ frame_needed = 0, uses_anonymous_args = 0
 4372              	.LVL253:
 4373 0000 08B5     		push	{r3, lr}
 4374              	.LCFI83:
ARM GAS  C:\Users\kotaro\AppData\Local\Temp\ccWGe4CN.s 			page 94


 4375              		.cfi_def_cfa_offset 8
 4376              		.cfi_offset 3, -8
 4377              		.cfi_offset 14, -4
 926:Src/motion.c  ****     switch (type)
 4378              		.loc 1 926 0
 4379 0002 0728     		cmp	r0, #7
 4380 0004 07D8     		bhi	.L249
 4381 0006 DFE800F0 		tbb	[pc, r0]
 4382              	.L252:
 4383 000a 04       		.byte	(.L251-.L252)/2
 4384 000b 1E       		.byte	(.L253-.L252)/2
 4385 000c 27       		.byte	(.L254-.L252)/2
 4386 000d 07       		.byte	(.L255-.L252)/2
 4387 000e 0A       		.byte	(.L256-.L252)/2
 4388 000f 21       		.byte	(.L257-.L252)/2
 4389 0010 3B       		.byte	(.L258-.L252)/2
 4390 0011 51       		.byte	(.L259-.L252)/2
 4391              		.p2align 1
 4392              	.L251:
 927:Src/motion.c  ****     {
 928:Src/motion.c  ****     case SEARCH:
 929:Src/motion.c  ****         Motion_LeftTurn();
 4393              		.loc 1 929 0
 4394 0012 FFF7FEFF 		bl	Motion_LeftTurn
 4395              	.LVL254:
 4396              	.L249:
 930:Src/motion.c  ****         break;
 931:Src/motion.c  ****     case T_90:
 932:Src/motion.c  ****         Motion_Left90Turn(v_end);
 933:Src/motion.c  ****         break;
 934:Src/motion.c  ****     case T_180:
 935:Src/motion.c  ****         Turn(36.0f, 50.0f, 0, 800.0f, v_end, 181.0f, 540.0f, 5000.0f, 1, 2); //0ut = 53
 936:Src/motion.c  ****         break;
 937:Src/motion.c  ****     case T_45IN:
 938:Src/motion.c  ****         Motion_InLeft45Turn();
 939:Src/motion.c  ****         break;
 940:Src/motion.c  ****     case T_45OUT:
 941:Src/motion.c  ****         control_wall_flag = 0;
 942:Src/motion.c  ****         Motion_OutLeft45Turn(v_end);
 943:Src/motion.c  ****         break;
 944:Src/motion.c  ****     case T_135IN:
 945:Src/motion.c  ****         Turn(45.0f, 22.0f, 1, 800.0f, 800.0f, 136.0f, 600.0f, 8000.0f, 1, 3);
 946:Src/motion.c  ****         break;
 947:Src/motion.c  ****     case T_135OUT:
 948:Src/motion.c  ****         control_wall_flag = 0;
 949:Src/motion.c  ****         Turn(40.0f, 65.0f, 0, 800.0f, v_end, 136.5f, 600.0f, 8000.0f, 1, 2); //in=34 out=67
 950:Src/motion.c  ****         break;
 951:Src/motion.c  ****     case T_V90:
 952:Src/motion.c  ****         control_wall_flag = 0;
 953:Src/motion.c  ****         Turn(56.0f, 18.0f, 1, 800.0f, 800.0f, 91.0f, 800.0f, 20000.0f, 1, 3); //in=67 out=23
 954:Src/motion.c  ****         break;
 955:Src/motion.c  ****     }
 956:Src/motion.c  **** }
 4397              		.loc 1 956 0
 4398 0016 08BD     		pop	{r3, pc}
 4399              	.LVL255:
 4400              	.L255:
ARM GAS  C:\Users\kotaro\AppData\Local\Temp\ccWGe4CN.s 			page 95


 932:Src/motion.c  ****         break;
 4401              		.loc 1 932 0
 4402 0018 FFF7FEFF 		bl	Motion_Left90Turn
 4403              	.LVL256:
 933:Src/motion.c  ****     case T_180:
 4404              		.loc 1 933 0
 4405 001c FBE7     		b	.L249
 4406              	.LVL257:
 4407              	.L256:
 935:Src/motion.c  ****         break;
 4408              		.loc 1 935 0
 4409 001e 0222     		movs	r2, #2
 4410 0020 0121     		movs	r1, #1
 4411 0022 9FED2E3A 		vldr.32	s6, .L261
 4412 0026 DFED2E2A 		vldr.32	s5, .L261+4
 4413 002a 9FED2E2A 		vldr.32	s4, .L261+8
 4414 002e F0EE401A 		vmov.f32	s3, s0
 4415 0032 9FED2D1A 		vldr.32	s2, .L261+12
 4416 0036 0020     		movs	r0, #0
 4417              	.LVL258:
 4418 0038 DFED2C0A 		vldr.32	s1, .L261+16
 4419 003c 9FED2C0A 		vldr.32	s0, .L261+20
 4420              	.LVL259:
 4421 0040 FFF7FEFF 		bl	Turn
 4422              	.LVL260:
 936:Src/motion.c  ****     case T_45IN:
 4423              		.loc 1 936 0
 4424 0044 E7E7     		b	.L249
 4425              	.LVL261:
 4426              	.L253:
 938:Src/motion.c  ****         break;
 4427              		.loc 1 938 0
 4428 0046 FFF7FEFF 		bl	Motion_InLeft45Turn
 4429              	.LVL262:
 939:Src/motion.c  ****     case T_45OUT:
 4430              		.loc 1 939 0
 4431 004a E4E7     		b	.L249
 4432              	.LVL263:
 4433              	.L257:
 941:Src/motion.c  ****         Motion_OutLeft45Turn(v_end);
 4434              		.loc 1 941 0
 4435 004c 294B     		ldr	r3, .L261+24
 4436 004e 0022     		movs	r2, #0
 4437 0050 1A70     		strb	r2, [r3]
 942:Src/motion.c  ****         break;
 4438              		.loc 1 942 0
 4439 0052 FFF7FEFF 		bl	Motion_OutLeft45Turn
 4440              	.LVL264:
 943:Src/motion.c  ****     case T_135IN:
 4441              		.loc 1 943 0
 4442 0056 DEE7     		b	.L249
 4443              	.LVL265:
 4444              	.L254:
 945:Src/motion.c  ****         break;
 4445              		.loc 1 945 0
 4446 0058 9FED231A 		vldr.32	s2, .L261+12
 4447 005c 0322     		movs	r2, #3
ARM GAS  C:\Users\kotaro\AppData\Local\Temp\ccWGe4CN.s 			page 96


 4448 005e 0121     		movs	r1, #1
 4449 0060 9FED253A 		vldr.32	s6, .L261+28
 4450 0064 DFED252A 		vldr.32	s5, .L261+32
 4451 0068 9FED252A 		vldr.32	s4, .L261+36
 4452 006c F0EE411A 		vmov.f32	s3, s2
 4453 0070 0846     		mov	r0, r1
 4454              	.LVL266:
 4455 0072 F3EE060A 		vmov.f32	s1, #2.2e+1
 4456 0076 9FED230A 		vldr.32	s0, .L261+40
 4457              	.LVL267:
 4458 007a FFF7FEFF 		bl	Turn
 4459              	.LVL268:
 946:Src/motion.c  ****     case T_135OUT:
 4460              		.loc 1 946 0
 4461 007e CAE7     		b	.L249
 4462              	.LVL269:
 4463              	.L258:
 948:Src/motion.c  ****         Turn(40.0f, 65.0f, 0, 800.0f, v_end, 136.5f, 600.0f, 8000.0f, 1, 2); //in=34 out=67
 4464              		.loc 1 948 0
 4465 0080 0020     		movs	r0, #0
 4466              	.LVL270:
 4467 0082 1C4B     		ldr	r3, .L261+24
 4468 0084 1870     		strb	r0, [r3]
 949:Src/motion.c  ****         break;
 4469              		.loc 1 949 0
 4470 0086 0222     		movs	r2, #2
 4471 0088 0121     		movs	r1, #1
 4472 008a 9FED1B3A 		vldr.32	s6, .L261+28
 4473 008e DFED1B2A 		vldr.32	s5, .L261+32
 4474 0092 9FED1D2A 		vldr.32	s4, .L261+44
 4475 0096 F0EE401A 		vmov.f32	s3, s0
 4476 009a 9FED131A 		vldr.32	s2, .L261+12
 4477 009e DFED1B0A 		vldr.32	s1, .L261+48
 4478 00a2 9FED1B0A 		vldr.32	s0, .L261+52
 4479              	.LVL271:
 4480 00a6 FFF7FEFF 		bl	Turn
 4481              	.LVL272:
 950:Src/motion.c  ****     case T_V90:
 4482              		.loc 1 950 0
 4483 00aa B4E7     		b	.L249
 4484              	.LVL273:
 4485              	.L259:
 952:Src/motion.c  ****         Turn(56.0f, 18.0f, 1, 800.0f, 800.0f, 91.0f, 800.0f, 20000.0f, 1, 3); //in=67 out=23
 4486              		.loc 1 952 0
 4487 00ac 114B     		ldr	r3, .L261+24
 4488 00ae 0022     		movs	r2, #0
 4489 00b0 1A70     		strb	r2, [r3]
 953:Src/motion.c  ****         break;
 4490              		.loc 1 953 0
 4491 00b2 9FED0D1A 		vldr.32	s2, .L261+12
 4492 00b6 0322     		movs	r2, #3
 4493 00b8 0121     		movs	r1, #1
 4494 00ba 9FED163A 		vldr.32	s6, .L261+56
 4495 00be F0EE412A 		vmov.f32	s5, s2
 4496 00c2 9FED152A 		vldr.32	s4, .L261+60
 4497 00c6 F0EE411A 		vmov.f32	s3, s2
 4498 00ca 0846     		mov	r0, r1
ARM GAS  C:\Users\kotaro\AppData\Local\Temp\ccWGe4CN.s 			page 97


 4499              	.LVL274:
 4500 00cc F3EE020A 		vmov.f32	s1, #1.8e+1
 4501 00d0 9FED120A 		vldr.32	s0, .L261+64
 4502              	.LVL275:
 4503 00d4 FFF7FEFF 		bl	Turn
 4504              	.LVL276:
 4505              		.loc 1 956 0
 4506 00d8 9DE7     		b	.L249
 4507              	.L262:
 4508 00da 00BF     		.align	2
 4509              	.L261:
 4510 00dc 00409C45 		.word	1167867904
 4511 00e0 00000744 		.word	1141309440
 4512 00e4 00003543 		.word	1127546880
 4513 00e8 00004844 		.word	1145569280
 4514 00ec 00004842 		.word	1112014848
 4515 00f0 00001042 		.word	1108344832
 4516 00f4 00000000 		.word	control_wall_flag
 4517 00f8 0000FA45 		.word	1174011904
 4518 00fc 00001644 		.word	1142292480
 4519 0100 00000843 		.word	1124597760
 4520 0104 00003442 		.word	1110704128
 4521 0108 00800843 		.word	1124630528
 4522 010c 00008242 		.word	1115815936
 4523 0110 00002042 		.word	1109393408
 4524 0114 00409C46 		.word	1184645120
 4525 0118 0000B642 		.word	1119223808
 4526 011c 00006042 		.word	1113587712
 4527              		.cfi_endproc
 4528              	.LFE189:
 4530              		.section	.text.Motion_FastRightTurn,"ax",%progbits
 4531              		.align	1
 4532              		.global	Motion_FastRightTurn
 4533              		.syntax unified
 4534              		.thumb
 4535              		.thumb_func
 4536              		.fpu fpv4-sp-d16
 4538              	Motion_FastRightTurn:
 4539              	.LFB190:
 957:Src/motion.c  **** 
 958:Src/motion.c  **** void Motion_FastRightTurn(uint8_t type, float v_end)
 959:Src/motion.c  **** {
 4540              		.loc 1 959 0
 4541              		.cfi_startproc
 4542              		@ args = 0, pretend = 0, frame = 0
 4543              		@ frame_needed = 0, uses_anonymous_args = 0
 4544              	.LVL277:
 4545 0000 08B5     		push	{r3, lr}
 4546              	.LCFI84:
 4547              		.cfi_def_cfa_offset 8
 4548              		.cfi_offset 3, -8
 4549              		.cfi_offset 14, -4
 960:Src/motion.c  ****     switch (type)
 4550              		.loc 1 960 0
 4551 0002 0728     		cmp	r0, #7
 4552 0004 07D8     		bhi	.L263
 4553 0006 DFE800F0 		tbb	[pc, r0]
ARM GAS  C:\Users\kotaro\AppData\Local\Temp\ccWGe4CN.s 			page 98


 4554              	.L266:
 4555 000a 04       		.byte	(.L265-.L266)/2
 4556 000b 1E       		.byte	(.L267-.L266)/2
 4557 000c 27       		.byte	(.L268-.L266)/2
 4558 000d 07       		.byte	(.L269-.L266)/2
 4559 000e 0A       		.byte	(.L270-.L266)/2
 4560 000f 21       		.byte	(.L271-.L266)/2
 4561 0010 3B       		.byte	(.L272-.L266)/2
 4562 0011 51       		.byte	(.L273-.L266)/2
 4563              		.p2align 1
 4564              	.L265:
 961:Src/motion.c  ****     {
 962:Src/motion.c  ****     case SEARCH:
 963:Src/motion.c  ****         Motion_RightTurn();
 4565              		.loc 1 963 0
 4566 0012 FFF7FEFF 		bl	Motion_RightTurn
 4567              	.LVL278:
 4568              	.L263:
 964:Src/motion.c  ****         break;
 965:Src/motion.c  ****     case T_90:
 966:Src/motion.c  ****         Motion_Right90Turn(v_end);
 967:Src/motion.c  ****         break;
 968:Src/motion.c  ****     case T_180:
 969:Src/motion.c  ****         Turn(30.0f, 60.0f, 0, 800.0f, v_end, 181.0f, 520.0f, 5000.0f, -1, 2); //out=50
 970:Src/motion.c  ****         break;
 971:Src/motion.c  ****     case T_45IN:
 972:Src/motion.c  ****         Motion_InRight45Turn();
 973:Src/motion.c  ****         break;
 974:Src/motion.c  ****     case T_45OUT:
 975:Src/motion.c  ****         control_wall_flag = 0;
 976:Src/motion.c  ****         Motion_OutRight45Turn(v_end);
 977:Src/motion.c  ****         break;
 978:Src/motion.c  ****     case T_135IN:
 979:Src/motion.c  ****         Turn(51.0f, 18.0f, 1, 800.0f, 800.0f, 136.0f, 600.0f, 8000.0f, -1, 3); //in:50 out=26
 980:Src/motion.c  ****         break;
 981:Src/motion.c  ****     case T_135OUT:
 982:Src/motion.c  ****         control_wall_flag = 0;
 983:Src/motion.c  ****         Turn(39.0f, 70.0f, 0, 800.0f, v_end, 136.0f, 600.0f, 8000.0f, -1, 2); //in=40.5 out = 66
 984:Src/motion.c  ****         break;
 985:Src/motion.c  ****     case T_V90:
 986:Src/motion.c  ****         control_wall_flag = 0;
 987:Src/motion.c  ****         Turn(54.0f, 15.0f, 1, 800.0f, 800.0f, 91.0f, 800.0f, 20000.0f, -1, 3); //in=63 out=25,23
 988:Src/motion.c  ****         break;
 989:Src/motion.c  ****     }
 990:Src/motion.c  **** }
 4569              		.loc 1 990 0
 4570 0016 08BD     		pop	{r3, pc}
 4571              	.LVL279:
 4572              	.L269:
 966:Src/motion.c  ****         break;
 4573              		.loc 1 966 0
 4574 0018 FFF7FEFF 		bl	Motion_Right90Turn
 4575              	.LVL280:
 967:Src/motion.c  ****     case T_180:
 4576              		.loc 1 967 0
 4577 001c FBE7     		b	.L263
 4578              	.LVL281:
ARM GAS  C:\Users\kotaro\AppData\Local\Temp\ccWGe4CN.s 			page 99


 4579              	.L270:
 969:Src/motion.c  ****         break;
 4580              		.loc 1 969 0
 4581 001e 0222     		movs	r2, #2
 4582 0020 FF21     		movs	r1, #255
 4583 0022 9FED2E3A 		vldr.32	s6, .L275
 4584 0026 DFED2E2A 		vldr.32	s5, .L275+4
 4585 002a 9FED2E2A 		vldr.32	s4, .L275+8
 4586 002e F0EE401A 		vmov.f32	s3, s0
 4587 0032 9FED2D1A 		vldr.32	s2, .L275+12
 4588 0036 0020     		movs	r0, #0
 4589              	.LVL282:
 4590 0038 DFED2C0A 		vldr.32	s1, .L275+16
 4591 003c B3EE0E0A 		vmov.f32	s0, #3.0e+1
 4592              	.LVL283:
 4593 0040 FFF7FEFF 		bl	Turn
 4594              	.LVL284:
 970:Src/motion.c  ****     case T_45IN:
 4595              		.loc 1 970 0
 4596 0044 E7E7     		b	.L263
 4597              	.LVL285:
 4598              	.L267:
 972:Src/motion.c  ****         break;
 4599              		.loc 1 972 0
 4600 0046 FFF7FEFF 		bl	Motion_InRight45Turn
 4601              	.LVL286:
 973:Src/motion.c  ****     case T_45OUT:
 4602              		.loc 1 973 0
 4603 004a E4E7     		b	.L263
 4604              	.LVL287:
 4605              	.L271:
 975:Src/motion.c  ****         Motion_OutRight45Turn(v_end);
 4606              		.loc 1 975 0
 4607 004c 284B     		ldr	r3, .L275+20
 4608 004e 0022     		movs	r2, #0
 4609 0050 1A70     		strb	r2, [r3]
 976:Src/motion.c  ****         break;
 4610              		.loc 1 976 0
 4611 0052 FFF7FEFF 		bl	Motion_OutRight45Turn
 4612              	.LVL288:
 977:Src/motion.c  ****     case T_135IN:
 4613              		.loc 1 977 0
 4614 0056 DEE7     		b	.L263
 4615              	.LVL289:
 4616              	.L268:
 979:Src/motion.c  ****         break;
 4617              		.loc 1 979 0
 4618 0058 9FED231A 		vldr.32	s2, .L275+12
 4619 005c 0322     		movs	r2, #3
 4620 005e FF21     		movs	r1, #255
 4621 0060 9FED243A 		vldr.32	s6, .L275+24
 4622 0064 DFED242A 		vldr.32	s5, .L275+28
 4623 0068 9FED242A 		vldr.32	s4, .L275+32
 4624 006c F0EE411A 		vmov.f32	s3, s2
 4625 0070 0120     		movs	r0, #1
 4626              	.LVL290:
 4627 0072 F3EE020A 		vmov.f32	s1, #1.8e+1
ARM GAS  C:\Users\kotaro\AppData\Local\Temp\ccWGe4CN.s 			page 100


 4628 0076 9FED220A 		vldr.32	s0, .L275+36
 4629              	.LVL291:
 4630 007a FFF7FEFF 		bl	Turn
 4631              	.LVL292:
 980:Src/motion.c  ****     case T_135OUT:
 4632              		.loc 1 980 0
 4633 007e CAE7     		b	.L263
 4634              	.LVL293:
 4635              	.L272:
 982:Src/motion.c  ****         Turn(39.0f, 70.0f, 0, 800.0f, v_end, 136.0f, 600.0f, 8000.0f, -1, 2); //in=40.5 out = 66
 4636              		.loc 1 982 0
 4637 0080 0020     		movs	r0, #0
 4638              	.LVL294:
 4639 0082 1B4B     		ldr	r3, .L275+20
 4640 0084 1870     		strb	r0, [r3]
 983:Src/motion.c  ****         break;
 4641              		.loc 1 983 0
 4642 0086 0222     		movs	r2, #2
 4643 0088 FF21     		movs	r1, #255
 4644 008a 9FED1A3A 		vldr.32	s6, .L275+24
 4645 008e DFED1A2A 		vldr.32	s5, .L275+28
 4646 0092 9FED1A2A 		vldr.32	s4, .L275+32
 4647 0096 F0EE401A 		vmov.f32	s3, s0
 4648 009a 9FED131A 		vldr.32	s2, .L275+12
 4649 009e DFED190A 		vldr.32	s1, .L275+40
 4650 00a2 9FED190A 		vldr.32	s0, .L275+44
 4651              	.LVL295:
 4652 00a6 FFF7FEFF 		bl	Turn
 4653              	.LVL296:
 984:Src/motion.c  ****     case T_V90:
 4654              		.loc 1 984 0
 4655 00aa B4E7     		b	.L263
 4656              	.LVL297:
 4657              	.L273:
 986:Src/motion.c  ****         Turn(54.0f, 15.0f, 1, 800.0f, 800.0f, 91.0f, 800.0f, 20000.0f, -1, 3); //in=63 out=25,23
 4658              		.loc 1 986 0
 4659 00ac 104B     		ldr	r3, .L275+20
 4660 00ae 0022     		movs	r2, #0
 4661 00b0 1A70     		strb	r2, [r3]
 987:Src/motion.c  ****         break;
 4662              		.loc 1 987 0
 4663 00b2 9FED0D1A 		vldr.32	s2, .L275+12
 4664 00b6 0322     		movs	r2, #3
 4665 00b8 FF21     		movs	r1, #255
 4666 00ba 9FED143A 		vldr.32	s6, .L275+48
 4667 00be F0EE412A 		vmov.f32	s5, s2
 4668 00c2 9FED132A 		vldr.32	s4, .L275+52
 4669 00c6 F0EE411A 		vmov.f32	s3, s2
 4670 00ca 0120     		movs	r0, #1
 4671              	.LVL298:
 4672 00cc F2EE0E0A 		vmov.f32	s1, #1.5e+1
 4673 00d0 9FED100A 		vldr.32	s0, .L275+56
 4674              	.LVL299:
 4675 00d4 FFF7FEFF 		bl	Turn
 4676              	.LVL300:
 4677              		.loc 1 990 0
 4678 00d8 9DE7     		b	.L263
ARM GAS  C:\Users\kotaro\AppData\Local\Temp\ccWGe4CN.s 			page 101


 4679              	.L276:
 4680 00da 00BF     		.align	2
 4681              	.L275:
 4682 00dc 00409C45 		.word	1167867904
 4683 00e0 00000244 		.word	1140981760
 4684 00e4 00003543 		.word	1127546880
 4685 00e8 00004844 		.word	1145569280
 4686 00ec 00007042 		.word	1114636288
 4687 00f0 00000000 		.word	control_wall_flag
 4688 00f4 0000FA45 		.word	1174011904
 4689 00f8 00001644 		.word	1142292480
 4690 00fc 00000843 		.word	1124597760
 4691 0100 00004C42 		.word	1112276992
 4692 0104 00008C42 		.word	1116471296
 4693 0108 00001C42 		.word	1109131264
 4694 010c 00409C46 		.word	1184645120
 4695 0110 0000B642 		.word	1119223808
 4696 0114 00005842 		.word	1113063424
 4697              		.cfi_endproc
 4698              	.LFE190:
 4700              		.section	.text.Motion_FastestStart,"ax",%progbits
 4701              		.align	1
 4702              		.global	Motion_FastestStart
 4703              		.syntax unified
 4704              		.thumb
 4705              		.thumb_func
 4706              		.fpu fpv4-sp-d16
 4708              	Motion_FastestStart:
 4709              	.LFB191:
 991:Src/motion.c  **** 
 992:Src/motion.c  **** void Motion_FastestStart(uint8_t step, float velo_end)
 993:Src/motion.c  **** {
 4710              		.loc 1 993 0
 4711              		.cfi_startproc
 4712              		@ args = 0, pretend = 0, frame = 0
 4713              		@ frame_needed = 0, uses_anonymous_args = 0
 4714              	.LVL301:
 4715 0000 08B5     		push	{r3, lr}
 4716              	.LCFI85:
 4717              		.cfi_def_cfa_offset 8
 4718              		.cfi_offset 3, -8
 4719              		.cfi_offset 14, -4
 4720 0002 2DED028B 		vpush.64	{d8}
 4721              	.LCFI86:
 4722              		.cfi_def_cfa_offset 16
 4723              		.cfi_offset 80, -16
 4724              		.cfi_offset 81, -12
 4725 0006 F0EE401A 		vmov.f32	s3, s0
 994:Src/motion.c  ****     diagonal_step = 90.0f * sqrt(2);
 4726              		.loc 1 994 0
 4727 000a 284B     		ldr	r3, .L284
 4728 000c 284A     		ldr	r2, .L284+4
 4729 000e 1A60     		str	r2, [r3]	@ float
 4730              	.LVL302:
 995:Src/motion.c  ****     float velo= VELO_EST;
 996:Src/motion.c  ****     if (step > 0)
 4731              		.loc 1 996 0
ARM GAS  C:\Users\kotaro\AppData\Local\Temp\ccWGe4CN.s 			page 102


 4732 0010 0346     		mov	r3, r0
 4733 0012 0028     		cmp	r0, #0
 4734 0014 47D0     		beq	.L281
 997:Src/motion.c  ****     {
 998:Src/motion.c  ****         velo = VELO_EST + gain_velo * (float)(step - 1);
 4735              		.loc 1 998 0
 4736 0016 421E     		subs	r2, r0, #1
 4737 0018 01EE102A 		vmov	s2, r2	@ int
 4738 001c B8EEC11A 		vcvt.f32.s32	s2, s2
 4739 0020 244A     		ldr	r2, .L284+8
 4740 0022 D2ED007A 		vldr.32	s15, [r2]
 4741 0026 21EE271A 		vmul.f32	s2, s2, s15
 4742 002a DFED237A 		vldr.32	s15, .L284+12
 4743 002e 31EE271A 		vadd.f32	s2, s2, s15
 4744              	.LVL303:
 4745              	.L278:
 999:Src/motion.c  ****     }
1000:Src/motion.c  ****     if (velo >4000.0f)
 4746              		.loc 1 1000 0
 4747 0032 DFED227A 		vldr.32	s15, .L284+16
 4748 0036 B4EEE71A 		vcmpe.f32	s2, s15
 4749 003a F1EE10FA 		vmrs	APSR_nzcv, FPSCR
 4750 003e 01DD     		ble	.L279
1001:Src/motion.c  ****     {
1002:Src/motion.c  ****         velo = 4000.0f;
 4751              		.loc 1 1002 0
 4752 0040 B0EE671A 		vmov.f32	s2, s15
 4753              	.LVL304:
 4754              	.L279:
1003:Src/motion.c  ****     }
1004:Src/motion.c  ****     Control_StrCalculator(40.0f + 90.0f * (float)step, 0.0f, velo, velo_end, ACCEL_EST, 1);
 4755              		.loc 1 1004 0
 4756 0044 07EE903A 		vmov	s15, r3	@ int
 4757 0048 F8EE677A 		vcvt.f32.u32	s15, s15
 4758 004c 9FED1C0A 		vldr.32	s0, .L284+20
 4759              	.LVL305:
 4760 0050 67EE807A 		vmul.f32	s15, s15, s0
 4761 0054 9FED1B8A 		vldr.32	s16, .L284+24
 4762 0058 F7EE002A 		vmov.f32	s5, #1.0e+0
 4763 005c 9FED1A2A 		vldr.32	s4, .L284+28
 4764 0060 F0EE480A 		vmov.f32	s1, s16
 4765 0064 9FED190A 		vldr.32	s0, .L284+32
 4766 0068 37EE800A 		vadd.f32	s0, s15, s0
 4767 006c FFF7FEFF 		bl	Control_StrCalculator
 4768              	.LVL306:
1005:Src/motion.c  ****     Control_AngCalculator(0, 0, 0, 0, 1, 0);
 4769              		.loc 1 1005 0
 4770 0070 F0EE482A 		vmov.f32	s5, s16
 4771 0074 B7EE002A 		vmov.f32	s4, #1.0e+0
 4772 0078 F0EE481A 		vmov.f32	s3, s16
 4773 007c B0EE481A 		vmov.f32	s2, s16
 4774 0080 F0EE480A 		vmov.f32	s1, s16
 4775 0084 B0EE480A 		vmov.f32	s0, s16
 4776 0088 FFF7FEFF 		bl	Control_AngCalculator
 4777              	.LVL307:
1006:Src/motion.c  ****     motion_end_flag = FALSE;
 4778              		.loc 1 1006 0
ARM GAS  C:\Users\kotaro\AppData\Local\Temp\ccWGe4CN.s 			page 103


 4779 008c 104B     		ldr	r3, .L284+36
 4780 008e 0022     		movs	r2, #0
 4781 0090 1A70     		strb	r2, [r3]
 4782              	.L280:
1007:Src/motion.c  ****     while (motion_end_flag == FALSE)
 4783              		.loc 1 1007 0 discriminator 1
 4784 0092 0F4B     		ldr	r3, .L284+36
 4785 0094 1B78     		ldrb	r3, [r3]	@ zero_extendqisi2
 4786 0096 002B     		cmp	r3, #0
 4787 0098 FBD0     		beq	.L280
1008:Src/motion.c  ****     {
1009:Src/motion.c  ****     }
1010:Src/motion.c  ****     enc.offset = 0.0f;
 4788              		.loc 1 1010 0
 4789 009a 0E4B     		ldr	r3, .L284+40
 4790 009c 0022     		movs	r2, #0
 4791 009e 9A60     		str	r2, [r3, #8]	@ float
1011:Src/motion.c  **** }
 4792              		.loc 1 1011 0
 4793 00a0 BDEC028B 		vldm	sp!, {d8}
 4794              	.LCFI87:
 4795              		.cfi_remember_state
 4796              		.cfi_restore 80
 4797              		.cfi_restore 81
 4798              		.cfi_def_cfa_offset 8
 4799 00a4 08BD     		pop	{r3, pc}
 4800              	.LVL308:
 4801              	.L281:
 4802              	.LCFI88:
 4803              		.cfi_restore_state
 995:Src/motion.c  ****     if (step > 0)
 4804              		.loc 1 995 0
 4805 00a6 9FED041A 		vldr.32	s2, .L284+12
 4806 00aa C2E7     		b	.L278
 4807              	.L285:
 4808              		.align	2
 4809              	.L284:
 4810 00ac 00000000 		.word	.LANCHOR2
 4811 00b0 F68EFE42 		.word	1123978998
 4812 00b4 00000000 		.word	.LANCHOR0
 4813 00b8 00009644 		.word	1150681088
 4814 00bc 00007A45 		.word	1165623296
 4815 00c0 0000B442 		.word	1119092736
 4816 00c4 00000000 		.word	0
 4817 00c8 00409C46 		.word	1184645120
 4818 00cc 00002042 		.word	1109393408
 4819 00d0 00000000 		.word	motion_end_flag
 4820 00d4 00000000 		.word	enc
 4821              		.cfi_endproc
 4822              	.LFE191:
 4824              		.section	.text.Motion_FastestStraight,"ax",%progbits
 4825              		.align	1
 4826              		.global	Motion_FastestStraight
 4827              		.syntax unified
 4828              		.thumb
 4829              		.thumb_func
 4830              		.fpu fpv4-sp-d16
ARM GAS  C:\Users\kotaro\AppData\Local\Temp\ccWGe4CN.s 			page 104


 4832              	Motion_FastestStraight:
 4833              	.LFB192:
1012:Src/motion.c  **** 
1013:Src/motion.c  **** void Motion_FastestStraight(uint8_t step, float v_start, float v_end)
1014:Src/motion.c  **** {
 4834              		.loc 1 1014 0
 4835              		.cfi_startproc
 4836              		@ args = 0, pretend = 0, frame = 0
 4837              		@ frame_needed = 0, uses_anonymous_args = 0
 4838              	.LVL309:
 4839 0000 08B5     		push	{r3, lr}
 4840              	.LCFI89:
 4841              		.cfi_def_cfa_offset 8
 4842              		.cfi_offset 3, -8
 4843              		.cfi_offset 14, -4
 4844 0002 F0EE601A 		vmov.f32	s3, s1
1015:Src/motion.c  ****     float velo = VELO_EST + gain_velo * (float)step;
 4845              		.loc 1 1015 0
 4846 0006 07EE900A 		vmov	s15, r0	@ int
 4847 000a F8EE677A 		vcvt.f32.u32	s15, s15
 4848 000e 1E4B     		ldr	r3, .L291
 4849 0010 93ED001A 		vldr.32	s2, [r3]
 4850 0014 27EE811A 		vmul.f32	s2, s15, s2
 4851 0018 9FED1C7A 		vldr.32	s14, .L291+4
 4852 001c 31EE071A 		vadd.f32	s2, s2, s14
 4853              	.LVL310:
1016:Src/motion.c  ****     if (velo > 4000.0f)
 4854              		.loc 1 1016 0
 4855 0020 9FED1B7A 		vldr.32	s14, .L291+8
 4856 0024 B4EEC71A 		vcmpe.f32	s2, s14
 4857 0028 F1EE10FA 		vmrs	APSR_nzcv, FPSCR
 4858 002c 01DD     		ble	.L287
1017:Src/motion.c  ****     {
1018:Src/motion.c  ****         velo = 4000.0f;
 4859              		.loc 1 1018 0
 4860 002e B0EE471A 		vmov.f32	s2, s14
 4861              	.LVL311:
 4862              	.L287:
1019:Src/motion.c  ****     }
1020:Src/motion.c  ****     Control_StrCalculator(90.0f * (float)step - enc.offset, v_start, velo, v_end, ACCEL_EST, 1);
 4863              		.loc 1 1020 0
 4864 0032 9FED187A 		vldr.32	s14, .L291+12
 4865 0036 67EE877A 		vmul.f32	s15, s15, s14
 4866 003a 174B     		ldr	r3, .L291+16
 4867 003c 93ED027A 		vldr.32	s14, [r3, #8]
 4868 0040 F7EE002A 		vmov.f32	s5, #1.0e+0
 4869 0044 9FED152A 		vldr.32	s4, .L291+20
 4870 0048 F0EE400A 		vmov.f32	s1, s0
 4871              	.LVL312:
 4872 004c 37EEC70A 		vsub.f32	s0, s15, s14
 4873              	.LVL313:
 4874 0050 FFF7FEFF 		bl	Control_StrCalculator
 4875              	.LVL314:
1021:Src/motion.c  ****     Control_AngCalculator(0, 0, 0, 0, 1, 0);
 4876              		.loc 1 1021 0
 4877 0054 9FED120A 		vldr.32	s0, .L291+24
 4878 0058 F0EE402A 		vmov.f32	s5, s0
ARM GAS  C:\Users\kotaro\AppData\Local\Temp\ccWGe4CN.s 			page 105


 4879 005c B7EE002A 		vmov.f32	s4, #1.0e+0
 4880 0060 F0EE401A 		vmov.f32	s3, s0
 4881 0064 B0EE401A 		vmov.f32	s2, s0
 4882 0068 F0EE400A 		vmov.f32	s1, s0
 4883 006c FFF7FEFF 		bl	Control_AngCalculator
 4884              	.LVL315:
1022:Src/motion.c  ****     motion_end_flag = FALSE;
 4885              		.loc 1 1022 0
 4886 0070 0C4B     		ldr	r3, .L291+28
 4887 0072 0022     		movs	r2, #0
 4888 0074 1A70     		strb	r2, [r3]
 4889              	.L288:
1023:Src/motion.c  ****     while (motion_end_flag == FALSE)
 4890              		.loc 1 1023 0 discriminator 1
 4891 0076 0B4B     		ldr	r3, .L291+28
 4892 0078 1B78     		ldrb	r3, [r3]	@ zero_extendqisi2
 4893 007a 002B     		cmp	r3, #0
 4894 007c FBD0     		beq	.L288
1024:Src/motion.c  ****     {
1025:Src/motion.c  ****     }
1026:Src/motion.c  ****     enc.offset = 0.0f;
 4895              		.loc 1 1026 0
 4896 007e 064B     		ldr	r3, .L291+16
 4897 0080 0022     		movs	r2, #0
 4898 0082 9A60     		str	r2, [r3, #8]	@ float
1027:Src/motion.c  **** }
 4899              		.loc 1 1027 0
 4900 0084 08BD     		pop	{r3, pc}
 4901              	.L292:
 4902 0086 00BF     		.align	2
 4903              	.L291:
 4904 0088 00000000 		.word	.LANCHOR0
 4905 008c 00009644 		.word	1150681088
 4906 0090 00007A45 		.word	1165623296
 4907 0094 0000B442 		.word	1119092736
 4908 0098 00000000 		.word	enc
 4909 009c 00409C46 		.word	1184645120
 4910 00a0 00000000 		.word	0
 4911 00a4 00000000 		.word	motion_end_flag
 4912              		.cfi_endproc
 4913              	.LFE192:
 4915              		.section	.text.Motion_FastestGoal,"ax",%progbits
 4916              		.align	1
 4917              		.global	Motion_FastestGoal
 4918              		.syntax unified
 4919              		.thumb
 4920              		.thumb_func
 4921              		.fpu fpv4-sp-d16
 4923              	Motion_FastestGoal:
 4924              	.LFB193:
1028:Src/motion.c  **** 
1029:Src/motion.c  **** void Motion_FastestGoal(uint8_t step, float v_start)
1030:Src/motion.c  **** {
 4925              		.loc 1 1030 0
 4926              		.cfi_startproc
 4927              		@ args = 0, pretend = 0, frame = 0
 4928              		@ frame_needed = 0, uses_anonymous_args = 0
ARM GAS  C:\Users\kotaro\AppData\Local\Temp\ccWGe4CN.s 			page 106


 4929              	.LVL316:
 4930 0000 08B5     		push	{r3, lr}
 4931              	.LCFI90:
 4932              		.cfi_def_cfa_offset 8
 4933              		.cfi_offset 3, -8
 4934              		.cfi_offset 14, -4
 4935 0002 2DED028B 		vpush.64	{d8}
 4936              	.LCFI91:
 4937              		.cfi_def_cfa_offset 16
 4938              		.cfi_offset 80, -16
 4939              		.cfi_offset 81, -12
 4940 0006 F0EE400A 		vmov.f32	s1, s0
 4941              	.LVL317:
1031:Src/motion.c  ****     float velo= VELO_EST;
1032:Src/motion.c  ****     if (step > 0)
 4942              		.loc 1 1032 0
 4943 000a 0346     		mov	r3, r0
 4944 000c 0028     		cmp	r0, #0
 4945 000e 4FD0     		beq	.L297
1033:Src/motion.c  ****     {
1034:Src/motion.c  ****         velo = VELO_EST + gain_velo * (step - 1);
 4946              		.loc 1 1034 0
 4947 0010 421E     		subs	r2, r0, #1
 4948 0012 01EE102A 		vmov	s2, r2	@ int
 4949 0016 B8EEC11A 		vcvt.f32.s32	s2, s2
 4950 001a 274A     		ldr	r2, .L300
 4951 001c D2ED007A 		vldr.32	s15, [r2]
 4952 0020 21EE271A 		vmul.f32	s2, s2, s15
 4953 0024 DFED257A 		vldr.32	s15, .L300+4
 4954 0028 31EE271A 		vadd.f32	s2, s2, s15
 4955              	.LVL318:
 4956              	.L294:
1035:Src/motion.c  ****     }
1036:Src/motion.c  ****     if (velo > 4000.0f)
 4957              		.loc 1 1036 0
 4958 002c DFED247A 		vldr.32	s15, .L300+8
 4959 0030 B4EEE71A 		vcmpe.f32	s2, s15
 4960 0034 F1EE10FA 		vmrs	APSR_nzcv, FPSCR
 4961 0038 01DD     		ble	.L295
1037:Src/motion.c  ****     {
1038:Src/motion.c  ****         velo = 4000.0f;
 4962              		.loc 1 1038 0
 4963 003a B0EE671A 		vmov.f32	s2, s15
 4964              	.LVL319:
 4965              	.L295:
1039:Src/motion.c  ****     }
1040:Src/motion.c  ****     Control_StrCalculator(90.0f + 90.0f * (float)step - enc.offset, v_start, velo, 0, ACCEL_EST, 1)
 4966              		.loc 1 1040 0
 4967 003e 07EE903A 		vmov	s15, r3	@ int
 4968 0042 F8EE677A 		vcvt.f32.u32	s15, s15
 4969 0046 9FED1F7A 		vldr.32	s14, .L300+12
 4970 004a 67EE877A 		vmul.f32	s15, s15, s14
 4971 004e 77EE877A 		vadd.f32	s15, s15, s14
 4972 0052 1D4B     		ldr	r3, .L300+16
 4973 0054 93ED020A 		vldr.32	s0, [r3, #8]
 4974              	.LVL320:
 4975 0058 9FED1C8A 		vldr.32	s16, .L300+20
ARM GAS  C:\Users\kotaro\AppData\Local\Temp\ccWGe4CN.s 			page 107


 4976 005c F7EE002A 		vmov.f32	s5, #1.0e+0
 4977 0060 9FED1B2A 		vldr.32	s4, .L300+24
 4978 0064 F0EE481A 		vmov.f32	s3, s16
 4979 0068 37EEC00A 		vsub.f32	s0, s15, s0
 4980 006c FFF7FEFF 		bl	Control_StrCalculator
 4981              	.LVL321:
1041:Src/motion.c  ****     Control_AngCalculator(0, 0, 0, 0, 1, 0);
 4982              		.loc 1 1041 0
 4983 0070 F0EE482A 		vmov.f32	s5, s16
 4984 0074 B7EE002A 		vmov.f32	s4, #1.0e+0
 4985 0078 F0EE481A 		vmov.f32	s3, s16
 4986 007c B0EE481A 		vmov.f32	s2, s16
 4987 0080 F0EE480A 		vmov.f32	s1, s16
 4988 0084 B0EE480A 		vmov.f32	s0, s16
 4989 0088 FFF7FEFF 		bl	Control_AngCalculator
 4990              	.LVL322:
1042:Src/motion.c  ****     motion_end_flag = FALSE;
 4991              		.loc 1 1042 0
 4992 008c 114B     		ldr	r3, .L300+28
 4993 008e 0022     		movs	r2, #0
 4994 0090 1A70     		strb	r2, [r3]
 4995              	.L296:
1043:Src/motion.c  ****     while (motion_end_flag == FALSE)
 4996              		.loc 1 1043 0 discriminator 1
 4997 0092 104B     		ldr	r3, .L300+28
 4998 0094 1B78     		ldrb	r3, [r3]	@ zero_extendqisi2
 4999 0096 002B     		cmp	r3, #0
 5000 0098 FBD0     		beq	.L296
1044:Src/motion.c  ****     {
1045:Src/motion.c  ****     }
1046:Src/motion.c  ****     straight.v_now = 0;
 5001              		.loc 1 1046 0
 5002 009a 0023     		movs	r3, #0
 5003 009c 0E4A     		ldr	r2, .L300+32
 5004 009e D360     		str	r3, [r2, #12]	@ float
1047:Src/motion.c  ****     angle.v_now = 0;
 5005              		.loc 1 1047 0
 5006 00a0 0E4A     		ldr	r2, .L300+36
 5007 00a2 D360     		str	r3, [r2, #12]	@ float
1048:Src/motion.c  ****     HAL_Delay(100);
 5008              		.loc 1 1048 0
 5009 00a4 6420     		movs	r0, #100
 5010 00a6 FFF7FEFF 		bl	HAL_Delay
 5011              	.LVL323:
1049:Src/motion.c  **** }
 5012              		.loc 1 1049 0
 5013 00aa BDEC028B 		vldm	sp!, {d8}
 5014              	.LCFI92:
 5015              		.cfi_remember_state
 5016              		.cfi_restore 80
 5017              		.cfi_restore 81
 5018              		.cfi_def_cfa_offset 8
 5019 00ae 08BD     		pop	{r3, pc}
 5020              	.LVL324:
 5021              	.L297:
 5022              	.LCFI93:
 5023              		.cfi_restore_state
ARM GAS  C:\Users\kotaro\AppData\Local\Temp\ccWGe4CN.s 			page 108


1031:Src/motion.c  ****     if (step > 0)
 5024              		.loc 1 1031 0
 5025 00b0 9FED021A 		vldr.32	s2, .L300+4
 5026 00b4 BAE7     		b	.L294
 5027              	.L301:
 5028 00b6 00BF     		.align	2
 5029              	.L300:
 5030 00b8 00000000 		.word	.LANCHOR0
 5031 00bc 00009644 		.word	1150681088
 5032 00c0 00007A45 		.word	1165623296
 5033 00c4 0000B442 		.word	1119092736
 5034 00c8 00000000 		.word	enc
 5035 00cc 00000000 		.word	0
 5036 00d0 00409C46 		.word	1184645120
 5037 00d4 00000000 		.word	motion_end_flag
 5038 00d8 00000000 		.word	straight
 5039 00dc 00000000 		.word	angle
 5040              		.cfi_endproc
 5041              	.LFE193:
 5043              		.section	.text.Motion_FastestAdjust_L,"ax",%progbits
 5044              		.align	1
 5045              		.global	Motion_FastestAdjust_L
 5046              		.syntax unified
 5047              		.thumb
 5048              		.thumb_func
 5049              		.fpu fpv4-sp-d16
 5051              	Motion_FastestAdjust_L:
 5052              	.LFB194:
1050:Src/motion.c  **** 
1051:Src/motion.c  **** void Motion_FastestAdjust_L(uint16_t step, float velo_s)
1052:Src/motion.c  **** {
 5053              		.loc 1 1052 0
 5054              		.cfi_startproc
 5055              		@ args = 0, pretend = 0, frame = 0
 5056              		@ frame_needed = 0, uses_anonymous_args = 0
 5057              	.LVL325:
 5058 0000 08B5     		push	{r3, lr}
 5059              	.LCFI94:
 5060              		.cfi_def_cfa_offset 8
 5061              		.cfi_offset 3, -8
 5062              		.cfi_offset 14, -4
 5063 0002 F0EE400A 		vmov.f32	s1, s0
1053:Src/motion.c  ****     if (step == 1)
 5064              		.loc 1 1053 0
 5065 0006 0128     		cmp	r0, #1
 5066 0008 2AD0     		beq	.L304
 5067              	.L303:
1054:Src/motion.c  ****     {
1055:Src/motion.c  ****         while (sen_l.diff > -12)
1056:Src/motion.c  ****             ;
1057:Src/motion.c  ****         Control_StrCalculator(11.0f, velo_s, VELO_EST, VELO_EST, ACCEL_EST, 1);
1058:Src/motion.c  ****         Control_AngCalculator(0, 0, 0, 0, 1, 0);
1059:Src/motion.c  ****     }
1060:Src/motion.c  ****     else
1061:Src/motion.c  ****     {
1062:Src/motion.c  ****         while (sen_l.diff > -12)
 5068              		.loc 1 1062 0 discriminator 1
ARM GAS  C:\Users\kotaro\AppData\Local\Temp\ccWGe4CN.s 			page 109


 5069 000a 264B     		ldr	r3, .L308
 5070 000c B3F91A30 		ldrsh	r3, [r3, #26]
 5071 0010 13F10B0F 		cmn	r3, #11
 5072 0014 F9DA     		bge	.L303
1063:Src/motion.c  ****             ;
1064:Src/motion.c  ****         Control_StrCalculator(101.0f, velo_s, VELO_EST, VELO_EST, ACCEL_EST, 1);
 5073              		.loc 1 1064 0
 5074 0016 9FED241A 		vldr.32	s2, .L308+4
 5075 001a F7EE002A 		vmov.f32	s5, #1.0e+0
 5076 001e 9FED232A 		vldr.32	s4, .L308+8
 5077 0022 F0EE411A 		vmov.f32	s3, s2
 5078 0026 9FED220A 		vldr.32	s0, .L308+12
 5079              	.LVL326:
 5080 002a FFF7FEFF 		bl	Control_StrCalculator
 5081              	.LVL327:
1065:Src/motion.c  ****         Control_AngCalculator(0, 0, 0, 0, 1, 0);
 5082              		.loc 1 1065 0
 5083 002e 9FED210A 		vldr.32	s0, .L308+16
 5084 0032 F0EE402A 		vmov.f32	s5, s0
 5085 0036 B7EE002A 		vmov.f32	s4, #1.0e+0
 5086 003a F0EE401A 		vmov.f32	s3, s0
 5087 003e B0EE401A 		vmov.f32	s2, s0
 5088 0042 F0EE400A 		vmov.f32	s1, s0
 5089 0046 FFF7FEFF 		bl	Control_AngCalculator
 5090              	.LVL328:
 5091              	.L305:
1066:Src/motion.c  ****     }
1067:Src/motion.c  ****     motion_end_flag = FALSE;
 5092              		.loc 1 1067 0
 5093 004a 1B4B     		ldr	r3, .L308+20
 5094 004c 0022     		movs	r2, #0
 5095 004e 1A70     		strb	r2, [r3]
 5096              	.L306:
1068:Src/motion.c  ****     while (motion_end_flag == FALSE)
 5097              		.loc 1 1068 0 discriminator 1
 5098 0050 194B     		ldr	r3, .L308+20
 5099 0052 1B78     		ldrb	r3, [r3]	@ zero_extendqisi2
 5100 0054 002B     		cmp	r3, #0
 5101 0056 FBD0     		beq	.L306
1069:Src/motion.c  ****     {
1070:Src/motion.c  ****     }
1071:Src/motion.c  ****     enc.offset = 0.0f;
 5102              		.loc 1 1071 0
 5103 0058 184B     		ldr	r3, .L308+24
 5104 005a 0022     		movs	r2, #0
 5105 005c 9A60     		str	r2, [r3, #8]	@ float
1072:Src/motion.c  **** }
 5106              		.loc 1 1072 0
 5107 005e 08BD     		pop	{r3, pc}
 5108              	.LVL329:
 5109              	.L304:
1055:Src/motion.c  ****             ;
 5110              		.loc 1 1055 0 discriminator 1
 5111 0060 104B     		ldr	r3, .L308
 5112 0062 B3F91A30 		ldrsh	r3, [r3, #26]
 5113 0066 13F10B0F 		cmn	r3, #11
 5114 006a F9DA     		bge	.L304
ARM GAS  C:\Users\kotaro\AppData\Local\Temp\ccWGe4CN.s 			page 110


1057:Src/motion.c  ****         Control_AngCalculator(0, 0, 0, 0, 1, 0);
 5115              		.loc 1 1057 0
 5116 006c 9FED0E1A 		vldr.32	s2, .L308+4
 5117 0070 F7EE002A 		vmov.f32	s5, #1.0e+0
 5118 0074 9FED0D2A 		vldr.32	s4, .L308+8
 5119 0078 F0EE411A 		vmov.f32	s3, s2
 5120 007c B2EE060A 		vmov.f32	s0, #1.1e+1
 5121              	.LVL330:
 5122 0080 FFF7FEFF 		bl	Control_StrCalculator
 5123              	.LVL331:
1058:Src/motion.c  ****     }
 5124              		.loc 1 1058 0
 5125 0084 9FED0B0A 		vldr.32	s0, .L308+16
 5126 0088 F0EE402A 		vmov.f32	s5, s0
 5127 008c B7EE002A 		vmov.f32	s4, #1.0e+0
 5128 0090 F0EE401A 		vmov.f32	s3, s0
 5129 0094 B0EE401A 		vmov.f32	s2, s0
 5130 0098 F0EE400A 		vmov.f32	s1, s0
 5131 009c FFF7FEFF 		bl	Control_AngCalculator
 5132              	.LVL332:
 5133 00a0 D3E7     		b	.L305
 5134              	.L309:
 5135 00a2 00BF     		.align	2
 5136              	.L308:
 5137 00a4 00000000 		.word	sen_l
 5138 00a8 00009644 		.word	1150681088
 5139 00ac 00409C46 		.word	1184645120
 5140 00b0 0000CA42 		.word	1120534528
 5141 00b4 00000000 		.word	0
 5142 00b8 00000000 		.word	motion_end_flag
 5143 00bc 00000000 		.word	enc
 5144              		.cfi_endproc
 5145              	.LFE194:
 5147              		.section	.text.Motion_FastestAdjust_R,"ax",%progbits
 5148              		.align	1
 5149              		.global	Motion_FastestAdjust_R
 5150              		.syntax unified
 5151              		.thumb
 5152              		.thumb_func
 5153              		.fpu fpv4-sp-d16
 5155              	Motion_FastestAdjust_R:
 5156              	.LFB195:
1073:Src/motion.c  **** 
1074:Src/motion.c  **** void Motion_FastestAdjust_R(uint16_t step, float velo_s)
1075:Src/motion.c  **** {
 5157              		.loc 1 1075 0
 5158              		.cfi_startproc
 5159              		@ args = 0, pretend = 0, frame = 0
 5160              		@ frame_needed = 0, uses_anonymous_args = 0
 5161              	.LVL333:
 5162 0000 08B5     		push	{r3, lr}
 5163              	.LCFI95:
 5164              		.cfi_def_cfa_offset 8
 5165              		.cfi_offset 3, -8
 5166              		.cfi_offset 14, -4
 5167 0002 F0EE400A 		vmov.f32	s1, s0
1076:Src/motion.c  ****     if (step == 1)
ARM GAS  C:\Users\kotaro\AppData\Local\Temp\ccWGe4CN.s 			page 111


 5168              		.loc 1 1076 0
 5169 0006 0128     		cmp	r0, #1
 5170 0008 2AD0     		beq	.L312
 5171              	.L311:
1077:Src/motion.c  ****     {
1078:Src/motion.c  ****         while (sen_r.diff > -19)
1079:Src/motion.c  ****             ;
1080:Src/motion.c  ****         Control_StrCalculator(18.0f, velo_s, VELO_EST, VELO_EST, ACCEL_EST, 1);
1081:Src/motion.c  ****         Control_AngCalculator(0, 0, 0, 0, 1, 0);
1082:Src/motion.c  ****     }
1083:Src/motion.c  ****     else
1084:Src/motion.c  ****     {
1085:Src/motion.c  ****         while (sen_r.diff > -19)
 5172              		.loc 1 1085 0 discriminator 1
 5173 000a 264B     		ldr	r3, .L316
 5174 000c B3F91A30 		ldrsh	r3, [r3, #26]
 5175 0010 13F1120F 		cmn	r3, #18
 5176 0014 F9DA     		bge	.L311
1086:Src/motion.c  ****             ;
1087:Src/motion.c  ****         Control_StrCalculator(108.0f, velo_s, VELO_EST, VELO_EST, ACCEL_EST, 1);
 5177              		.loc 1 1087 0
 5178 0016 9FED241A 		vldr.32	s2, .L316+4
 5179 001a F7EE002A 		vmov.f32	s5, #1.0e+0
 5180 001e 9FED232A 		vldr.32	s4, .L316+8
 5181 0022 F0EE411A 		vmov.f32	s3, s2
 5182 0026 9FED220A 		vldr.32	s0, .L316+12
 5183              	.LVL334:
 5184 002a FFF7FEFF 		bl	Control_StrCalculator
 5185              	.LVL335:
1088:Src/motion.c  ****         Control_AngCalculator(0, 0, 0, 0, 1, 0);
 5186              		.loc 1 1088 0
 5187 002e 9FED210A 		vldr.32	s0, .L316+16
 5188 0032 F0EE402A 		vmov.f32	s5, s0
 5189 0036 B7EE002A 		vmov.f32	s4, #1.0e+0
 5190 003a F0EE401A 		vmov.f32	s3, s0
 5191 003e B0EE401A 		vmov.f32	s2, s0
 5192 0042 F0EE400A 		vmov.f32	s1, s0
 5193 0046 FFF7FEFF 		bl	Control_AngCalculator
 5194              	.LVL336:
 5195              	.L313:
1089:Src/motion.c  ****     }
1090:Src/motion.c  ****     motion_end_flag = FALSE;
 5196              		.loc 1 1090 0
 5197 004a 1B4B     		ldr	r3, .L316+20
 5198 004c 0022     		movs	r2, #0
 5199 004e 1A70     		strb	r2, [r3]
 5200              	.L314:
1091:Src/motion.c  ****     while (motion_end_flag == FALSE)
 5201              		.loc 1 1091 0 discriminator 1
 5202 0050 194B     		ldr	r3, .L316+20
 5203 0052 1B78     		ldrb	r3, [r3]	@ zero_extendqisi2
 5204 0054 002B     		cmp	r3, #0
 5205 0056 FBD0     		beq	.L314
1092:Src/motion.c  ****     {
1093:Src/motion.c  ****     }
1094:Src/motion.c  ****     enc.offset = 0.0f;
 5206              		.loc 1 1094 0
ARM GAS  C:\Users\kotaro\AppData\Local\Temp\ccWGe4CN.s 			page 112


 5207 0058 184B     		ldr	r3, .L316+24
 5208 005a 0022     		movs	r2, #0
 5209 005c 9A60     		str	r2, [r3, #8]	@ float
1095:Src/motion.c  **** }
 5210              		.loc 1 1095 0
 5211 005e 08BD     		pop	{r3, pc}
 5212              	.LVL337:
 5213              	.L312:
1078:Src/motion.c  ****             ;
 5214              		.loc 1 1078 0 discriminator 1
 5215 0060 104B     		ldr	r3, .L316
 5216 0062 B3F91A30 		ldrsh	r3, [r3, #26]
 5217 0066 13F1120F 		cmn	r3, #18
 5218 006a F9DA     		bge	.L312
1080:Src/motion.c  ****         Control_AngCalculator(0, 0, 0, 0, 1, 0);
 5219              		.loc 1 1080 0
 5220 006c 9FED0E1A 		vldr.32	s2, .L316+4
 5221 0070 F7EE002A 		vmov.f32	s5, #1.0e+0
 5222 0074 9FED0D2A 		vldr.32	s4, .L316+8
 5223 0078 F0EE411A 		vmov.f32	s3, s2
 5224 007c B3EE020A 		vmov.f32	s0, #1.8e+1
 5225              	.LVL338:
 5226 0080 FFF7FEFF 		bl	Control_StrCalculator
 5227              	.LVL339:
1081:Src/motion.c  ****     }
 5228              		.loc 1 1081 0
 5229 0084 9FED0B0A 		vldr.32	s0, .L316+16
 5230 0088 F0EE402A 		vmov.f32	s5, s0
 5231 008c B7EE002A 		vmov.f32	s4, #1.0e+0
 5232 0090 F0EE401A 		vmov.f32	s3, s0
 5233 0094 B0EE401A 		vmov.f32	s2, s0
 5234 0098 F0EE400A 		vmov.f32	s1, s0
 5235 009c FFF7FEFF 		bl	Control_AngCalculator
 5236              	.LVL340:
 5237 00a0 D3E7     		b	.L313
 5238              	.L317:
 5239 00a2 00BF     		.align	2
 5240              	.L316:
 5241 00a4 00000000 		.word	sen_r
 5242 00a8 00009644 		.word	1150681088
 5243 00ac 00409C46 		.word	1184645120
 5244 00b0 0000D842 		.word	1121452032
 5245 00b4 00000000 		.word	0
 5246 00b8 00000000 		.word	motion_end_flag
 5247 00bc 00000000 		.word	enc
 5248              		.cfi_endproc
 5249              	.LFE195:
 5251              		.section	.text.Fastest_Turn,"ax",%progbits
 5252              		.align	1
 5253              		.global	Fastest_Turn
 5254              		.syntax unified
 5255              		.thumb
 5256              		.thumb_func
 5257              		.fpu fpv4-sp-d16
 5259              	Fastest_Turn:
 5260              	.LFB196:
1096:Src/motion.c  **** 
ARM GAS  C:\Users\kotaro\AppData\Local\Temp\ccWGe4CN.s 			page 113


1097:Src/motion.c  **** void Fastest_Turn(float offset_in, float offset_out, float velo, float v_end, float deg, float velo
1098:Src/motion.c  **** {
 5261              		.loc 1 1098 0
 5262              		.cfi_startproc
 5263              		@ args = 0, pretend = 0, frame = 0
 5264              		@ frame_needed = 0, uses_anonymous_args = 0
 5265              	.LVL341:
 5266 0000 10B5     		push	{r4, lr}
 5267              	.LCFI96:
 5268              		.cfi_def_cfa_offset 8
 5269              		.cfi_offset 4, -8
 5270              		.cfi_offset 14, -4
 5271 0002 2DED088B 		vpush.64	{d8, d9, d10, d11}
 5272              	.LCFI97:
 5273              		.cfi_def_cfa_offset 40
 5274              		.cfi_offset 80, -40
 5275              		.cfi_offset 81, -36
 5276              		.cfi_offset 82, -32
 5277              		.cfi_offset 83, -28
 5278              		.cfi_offset 84, -24
 5279              		.cfi_offset 85, -20
 5280              		.cfi_offset 86, -16
 5281              		.cfi_offset 87, -12
 5282 0006 F0EE608A 		vmov.f32	s17, s1
 5283 000a B0EE418A 		vmov.f32	s16, s2
 5284 000e B0EE619A 		vmov.f32	s18, s3
 5285 0012 F0EE429A 		vmov.f32	s19, s4
 5286 0016 B0EE62AA 		vmov.f32	s20, s5
 5287 001a F0EE43AA 		vmov.f32	s21, s6
 5288 001e 0BEE100A 		vmov	s22, r0	@ int
 5289 0022 0C46     		mov	r4, r1
1099:Src/motion.c  ****     //offset in
1100:Src/motion.c  ****     Control_StrCalculator(offset_in - enc.offset, velo, velo, velo, 1, 1);
 5290              		.loc 1 1100 0
 5291 0024 3B4B     		ldr	r3, .L323
 5292 0026 D3ED027A 		vldr.32	s15, [r3, #8]
 5293 002a F7EE002A 		vmov.f32	s5, #1.0e+0
 5294              	.LVL342:
 5295 002e B0EE622A 		vmov.f32	s4, s5
 5296              	.LVL343:
 5297 0032 F0EE411A 		vmov.f32	s3, s2
 5298              	.LVL344:
 5299 0036 F0EE410A 		vmov.f32	s1, s2
 5300              	.LVL345:
 5301 003a 30EE670A 		vsub.f32	s0, s0, s15
 5302              	.LVL346:
 5303 003e FFF7FEFF 		bl	Control_StrCalculator
 5304              	.LVL347:
1101:Src/motion.c  ****     Control_AngCalculator(0, 0, 0, 0, 1, 0);
 5305              		.loc 1 1101 0
 5306 0042 9FED350A 		vldr.32	s0, .L323+4
 5307 0046 F0EE402A 		vmov.f32	s5, s0
 5308 004a B7EE002A 		vmov.f32	s4, #1.0e+0
 5309 004e F0EE401A 		vmov.f32	s3, s0
 5310 0052 B0EE401A 		vmov.f32	s2, s0
 5311 0056 F0EE400A 		vmov.f32	s1, s0
 5312 005a FFF7FEFF 		bl	Control_AngCalculator
ARM GAS  C:\Users\kotaro\AppData\Local\Temp\ccWGe4CN.s 			page 114


 5313              	.LVL348:
1102:Src/motion.c  ****     motion_end_flag = FALSE;
 5314              		.loc 1 1102 0
 5315 005e 2F4B     		ldr	r3, .L323+8
 5316 0060 0022     		movs	r2, #0
 5317 0062 1A70     		strb	r2, [r3]
 5318              	.L319:
1103:Src/motion.c  ****     while (motion_end_flag == FALSE)
 5319              		.loc 1 1103 0 discriminator 1
 5320 0064 2D4B     		ldr	r3, .L323+8
 5321 0066 1B78     		ldrb	r3, [r3]	@ zero_extendqisi2
 5322 0068 002B     		cmp	r3, #0
 5323 006a FBD0     		beq	.L319
1104:Src/motion.c  ****     {
1105:Src/motion.c  ****     }
1106:Src/motion.c  ****     //turn
1107:Src/motion.c  ****     Control_StrCalculator(1200.0f, velo, velo, velo, 1, 1);
 5324              		.loc 1 1107 0
 5325 006c F7EE002A 		vmov.f32	s5, #1.0e+0
 5326 0070 B0EE622A 		vmov.f32	s4, s5
 5327 0074 F0EE481A 		vmov.f32	s3, s16
 5328 0078 B0EE481A 		vmov.f32	s2, s16
 5329 007c F0EE480A 		vmov.f32	s1, s16
 5330 0080 9FED270A 		vldr.32	s0, .L323+12
 5331 0084 FFF7FEFF 		bl	Control_StrCalculator
 5332              	.LVL349:
1108:Src/motion.c  ****     Control_AngCalculator(deg, 0, velo_ang, 0, accel_ang, dir);
 5333              		.loc 1 1108 0
 5334 0088 DFED230A 		vldr.32	s1, .L323+4
 5335 008c F8EE4B2A 		vcvt.f32.u32	s5, s22
 5336 0090 B0EE6A2A 		vmov.f32	s4, s21
 5337 0094 F0EE601A 		vmov.f32	s3, s1
 5338 0098 B0EE4A1A 		vmov.f32	s2, s20
 5339 009c B0EE690A 		vmov.f32	s0, s19
 5340 00a0 FFF7FEFF 		bl	Control_AngCalculator
 5341              	.LVL350:
1109:Src/motion.c  ****     motion_end_flag = FALSE;
 5342              		.loc 1 1109 0
 5343 00a4 1D4B     		ldr	r3, .L323+8
 5344 00a6 0022     		movs	r2, #0
 5345 00a8 1A70     		strb	r2, [r3]
 5346              	.L320:
1110:Src/motion.c  ****     while (motion_end_flag == FALSE)
 5347              		.loc 1 1110 0 discriminator 1
 5348 00aa 1C4B     		ldr	r3, .L323+8
 5349 00ac 1B78     		ldrb	r3, [r3]	@ zero_extendqisi2
 5350 00ae 002B     		cmp	r3, #0
 5351 00b0 FBD0     		beq	.L320
1111:Src/motion.c  ****     {
1112:Src/motion.c  ****     }
1113:Src/motion.c  ****     //offset out
1114:Src/motion.c  ****     Control_EdgeSet(offset_out - 90.0f);
 5352              		.loc 1 1114 0
 5353 00b2 9FED1C0A 		vldr.32	s0, .L323+16
 5354 00b6 38EEC00A 		vsub.f32	s0, s17, s0
 5355 00ba FFF7FEFF 		bl	Control_EdgeSet
 5356              	.LVL351:
ARM GAS  C:\Users\kotaro\AppData\Local\Temp\ccWGe4CN.s 			page 115


1115:Src/motion.c  ****     Control_StrCalculator(offset_out, velo, velo, v_end, 20000.0f, 1);
 5357              		.loc 1 1115 0
 5358 00be F7EE002A 		vmov.f32	s5, #1.0e+0
 5359 00c2 9FED192A 		vldr.32	s4, .L323+20
 5360 00c6 F0EE491A 		vmov.f32	s3, s18
 5361 00ca B0EE481A 		vmov.f32	s2, s16
 5362 00ce F0EE480A 		vmov.f32	s1, s16
 5363 00d2 B0EE680A 		vmov.f32	s0, s17
 5364 00d6 FFF7FEFF 		bl	Control_StrCalculator
 5365              	.LVL352:
1116:Src/motion.c  ****     Control_AngCalculator(0, 0, 0, 0, 1, 0);
 5366              		.loc 1 1116 0
 5367 00da 9FED0F0A 		vldr.32	s0, .L323+4
 5368 00de F0EE402A 		vmov.f32	s5, s0
 5369 00e2 B7EE002A 		vmov.f32	s4, #1.0e+0
 5370 00e6 F0EE401A 		vmov.f32	s3, s0
 5371 00ea B0EE401A 		vmov.f32	s2, s0
 5372 00ee F0EE400A 		vmov.f32	s1, s0
 5373 00f2 FFF7FEFF 		bl	Control_AngCalculator
 5374              	.LVL353:
1117:Src/motion.c  ****     control_wall_flag = wall_flag;
 5375              		.loc 1 1117 0
 5376 00f6 0D4B     		ldr	r3, .L323+24
 5377 00f8 1C70     		strb	r4, [r3]
1118:Src/motion.c  ****     motion_end_flag = FALSE;
 5378              		.loc 1 1118 0
 5379 00fa 084B     		ldr	r3, .L323+8
 5380 00fc 0022     		movs	r2, #0
 5381 00fe 1A70     		strb	r2, [r3]
 5382              	.L321:
1119:Src/motion.c  ****     while (motion_end_flag == FALSE)
 5383              		.loc 1 1119 0 discriminator 1
 5384 0100 064B     		ldr	r3, .L323+8
 5385 0102 1B78     		ldrb	r3, [r3]	@ zero_extendqisi2
 5386 0104 002B     		cmp	r3, #0
 5387 0106 FBD0     		beq	.L321
1120:Src/motion.c  ****     {
1121:Src/motion.c  ****     }
1122:Src/motion.c  ****     enc.offset = 0.0f;
 5388              		.loc 1 1122 0
 5389 0108 024B     		ldr	r3, .L323
 5390 010a 0022     		movs	r2, #0
 5391 010c 9A60     		str	r2, [r3, #8]	@ float
1123:Src/motion.c  **** }
 5392              		.loc 1 1123 0
 5393 010e BDEC088B 		vldm	sp!, {d8-d11}
 5394              	.LCFI98:
 5395              		.cfi_restore 86
 5396              		.cfi_restore 87
 5397              		.cfi_restore 84
 5398              		.cfi_restore 85
 5399              		.cfi_restore 82
 5400              		.cfi_restore 83
 5401              		.cfi_restore 80
 5402              		.cfi_restore 81
 5403              		.cfi_def_cfa_offset 8
 5404              	.LVL354:
ARM GAS  C:\Users\kotaro\AppData\Local\Temp\ccWGe4CN.s 			page 116


 5405 0112 10BD     		pop	{r4, pc}
 5406              	.L324:
 5407              		.align	2
 5408              	.L323:
 5409 0114 00000000 		.word	enc
 5410 0118 00000000 		.word	0
 5411 011c 00000000 		.word	motion_end_flag
 5412 0120 00009644 		.word	1150681088
 5413 0124 0000B442 		.word	1119092736
 5414 0128 00409C46 		.word	1184645120
 5415 012c 00000000 		.word	control_wall_flag
 5416              		.cfi_endproc
 5417              	.LFE196:
 5419              		.section	.text.Motion_FastestLeftSearch,"ax",%progbits
 5420              		.align	1
 5421              		.global	Motion_FastestLeftSearch
 5422              		.syntax unified
 5423              		.thumb
 5424              		.thumb_func
 5425              		.fpu fpv4-sp-d16
 5427              	Motion_FastestLeftSearch:
 5428              	.LFB197:
1124:Src/motion.c  **** 
1125:Src/motion.c  **** void Motion_FastestLeftSearch(void)
1126:Src/motion.c  **** {
 5429              		.loc 1 1126 0
 5430              		.cfi_startproc
 5431              		@ args = 0, pretend = 0, frame = 0
 5432              		@ frame_needed = 0, uses_anonymous_args = 0
 5433 0000 08B5     		push	{r3, lr}
 5434              	.LCFI99:
 5435              		.cfi_def_cfa_offset 8
 5436              		.cfi_offset 3, -8
 5437              		.cfi_offset 14, -4
1127:Src/motion.c  ****     //offset in
1128:Src/motion.c  ****     if (sen_front.is_wall == TRUE)
 5438              		.loc 1 1128 0
 5439 0002 3E4B     		ldr	r3, .L333
 5440 0004 1B7F     		ldrb	r3, [r3, #28]	@ zero_extendqisi2
 5441 0006 012B     		cmp	r3, #1
 5442 0008 4ED1     		bne	.L326
 5443              	.L327:
1129:Src/motion.c  ****     {
1130:Src/motion.c  ****         while (sen_front.now < 115)
 5444              		.loc 1 1130 0 discriminator 1
 5445 000a 3C4B     		ldr	r3, .L333
 5446 000c B3F90030 		ldrsh	r3, [r3]
 5447 0010 722B     		cmp	r3, #114
 5448 0012 FADD     		ble	.L327
 5449              	.L328:
1131:Src/motion.c  ****             ;
1132:Src/motion.c  ****     }
1133:Src/motion.c  ****     else
1134:Src/motion.c  ****     {
1135:Src/motion.c  ****         Control_StrCalculator(16.5 - enc.offset, 1200.0f, 1200.0f, 1200.0f, 1, 1);
1136:Src/motion.c  ****         Control_AngCalculator(0, 0, 0, 0, 1, 0);
1137:Src/motion.c  ****         motion_end_flag = FALSE;
ARM GAS  C:\Users\kotaro\AppData\Local\Temp\ccWGe4CN.s 			page 117


1138:Src/motion.c  ****         while (motion_end_flag == FALSE)
1139:Src/motion.c  ****         {
1140:Src/motion.c  ****         }
1141:Src/motion.c  ****     }
1142:Src/motion.c  ****     //turn
1143:Src/motion.c  ****     Control_StrCalculator(1200.0f, 1200.0f, 1200.0f, 1200.0f, 1, 1);
 5450              		.loc 1 1143 0
 5451 0014 9FED3A0A 		vldr.32	s0, .L333+4
 5452 0018 F7EE002A 		vmov.f32	s5, #1.0e+0
 5453 001c B0EE622A 		vmov.f32	s4, s5
 5454 0020 F0EE401A 		vmov.f32	s3, s0
 5455 0024 B0EE401A 		vmov.f32	s2, s0
 5456 0028 F0EE400A 		vmov.f32	s1, s0
 5457 002c FFF7FEFF 		bl	Control_StrCalculator
 5458              	.LVL355:
1144:Src/motion.c  ****     Control_AngCalculator(90.0f, 0, 1500.0f, 0, 50000.0f, 1);
 5459              		.loc 1 1144 0
 5460 0030 DFED340A 		vldr.32	s1, .L333+8
 5461 0034 F7EE002A 		vmov.f32	s5, #1.0e+0
 5462 0038 9FED332A 		vldr.32	s4, .L333+12
 5463 003c F0EE601A 		vmov.f32	s3, s1
 5464 0040 9FED321A 		vldr.32	s2, .L333+16
 5465 0044 9FED320A 		vldr.32	s0, .L333+20
 5466 0048 FFF7FEFF 		bl	Control_AngCalculator
 5467              	.LVL356:
1145:Src/motion.c  ****     motion_end_flag = FALSE;
 5468              		.loc 1 1145 0
 5469 004c 314B     		ldr	r3, .L333+24
 5470 004e 0022     		movs	r2, #0
 5471 0050 1A70     		strb	r2, [r3]
 5472              	.L330:
1146:Src/motion.c  ****     while (motion_end_flag == FALSE)
 5473              		.loc 1 1146 0 discriminator 1
 5474 0052 304B     		ldr	r3, .L333+24
 5475 0054 1B78     		ldrb	r3, [r3]	@ zero_extendqisi2
 5476 0056 002B     		cmp	r3, #0
 5477 0058 FBD0     		beq	.L330
1147:Src/motion.c  ****     {
1148:Src/motion.c  ****     }
1149:Src/motion.c  ****     //offset out
1150:Src/motion.c  ****     Control_StrCalculator(52.5f, 1200.0f, 1200.0f, 1200.0f, 1, 1);
 5478              		.loc 1 1150 0
 5479 005a DFED290A 		vldr.32	s1, .L333+4
 5480 005e F7EE002A 		vmov.f32	s5, #1.0e+0
 5481 0062 B0EE622A 		vmov.f32	s4, s5
 5482 0066 F0EE601A 		vmov.f32	s3, s1
 5483 006a B0EE601A 		vmov.f32	s2, s1
 5484 006e 9FED2A0A 		vldr.32	s0, .L333+28
 5485 0072 FFF7FEFF 		bl	Control_StrCalculator
 5486              	.LVL357:
1151:Src/motion.c  ****     Control_AngCalculator(0, 0, 0, 0, 1, 0);
 5487              		.loc 1 1151 0
 5488 0076 9FED230A 		vldr.32	s0, .L333+8
 5489 007a F0EE402A 		vmov.f32	s5, s0
 5490 007e B7EE002A 		vmov.f32	s4, #1.0e+0
 5491 0082 F0EE401A 		vmov.f32	s3, s0
 5492 0086 B0EE401A 		vmov.f32	s2, s0
ARM GAS  C:\Users\kotaro\AppData\Local\Temp\ccWGe4CN.s 			page 118


 5493 008a F0EE400A 		vmov.f32	s1, s0
 5494 008e FFF7FEFF 		bl	Control_AngCalculator
 5495              	.LVL358:
1152:Src/motion.c  ****     motion_end_flag = FALSE;
 5496              		.loc 1 1152 0
 5497 0092 204B     		ldr	r3, .L333+24
 5498 0094 0022     		movs	r2, #0
 5499 0096 1A70     		strb	r2, [r3]
 5500              	.L331:
1153:Src/motion.c  ****     while (motion_end_flag == FALSE)
 5501              		.loc 1 1153 0 discriminator 1
 5502 0098 1E4B     		ldr	r3, .L333+24
 5503 009a 1B78     		ldrb	r3, [r3]	@ zero_extendqisi2
 5504 009c 002B     		cmp	r3, #0
 5505 009e FBD0     		beq	.L331
1154:Src/motion.c  ****     {
1155:Src/motion.c  ****     }
1156:Src/motion.c  ****     enc.offset = 0.0f;
 5506              		.loc 1 1156 0
 5507 00a0 1E4B     		ldr	r3, .L333+32
 5508 00a2 0022     		movs	r2, #0
 5509 00a4 9A60     		str	r2, [r3, #8]	@ float
1157:Src/motion.c  **** }
 5510              		.loc 1 1157 0
 5511 00a6 08BD     		pop	{r3, pc}
 5512              	.L326:
1135:Src/motion.c  ****         Control_AngCalculator(0, 0, 0, 0, 1, 0);
 5513              		.loc 1 1135 0
 5514 00a8 1C4B     		ldr	r3, .L333+32
 5515 00aa D3ED027A 		vldr.32	s15, [r3, #8]
 5516 00ae DFED140A 		vldr.32	s1, .L333+4
 5517 00b2 F7EE002A 		vmov.f32	s5, #1.0e+0
 5518 00b6 B0EE622A 		vmov.f32	s4, s5
 5519 00ba F0EE601A 		vmov.f32	s3, s1
 5520 00be B0EE601A 		vmov.f32	s2, s1
 5521 00c2 9FED170A 		vldr.32	s0, .L333+36
 5522 00c6 30EE670A 		vsub.f32	s0, s0, s15
 5523 00ca FFF7FEFF 		bl	Control_StrCalculator
 5524              	.LVL359:
1136:Src/motion.c  ****         motion_end_flag = FALSE;
 5525              		.loc 1 1136 0
 5526 00ce 9FED0D0A 		vldr.32	s0, .L333+8
 5527 00d2 F0EE402A 		vmov.f32	s5, s0
 5528 00d6 B7EE002A 		vmov.f32	s4, #1.0e+0
 5529 00da F0EE401A 		vmov.f32	s3, s0
 5530 00de B0EE401A 		vmov.f32	s2, s0
 5531 00e2 F0EE400A 		vmov.f32	s1, s0
 5532 00e6 FFF7FEFF 		bl	Control_AngCalculator
 5533              	.LVL360:
1137:Src/motion.c  ****         while (motion_end_flag == FALSE)
 5534              		.loc 1 1137 0
 5535 00ea 0A4B     		ldr	r3, .L333+24
 5536 00ec 0022     		movs	r2, #0
 5537 00ee 1A70     		strb	r2, [r3]
 5538              	.L329:
1138:Src/motion.c  ****         {
 5539              		.loc 1 1138 0 discriminator 1
ARM GAS  C:\Users\kotaro\AppData\Local\Temp\ccWGe4CN.s 			page 119


 5540 00f0 084B     		ldr	r3, .L333+24
 5541 00f2 1B78     		ldrb	r3, [r3]	@ zero_extendqisi2
 5542 00f4 002B     		cmp	r3, #0
 5543 00f6 FBD0     		beq	.L329
 5544 00f8 8CE7     		b	.L328
 5545              	.L334:
 5546 00fa 00BF     		.align	2
 5547              	.L333:
 5548 00fc 00000000 		.word	sen_front
 5549 0100 00009644 		.word	1150681088
 5550 0104 00000000 		.word	0
 5551 0108 00504347 		.word	1195593728
 5552 010c 0080BB44 		.word	1153138688
 5553 0110 0000B442 		.word	1119092736
 5554 0114 00000000 		.word	motion_end_flag
 5555 0118 00005242 		.word	1112670208
 5556 011c 00000000 		.word	enc
 5557 0120 00008441 		.word	1099169792
 5558              		.cfi_endproc
 5559              	.LFE197:
 5561              		.section	.text.Motion_FastestRightSearch,"ax",%progbits
 5562              		.align	1
 5563              		.global	Motion_FastestRightSearch
 5564              		.syntax unified
 5565              		.thumb
 5566              		.thumb_func
 5567              		.fpu fpv4-sp-d16
 5569              	Motion_FastestRightSearch:
 5570              	.LFB198:
1158:Src/motion.c  **** 
1159:Src/motion.c  **** void Motion_FastestRightSearch(void)
1160:Src/motion.c  **** {
 5571              		.loc 1 1160 0
 5572              		.cfi_startproc
 5573              		@ args = 0, pretend = 0, frame = 0
 5574              		@ frame_needed = 0, uses_anonymous_args = 0
 5575 0000 08B5     		push	{r3, lr}
 5576              	.LCFI100:
 5577              		.cfi_def_cfa_offset 8
 5578              		.cfi_offset 3, -8
 5579              		.cfi_offset 14, -4
1161:Src/motion.c  ****     //offset in
1162:Src/motion.c  ****     if (sen_front.is_wall == TRUE)
 5580              		.loc 1 1162 0
 5581 0002 3E4B     		ldr	r3, .L343
 5582 0004 1B7F     		ldrb	r3, [r3, #28]	@ zero_extendqisi2
 5583 0006 012B     		cmp	r3, #1
 5584 0008 4ED1     		bne	.L336
 5585              	.L337:
1163:Src/motion.c  ****     {
1164:Src/motion.c  ****         while (sen_front.now < 115)
 5586              		.loc 1 1164 0 discriminator 1
 5587 000a 3C4B     		ldr	r3, .L343
 5588 000c B3F90030 		ldrsh	r3, [r3]
 5589 0010 722B     		cmp	r3, #114
 5590 0012 FADD     		ble	.L337
 5591              	.L338:
ARM GAS  C:\Users\kotaro\AppData\Local\Temp\ccWGe4CN.s 			page 120


1165:Src/motion.c  ****             ;
1166:Src/motion.c  ****     }
1167:Src/motion.c  ****     else
1168:Src/motion.c  ****     {
1169:Src/motion.c  ****         Control_StrCalculator(16.0 - enc.offset, 1200.0f, 1200.0f, 1200.0f, 1, 1);
1170:Src/motion.c  ****         Control_AngCalculator(0, 0, 0, 0, 1, 0);
1171:Src/motion.c  ****         motion_end_flag = FALSE;
1172:Src/motion.c  ****         while (motion_end_flag == FALSE)
1173:Src/motion.c  ****         {
1174:Src/motion.c  ****         }
1175:Src/motion.c  ****     }
1176:Src/motion.c  ****     //turn
1177:Src/motion.c  ****     Control_StrCalculator(1200.0f, 1200.0f, 1200.0f, 1200.0f, 1, 1);
 5592              		.loc 1 1177 0
 5593 0014 9FED3A0A 		vldr.32	s0, .L343+4
 5594 0018 F7EE002A 		vmov.f32	s5, #1.0e+0
 5595 001c B0EE622A 		vmov.f32	s4, s5
 5596 0020 F0EE401A 		vmov.f32	s3, s0
 5597 0024 B0EE401A 		vmov.f32	s2, s0
 5598 0028 F0EE400A 		vmov.f32	s1, s0
 5599 002c FFF7FEFF 		bl	Control_StrCalculator
 5600              	.LVL361:
1178:Src/motion.c  ****     Control_AngCalculator(90.0f, 0, 1500.0f, 0, 50000.0f, -1);
 5601              		.loc 1 1178 0
 5602 0030 DFED340A 		vldr.32	s1, .L343+8
 5603 0034 FFEE002A 		vmov.f32	s5, #-1.0e+0
 5604 0038 9FED332A 		vldr.32	s4, .L343+12
 5605 003c F0EE601A 		vmov.f32	s3, s1
 5606 0040 9FED321A 		vldr.32	s2, .L343+16
 5607 0044 9FED320A 		vldr.32	s0, .L343+20
 5608 0048 FFF7FEFF 		bl	Control_AngCalculator
 5609              	.LVL362:
1179:Src/motion.c  ****     motion_end_flag = FALSE;
 5610              		.loc 1 1179 0
 5611 004c 314B     		ldr	r3, .L343+24
 5612 004e 0022     		movs	r2, #0
 5613 0050 1A70     		strb	r2, [r3]
 5614              	.L340:
1180:Src/motion.c  ****     while (motion_end_flag == FALSE)
 5615              		.loc 1 1180 0 discriminator 1
 5616 0052 304B     		ldr	r3, .L343+24
 5617 0054 1B78     		ldrb	r3, [r3]	@ zero_extendqisi2
 5618 0056 002B     		cmp	r3, #0
 5619 0058 FBD0     		beq	.L340
1181:Src/motion.c  ****     {
1182:Src/motion.c  ****     }
1183:Src/motion.c  ****     //offset out
1184:Src/motion.c  ****     Control_StrCalculator(60.0f, 1200.0f, 1200.0f, 1200.0f, 1, 1);
 5620              		.loc 1 1184 0
 5621 005a DFED290A 		vldr.32	s1, .L343+4
 5622 005e F7EE002A 		vmov.f32	s5, #1.0e+0
 5623 0062 B0EE622A 		vmov.f32	s4, s5
 5624 0066 F0EE601A 		vmov.f32	s3, s1
 5625 006a B0EE601A 		vmov.f32	s2, s1
 5626 006e 9FED2A0A 		vldr.32	s0, .L343+28
 5627 0072 FFF7FEFF 		bl	Control_StrCalculator
 5628              	.LVL363:
ARM GAS  C:\Users\kotaro\AppData\Local\Temp\ccWGe4CN.s 			page 121


1185:Src/motion.c  ****     Control_AngCalculator(0, 0, 0, 0, 1, 0);
 5629              		.loc 1 1185 0
 5630 0076 9FED230A 		vldr.32	s0, .L343+8
 5631 007a F0EE402A 		vmov.f32	s5, s0
 5632 007e B7EE002A 		vmov.f32	s4, #1.0e+0
 5633 0082 F0EE401A 		vmov.f32	s3, s0
 5634 0086 B0EE401A 		vmov.f32	s2, s0
 5635 008a F0EE400A 		vmov.f32	s1, s0
 5636 008e FFF7FEFF 		bl	Control_AngCalculator
 5637              	.LVL364:
1186:Src/motion.c  ****     motion_end_flag = FALSE;
 5638              		.loc 1 1186 0
 5639 0092 204B     		ldr	r3, .L343+24
 5640 0094 0022     		movs	r2, #0
 5641 0096 1A70     		strb	r2, [r3]
 5642              	.L341:
1187:Src/motion.c  ****     while (motion_end_flag == FALSE)
 5643              		.loc 1 1187 0 discriminator 1
 5644 0098 1E4B     		ldr	r3, .L343+24
 5645 009a 1B78     		ldrb	r3, [r3]	@ zero_extendqisi2
 5646 009c 002B     		cmp	r3, #0
 5647 009e FBD0     		beq	.L341
1188:Src/motion.c  ****     {
1189:Src/motion.c  ****     }
1190:Src/motion.c  ****     enc.offset = 0.0f;
 5648              		.loc 1 1190 0
 5649 00a0 1E4B     		ldr	r3, .L343+32
 5650 00a2 0022     		movs	r2, #0
 5651 00a4 9A60     		str	r2, [r3, #8]	@ float
1191:Src/motion.c  **** }
 5652              		.loc 1 1191 0
 5653 00a6 08BD     		pop	{r3, pc}
 5654              	.L336:
1169:Src/motion.c  ****         Control_AngCalculator(0, 0, 0, 0, 1, 0);
 5655              		.loc 1 1169 0
 5656 00a8 1C4B     		ldr	r3, .L343+32
 5657 00aa D3ED027A 		vldr.32	s15, [r3, #8]
 5658 00ae DFED140A 		vldr.32	s1, .L343+4
 5659 00b2 F7EE002A 		vmov.f32	s5, #1.0e+0
 5660 00b6 B0EE622A 		vmov.f32	s4, s5
 5661 00ba F0EE601A 		vmov.f32	s3, s1
 5662 00be B0EE601A 		vmov.f32	s2, s1
 5663 00c2 B3EE000A 		vmov.f32	s0, #1.6e+1
 5664 00c6 30EE670A 		vsub.f32	s0, s0, s15
 5665 00ca FFF7FEFF 		bl	Control_StrCalculator
 5666              	.LVL365:
1170:Src/motion.c  ****         motion_end_flag = FALSE;
 5667              		.loc 1 1170 0
 5668 00ce 9FED0D0A 		vldr.32	s0, .L343+8
 5669 00d2 F0EE402A 		vmov.f32	s5, s0
 5670 00d6 B7EE002A 		vmov.f32	s4, #1.0e+0
 5671 00da F0EE401A 		vmov.f32	s3, s0
 5672 00de B0EE401A 		vmov.f32	s2, s0
 5673 00e2 F0EE400A 		vmov.f32	s1, s0
 5674 00e6 FFF7FEFF 		bl	Control_AngCalculator
 5675              	.LVL366:
1171:Src/motion.c  ****         while (motion_end_flag == FALSE)
ARM GAS  C:\Users\kotaro\AppData\Local\Temp\ccWGe4CN.s 			page 122


 5676              		.loc 1 1171 0
 5677 00ea 0A4B     		ldr	r3, .L343+24
 5678 00ec 0022     		movs	r2, #0
 5679 00ee 1A70     		strb	r2, [r3]
 5680              	.L339:
1172:Src/motion.c  ****         {
 5681              		.loc 1 1172 0 discriminator 1
 5682 00f0 084B     		ldr	r3, .L343+24
 5683 00f2 1B78     		ldrb	r3, [r3]	@ zero_extendqisi2
 5684 00f4 002B     		cmp	r3, #0
 5685 00f6 FBD0     		beq	.L339
 5686 00f8 8CE7     		b	.L338
 5687              	.L344:
 5688 00fa 00BF     		.align	2
 5689              	.L343:
 5690 00fc 00000000 		.word	sen_front
 5691 0100 00009644 		.word	1150681088
 5692 0104 00000000 		.word	0
 5693 0108 00504347 		.word	1195593728
 5694 010c 0080BB44 		.word	1153138688
 5695 0110 0000B442 		.word	1119092736
 5696 0114 00000000 		.word	motion_end_flag
 5697 0118 00007042 		.word	1114636288
 5698 011c 00000000 		.word	enc
 5699              		.cfi_endproc
 5700              	.LFE198:
 5702              		.section	.text.Motion_FastestLeftTurn,"ax",%progbits
 5703              		.align	1
 5704              		.global	Motion_FastestLeftTurn
 5705              		.syntax unified
 5706              		.thumb
 5707              		.thumb_func
 5708              		.fpu fpv4-sp-d16
 5710              	Motion_FastestLeftTurn:
 5711              	.LFB199:
1192:Src/motion.c  **** 
1193:Src/motion.c  **** void Motion_FastestLeftTurn(uint8_t type, float v_end)
1194:Src/motion.c  **** {
 5712              		.loc 1 1194 0
 5713              		.cfi_startproc
 5714              		@ args = 0, pretend = 0, frame = 0
 5715              		@ frame_needed = 0, uses_anonymous_args = 0
 5716              	.LVL367:
 5717 0000 08B5     		push	{r3, lr}
 5718              	.LCFI101:
 5719              		.cfi_def_cfa_offset 8
 5720              		.cfi_offset 3, -8
 5721              		.cfi_offset 14, -4
1195:Src/motion.c  ****     switch (type)
 5722              		.loc 1 1195 0
 5723 0002 0728     		cmp	r0, #7
 5724 0004 07D8     		bhi	.L345
 5725 0006 DFE800F0 		tbb	[pc, r0]
 5726              	.L348:
 5727 000a 04       		.byte	(.L347-.L348)/2
 5728 000b 2D       		.byte	(.L349-.L348)/2
 5729 000c 43       		.byte	(.L350-.L348)/2
ARM GAS  C:\Users\kotaro\AppData\Local\Temp\ccWGe4CN.s 			page 123


 5730 000d 07       		.byte	(.L351-.L348)/2
 5731 000e 1A       		.byte	(.L352-.L348)/2
 5732 000f 40       		.byte	(.L353-.L348)/2
 5733 0010 56       		.byte	(.L354-.L348)/2
 5734 0011 69       		.byte	(.L355-.L348)/2
 5735              		.p2align 1
 5736              	.L347:
1196:Src/motion.c  ****     {
1197:Src/motion.c  ****     case SEARCH:
1198:Src/motion.c  ****         Motion_FastestLeftSearch(); //16.5f, 55.0f, 1200.0f, 1200.0f, 90.0f, 1500.0f, 50000.0f, 1, 
 5737              		.loc 1 1198 0
 5738 0012 FFF7FEFF 		bl	Motion_FastestLeftSearch
 5739              	.LVL368:
 5740              	.L345:
1199:Src/motion.c  ****         break;
1200:Src/motion.c  ****     case T_90:
1201:Src/motion.c  ****         Fastest_Turn(36.0f, 57.0f, 1200.0f, v_end, 90.0f, 600.0f, 20000.0f, 1, 0);
1202:Src/motion.c  ****         break;
1203:Src/motion.c  ****     case T_180:
1204:Src/motion.c  ****         Fastest_Turn(50.0f, 70.0f, 1200.0f, v_end, 180.0f, 760.0f, 20000.0f, 1, 0);
1205:Src/motion.c  ****         break;
1206:Src/motion.c  ****     case T_45IN:
1207:Src/motion.c  ****         Fastest_Turn(36.0f, 53.0f, 750.0f, v_end, 181.0f, 530.0f, 5000.0f, 1, 2);
1208:Src/motion.c  ****         break;
1209:Src/motion.c  ****     case T_45OUT:
1210:Src/motion.c  ****         Motion_OutLeft45Turn(v_end);
1211:Src/motion.c  ****         break;
1212:Src/motion.c  ****     case T_135IN:
1213:Src/motion.c  ****         Fastest_Turn(51.0f, 60.0f, 800.0f, 800.0f, 136.0f, 600.0f, 8000.0f, 1, 3);
1214:Src/motion.c  ****         break;
1215:Src/motion.c  ****     case T_135OUT:
1216:Src/motion.c  ****         Fastest_Turn(25.0f, 67.0f, 800.0f, v_end, 136.0f, 600.0f, 8000.0f, 1, 2);
1217:Src/motion.c  ****         break;
1218:Src/motion.c  ****     case T_V90:
1219:Src/motion.c  ****         Fastest_Turn(60.0f, 75.0f, 800.0f, 800.0f, 91.0f, 800.0f, 20000.0f, 1, 3);
1220:Src/motion.c  ****         break;
1221:Src/motion.c  ****     }
1222:Src/motion.c  **** }
 5741              		.loc 1 1222 0
 5742 0016 08BD     		pop	{r3, pc}
 5743              	.LVL369:
 5744              	.L351:
1201:Src/motion.c  ****         break;
 5745              		.loc 1 1201 0
 5746 0018 0021     		movs	r1, #0
 5747 001a 0120     		movs	r0, #1
 5748              	.LVL370:
 5749 001c 9FED393A 		vldr.32	s6, .L357
 5750 0020 DFED392A 		vldr.32	s5, .L357+4
 5751 0024 9FED392A 		vldr.32	s4, .L357+8
 5752 0028 F0EE401A 		vmov.f32	s3, s0
 5753 002c 9FED381A 		vldr.32	s2, .L357+12
 5754 0030 DFED380A 		vldr.32	s1, .L357+16
 5755 0034 9FED380A 		vldr.32	s0, .L357+20
 5756              	.LVL371:
 5757 0038 FFF7FEFF 		bl	Fastest_Turn
 5758              	.LVL372:
ARM GAS  C:\Users\kotaro\AppData\Local\Temp\ccWGe4CN.s 			page 124


1202:Src/motion.c  ****     case T_180:
 5759              		.loc 1 1202 0
 5760 003c EBE7     		b	.L345
 5761              	.LVL373:
 5762              	.L352:
1204:Src/motion.c  ****         break;
 5763              		.loc 1 1204 0
 5764 003e 0021     		movs	r1, #0
 5765 0040 0120     		movs	r0, #1
 5766              	.LVL374:
 5767 0042 9FED303A 		vldr.32	s6, .L357
 5768 0046 DFED352A 		vldr.32	s5, .L357+24
 5769 004a 9FED352A 		vldr.32	s4, .L357+28
 5770 004e F0EE401A 		vmov.f32	s3, s0
 5771 0052 9FED2F1A 		vldr.32	s2, .L357+12
 5772 0056 DFED330A 		vldr.32	s1, .L357+32
 5773 005a 9FED330A 		vldr.32	s0, .L357+36
 5774              	.LVL375:
 5775 005e FFF7FEFF 		bl	Fastest_Turn
 5776              	.LVL376:
1205:Src/motion.c  ****     case T_45IN:
 5777              		.loc 1 1205 0
 5778 0062 D8E7     		b	.L345
 5779              	.LVL377:
 5780              	.L349:
1207:Src/motion.c  ****         break;
 5781              		.loc 1 1207 0
 5782 0064 0221     		movs	r1, #2
 5783 0066 0120     		movs	r0, #1
 5784              	.LVL378:
 5785 0068 9FED303A 		vldr.32	s6, .L357+40
 5786 006c DFED302A 		vldr.32	s5, .L357+44
 5787 0070 9FED302A 		vldr.32	s4, .L357+48
 5788 0074 F0EE401A 		vmov.f32	s3, s0
 5789 0078 9FED2F1A 		vldr.32	s2, .L357+52
 5790 007c DFED2F0A 		vldr.32	s1, .L357+56
 5791 0080 9FED250A 		vldr.32	s0, .L357+20
 5792              	.LVL379:
 5793 0084 FFF7FEFF 		bl	Fastest_Turn
 5794              	.LVL380:
1208:Src/motion.c  ****     case T_45OUT:
 5795              		.loc 1 1208 0
 5796 0088 C5E7     		b	.L345
 5797              	.LVL381:
 5798              	.L353:
1210:Src/motion.c  ****         break;
 5799              		.loc 1 1210 0
 5800 008a FFF7FEFF 		bl	Motion_OutLeft45Turn
 5801              	.LVL382:
1211:Src/motion.c  ****     case T_135IN:
 5802              		.loc 1 1211 0
 5803 008e C2E7     		b	.L345
 5804              	.LVL383:
 5805              	.L350:
1213:Src/motion.c  ****         break;
 5806              		.loc 1 1213 0
 5807 0090 9FED2B1A 		vldr.32	s2, .L357+60
ARM GAS  C:\Users\kotaro\AppData\Local\Temp\ccWGe4CN.s 			page 125


 5808 0094 0321     		movs	r1, #3
 5809 0096 0120     		movs	r0, #1
 5810              	.LVL384:
 5811 0098 9FED2A3A 		vldr.32	s6, .L357+64
 5812 009c DFED1A2A 		vldr.32	s5, .L357+4
 5813 00a0 9FED292A 		vldr.32	s4, .L357+68
 5814 00a4 F0EE411A 		vmov.f32	s3, s2
 5815 00a8 DFED280A 		vldr.32	s1, .L357+72
 5816 00ac 9FED280A 		vldr.32	s0, .L357+76
 5817              	.LVL385:
 5818 00b0 FFF7FEFF 		bl	Fastest_Turn
 5819              	.LVL386:
1214:Src/motion.c  ****     case T_135OUT:
 5820              		.loc 1 1214 0
 5821 00b4 AFE7     		b	.L345
 5822              	.LVL387:
 5823              	.L354:
1216:Src/motion.c  ****         break;
 5824              		.loc 1 1216 0
 5825 00b6 0221     		movs	r1, #2
 5826 00b8 0120     		movs	r0, #1
 5827              	.LVL388:
 5828 00ba 9FED223A 		vldr.32	s6, .L357+64
 5829 00be DFED122A 		vldr.32	s5, .L357+4
 5830 00c2 9FED212A 		vldr.32	s4, .L357+68
 5831 00c6 F0EE401A 		vmov.f32	s3, s0
 5832 00ca 9FED1D1A 		vldr.32	s2, .L357+60
 5833 00ce DFED210A 		vldr.32	s1, .L357+80
 5834 00d2 B3EE090A 		vmov.f32	s0, #2.5e+1
 5835              	.LVL389:
 5836 00d6 FFF7FEFF 		bl	Fastest_Turn
 5837              	.LVL390:
1217:Src/motion.c  ****     case T_V90:
 5838              		.loc 1 1217 0
 5839 00da 9CE7     		b	.L345
 5840              	.LVL391:
 5841              	.L355:
1219:Src/motion.c  ****         break;
 5842              		.loc 1 1219 0
 5843 00dc 9FED181A 		vldr.32	s2, .L357+60
 5844 00e0 0321     		movs	r1, #3
 5845 00e2 0120     		movs	r0, #1
 5846              	.LVL392:
 5847 00e4 9FED073A 		vldr.32	s6, .L357
 5848 00e8 F0EE412A 		vmov.f32	s5, s2
 5849 00ec 9FED1A2A 		vldr.32	s4, .L357+84
 5850 00f0 F0EE411A 		vmov.f32	s3, s2
 5851 00f4 DFED190A 		vldr.32	s1, .L357+88
 5852 00f8 9FED140A 		vldr.32	s0, .L357+72
 5853              	.LVL393:
 5854 00fc FFF7FEFF 		bl	Fastest_Turn
 5855              	.LVL394:
 5856              		.loc 1 1222 0
 5857 0100 89E7     		b	.L345
 5858              	.L358:
 5859 0102 00BF     		.align	2
 5860              	.L357:
ARM GAS  C:\Users\kotaro\AppData\Local\Temp\ccWGe4CN.s 			page 126


 5861 0104 00409C46 		.word	1184645120
 5862 0108 00001644 		.word	1142292480
 5863 010c 0000B442 		.word	1119092736
 5864 0110 00009644 		.word	1150681088
 5865 0114 00006442 		.word	1113849856
 5866 0118 00001042 		.word	1108344832
 5867 011c 00003E44 		.word	1144913920
 5868 0120 00003443 		.word	1127481344
 5869 0124 00008C42 		.word	1116471296
 5870 0128 00004842 		.word	1112014848
 5871 012c 00409C45 		.word	1167867904
 5872 0130 00800444 		.word	1141145600
 5873 0134 00003543 		.word	1127546880
 5874 0138 00803B44 		.word	1144750080
 5875 013c 00005442 		.word	1112801280
 5876 0140 00004844 		.word	1145569280
 5877 0144 0000FA45 		.word	1174011904
 5878 0148 00000843 		.word	1124597760
 5879 014c 00007042 		.word	1114636288
 5880 0150 00004C42 		.word	1112276992
 5881 0154 00008642 		.word	1116078080
 5882 0158 0000B642 		.word	1119223808
 5883 015c 00009642 		.word	1117126656
 5884              		.cfi_endproc
 5885              	.LFE199:
 5887              		.section	.text.Motion_FastestRightTurn,"ax",%progbits
 5888              		.align	1
 5889              		.global	Motion_FastestRightTurn
 5890              		.syntax unified
 5891              		.thumb
 5892              		.thumb_func
 5893              		.fpu fpv4-sp-d16
 5895              	Motion_FastestRightTurn:
 5896              	.LFB200:
1223:Src/motion.c  **** 
1224:Src/motion.c  **** void Motion_FastestRightTurn(uint8_t type, float v_end)
1225:Src/motion.c  **** {
 5897              		.loc 1 1225 0
 5898              		.cfi_startproc
 5899              		@ args = 0, pretend = 0, frame = 0
 5900              		@ frame_needed = 0, uses_anonymous_args = 0
 5901              	.LVL395:
 5902 0000 08B5     		push	{r3, lr}
 5903              	.LCFI102:
 5904              		.cfi_def_cfa_offset 8
 5905              		.cfi_offset 3, -8
 5906              		.cfi_offset 14, -4
1226:Src/motion.c  ****     switch (type)
 5907              		.loc 1 1226 0
 5908 0002 0728     		cmp	r0, #7
 5909 0004 07D8     		bhi	.L359
 5910 0006 DFE800F0 		tbb	[pc, r0]
 5911              	.L362:
 5912 000a 04       		.byte	(.L361-.L362)/2
 5913 000b 2D       		.byte	(.L363-.L362)/2
 5914 000c 53       		.byte	(.L364-.L362)/2
 5915 000d 07       		.byte	(.L365-.L362)/2
ARM GAS  C:\Users\kotaro\AppData\Local\Temp\ccWGe4CN.s 			page 127


 5916 000e 1A       		.byte	(.L366-.L362)/2
 5917 000f 40       		.byte	(.L367-.L362)/2
 5918 0010 66       		.byte	(.L368-.L362)/2
 5919 0011 79       		.byte	(.L369-.L362)/2
 5920              		.p2align 1
 5921              	.L361:
1227:Src/motion.c  ****     {
1228:Src/motion.c  ****     case SEARCH:
1229:Src/motion.c  ****         Motion_FastestRightSearch(); //16.0f, 63.5f, 1200.0f, 1200.0f, 90.0f, 1500.0f, 50000.0f, -1
 5922              		.loc 1 1229 0
 5923 0012 FFF7FEFF 		bl	Motion_FastestRightSearch
 5924              	.LVL396:
 5925              	.L359:
1230:Src/motion.c  ****         break;
1231:Src/motion.c  ****     case T_90:
1232:Src/motion.c  ****         Fastest_Turn(38.0f, 62.0f, 1200.0f, v_end, 90.0f, 600.0f, 20000.0f, -1, 0);
1233:Src/motion.c  ****         break;
1234:Src/motion.c  ****     case T_180:
1235:Src/motion.c  ****         Fastest_Turn(50.0f, 70.0f, 1200.0f, v_end, 180.5f, 745.0f, 20000.0f, -1, 0);
1236:Src/motion.c  ****         break;
1237:Src/motion.c  ****     case T_45IN:
1238:Src/motion.c  ****         Fastest_Turn(30.0f, 50.0f, 800.0f, v_end, 181.0f, 530.0f, 5000.0f, -1, 2);
1239:Src/motion.c  ****         break;
1240:Src/motion.c  ****     case T_45OUT:
1241:Src/motion.c  ****         Fastest_Turn(30.0f, 50.0f, 800.0f, v_end, 181.0f, 530.0f, 5000.0f, -1, 2);
1242:Src/motion.c  ****         break;
1243:Src/motion.c  ****     case T_135IN:
1244:Src/motion.c  ****         Fastest_Turn(41.0f, 40.0f, 800.0f, 800.0f, 136.0f, 600.0f, 8000.0f, -1, 3); //in:41 out:40
1245:Src/motion.c  ****         break;
1246:Src/motion.c  ****     case T_135OUT:
1247:Src/motion.c  ****         Fastest_Turn(25.0f, 57.0f, 800.0f, v_end, 136.0f, 600.0f, 8000.0f, -1, 2);
1248:Src/motion.c  ****         break;
1249:Src/motion.c  ****     case T_V90:
1250:Src/motion.c  ****         Fastest_Turn(35.0f, 60.0f, 800.0f, 800.0f, 91.0f, 800.0f, 20000.0f, -1, 3);
1251:Src/motion.c  ****         break;
1252:Src/motion.c  ****     }
1253:Src/motion.c  **** }...
 5926              		.loc 1 1253 0
 5927 0016 08BD     		pop	{r3, pc}
 5928              	.LVL397:
 5929              	.L365:
1232:Src/motion.c  ****         Fastest_Turn(38.0f, 62.0f, 1200.0f, v_end, 90.0f, 600.0f, 20000.0f, -1, 0);
 5930              		.loc 1 1232 0
 5931 0018 0021     		movs	r1, #0
 5932 001a FF20     		movs	r0, #255
 5933              	.LVL398:
 5934 001c 9FED413A 		vldr.32	s6, .L371
 5935 0020 DFED412A 		vldr.32	s5, .L371+4
 5936 0024 9FED412A 		vldr.32	s4, .L371+8
 5937 0028 F0EE401A 		vmov.f32	s3, s0
 5938 002c 9FED401A 		vldr.32	s2, .L371+12
 5939 0030 DFED400A 		vldr.32	s1, .L371+16
 5940 0034 9FED400A 		vldr.32	s0, .L371+20
 5941              	.LVL399:
 5942 0038 FFF7FEFF 		bl	Fastest_Turn
 5943              	.LVL400:
1233:Src/motion.c  ****         break;
ARM GAS  C:\Users\kotaro\AppData\Local\Temp\ccWGe4CN.s 			page 128


 5944              		.loc 1 1233 0
 5945 003c EBE7     		b	.L359
 5946              	.LVL401:
 5947              	.L366:
1235:Src/motion.c  ****         Fastest_Turn(50.0f, 70.0f, 1200.0f, v_end, 180.5f, 745.0f, 20000.0f, -1, 0);
 5948              		.loc 1 1235 0
 5949 003e 0021     		movs	r1, #0
 5950 0040 FF20     		movs	r0, #255
 5951              	.LVL402:
 5952 0042 9FED383A 		vldr.32	s6, .L371
 5953 0046 DFED3D2A 		vldr.32	s5, .L371+24
 5954 004a 9FED3D2A 		vldr.32	s4, .L371+28
 5955 004e F0EE401A 		vmov.f32	s3, s0
 5956 0052 9FED371A 		vldr.32	s2, .L371+12
 5957 0056 DFED3B0A 		vldr.32	s1, .L371+32
 5958 005a 9FED3B0A 		vldr.32	s0, .L371+36
 5959              	.LVL403:
 5960 005e FFF7FEFF 		bl	Fastest_Turn
 5961              	.LVL404:
1236:Src/motion.c  ****         break;
 5962              		.loc 1 1236 0
 5963 0062 D8E7     		b	.L359
 5964              	.LVL405:
 5965              	.L363:
1238:Src/motion.c  ****         Fastest_Turn(30.0f, 50.0f, 800.0f, v_end, 181.0f, 530.0f, 5000.0f, -1, 2);
 5966              		.loc 1 1238 0
 5967 0064 0221     		movs	r1, #2
 5968 0066 FF20     		movs	r0, #255
 5969              	.LVL406:
 5970 0068 9FED383A 		vldr.32	s6, .L371+40
 5971 006c DFED382A 		vldr.32	s5, .L371+44
 5972 0070 9FED382A 		vldr.32	s4, .L371+48
 5973 0074 F0EE401A 		vmov.f32	s3, s0
 5974 0078 9FED371A 		vldr.32	s2, .L371+52
 5975 007c DFED320A 		vldr.32	s1, .L371+36
 5976 0080 B3EE0E0A 		vmov.f32	s0, #3.0e+1
 5977              	.LVL407:
 5978 0084 FFF7FEFF 		bl	Fastest_Turn
 5979              	.LVL408:
1239:Src/motion.c  ****         break;
 5980              		.loc 1 1239 0
 5981 0088 C5E7     		b	.L359
 5982              	.LVL409:
 5983              	.L367:
1241:Src/motion.c  ****         Fastest_Turn(30.0f, 50.0f, 800.0f, v_end, 181.0f, 530.0f, 5000.0f, -1, 2);
 5984              		.loc 1 1241 0
 5985 008a 0221     		movs	r1, #2
 5986 008c FF20     		movs	r0, #255
 5987              	.LVL410:
 5988 008e 9FED2F3A 		vldr.32	s6, .L371+40
 5989 0092 DFED2F2A 		vldr.32	s5, .L371+44
 5990 0096 9FED2F2A 		vldr.32	s4, .L371+48
 5991 009a F0EE401A 		vmov.f32	s3, s0
 5992 009e 9FED2E1A 		vldr.32	s2, .L371+52
 5993 00a2 DFED290A 		vldr.32	s1, .L371+36
 5994 00a6 B3EE0E0A 		vmov.f32	s0, #3.0e+1
 5995              	.LVL411:
ARM GAS  C:\Users\kotaro\AppData\Local\Temp\ccWGe4CN.s 			page 129


 5996 00aa FFF7FEFF 		bl	Fastest_Turn
 5997              	.LVL412:
1242:Src/motion.c  ****         break;
 5998              		.loc 1 1242 0
 5999 00ae B2E7     		b	.L359
 6000              	.LVL413:
 6001              	.L364:
1244:Src/motion.c  ****         Fastest_Turn(41.0f, 40.0f, 800.0f, 800.0f, 136.0f, 600.0f, 8000.0f, -1, 3); //in:41 out:40
 6002              		.loc 1 1244 0
 6003 00b0 9FED291A 		vldr.32	s2, .L371+52
 6004 00b4 0321     		movs	r1, #3
 6005 00b6 FF20     		movs	r0, #255
 6006              	.LVL414:
 6007 00b8 9FED283A 		vldr.32	s6, .L371+56
 6008 00bc DFED1A2A 		vldr.32	s5, .L371+4
 6009 00c0 9FED272A 		vldr.32	s4, .L371+60
 6010 00c4 F0EE411A 		vmov.f32	s3, s2
 6011 00c8 DFED260A 		vldr.32	s1, .L371+64
 6012 00cc 9FED260A 		vldr.32	s0, .L371+68
 6013              	.LVL415:
 6014 00d0 FFF7FEFF 		bl	Fastest_Turn
 6015              	.LVL416:
1245:Src/motion.c  ****         break;
 6016              		.loc 1 1245 0
 6017 00d4 9FE7     		b	.L359
 6018              	.LVL417:
 6019              	.L368:
1247:Src/motion.c  ****         Fastest_Turn(25.0f, 57.0f, 800.0f, v_end, 136.0f, 600.0f, 8000.0f, -1, 2);
 6020              		.loc 1 1247 0
 6021 00d6 0221     		movs	r1, #2
 6022 00d8 FF20     		movs	r0, #255
 6023              	.LVL418:
 6024 00da 9FED203A 		vldr.32	s6, .L371+56
 6025 00de DFED122A 		vldr.32	s5, .L371+4
 6026 00e2 9FED1F2A 		vldr.32	s4, .L371+60
 6027 00e6 F0EE401A 		vmov.f32	s3, s0
 6028 00ea 9FED1B1A 		vldr.32	s2, .L371+52
 6029 00ee DFED1F0A 		vldr.32	s1, .L371+72
 6030 00f2 B3EE090A 		vmov.f32	s0, #2.5e+1
 6031              	.LVL419:
 6032 00f6 FFF7FEFF 		bl	Fastest_Turn
 6033              	.LVL420:
1248:Src/motion.c  ****         break;
 6034              		.loc 1 1248 0
 6035 00fa 8CE7     		b	.L359
 6036              	.LVL421:
 6037              	.L369:
1250:Src/motion.c  ****         Fastest_Turn(35.0f, 60.0f, 800.0f, 800.0f, 91.0f, 800.0f, 20000.0f, -1, 3);
 6038              		.loc 1 1250 0
 6039 00fc 9FED161A 		vldr.32	s2, .L371+52
 6040 0100 0321     		movs	r1, #3
 6041 0102 FF20     		movs	r0, #255
 6042              	.LVL422:
 6043 0104 9FED073A 		vldr.32	s6, .L371
 6044 0108 F0EE412A 		vmov.f32	s5, s2
 6045 010c 9FED182A 		vldr.32	s4, .L371+76
 6046 0110 F0EE411A 		vmov.f32	s3, s2
ARM GAS  C:\Users\kotaro\AppData\Local\Temp\ccWGe4CN.s 			page 130


 6047 0114 DFED170A 		vldr.32	s1, .L371+80
 6048 0118 9FED170A 		vldr.32	s0, .L371+84
 6049              	.LVL423:
 6050 011c FFF7FEFF 		bl	Fastest_Turn
 6051              	.LVL424:
 6052              		.loc 1 1253 0
 6053 0120 79E7     		b	.L359
 6054              	.L372:
 6055 0122 00BF     		.align	2
 6056              	.L371:
 6057 0124 00409C46 		.word	1184645120
 6058 0128 00001644 		.word	1142292480
 6059 012c 0000B442 		.word	1119092736
 6060 0130 00009644 		.word	1150681088
 6061 0134 00007842 		.word	1115160576
 6062 0138 00001842 		.word	1108869120
 6063 013c 00403A44 		.word	1144668160
 6064 0140 00803443 		.word	1127514112
 6065 0144 00008C42 		.word	1116471296
 6066 0148 00004842 		.word	1112014848
 6067 014c 00409C45 		.word	1167867904
 6068 0150 00800444 		.word	1141145600
 6069 0154 00003543 		.word	1127546880
 6070 0158 00004844 		.word	1145569280
 6071 015c 0000FA45 		.word	1174011904
 6072 0160 00000843 		.word	1124597760
 6073 0164 00002042 		.word	1109393408
 6074 0168 00002442 		.word	1109655552
 6075 016c 00006442 		.word	1113849856
 6076 0170 0000B642 		.word	1119223808
 6077 0174 00007042 		.word	1114636288
 6078 0178 00000C42 		.word	1108082688
 6079              		.cfi_endproc
 6080              	.LFE200:
 6082              		.global	prefront_flag
 6083              		.global	diagonal_step
 6084              		.global	gain_velo
 6085              		.comm	motion_end_flag,1,1
 6086              		.section	.bss.diagonal_step,"aw",%nobits
 6087              		.align	2
 6088              		.set	.LANCHOR2,. + 0
 6091              	diagonal_step:
 6092 0000 00000000 		.space	4
 6093              		.section	.bss.gain_velo,"aw",%nobits
 6094              		.align	2
 6095              		.set	.LANCHOR0,. + 0
 6098              	gain_velo:
 6099 0000 00000000 		.space	4
 6100              		.section	.bss.prefront_flag,"aw",%nobits
 6101              		.align	1
 6102              		.set	.LANCHOR1,. + 0
 6105              	prefront_flag:
 6106 0000 0000     		.space	2
 6107              		.text
 6108              	.Letext0:
 6109              		.file 2 "c:\\program files (x86)\\gnu tools arm embedded\\7 2017-q4-major\\arm-none-eabi\\include\
 6110              		.file 3 "c:\\program files (x86)\\gnu tools arm embedded\\7 2017-q4-major\\arm-none-eabi\\include\
ARM GAS  C:\Users\kotaro\AppData\Local\Temp\ccWGe4CN.s 			page 131


 6111              		.file 4 "Inc/control.h"
 6112              		.file 5 "Drivers/CMSIS/Include/core_cm4.h"
 6113              		.file 6 "Drivers/CMSIS/Device/ST/STM32F4xx/Include/system_stm32f4xx.h"
 6114              		.file 7 "Drivers/CMSIS/Device/ST/STM32F4xx/Include/stm32f405xx.h"
 6115              		.file 8 "c:\\program files (x86)\\gnu tools arm embedded\\7 2017-q4-major\\arm-none-eabi\\include\
 6116              		.file 9 "c:\\program files (x86)\\gnu tools arm embedded\\7 2017-q4-major\\arm-none-eabi\\include\
 6117              		.file 10 "c:\\program files (x86)\\gnu tools arm embedded\\7 2017-q4-major\\lib\\gcc\\arm-none-eab
 6118              		.file 11 "c:\\program files (x86)\\gnu tools arm embedded\\7 2017-q4-major\\arm-none-eabi\\include
 6119              		.file 12 "Drivers/STM32F4xx_HAL_Driver/Inc/stm32f4xx_hal_def.h"
 6120              		.file 13 "Drivers/STM32F4xx_HAL_Driver/Inc/stm32f4xx_hal_dma.h"
 6121              		.file 14 "Drivers/STM32F4xx_HAL_Driver/Inc/stm32f4xx_hal_adc.h"
 6122              		.file 15 "Drivers/STM32F4xx_HAL_Driver/Inc/stm32f4xx_hal_spi.h"
 6123              		.file 16 "Drivers/STM32F4xx_HAL_Driver/Inc/stm32f4xx_hal_tim.h"
 6124              		.file 17 "Inc/tim.h"
 6125              		.file 18 "Inc/spi.h"
 6126              		.file 19 "c:\\program files (x86)\\gnu tools arm embedded\\7 2017-q4-major\\arm-none-eabi\\include
 6127              		.file 20 "Inc/adc.h"
 6128              		.file 21 "Drivers/STM32F4xx_HAL_Driver/Inc/stm32f4xx_hal.h"
ARM GAS  C:\Users\kotaro\AppData\Local\Temp\ccWGe4CN.s 			page 132


DEFINED SYMBOLS
                            *ABS*:00000000 motion.c
C:\Users\kotaro\AppData\Local\Temp\ccWGe4CN.s:18     .text.Motion_MaxVeloSet:00000000 $t
C:\Users\kotaro\AppData\Local\Temp\ccWGe4CN.s:25     .text.Motion_MaxVeloSet:00000000 Motion_MaxVeloSet
C:\Users\kotaro\AppData\Local\Temp\ccWGe4CN.s:42     .text.Motion_MaxVeloSet:00000008 $d
C:\Users\kotaro\AppData\Local\Temp\ccWGe4CN.s:47     .text.Motion_enkai:00000000 $t
C:\Users\kotaro\AppData\Local\Temp\ccWGe4CN.s:54     .text.Motion_enkai:00000000 Motion_enkai
C:\Users\kotaro\AppData\Local\Temp\ccWGe4CN.s:93     .text.Motion_enkai:00000044 $d
C:\Users\kotaro\AppData\Local\Temp\ccWGe4CN.s:98     .text.Motion_TestTurn:00000000 $t
C:\Users\kotaro\AppData\Local\Temp\ccWGe4CN.s:105    .text.Motion_TestTurn:00000000 Motion_TestTurn
C:\Users\kotaro\AppData\Local\Temp\ccWGe4CN.s:180    .text.Motion_TestTurn:00000074 $d
                            *COM*:00000001 motion_end_flag
C:\Users\kotaro\AppData\Local\Temp\ccWGe4CN.s:193    .text.Motion_Start:00000000 $t
C:\Users\kotaro\AppData\Local\Temp\ccWGe4CN.s:200    .text.Motion_Start:00000000 Motion_Start
C:\Users\kotaro\AppData\Local\Temp\ccWGe4CN.s:263    .text.Motion_Start:00000064 $d
C:\Users\kotaro\AppData\Local\Temp\ccWGe4CN.s:274    .text.Motion_Restart:00000000 $t
C:\Users\kotaro\AppData\Local\Temp\ccWGe4CN.s:281    .text.Motion_Restart:00000000 Motion_Restart
C:\Users\kotaro\AppData\Local\Temp\ccWGe4CN.s:512    .text.Motion_Restart:000001cc $d
C:\Users\kotaro\AppData\Local\Temp\ccWGe4CN.s:535    .text.Motion_End:00000000 $t
C:\Users\kotaro\AppData\Local\Temp\ccWGe4CN.s:542    .text.Motion_End:00000000 Motion_End
C:\Users\kotaro\AppData\Local\Temp\ccWGe4CN.s:613    .text.Motion_End:00000074 $d
C:\Users\kotaro\AppData\Local\Temp\ccWGe4CN.s:627    .text.Motion_Straight:00000000 $t
C:\Users\kotaro\AppData\Local\Temp\ccWGe4CN.s:634    .text.Motion_Straight:00000000 Motion_Straight
C:\Users\kotaro\AppData\Local\Temp\ccWGe4CN.s:813    .text.Motion_Straight:00000154 $d
C:\Users\kotaro\AppData\Local\Temp\ccWGe4CN.s:825    .text.Motion_SpinTurn:00000000 $t
C:\Users\kotaro\AppData\Local\Temp\ccWGe4CN.s:832    .text.Motion_SpinTurn:00000000 Motion_SpinTurn
C:\Users\kotaro\AppData\Local\Temp\ccWGe4CN.s:988    .text.Motion_SpinTurn:00000140 $d
C:\Users\kotaro\AppData\Local\Temp\ccWGe4CN.s:1006   .text.Motion_WallSpinTurn:00000000 $t
C:\Users\kotaro\AppData\Local\Temp\ccWGe4CN.s:1013   .text.Motion_WallSpinTurn:00000000 Motion_WallSpinTurn
C:\Users\kotaro\AppData\Local\Temp\ccWGe4CN.s:1242   .text.Motion_WallSpinTurn:000001d4 $d
C:\Users\kotaro\AppData\Local\Temp\ccWGe4CN.s:1265   .text.Motion_LeftTurn:00000000 $t
C:\Users\kotaro\AppData\Local\Temp\ccWGe4CN.s:1272   .text.Motion_LeftTurn:00000000 Motion_LeftTurn
C:\Users\kotaro\AppData\Local\Temp\ccWGe4CN.s:1417   .text.Motion_LeftTurn:00000118 $d
C:\Users\kotaro\AppData\Local\Temp\ccWGe4CN.s:1434   .text.Motion_RightTurn:00000000 $t
C:\Users\kotaro\AppData\Local\Temp\ccWGe4CN.s:1441   .text.Motion_RightTurn:00000000 Motion_RightTurn
C:\Users\kotaro\AppData\Local\Temp\ccWGe4CN.s:1586   .text.Motion_RightTurn:00000118 $d
C:\Users\kotaro\AppData\Local\Temp\ccWGe4CN.s:1604   .text.Motion_Switch:00000000 $t
C:\Users\kotaro\AppData\Local\Temp\ccWGe4CN.s:1611   .text.Motion_Switch:00000000 Motion_Switch
C:\Users\kotaro\AppData\Local\Temp\ccWGe4CN.s:1629   .text.Motion_Switch:0000000e $d
C:\Users\kotaro\AppData\Local\Temp\ccWGe4CN.s:1683   .text.Motion_Switch:0000003c $d
C:\Users\kotaro\AppData\Local\Temp\ccWGe4CN.s:1688   .text.Motion_FastStart:00000000 $t
C:\Users\kotaro\AppData\Local\Temp\ccWGe4CN.s:1695   .text.Motion_FastStart:00000000 Motion_FastStart
C:\Users\kotaro\AppData\Local\Temp\ccWGe4CN.s:1787   .text.Motion_FastStart:000000ac $d
C:\Users\kotaro\AppData\Local\Temp\ccWGe4CN.s:1802   .text.Motion_FastStraight:00000000 $t
C:\Users\kotaro\AppData\Local\Temp\ccWGe4CN.s:1809   .text.Motion_FastStraight:00000000 Motion_FastStraight
C:\Users\kotaro\AppData\Local\Temp\ccWGe4CN.s:1881   .text.Motion_FastStraight:00000088 $d
C:\Users\kotaro\AppData\Local\Temp\ccWGe4CN.s:1893   .text.Motion_Adjust:00000000 $t
C:\Users\kotaro\AppData\Local\Temp\ccWGe4CN.s:1900   .text.Motion_Adjust:00000000 Motion_Adjust
C:\Users\kotaro\AppData\Local\Temp\ccWGe4CN.s:2005   .text.Motion_Adjust:000000c4 $d
C:\Users\kotaro\AppData\Local\Temp\ccWGe4CN.s:2017   .text.Motion_Adjust_L:00000000 $t
C:\Users\kotaro\AppData\Local\Temp\ccWGe4CN.s:2024   .text.Motion_Adjust_L:00000000 Motion_Adjust_L
C:\Users\kotaro\AppData\Local\Temp\ccWGe4CN.s:2127   .text.Motion_Adjust_L:000000b8 $d
C:\Users\kotaro\AppData\Local\Temp\ccWGe4CN.s:2139   .text.Motion_Adjust_R:00000000 $t
C:\Users\kotaro\AppData\Local\Temp\ccWGe4CN.s:2146   .text.Motion_Adjust_R:00000000 Motion_Adjust_R
C:\Users\kotaro\AppData\Local\Temp\ccWGe4CN.s:2249   .text.Motion_Adjust_R:000000b8 $d
C:\Users\kotaro\AppData\Local\Temp\ccWGe4CN.s:2261   .text.Motion_FastGoal:00000000 $t
C:\Users\kotaro\AppData\Local\Temp\ccWGe4CN.s:2268   .text.Motion_FastGoal:00000000 Motion_FastGoal
ARM GAS  C:\Users\kotaro\AppData\Local\Temp\ccWGe4CN.s 			page 133


C:\Users\kotaro\AppData\Local\Temp\ccWGe4CN.s:2364   .text.Motion_FastGoal:000000ac $d
C:\Users\kotaro\AppData\Local\Temp\ccWGe4CN.s:2378   .text.Motion_Diagonal:00000000 $t
C:\Users\kotaro\AppData\Local\Temp\ccWGe4CN.s:2385   .text.Motion_Diagonal:00000000 Motion_Diagonal
C:\Users\kotaro\AppData\Local\Temp\ccWGe4CN.s:2441   .text.Motion_Diagonal:00000068 $d
C:\Users\kotaro\AppData\Local\Temp\ccWGe4CN.s:2451   .text.Motion_DiagonalLeft:00000000 $t
C:\Users\kotaro\AppData\Local\Temp\ccWGe4CN.s:2458   .text.Motion_DiagonalLeft:00000000 Motion_DiagonalLeft
C:\Users\kotaro\AppData\Local\Temp\ccWGe4CN.s:2576   .text.Motion_DiagonalLeft:000000f0 $d
C:\Users\kotaro\AppData\Local\Temp\ccWGe4CN.s:2589   .text.Motion_DiagonalRight:00000000 $t
C:\Users\kotaro\AppData\Local\Temp\ccWGe4CN.s:2596   .text.Motion_DiagonalRight:00000000 Motion_DiagonalRight
C:\Users\kotaro\AppData\Local\Temp\ccWGe4CN.s:2713   .text.Motion_DiagonalRight:000000ec $d
C:\Users\kotaro\AppData\Local\Temp\ccWGe4CN.s:2726   .text.Motion_DiagonalStart:00000000 $t
C:\Users\kotaro\AppData\Local\Temp\ccWGe4CN.s:2733   .text.Motion_DiagonalStart:00000000 Motion_DiagonalStart
C:\Users\kotaro\AppData\Local\Temp\ccWGe4CN.s:2799   .text.Motion_DiagonalStart:00000068 $d
C:\Users\kotaro\AppData\Local\Temp\ccWGe4CN.s:2811   .text.Motion_DiagonalStop:00000000 $t
C:\Users\kotaro\AppData\Local\Temp\ccWGe4CN.s:2818   .text.Motion_DiagonalStop:00000000 Motion_DiagonalStop
C:\Users\kotaro\AppData\Local\Temp\ccWGe4CN.s:2895   .text.Motion_DiagonalStop:00000080 $d
C:\Users\kotaro\AppData\Local\Temp\ccWGe4CN.s:2909   .text.Motion_InLeft45Turn:00000000 $t
C:\Users\kotaro\AppData\Local\Temp\ccWGe4CN.s:2916   .text.Motion_InLeft45Turn:00000000 Motion_InLeft45Turn
C:\Users\kotaro\AppData\Local\Temp\ccWGe4CN.s:3040   .text.Motion_InLeft45Turn:00000104 $d
C:\Users\kotaro\AppData\Local\Temp\ccWGe4CN.s:3057   .text.Motion_InRight45Turn:00000000 $t
C:\Users\kotaro\AppData\Local\Temp\ccWGe4CN.s:3064   .text.Motion_InRight45Turn:00000000 Motion_InRight45Turn
C:\Users\kotaro\AppData\Local\Temp\ccWGe4CN.s:3188   .text.Motion_InRight45Turn:00000104 $d
C:\Users\kotaro\AppData\Local\Temp\ccWGe4CN.s:3205   .text.Motion_OutLeft45Turn:00000000 $t
C:\Users\kotaro\AppData\Local\Temp\ccWGe4CN.s:3212   .text.Motion_OutLeft45Turn:00000000 Motion_OutLeft45Turn
C:\Users\kotaro\AppData\Local\Temp\ccWGe4CN.s:3403   .text.Motion_OutLeft45Turn:00000178 $d
C:\Users\kotaro\AppData\Local\Temp\ccWGe4CN.s:3423   .text.Motion_OutRight45Turn:00000000 $t
C:\Users\kotaro\AppData\Local\Temp\ccWGe4CN.s:3430   .text.Motion_OutRight45Turn:00000000 Motion_OutRight45Turn
C:\Users\kotaro\AppData\Local\Temp\ccWGe4CN.s:3621   .text.Motion_OutRight45Turn:00000178 $d
C:\Users\kotaro\AppData\Local\Temp\ccWGe4CN.s:3641   .text.Motion_Left90Turn:00000000 $t
C:\Users\kotaro\AppData\Local\Temp\ccWGe4CN.s:3648   .text.Motion_Left90Turn:00000000 Motion_Left90Turn
C:\Users\kotaro\AppData\Local\Temp\ccWGe4CN.s:3835   .text.Motion_Left90Turn:00000170 $d
C:\Users\kotaro\AppData\Local\Temp\ccWGe4CN.s:3855   .text.Motion_Right90Turn:00000000 $t
C:\Users\kotaro\AppData\Local\Temp\ccWGe4CN.s:3862   .text.Motion_Right90Turn:00000000 Motion_Right90Turn
C:\Users\kotaro\AppData\Local\Temp\ccWGe4CN.s:4049   .text.Motion_Right90Turn:00000170 $d
C:\Users\kotaro\AppData\Local\Temp\ccWGe4CN.s:4069   .text.Turn:00000000 $t
C:\Users\kotaro\AppData\Local\Temp\ccWGe4CN.s:4076   .text.Turn:00000000 Turn
C:\Users\kotaro\AppData\Local\Temp\ccWGe4CN.s:4341   .text.Turn:000001fc $d
C:\Users\kotaro\AppData\Local\Temp\ccWGe4CN.s:4359   .text.Motion_FastLeftTurn:00000000 $t
C:\Users\kotaro\AppData\Local\Temp\ccWGe4CN.s:4366   .text.Motion_FastLeftTurn:00000000 Motion_FastLeftTurn
C:\Users\kotaro\AppData\Local\Temp\ccWGe4CN.s:4383   .text.Motion_FastLeftTurn:0000000a $d
C:\Users\kotaro\AppData\Local\Temp\ccWGe4CN.s:4391   .text.Motion_FastLeftTurn:00000012 $t
C:\Users\kotaro\AppData\Local\Temp\ccWGe4CN.s:4510   .text.Motion_FastLeftTurn:000000dc $d
C:\Users\kotaro\AppData\Local\Temp\ccWGe4CN.s:4531   .text.Motion_FastRightTurn:00000000 $t
C:\Users\kotaro\AppData\Local\Temp\ccWGe4CN.s:4538   .text.Motion_FastRightTurn:00000000 Motion_FastRightTurn
C:\Users\kotaro\AppData\Local\Temp\ccWGe4CN.s:4555   .text.Motion_FastRightTurn:0000000a $d
C:\Users\kotaro\AppData\Local\Temp\ccWGe4CN.s:4563   .text.Motion_FastRightTurn:00000012 $t
C:\Users\kotaro\AppData\Local\Temp\ccWGe4CN.s:4682   .text.Motion_FastRightTurn:000000dc $d
C:\Users\kotaro\AppData\Local\Temp\ccWGe4CN.s:4701   .text.Motion_FastestStart:00000000 $t
C:\Users\kotaro\AppData\Local\Temp\ccWGe4CN.s:4708   .text.Motion_FastestStart:00000000 Motion_FastestStart
C:\Users\kotaro\AppData\Local\Temp\ccWGe4CN.s:4810   .text.Motion_FastestStart:000000ac $d
C:\Users\kotaro\AppData\Local\Temp\ccWGe4CN.s:4825   .text.Motion_FastestStraight:00000000 $t
C:\Users\kotaro\AppData\Local\Temp\ccWGe4CN.s:4832   .text.Motion_FastestStraight:00000000 Motion_FastestStraight
C:\Users\kotaro\AppData\Local\Temp\ccWGe4CN.s:4904   .text.Motion_FastestStraight:00000088 $d
C:\Users\kotaro\AppData\Local\Temp\ccWGe4CN.s:4916   .text.Motion_FastestGoal:00000000 $t
C:\Users\kotaro\AppData\Local\Temp\ccWGe4CN.s:4923   .text.Motion_FastestGoal:00000000 Motion_FastestGoal
C:\Users\kotaro\AppData\Local\Temp\ccWGe4CN.s:5030   .text.Motion_FastestGoal:000000b8 $d
C:\Users\kotaro\AppData\Local\Temp\ccWGe4CN.s:5044   .text.Motion_FastestAdjust_L:00000000 $t
ARM GAS  C:\Users\kotaro\AppData\Local\Temp\ccWGe4CN.s 			page 134


C:\Users\kotaro\AppData\Local\Temp\ccWGe4CN.s:5051   .text.Motion_FastestAdjust_L:00000000 Motion_FastestAdjust_L
C:\Users\kotaro\AppData\Local\Temp\ccWGe4CN.s:5137   .text.Motion_FastestAdjust_L:000000a4 $d
C:\Users\kotaro\AppData\Local\Temp\ccWGe4CN.s:5148   .text.Motion_FastestAdjust_R:00000000 $t
C:\Users\kotaro\AppData\Local\Temp\ccWGe4CN.s:5155   .text.Motion_FastestAdjust_R:00000000 Motion_FastestAdjust_R
C:\Users\kotaro\AppData\Local\Temp\ccWGe4CN.s:5241   .text.Motion_FastestAdjust_R:000000a4 $d
C:\Users\kotaro\AppData\Local\Temp\ccWGe4CN.s:5252   .text.Fastest_Turn:00000000 $t
C:\Users\kotaro\AppData\Local\Temp\ccWGe4CN.s:5259   .text.Fastest_Turn:00000000 Fastest_Turn
C:\Users\kotaro\AppData\Local\Temp\ccWGe4CN.s:5409   .text.Fastest_Turn:00000114 $d
C:\Users\kotaro\AppData\Local\Temp\ccWGe4CN.s:5420   .text.Motion_FastestLeftSearch:00000000 $t
C:\Users\kotaro\AppData\Local\Temp\ccWGe4CN.s:5427   .text.Motion_FastestLeftSearch:00000000 Motion_FastestLeftSearch
C:\Users\kotaro\AppData\Local\Temp\ccWGe4CN.s:5548   .text.Motion_FastestLeftSearch:000000fc $d
C:\Users\kotaro\AppData\Local\Temp\ccWGe4CN.s:5562   .text.Motion_FastestRightSearch:00000000 $t
C:\Users\kotaro\AppData\Local\Temp\ccWGe4CN.s:5569   .text.Motion_FastestRightSearch:00000000 Motion_FastestRightSearch
C:\Users\kotaro\AppData\Local\Temp\ccWGe4CN.s:5690   .text.Motion_FastestRightSearch:000000fc $d
C:\Users\kotaro\AppData\Local\Temp\ccWGe4CN.s:5703   .text.Motion_FastestLeftTurn:00000000 $t
C:\Users\kotaro\AppData\Local\Temp\ccWGe4CN.s:5710   .text.Motion_FastestLeftTurn:00000000 Motion_FastestLeftTurn
C:\Users\kotaro\AppData\Local\Temp\ccWGe4CN.s:5727   .text.Motion_FastestLeftTurn:0000000a $d
C:\Users\kotaro\AppData\Local\Temp\ccWGe4CN.s:5735   .text.Motion_FastestLeftTurn:00000012 $t
C:\Users\kotaro\AppData\Local\Temp\ccWGe4CN.s:5861   .text.Motion_FastestLeftTurn:00000104 $d
C:\Users\kotaro\AppData\Local\Temp\ccWGe4CN.s:5888   .text.Motion_FastestRightTurn:00000000 $t
C:\Users\kotaro\AppData\Local\Temp\ccWGe4CN.s:5895   .text.Motion_FastestRightTurn:00000000 Motion_FastestRightTurn
C:\Users\kotaro\AppData\Local\Temp\ccWGe4CN.s:5912   .text.Motion_FastestRightTurn:0000000a $d
C:\Users\kotaro\AppData\Local\Temp\ccWGe4CN.s:5920   .text.Motion_FastestRightTurn:00000012 $t
C:\Users\kotaro\AppData\Local\Temp\ccWGe4CN.s:6057   .text.Motion_FastestRightTurn:00000124 $d
C:\Users\kotaro\AppData\Local\Temp\ccWGe4CN.s:6105   .bss.prefront_flag:00000000 prefront_flag
C:\Users\kotaro\AppData\Local\Temp\ccWGe4CN.s:6091   .bss.diagonal_step:00000000 diagonal_step
C:\Users\kotaro\AppData\Local\Temp\ccWGe4CN.s:6098   .bss.gain_velo:00000000 gain_velo
C:\Users\kotaro\AppData\Local\Temp\ccWGe4CN.s:6087   .bss.diagonal_step:00000000 $d
C:\Users\kotaro\AppData\Local\Temp\ccWGe4CN.s:6094   .bss.gain_velo:00000000 $d
C:\Users\kotaro\AppData\Local\Temp\ccWGe4CN.s:6101   .bss.prefront_flag:00000000 $d
C:\Users\kotaro\AppData\Local\Temp\ccWGe4CN.s:1634   .text.Motion_Switch:00000013 $d
C:\Users\kotaro\AppData\Local\Temp\ccWGe4CN.s:1634   .text.Motion_Switch:00000014 $t

UNDEFINED SYMBOLS
Control_ResetVelo
Control_StrCalculator
Control_AngCalculator
HAL_Delay
straight
angle
error_ang_sum
error_ang_old
enc
front_wall_flag
Control_EdgeSet
sen_front
motor_flag
sen_l
sen_r
control_wall_flag
