ARM GAS  C:\Users\kotaro\AppData\Local\Temp\cc2MmsOy.s 			page 1


   1              		.cpu cortex-m4
   2              		.eabi_attribute 27, 1
   3              		.eabi_attribute 28, 1
   4              		.eabi_attribute 20, 1
   5              		.eabi_attribute 21, 1
   6              		.eabi_attribute 23, 3
   7              		.eabi_attribute 24, 1
   8              		.eabi_attribute 25, 1
   9              		.eabi_attribute 26, 1
  10              		.eabi_attribute 30, 1
  11              		.eabi_attribute 34, 1
  12              		.eabi_attribute 18, 4
  13              		.file	"motion.c"
  14              		.text
  15              	.Ltext0:
  16              		.cfi_sections	.debug_frame
  17              		.section	.text.Motion_MaxVeloSet,"ax",%progbits
  18              		.align	1
  19              		.global	Motion_MaxVeloSet
  20              		.syntax unified
  21              		.thumb
  22              		.thumb_func
  23              		.fpu fpv4-sp-d16
  25              	Motion_MaxVeloSet:
  26              	.LFB159:
  27              		.file 1 "Src/motion.c"
   1:Src/motion.c  **** #include "motion.h"
   2:Src/motion.c  **** #include "stdint.h"
   3:Src/motion.c  **** #include "control.h"
   4:Src/motion.c  **** #include "tim.h"
   5:Src/motion.c  **** #include "spi.h"
   6:Src/motion.c  **** #include "MazeCon.h"
   7:Src/motion.c  **** #include "arm_math.h"
   8:Src/motion.c  **** #include "adc.h"
   9:Src/motion.c  **** 
  10:Src/motion.c  **** #define TRUE 1
  11:Src/motion.c  **** #define FALSE 0
  12:Src/motion.c  **** 
  13:Src/motion.c  **** #define VELO_ANG_B 380.0f
  14:Src/motion.c  **** #define ACCEL_ANG_B 4000.0f
  15:Src/motion.c  **** 
  16:Src/motion.c  **** #define OFFSET_IN 31.0f
  17:Src/motion.c  **** #define OFFSET_OUT 47.0f
  18:Src/motion.c  **** 
  19:Src/motion.c  **** #define OFFSET_SEN 135
  20:Src/motion.c  **** 
  21:Src/motion.c  **** extern enc_t enc;
  22:Src/motion.c  **** extern volatile uint8_t motor_flag;
  23:Src/motion.c  **** extern target_t straight, angle;
  24:Src/motion.c  **** extern volatile accel_t accel;
  25:Src/motion.c  **** extern sensor_t sen_front;
  26:Src/motion.c  **** extern sensor_t sen_l;
  27:Src/motion.c  **** extern sensor_t sen_r;
  28:Src/motion.c  **** extern int16_t sen_front_reference_f;
  29:Src/motion.c  **** 
  30:Src/motion.c  **** extern float error_sum;
  31:Src/motion.c  **** extern float error_old;
ARM GAS  C:\Users\kotaro\AppData\Local\Temp\cc2MmsOy.s 			page 2


  32:Src/motion.c  **** 
  33:Src/motion.c  **** extern float error_ang_sum;
  34:Src/motion.c  **** extern float error_ang_old;
  35:Src/motion.c  **** 
  36:Src/motion.c  **** extern volatile uint8_t control_wall_flag;
  37:Src/motion.c  **** 
  38:Src/motion.c  **** extern volatile uint8_t front_wall_flag;
  39:Src/motion.c  **** 
  40:Src/motion.c  **** volatile uint8_t motion_end_flag;
  41:Src/motion.c  **** float gain_velo = 0;
  42:Src/motion.c  **** float diagonal_step = 0;
  43:Src/motion.c  **** uint16_t prefront_flag = 0;
  44:Src/motion.c  **** 
  45:Src/motion.c  **** void Motion_MaxVeloSet(float gain)
  46:Src/motion.c  **** {
  28              		.loc 1 46 0
  29              		.cfi_startproc
  30              		@ args = 0, pretend = 0, frame = 0
  31              		@ frame_needed = 0, uses_anonymous_args = 0
  32              		@ link register save eliminated.
  33              	.LVL0:
  47:Src/motion.c  ****     //0~160
  48:Src/motion.c  ****     gain_velo = gain;
  34              		.loc 1 48 0
  35 0000 014B     		ldr	r3, .L2
  36 0002 83ED000A 		vstr.32	s0, [r3]
  49:Src/motion.c  **** }
  37              		.loc 1 49 0
  38 0006 7047     		bx	lr
  39              	.L3:
  40              		.align	2
  41              	.L2:
  42 0008 00000000 		.word	.LANCHOR0
  43              		.cfi_endproc
  44              	.LFE159:
  46              		.section	.text.Motion_enkai,"ax",%progbits
  47              		.align	1
  48              		.global	Motion_enkai
  49              		.syntax unified
  50              		.thumb
  51              		.thumb_func
  52              		.fpu fpv4-sp-d16
  54              	Motion_enkai:
  55              	.LFB160:
  50:Src/motion.c  **** 
  51:Src/motion.c  **** void Motion_enkai(void)
  52:Src/motion.c  **** {
  56              		.loc 1 52 0
  57              		.cfi_startproc
  58              		@ Volatile: function does not return.
  59              		@ args = 0, pretend = 0, frame = 0
  60              		@ frame_needed = 0, uses_anonymous_args = 0
  61 0000 08B5     		push	{r3, lr}
  62              	.LCFI0:
  63              		.cfi_def_cfa_offset 8
  64              		.cfi_offset 3, -8
  65              		.cfi_offset 14, -4
ARM GAS  C:\Users\kotaro\AppData\Local\Temp\cc2MmsOy.s 			page 3


  53:Src/motion.c  ****     Control_ResetVelo();
  66              		.loc 1 53 0
  67 0002 FFF7FEFF 		bl	Control_ResetVelo
  68              	.LVL1:
  54:Src/motion.c  ****     Control_StrCalculator(0, 0, 0, 0, 1, 0);
  69              		.loc 1 54 0
  70 0006 9FED0F8A 		vldr.32	s16, .L7
  71 000a F0EE482A 		vmov.f32	s5, s16
  72 000e B7EE002A 		vmov.f32	s4, #1.0e+0
  73 0012 F0EE481A 		vmov.f32	s3, s16
  74 0016 B0EE481A 		vmov.f32	s2, s16
  75 001a F0EE480A 		vmov.f32	s1, s16
  76 001e B0EE480A 		vmov.f32	s0, s16
  77 0022 FFF7FEFF 		bl	Control_StrCalculator
  78              	.LVL2:
  55:Src/motion.c  ****     Control_AngCalculator(0, 0, 0, 0, 1, 0);
  79              		.loc 1 55 0
  80 0026 F0EE482A 		vmov.f32	s5, s16
  81 002a B7EE002A 		vmov.f32	s4, #1.0e+0
  82 002e F0EE481A 		vmov.f32	s3, s16
  83 0032 B0EE481A 		vmov.f32	s2, s16
  84 0036 F0EE480A 		vmov.f32	s1, s16
  85 003a B0EE480A 		vmov.f32	s0, s16
  86 003e FFF7FEFF 		bl	Control_AngCalculator
  87              	.LVL3:
  88              	.L5:
  89 0042 FEE7     		b	.L5
  90              	.L8:
  91              		.align	2
  92              	.L7:
  93 0044 00000000 		.word	0
  94              		.cfi_endproc
  95              	.LFE160:
  97              		.section	.text.Motion_TestTurn,"ax",%progbits
  98              		.align	1
  99              		.global	Motion_TestTurn
 100              		.syntax unified
 101              		.thumb
 102              		.thumb_func
 103              		.fpu fpv4-sp-d16
 105              	Motion_TestTurn:
 106              	.LFB161:
  56:Src/motion.c  ****     while (1)
  57:Src/motion.c  ****     {
  58:Src/motion.c  ****     }
  59:Src/motion.c  **** }
  60:Src/motion.c  **** 
  61:Src/motion.c  **** void Motion_TestTurn(void)
  62:Src/motion.c  **** {
 107              		.loc 1 62 0
 108              		.cfi_startproc
 109              		@ args = 0, pretend = 0, frame = 0
 110              		@ frame_needed = 0, uses_anonymous_args = 0
 111 0000 08B5     		push	{r3, lr}
 112              	.LCFI1:
 113              		.cfi_def_cfa_offset 8
 114              		.cfi_offset 3, -8
ARM GAS  C:\Users\kotaro\AppData\Local\Temp\cc2MmsOy.s 			page 4


 115              		.cfi_offset 14, -4
 116 0002 2DED028B 		vpush.64	{d8}
 117              	.LCFI2:
 118              		.cfi_def_cfa_offset 16
 119              		.cfi_offset 80, -16
 120              		.cfi_offset 81, -12
  63:Src/motion.c  ****     Control_ResetVelo();
 121              		.loc 1 63 0
 122 0006 FFF7FEFF 		bl	Control_ResetVelo
 123              	.LVL4:
  64:Src/motion.c  ****     Control_StrCalculator(0, 0, 0, 0, 1, 0);
 124              		.loc 1 64 0
 125 000a 9FED1A8A 		vldr.32	s16, .L12
 126 000e F0EE482A 		vmov.f32	s5, s16
 127 0012 B7EE002A 		vmov.f32	s4, #1.0e+0
 128 0016 F0EE481A 		vmov.f32	s3, s16
 129 001a B0EE481A 		vmov.f32	s2, s16
 130 001e F0EE480A 		vmov.f32	s1, s16
 131 0022 B0EE480A 		vmov.f32	s0, s16
 132 0026 FFF7FEFF 		bl	Control_StrCalculator
 133              	.LVL5:
  65:Src/motion.c  ****     Control_AngCalculator(187.0f, 0.0f, VELO_ANG_S, 0.0f, ACCEL_ANG_S, 1);
 134              		.loc 1 65 0
 135 002a F7EE002A 		vmov.f32	s5, #1.0e+0
 136 002e 9FED122A 		vldr.32	s4, .L12+4
 137 0032 F0EE481A 		vmov.f32	s3, s16
 138 0036 9FED111A 		vldr.32	s2, .L12+8
 139 003a F0EE480A 		vmov.f32	s1, s16
 140 003e 9FED100A 		vldr.32	s0, .L12+12
 141 0042 FFF7FEFF 		bl	Control_AngCalculator
 142              	.LVL6:
  66:Src/motion.c  ****     motion_end_flag = FALSE;
 143              		.loc 1 66 0
 144 0046 0F4B     		ldr	r3, .L12+16
 145 0048 0022     		movs	r2, #0
 146 004a 1A70     		strb	r2, [r3]
 147              	.L10:
  67:Src/motion.c  ****     while (motion_end_flag == FALSE)
 148              		.loc 1 67 0 discriminator 1
 149 004c 0D4B     		ldr	r3, .L12+16
 150 004e 1B78     		ldrb	r3, [r3]	@ zero_extendqisi2
 151 0050 002B     		cmp	r3, #0
 152 0052 FBD0     		beq	.L10
  68:Src/motion.c  ****     {
  69:Src/motion.c  ****     }
  70:Src/motion.c  ****     straight.v_now = 0;
 153              		.loc 1 70 0
 154 0054 0023     		movs	r3, #0
 155 0056 0C4A     		ldr	r2, .L12+20
 156 0058 D360     		str	r3, [r2, #12]	@ float
  71:Src/motion.c  ****     angle.v_now = 0;
 157              		.loc 1 71 0
 158 005a 0C4A     		ldr	r2, .L12+24
 159 005c D360     		str	r3, [r2, #12]	@ float
  72:Src/motion.c  ****     error_ang_sum = 0.0f;
 160              		.loc 1 72 0
 161 005e 0C4A     		ldr	r2, .L12+28
ARM GAS  C:\Users\kotaro\AppData\Local\Temp\cc2MmsOy.s 			page 5


 162 0060 1360     		str	r3, [r2]	@ float
  73:Src/motion.c  ****     error_ang_old = 0.0f;
 163              		.loc 1 73 0
 164 0062 0C4A     		ldr	r2, .L12+32
 165 0064 1360     		str	r3, [r2]	@ float
  74:Src/motion.c  ****     //Tim_MotorPwm(0, 0);
  75:Src/motion.c  ****     HAL_Delay(800);
 166              		.loc 1 75 0
 167 0066 4FF44870 		mov	r0, #800
 168 006a FFF7FEFF 		bl	HAL_Delay
 169              	.LVL7:
  76:Src/motion.c  **** }
 170              		.loc 1 76 0
 171 006e BDEC028B 		vldm	sp!, {d8}
 172              	.LCFI3:
 173              		.cfi_restore 80
 174              		.cfi_restore 81
 175              		.cfi_def_cfa_offset 8
 176 0072 08BD     		pop	{r3, pc}
 177              	.L13:
 178              		.align	2
 179              	.L12:
 180 0074 00000000 		.word	0
 181 0078 0000FA45 		.word	1174011904
 182 007c 0000C843 		.word	1137180672
 183 0080 00003B43 		.word	1127940096
 184 0084 00000000 		.word	motion_end_flag
 185 0088 00000000 		.word	straight
 186 008c 00000000 		.word	angle
 187 0090 00000000 		.word	error_ang_sum
 188 0094 00000000 		.word	error_ang_old
 189              		.cfi_endproc
 190              	.LFE161:
 192              		.section	.text.Motion_Start,"ax",%progbits
 193              		.align	1
 194              		.global	Motion_Start
 195              		.syntax unified
 196              		.thumb
 197              		.thumb_func
 198              		.fpu fpv4-sp-d16
 200              	Motion_Start:
 201              	.LFB162:
  77:Src/motion.c  **** 
  78:Src/motion.c  **** void Motion_Start(void)
  79:Src/motion.c  **** {
 202              		.loc 1 79 0
 203              		.cfi_startproc
 204              		@ args = 0, pretend = 0, frame = 0
 205              		@ frame_needed = 0, uses_anonymous_args = 0
 206 0000 08B5     		push	{r3, lr}
 207              	.LCFI4:
 208              		.cfi_def_cfa_offset 8
 209              		.cfi_offset 3, -8
 210              		.cfi_offset 14, -4
 211 0002 2DED028B 		vpush.64	{d8}
 212              	.LCFI5:
 213              		.cfi_def_cfa_offset 16
ARM GAS  C:\Users\kotaro\AppData\Local\Temp\cc2MmsOy.s 			page 6


 214              		.cfi_offset 80, -16
 215              		.cfi_offset 81, -12
  80:Src/motion.c  ****     Control_ResetVelo();
 216              		.loc 1 80 0
 217 0006 FFF7FEFF 		bl	Control_ResetVelo
 218              	.LVL8:
  81:Src/motion.c  ****     Control_StrCalculator(130.0f, 0.0f, VELO_S, VELO_S, ACCEL_S, 1);
 219              		.loc 1 81 0
 220 000a 9FED171A 		vldr.32	s2, .L17
 221 000e 9FED178A 		vldr.32	s16, .L17+4
 222 0012 F7EE002A 		vmov.f32	s5, #1.0e+0
 223 0016 9FED162A 		vldr.32	s4, .L17+8
 224 001a F0EE411A 		vmov.f32	s3, s2
 225 001e F0EE480A 		vmov.f32	s1, s16
 226 0022 9FED140A 		vldr.32	s0, .L17+12
 227 0026 FFF7FEFF 		bl	Control_StrCalculator
 228              	.LVL9:
  82:Src/motion.c  ****     Control_AngCalculator(0, 0, 0, 0, 1, 0);
 229              		.loc 1 82 0
 230 002a F0EE482A 		vmov.f32	s5, s16
 231 002e B7EE002A 		vmov.f32	s4, #1.0e+0
 232 0032 F0EE481A 		vmov.f32	s3, s16
 233 0036 B0EE481A 		vmov.f32	s2, s16
 234 003a F0EE480A 		vmov.f32	s1, s16
 235 003e B0EE480A 		vmov.f32	s0, s16
 236 0042 FFF7FEFF 		bl	Control_AngCalculator
 237              	.LVL10:
  83:Src/motion.c  ****     motion_end_flag = FALSE;
 238              		.loc 1 83 0
 239 0046 0C4B     		ldr	r3, .L17+16
 240 0048 0022     		movs	r2, #0
 241 004a 1A70     		strb	r2, [r3]
 242              	.L15:
  84:Src/motion.c  ****     while (motion_end_flag == FALSE)
 243              		.loc 1 84 0 discriminator 1
 244 004c 0A4B     		ldr	r3, .L17+16
 245 004e 1B78     		ldrb	r3, [r3]	@ zero_extendqisi2
 246 0050 002B     		cmp	r3, #0
 247 0052 FBD0     		beq	.L15
  85:Src/motion.c  ****     {
  86:Src/motion.c  ****     }
  87:Src/motion.c  ****     enc.offset = 0.0f;
 248              		.loc 1 87 0
 249 0054 094B     		ldr	r3, .L17+20
 250 0056 0022     		movs	r2, #0
 251 0058 9A60     		str	r2, [r3, #8]	@ float
  88:Src/motion.c  ****     prefront_flag = TRUE;
 252              		.loc 1 88 0
 253 005a 094B     		ldr	r3, .L17+24
 254 005c 0122     		movs	r2, #1
 255 005e 1A80     		strh	r2, [r3]	@ movhi
  89:Src/motion.c  **** }
 256              		.loc 1 89 0
 257 0060 BDEC028B 		vldm	sp!, {d8}
 258              	.LCFI6:
 259              		.cfi_restore 80
 260              		.cfi_restore 81
ARM GAS  C:\Users\kotaro\AppData\Local\Temp\cc2MmsOy.s 			page 7


 261              		.cfi_def_cfa_offset 8
 262 0064 08BD     		pop	{r3, pc}
 263              	.L18:
 264 0066 00BF     		.align	2
 265              	.L17:
 266 0068 0000C843 		.word	1137180672
 267 006c 00000000 		.word	0
 268 0070 00007A45 		.word	1165623296
 269 0074 00000243 		.word	1124204544
 270 0078 00000000 		.word	motion_end_flag
 271 007c 00000000 		.word	enc
 272 0080 00000000 		.word	.LANCHOR1
 273              		.cfi_endproc
 274              	.LFE162:
 276              		.section	.text.Motion_Restart,"ax",%progbits
 277              		.align	1
 278              		.global	Motion_Restart
 279              		.syntax unified
 280              		.thumb
 281              		.thumb_func
 282              		.fpu fpv4-sp-d16
 284              	Motion_Restart:
 285              	.LFB163:
  90:Src/motion.c  **** 
  91:Src/motion.c  **** void Motion_Restart(uint8_t wall_is)
  92:Src/motion.c  **** {
 286              		.loc 1 92 0
 287              		.cfi_startproc
 288              		@ args = 0, pretend = 0, frame = 0
 289              		@ frame_needed = 0, uses_anonymous_args = 0
 290              	.LVL11:
 291 0000 10B5     		push	{r4, lr}
 292              	.LCFI7:
 293              		.cfi_def_cfa_offset 8
 294              		.cfi_offset 4, -8
 295              		.cfi_offset 14, -4
 296 0002 2DED028B 		vpush.64	{d8}
 297              	.LCFI8:
 298              		.cfi_def_cfa_offset 16
 299              		.cfi_offset 80, -16
 300              		.cfi_offset 81, -12
 301 0006 0446     		mov	r4, r0
  93:Src/motion.c  ****     Control_ResetVelo();
 302              		.loc 1 93 0
 303 0008 FFF7FEFF 		bl	Control_ResetVelo
 304              	.LVL12:
  94:Src/motion.c  ****     if (wall_is == FALSE)
 305              		.loc 1 94 0
 306 000c 002C     		cmp	r4, #0
 307 000e 00F0B080 		beq	.L28
  95:Src/motion.c  ****     {
  96:Src/motion.c  ****         Control_StrCalculator(90.0f, 0.0f, VELO_S, VELO_S, ACCEL_S, 1);
  97:Src/motion.c  ****         Control_AngCalculator(0, 0, 0, 0, 1, 0);
  98:Src/motion.c  ****         motion_end_flag = FALSE;
  99:Src/motion.c  ****         while (motion_end_flag == FALSE)
 100:Src/motion.c  ****         {
 101:Src/motion.c  ****         }
ARM GAS  C:\Users\kotaro\AppData\Local\Temp\cc2MmsOy.s 			page 8


 102:Src/motion.c  ****         enc.offset = 0;
 103:Src/motion.c  ****         prefront_flag = TRUE;
 104:Src/motion.c  ****     }
 105:Src/motion.c  ****     else
 106:Src/motion.c  ****     {
 107:Src/motion.c  ****         front_wall_flag = TRUE;
 308              		.loc 1 107 0
 309 0012 6E4B     		ldr	r3, .L29
 310 0014 0122     		movs	r2, #1
 311 0016 1A70     		strb	r2, [r3]
 312              	.L23:
 108:Src/motion.c  ****         while (front_wall_flag == TRUE)
 313              		.loc 1 108 0 discriminator 1
 314 0018 6C4B     		ldr	r3, .L29
 315 001a 1B78     		ldrb	r3, [r3]	@ zero_extendqisi2
 316 001c DBB2     		uxtb	r3, r3
 317 001e 012B     		cmp	r3, #1
 318 0020 FAD0     		beq	.L23
 109:Src/motion.c  ****         {
 110:Src/motion.c  ****         }
 111:Src/motion.c  ****         straight.v_now = 0;
 319              		.loc 1 111 0
 320 0022 9FED6B8A 		vldr.32	s16, .L29+4
 321 0026 6B4B     		ldr	r3, .L29+8
 322 0028 83ED038A 		vstr.32	s16, [r3, #12]
 112:Src/motion.c  ****         angle.v_now = 0;
 323              		.loc 1 112 0
 324 002c 6A4B     		ldr	r3, .L29+12
 325 002e 83ED038A 		vstr.32	s16, [r3, #12]
 113:Src/motion.c  ****         error_ang_sum = 0.0f;
 326              		.loc 1 113 0
 327 0032 6A4B     		ldr	r3, .L29+16
 328 0034 83ED008A 		vstr.32	s16, [r3]
 114:Src/motion.c  ****         error_ang_old = 0.0f;
 329              		.loc 1 114 0
 330 0038 694B     		ldr	r3, .L29+20
 331 003a 83ED008A 		vstr.32	s16, [r3]
 115:Src/motion.c  ****         HAL_Delay(500);
 332              		.loc 1 115 0
 333 003e 4FF4FA70 		mov	r0, #500
 334 0042 FFF7FEFF 		bl	HAL_Delay
 335              	.LVL13:
 116:Src/motion.c  **** 
 117:Src/motion.c  ****         Control_StrCalculator(0, 0, 0, 0, 1, 0);
 336              		.loc 1 117 0
 337 0046 F0EE482A 		vmov.f32	s5, s16
 338 004a B7EE002A 		vmov.f32	s4, #1.0e+0
 339 004e F0EE481A 		vmov.f32	s3, s16
 340 0052 B0EE481A 		vmov.f32	s2, s16
 341 0056 F0EE480A 		vmov.f32	s1, s16
 342 005a B0EE480A 		vmov.f32	s0, s16
 343 005e FFF7FEFF 		bl	Control_StrCalculator
 344              	.LVL14:
 118:Src/motion.c  ****         Control_AngCalculator(185.0f, 0.0f, VELO_ANG_S, 0.0f, ACCEL_ANG_S, 1);
 345              		.loc 1 118 0
 346 0062 F7EE002A 		vmov.f32	s5, #1.0e+0
 347 0066 9FED5F2A 		vldr.32	s4, .L29+24
ARM GAS  C:\Users\kotaro\AppData\Local\Temp\cc2MmsOy.s 			page 9


 348 006a F0EE481A 		vmov.f32	s3, s16
 349 006e 9FED5E1A 		vldr.32	s2, .L29+28
 350 0072 F0EE480A 		vmov.f32	s1, s16
 351 0076 9FED5D0A 		vldr.32	s0, .L29+32
 352 007a FFF7FEFF 		bl	Control_AngCalculator
 353              	.LVL15:
 119:Src/motion.c  ****         motion_end_flag = FALSE;
 354              		.loc 1 119 0
 355 007e 5C4B     		ldr	r3, .L29+36
 356 0080 0022     		movs	r2, #0
 357 0082 1A70     		strb	r2, [r3]
 358              	.L24:
 120:Src/motion.c  ****         while (motion_end_flag == FALSE)
 359              		.loc 1 120 0 discriminator 1
 360 0084 5A4B     		ldr	r3, .L29+36
 361 0086 1B78     		ldrb	r3, [r3]	@ zero_extendqisi2
 362 0088 002B     		cmp	r3, #0
 363 008a FBD0     		beq	.L24
 121:Src/motion.c  ****         {
 122:Src/motion.c  ****         }
 123:Src/motion.c  ****         straight.v_now = 0;
 364              		.loc 1 123 0
 365 008c 9FED508A 		vldr.32	s16, .L29+4
 366 0090 504B     		ldr	r3, .L29+8
 367 0092 83ED038A 		vstr.32	s16, [r3, #12]
 124:Src/motion.c  ****         angle.v_now = 0;
 368              		.loc 1 124 0
 369 0096 504B     		ldr	r3, .L29+12
 370 0098 83ED038A 		vstr.32	s16, [r3, #12]
 125:Src/motion.c  ****         error_ang_sum = 0.0f;
 371              		.loc 1 125 0
 372 009c 4F4B     		ldr	r3, .L29+16
 373 009e 83ED008A 		vstr.32	s16, [r3]
 126:Src/motion.c  ****         error_ang_old = 0.0f;
 374              		.loc 1 126 0
 375 00a2 4F4B     		ldr	r3, .L29+20
 376 00a4 83ED008A 		vstr.32	s16, [r3]
 127:Src/motion.c  ****         HAL_Delay(500);
 377              		.loc 1 127 0
 378 00a8 4FF4FA70 		mov	r0, #500
 379 00ac FFF7FEFF 		bl	HAL_Delay
 380              	.LVL16:
 128:Src/motion.c  **** 
 129:Src/motion.c  ****         Control_StrCalculator(55.0f, 0, 100.0f, 0, 1000.0f, -1);
 381              		.loc 1 129 0
 382 00b0 FFEE002A 		vmov.f32	s5, #-1.0e+0
 383 00b4 9FED4F2A 		vldr.32	s4, .L29+40
 384 00b8 F0EE481A 		vmov.f32	s3, s16
 385 00bc 9FED4E1A 		vldr.32	s2, .L29+44
 386 00c0 F0EE480A 		vmov.f32	s1, s16
 387 00c4 9FED4D0A 		vldr.32	s0, .L29+48
 388 00c8 FFF7FEFF 		bl	Control_StrCalculator
 389              	.LVL17:
 130:Src/motion.c  ****         Control_AngCalculator(0, 0, 0, 0, 1, 0);
 390              		.loc 1 130 0
 391 00cc F0EE482A 		vmov.f32	s5, s16
 392 00d0 B7EE002A 		vmov.f32	s4, #1.0e+0
ARM GAS  C:\Users\kotaro\AppData\Local\Temp\cc2MmsOy.s 			page 10


 393 00d4 F0EE481A 		vmov.f32	s3, s16
 394 00d8 B0EE481A 		vmov.f32	s2, s16
 395 00dc F0EE480A 		vmov.f32	s1, s16
 396 00e0 B0EE480A 		vmov.f32	s0, s16
 397 00e4 FFF7FEFF 		bl	Control_AngCalculator
 398              	.LVL18:
 131:Src/motion.c  ****         motion_end_flag = FALSE;
 399              		.loc 1 131 0
 400 00e8 414B     		ldr	r3, .L29+36
 401 00ea 0022     		movs	r2, #0
 402 00ec 1A70     		strb	r2, [r3]
 403              	.L25:
 132:Src/motion.c  ****         while (motion_end_flag == FALSE)
 404              		.loc 1 132 0 discriminator 1
 405 00ee 404B     		ldr	r3, .L29+36
 406 00f0 1B78     		ldrb	r3, [r3]	@ zero_extendqisi2
 407 00f2 002B     		cmp	r3, #0
 408 00f4 FBD0     		beq	.L25
 133:Src/motion.c  ****         {
 134:Src/motion.c  ****         }
 135:Src/motion.c  ****         straight.v_now = 0;
 409              		.loc 1 135 0
 410 00f6 9FED368A 		vldr.32	s16, .L29+4
 411 00fa 364B     		ldr	r3, .L29+8
 412 00fc 83ED038A 		vstr.32	s16, [r3, #12]
 136:Src/motion.c  ****         angle.v_now = 0;
 413              		.loc 1 136 0
 414 0100 354B     		ldr	r3, .L29+12
 415 0102 83ED038A 		vstr.32	s16, [r3, #12]
 137:Src/motion.c  ****         error_ang_sum = 0.0f;
 416              		.loc 1 137 0
 417 0106 354B     		ldr	r3, .L29+16
 418 0108 83ED008A 		vstr.32	s16, [r3]
 138:Src/motion.c  ****         error_ang_old = 0.0f;
 419              		.loc 1 138 0
 420 010c 344B     		ldr	r3, .L29+20
 421 010e 83ED008A 		vstr.32	s16, [r3]
 139:Src/motion.c  ****         HAL_Delay(500);
 422              		.loc 1 139 0
 423 0112 4FF4FA70 		mov	r0, #500
 424 0116 FFF7FEFF 		bl	HAL_Delay
 425              	.LVL19:
 140:Src/motion.c  **** 
 141:Src/motion.c  ****         Control_StrCalculator(130.0f, 0, VELO_S, VELO_S, ACCEL_S, 1);
 426              		.loc 1 141 0
 427 011a 9FED331A 		vldr.32	s2, .L29+28
 428 011e F7EE002A 		vmov.f32	s5, #1.0e+0
 429 0122 9FED372A 		vldr.32	s4, .L29+52
 430 0126 F0EE411A 		vmov.f32	s3, s2
 431 012a F0EE480A 		vmov.f32	s1, s16
 432 012e 9FED350A 		vldr.32	s0, .L29+56
 433 0132 FFF7FEFF 		bl	Control_StrCalculator
 434              	.LVL20:
 142:Src/motion.c  ****         Control_AngCalculator(0, 0, 0, 0, 1, 0);
 435              		.loc 1 142 0
 436 0136 F0EE482A 		vmov.f32	s5, s16
 437 013a B7EE002A 		vmov.f32	s4, #1.0e+0
ARM GAS  C:\Users\kotaro\AppData\Local\Temp\cc2MmsOy.s 			page 11


 438 013e F0EE481A 		vmov.f32	s3, s16
 439 0142 B0EE481A 		vmov.f32	s2, s16
 440 0146 F0EE480A 		vmov.f32	s1, s16
 441 014a B0EE480A 		vmov.f32	s0, s16
 442 014e FFF7FEFF 		bl	Control_AngCalculator
 443              	.LVL21:
 143:Src/motion.c  ****         motion_end_flag = FALSE;
 444              		.loc 1 143 0
 445 0152 274B     		ldr	r3, .L29+36
 446 0154 0022     		movs	r2, #0
 447 0156 1A70     		strb	r2, [r3]
 448              	.L26:
 144:Src/motion.c  ****         while (motion_end_flag == FALSE)
 449              		.loc 1 144 0 discriminator 1
 450 0158 254B     		ldr	r3, .L29+36
 451 015a 1B78     		ldrb	r3, [r3]	@ zero_extendqisi2
 452 015c 002B     		cmp	r3, #0
 453 015e FBD0     		beq	.L26
 145:Src/motion.c  ****         {
 146:Src/motion.c  ****         }
 147:Src/motion.c  ****         enc.offset = 0;
 454              		.loc 1 147 0
 455 0160 294B     		ldr	r3, .L29+60
 456 0162 0022     		movs	r2, #0
 457 0164 9A60     		str	r2, [r3, #8]	@ float
 148:Src/motion.c  ****         prefront_flag = TRUE;
 458              		.loc 1 148 0
 459 0166 294B     		ldr	r3, .L29+64
 460 0168 0122     		movs	r2, #1
 461 016a 1A80     		strh	r2, [r3]	@ movhi
 462              	.L19:
 149:Src/motion.c  ****     }
 150:Src/motion.c  **** }
 463              		.loc 1 150 0
 464 016c BDEC028B 		vldm	sp!, {d8}
 465              	.LCFI9:
 466              		.cfi_remember_state
 467              		.cfi_restore 80
 468              		.cfi_restore 81
 469              		.cfi_def_cfa_offset 8
 470 0170 10BD     		pop	{r4, pc}
 471              	.L28:
 472              	.LCFI10:
 473              		.cfi_restore_state
  96:Src/motion.c  ****         Control_AngCalculator(0, 0, 0, 0, 1, 0);
 474              		.loc 1 96 0
 475 0172 9FED1D1A 		vldr.32	s2, .L29+28
 476 0176 9FED168A 		vldr.32	s16, .L29+4
 477 017a F7EE002A 		vmov.f32	s5, #1.0e+0
 478 017e 9FED202A 		vldr.32	s4, .L29+52
 479 0182 F0EE411A 		vmov.f32	s3, s2
 480 0186 F0EE480A 		vmov.f32	s1, s16
 481 018a 9FED210A 		vldr.32	s0, .L29+68
 482 018e FFF7FEFF 		bl	Control_StrCalculator
 483              	.LVL22:
  97:Src/motion.c  ****         motion_end_flag = FALSE;
 484              		.loc 1 97 0
ARM GAS  C:\Users\kotaro\AppData\Local\Temp\cc2MmsOy.s 			page 12


 485 0192 F0EE482A 		vmov.f32	s5, s16
 486 0196 B7EE002A 		vmov.f32	s4, #1.0e+0
 487 019a F0EE481A 		vmov.f32	s3, s16
 488 019e B0EE481A 		vmov.f32	s2, s16
 489 01a2 F0EE480A 		vmov.f32	s1, s16
 490 01a6 B0EE480A 		vmov.f32	s0, s16
 491 01aa FFF7FEFF 		bl	Control_AngCalculator
 492              	.LVL23:
  98:Src/motion.c  ****         while (motion_end_flag == FALSE)
 493              		.loc 1 98 0
 494 01ae 104B     		ldr	r3, .L29+36
 495 01b0 0022     		movs	r2, #0
 496 01b2 1A70     		strb	r2, [r3]
 497              	.L21:
  99:Src/motion.c  ****         {
 498              		.loc 1 99 0 discriminator 1
 499 01b4 0E4B     		ldr	r3, .L29+36
 500 01b6 1B78     		ldrb	r3, [r3]	@ zero_extendqisi2
 501 01b8 002B     		cmp	r3, #0
 502 01ba FBD0     		beq	.L21
 102:Src/motion.c  ****         prefront_flag = TRUE;
 503              		.loc 1 102 0
 504 01bc 124B     		ldr	r3, .L29+60
 505 01be 0022     		movs	r2, #0
 506 01c0 9A60     		str	r2, [r3, #8]	@ float
 103:Src/motion.c  ****     }
 507              		.loc 1 103 0
 508 01c2 124B     		ldr	r3, .L29+64
 509 01c4 0122     		movs	r2, #1
 510 01c6 1A80     		strh	r2, [r3]	@ movhi
 511 01c8 D0E7     		b	.L19
 512              	.L30:
 513 01ca 00BF     		.align	2
 514              	.L29:
 515 01cc 00000000 		.word	front_wall_flag
 516 01d0 00000000 		.word	0
 517 01d4 00000000 		.word	straight
 518 01d8 00000000 		.word	angle
 519 01dc 00000000 		.word	error_ang_sum
 520 01e0 00000000 		.word	error_ang_old
 521 01e4 0000FA45 		.word	1174011904
 522 01e8 0000C843 		.word	1137180672
 523 01ec 00003943 		.word	1127809024
 524 01f0 00000000 		.word	motion_end_flag
 525 01f4 00007A44 		.word	1148846080
 526 01f8 0000C842 		.word	1120403456
 527 01fc 00005C42 		.word	1113325568
 528 0200 00007A45 		.word	1165623296
 529 0204 00000243 		.word	1124204544
 530 0208 00000000 		.word	enc
 531 020c 00000000 		.word	.LANCHOR1
 532 0210 0000B442 		.word	1119092736
 533              		.cfi_endproc
 534              	.LFE163:
 536              		.section	.text.Motion_End,"ax",%progbits
 537              		.align	1
 538              		.global	Motion_End
ARM GAS  C:\Users\kotaro\AppData\Local\Temp\cc2MmsOy.s 			page 13


 539              		.syntax unified
 540              		.thumb
 541              		.thumb_func
 542              		.fpu fpv4-sp-d16
 544              	Motion_End:
 545              	.LFB164:
 151:Src/motion.c  **** 
 152:Src/motion.c  **** void Motion_End(void)
 153:Src/motion.c  **** {
 546              		.loc 1 153 0
 547              		.cfi_startproc
 548              		@ args = 0, pretend = 0, frame = 0
 549              		@ frame_needed = 0, uses_anonymous_args = 0
 550 0000 08B5     		push	{r3, lr}
 551              	.LCFI11:
 552              		.cfi_def_cfa_offset 8
 553              		.cfi_offset 3, -8
 554              		.cfi_offset 14, -4
 555 0002 2DED028B 		vpush.64	{d8}
 556              	.LCFI12:
 557              		.cfi_def_cfa_offset 16
 558              		.cfi_offset 80, -16
 559              		.cfi_offset 81, -12
 154:Src/motion.c  ****     Control_StrCalculator(90.0f - enc.offset, VELO_S, VELO_S, 0.0f, ACCEL_S, 1);
 560              		.loc 1 154 0
 561 0006 1C4B     		ldr	r3, .L34
 562 0008 D3ED027A 		vldr.32	s15, [r3, #8]
 563 000c 9FED1B8A 		vldr.32	s16, .L34+4
 564 0010 DFED1B0A 		vldr.32	s1, .L34+8
 565 0014 F7EE002A 		vmov.f32	s5, #1.0e+0
 566 0018 9FED1A2A 		vldr.32	s4, .L34+12
 567 001c F0EE481A 		vmov.f32	s3, s16
 568 0020 B0EE601A 		vmov.f32	s2, s1
 569 0024 9FED180A 		vldr.32	s0, .L34+16
 570 0028 30EE670A 		vsub.f32	s0, s0, s15
 571 002c FFF7FEFF 		bl	Control_StrCalculator
 572              	.LVL24:
 155:Src/motion.c  ****     Control_AngCalculator(0, 0, 0, 0, 1, 0);
 573              		.loc 1 155 0
 574 0030 F0EE482A 		vmov.f32	s5, s16
 575 0034 B7EE002A 		vmov.f32	s4, #1.0e+0
 576 0038 F0EE481A 		vmov.f32	s3, s16
 577 003c B0EE481A 		vmov.f32	s2, s16
 578 0040 F0EE480A 		vmov.f32	s1, s16
 579 0044 B0EE480A 		vmov.f32	s0, s16
 580 0048 FFF7FEFF 		bl	Control_AngCalculator
 581              	.LVL25:
 156:Src/motion.c  ****     motion_end_flag = FALSE;
 582              		.loc 1 156 0
 583 004c 0F4B     		ldr	r3, .L34+20
 584 004e 0022     		movs	r2, #0
 585 0050 1A70     		strb	r2, [r3]
 586              	.L32:
 157:Src/motion.c  ****     while (motion_end_flag == FALSE)
 587              		.loc 1 157 0 discriminator 1
 588 0052 0E4B     		ldr	r3, .L34+20
 589 0054 1B78     		ldrb	r3, [r3]	@ zero_extendqisi2
ARM GAS  C:\Users\kotaro\AppData\Local\Temp\cc2MmsOy.s 			page 14


 590 0056 002B     		cmp	r3, #0
 591 0058 FBD0     		beq	.L32
 158:Src/motion.c  ****     {
 159:Src/motion.c  ****     }
 160:Src/motion.c  ****     enc.offset = 0;
 592              		.loc 1 160 0
 593 005a 0023     		movs	r3, #0
 594 005c 064A     		ldr	r2, .L34
 595 005e 9360     		str	r3, [r2, #8]	@ float
 161:Src/motion.c  ****     error_ang_sum = 0.0f;
 596              		.loc 1 161 0
 597 0060 0B4A     		ldr	r2, .L34+24
 598 0062 1360     		str	r3, [r2]	@ float
 162:Src/motion.c  ****     error_ang_old = 0.0f;
 599              		.loc 1 162 0
 600 0064 0B4A     		ldr	r2, .L34+28
 601 0066 1360     		str	r3, [r2]	@ float
 163:Src/motion.c  ****     straight.v_now = 0;
 602              		.loc 1 163 0
 603 0068 0B4A     		ldr	r2, .L34+32
 604 006a D360     		str	r3, [r2, #12]	@ float
 164:Src/motion.c  ****     angle.v_now = 0;
 605              		.loc 1 164 0
 606 006c 0B4A     		ldr	r2, .L34+36
 607 006e D360     		str	r3, [r2, #12]	@ float
 165:Src/motion.c  **** }
 608              		.loc 1 165 0
 609 0070 BDEC028B 		vldm	sp!, {d8}
 610              	.LCFI13:
 611              		.cfi_restore 80
 612              		.cfi_restore 81
 613              		.cfi_def_cfa_offset 8
 614 0074 08BD     		pop	{r3, pc}
 615              	.L35:
 616 0076 00BF     		.align	2
 617              	.L34:
 618 0078 00000000 		.word	enc
 619 007c 00000000 		.word	0
 620 0080 0000C843 		.word	1137180672
 621 0084 00007A45 		.word	1165623296
 622 0088 0000B442 		.word	1119092736
 623 008c 00000000 		.word	motion_end_flag
 624 0090 00000000 		.word	error_ang_sum
 625 0094 00000000 		.word	error_ang_old
 626 0098 00000000 		.word	straight
 627 009c 00000000 		.word	angle
 628              		.cfi_endproc
 629              	.LFE164:
 631              		.section	.text.Motion_Straight,"ax",%progbits
 632              		.align	1
 633              		.global	Motion_Straight
 634              		.syntax unified
 635              		.thumb
 636              		.thumb_func
 637              		.fpu fpv4-sp-d16
 639              	Motion_Straight:
 640              	.LFB165:
ARM GAS  C:\Users\kotaro\AppData\Local\Temp\cc2MmsOy.s 			page 15


 166:Src/motion.c  **** 
 167:Src/motion.c  **** void Motion_Straight(uint16_t step)
 168:Src/motion.c  **** {
 641              		.loc 1 168 0
 642              		.cfi_startproc
 643              		@ args = 0, pretend = 0, frame = 0
 644              		@ frame_needed = 0, uses_anonymous_args = 0
 645              	.LVL26:
 646 0000 08B5     		push	{r3, lr}
 647              	.LCFI14:
 648              		.cfi_def_cfa_offset 8
 649              		.cfi_offset 3, -8
 650              		.cfi_offset 14, -4
 169:Src/motion.c  ****     if (step < 2)
 651              		.loc 1 169 0
 652 0002 0128     		cmp	r0, #1
 653 0004 6BD9     		bls	.L46
 654              	.LBB2:
 170:Src/motion.c  ****     {
 171:Src/motion.c  ****         if (prefront_flag)
 172:Src/motion.c  ****         {
 173:Src/motion.c  ****             Control_EdgeSet(0);
 174:Src/motion.c  ****         }
 175:Src/motion.c  ****         Control_StrCalculator(180.0f - enc.offset, VELO_S, VELO_S, VELO_S, ACCEL_S, 1);
 176:Src/motion.c  ****         Control_AngCalculator(0, 0, 0, 0, 1, 0);
 177:Src/motion.c  ****         motion_end_flag = FALSE;
 178:Src/motion.c  ****         while (motion_end_flag == FALSE)
 179:Src/motion.c  ****         {
 180:Src/motion.c  ****         }
 181:Src/motion.c  ****     }
 182:Src/motion.c  ****     else
 183:Src/motion.c  ****     {
 184:Src/motion.c  ****         step--;
 655              		.loc 1 184 0
 656 0006 0138     		subs	r0, r0, #1
 657              	.LVL27:
 658 0008 80B2     		uxth	r0, r0
 659              	.LVL28:
 185:Src/motion.c  ****         float velo = VELO_S + (float)(200 * step);
 660              		.loc 1 185 0
 661 000a C823     		movs	r3, #200
 662 000c 03FB00F3 		mul	r3, r3, r0
 663 0010 01EE103A 		vmov	s2, r3	@ int
 664 0014 B8EEC11A 		vcvt.f32.s32	s2, s2
 665 0018 DFED497A 		vldr.32	s15, .L48
 666 001c 31EE271A 		vadd.f32	s2, s2, s15
 667              	.LVL29:
 186:Src/motion.c  ****         if (velo > 2400)
 668              		.loc 1 186 0
 669 0020 DFED487A 		vldr.32	s15, .L48+4
 670 0024 B4EEE71A 		vcmpe.f32	s2, s15
 671 0028 F1EE10FA 		vmrs	APSR_nzcv, FPSCR
 672 002c 01DD     		ble	.L41
 187:Src/motion.c  ****         {
 188:Src/motion.c  ****             velo = 2400;
 673              		.loc 1 188 0
 674 002e B0EE671A 		vmov.f32	s2, s15
ARM GAS  C:\Users\kotaro\AppData\Local\Temp\cc2MmsOy.s 			page 16


 675              	.LVL30:
 676              	.L41:
 189:Src/motion.c  ****         }
 190:Src/motion.c  ****         Control_StrCalculator(180.0f * (float)step - enc.offset, VELO_S, velo, VELO_S, ACCEL_S, 1);
 677              		.loc 1 190 0
 678 0032 07EE900A 		vmov	s15, r0	@ int
 679 0036 F8EE677A 		vcvt.f32.u32	s15, s15
 680 003a 9FED430A 		vldr.32	s0, .L48+8
 681 003e 67EE807A 		vmul.f32	s15, s15, s0
 682 0042 424B     		ldr	r3, .L48+12
 683 0044 93ED020A 		vldr.32	s0, [r3, #8]
 684 0048 DFED3D0A 		vldr.32	s1, .L48
 685 004c F7EE002A 		vmov.f32	s5, #1.0e+0
 686 0050 9FED3F2A 		vldr.32	s4, .L48+16
 687 0054 F0EE601A 		vmov.f32	s3, s1
 688 0058 37EEC00A 		vsub.f32	s0, s15, s0
 689 005c FFF7FEFF 		bl	Control_StrCalculator
 690              	.LVL31:
 191:Src/motion.c  ****         Control_AngCalculator(0, 0, 0, 0, 1, 0);
 691              		.loc 1 191 0
 692 0060 9FED3C0A 		vldr.32	s0, .L48+20
 693 0064 F0EE402A 		vmov.f32	s5, s0
 694 0068 B7EE002A 		vmov.f32	s4, #1.0e+0
 695 006c F0EE401A 		vmov.f32	s3, s0
 696 0070 B0EE401A 		vmov.f32	s2, s0
 697 0074 F0EE400A 		vmov.f32	s1, s0
 698 0078 FFF7FEFF 		bl	Control_AngCalculator
 699              	.LVL32:
 192:Src/motion.c  ****         motion_end_flag = FALSE;
 700              		.loc 1 192 0
 701 007c 364B     		ldr	r3, .L48+24
 702 007e 0022     		movs	r2, #0
 703 0080 1A70     		strb	r2, [r3]
 704              	.L42:
 193:Src/motion.c  ****         while (motion_end_flag == FALSE)
 705              		.loc 1 193 0 discriminator 1
 706 0082 354B     		ldr	r3, .L48+24
 707 0084 1B78     		ldrb	r3, [r3]	@ zero_extendqisi2
 708 0086 002B     		cmp	r3, #0
 709 0088 FBD0     		beq	.L42
 194:Src/motion.c  ****         {
 195:Src/motion.c  ****         }
 196:Src/motion.c  ****         Control_EdgeSet(0);
 710              		.loc 1 196 0
 711 008a 0020     		movs	r0, #0
 712 008c FFF7FEFF 		bl	Control_EdgeSet
 713              	.LVL33:
 197:Src/motion.c  ****         Control_StrCalculator(180.0f, VELO_S, VELO_S, VELO_S, ACCEL_S, 1);
 714              		.loc 1 197 0
 715 0090 DFED2B0A 		vldr.32	s1, .L48
 716 0094 F7EE002A 		vmov.f32	s5, #1.0e+0
 717 0098 9FED2D2A 		vldr.32	s4, .L48+16
 718 009c F0EE601A 		vmov.f32	s3, s1
 719 00a0 B0EE601A 		vmov.f32	s2, s1
 720 00a4 9FED280A 		vldr.32	s0, .L48+8
 721 00a8 FFF7FEFF 		bl	Control_StrCalculator
 722              	.LVL34:
ARM GAS  C:\Users\kotaro\AppData\Local\Temp\cc2MmsOy.s 			page 17


 198:Src/motion.c  ****         Control_AngCalculator(0, 0, 0, 0, 1, 0);
 723              		.loc 1 198 0
 724 00ac 9FED290A 		vldr.32	s0, .L48+20
 725 00b0 F0EE402A 		vmov.f32	s5, s0
 726 00b4 B7EE002A 		vmov.f32	s4, #1.0e+0
 727 00b8 F0EE401A 		vmov.f32	s3, s0
 728 00bc B0EE401A 		vmov.f32	s2, s0
 729 00c0 F0EE400A 		vmov.f32	s1, s0
 730 00c4 FFF7FEFF 		bl	Control_AngCalculator
 731              	.LVL35:
 199:Src/motion.c  ****         motion_end_flag = FALSE;
 732              		.loc 1 199 0
 733 00c8 234B     		ldr	r3, .L48+24
 734 00ca 0022     		movs	r2, #0
 735 00cc 1A70     		strb	r2, [r3]
 736              	.L43:
 200:Src/motion.c  ****         while (motion_end_flag == FALSE)
 737              		.loc 1 200 0 discriminator 1
 738 00ce 224B     		ldr	r3, .L48+24
 739 00d0 1B78     		ldrb	r3, [r3]	@ zero_extendqisi2
 740 00d2 002B     		cmp	r3, #0
 741 00d4 FBD0     		beq	.L43
 742              	.L40:
 743              	.LBE2:
 201:Src/motion.c  ****         {
 202:Src/motion.c  ****         }
 203:Src/motion.c  ****     }
 204:Src/motion.c  ****     enc.offset = 0;
 744              		.loc 1 204 0
 745 00d6 1D4B     		ldr	r3, .L48+12
 746 00d8 0022     		movs	r2, #0
 747 00da 9A60     		str	r2, [r3, #8]	@ float
 205:Src/motion.c  ****     //prefront_flag = TRUE;
 206:Src/motion.c  **** }
 748              		.loc 1 206 0
 749 00dc 08BD     		pop	{r3, pc}
 750              	.LVL36:
 751              	.L46:
 171:Src/motion.c  ****         {
 752              		.loc 1 171 0
 753 00de 1F4B     		ldr	r3, .L48+28
 754 00e0 1B88     		ldrh	r3, [r3]
 755 00e2 43BB     		cbnz	r3, .L47
 756              	.LVL37:
 757              	.L38:
 175:Src/motion.c  ****         Control_AngCalculator(0, 0, 0, 0, 1, 0);
 758              		.loc 1 175 0
 759 00e4 194B     		ldr	r3, .L48+12
 760 00e6 D3ED027A 		vldr.32	s15, [r3, #8]
 761 00ea DFED150A 		vldr.32	s1, .L48
 762 00ee F7EE002A 		vmov.f32	s5, #1.0e+0
 763 00f2 9FED172A 		vldr.32	s4, .L48+16
 764 00f6 F0EE601A 		vmov.f32	s3, s1
 765 00fa B0EE601A 		vmov.f32	s2, s1
 766 00fe 9FED120A 		vldr.32	s0, .L48+8
 767 0102 30EE670A 		vsub.f32	s0, s0, s15
 768 0106 FFF7FEFF 		bl	Control_StrCalculator
ARM GAS  C:\Users\kotaro\AppData\Local\Temp\cc2MmsOy.s 			page 18


 769              	.LVL38:
 176:Src/motion.c  ****         motion_end_flag = FALSE;
 770              		.loc 1 176 0
 771 010a 9FED120A 		vldr.32	s0, .L48+20
 772 010e F0EE402A 		vmov.f32	s5, s0
 773 0112 B7EE002A 		vmov.f32	s4, #1.0e+0
 774 0116 F0EE401A 		vmov.f32	s3, s0
 775 011a B0EE401A 		vmov.f32	s2, s0
 776 011e F0EE400A 		vmov.f32	s1, s0
 777 0122 FFF7FEFF 		bl	Control_AngCalculator
 778              	.LVL39:
 177:Src/motion.c  ****         while (motion_end_flag == FALSE)
 779              		.loc 1 177 0
 780 0126 0C4B     		ldr	r3, .L48+24
 781 0128 0022     		movs	r2, #0
 782 012a 1A70     		strb	r2, [r3]
 783              	.L39:
 178:Src/motion.c  ****         {
 784              		.loc 1 178 0 discriminator 1
 785 012c 0A4B     		ldr	r3, .L48+24
 786 012e 1B78     		ldrb	r3, [r3]	@ zero_extendqisi2
 787 0130 002B     		cmp	r3, #0
 788 0132 FBD0     		beq	.L39
 789 0134 CFE7     		b	.L40
 790              	.LVL40:
 791              	.L47:
 173:Src/motion.c  ****         }
 792              		.loc 1 173 0
 793 0136 0020     		movs	r0, #0
 794              	.LVL41:
 795 0138 FFF7FEFF 		bl	Control_EdgeSet
 796              	.LVL42:
 797 013c D2E7     		b	.L38
 798              	.L49:
 799 013e 00BF     		.align	2
 800              	.L48:
 801 0140 0000C843 		.word	1137180672
 802 0144 00001645 		.word	1159069696
 803 0148 00003443 		.word	1127481344
 804 014c 00000000 		.word	enc
 805 0150 00007A45 		.word	1165623296
 806 0154 00000000 		.word	0
 807 0158 00000000 		.word	motion_end_flag
 808 015c 00000000 		.word	.LANCHOR1
 809              		.cfi_endproc
 810              	.LFE165:
 812              		.section	.text.Motion_SpinTurn,"ax",%progbits
 813              		.align	1
 814              		.global	Motion_SpinTurn
 815              		.syntax unified
 816              		.thumb
 817              		.thumb_func
 818              		.fpu fpv4-sp-d16
 820              	Motion_SpinTurn:
 821              	.LFB166:
 207:Src/motion.c  **** 
 208:Src/motion.c  **** void Motion_SpinTurn(void)
ARM GAS  C:\Users\kotaro\AppData\Local\Temp\cc2MmsOy.s 			page 19


 209:Src/motion.c  **** {
 822              		.loc 1 209 0
 823              		.cfi_startproc
 824              		@ args = 0, pretend = 0, frame = 0
 825              		@ frame_needed = 0, uses_anonymous_args = 0
 826 0000 08B5     		push	{r3, lr}
 827              	.LCFI15:
 828              		.cfi_def_cfa_offset 8
 829              		.cfi_offset 3, -8
 830              		.cfi_offset 14, -4
 831 0002 2DED028B 		vpush.64	{d8}
 832              	.LCFI16:
 833              		.cfi_def_cfa_offset 16
 834              		.cfi_offset 80, -16
 835              		.cfi_offset 81, -12
 210:Src/motion.c  ****     Control_StrCalculator(90.0f - enc.offset, VELO_S, VELO_S, 0, ACCEL_S, 1);
 836              		.loc 1 210 0
 837 0006 4E4B     		ldr	r3, .L55
 838 0008 D3ED027A 		vldr.32	s15, [r3, #8]
 839 000c 9FED4D8A 		vldr.32	s16, .L55+4
 840 0010 DFED4D0A 		vldr.32	s1, .L55+8
 841 0014 F7EE002A 		vmov.f32	s5, #1.0e+0
 842 0018 9FED4C2A 		vldr.32	s4, .L55+12
 843 001c F0EE481A 		vmov.f32	s3, s16
 844 0020 B0EE601A 		vmov.f32	s2, s1
 845 0024 9FED4A0A 		vldr.32	s0, .L55+16
 846 0028 30EE670A 		vsub.f32	s0, s0, s15
 847 002c FFF7FEFF 		bl	Control_StrCalculator
 848              	.LVL43:
 211:Src/motion.c  ****     Control_AngCalculator(0, 0, 0, 0, 1, 0);
 849              		.loc 1 211 0
 850 0030 F0EE482A 		vmov.f32	s5, s16
 851 0034 B7EE002A 		vmov.f32	s4, #1.0e+0
 852 0038 F0EE481A 		vmov.f32	s3, s16
 853 003c B0EE481A 		vmov.f32	s2, s16
 854 0040 F0EE480A 		vmov.f32	s1, s16
 855 0044 B0EE480A 		vmov.f32	s0, s16
 856 0048 FFF7FEFF 		bl	Control_AngCalculator
 857              	.LVL44:
 212:Src/motion.c  ****     motion_end_flag = FALSE;
 858              		.loc 1 212 0
 859 004c 414B     		ldr	r3, .L55+20
 860 004e 0022     		movs	r2, #0
 861 0050 1A70     		strb	r2, [r3]
 862              	.L51:
 213:Src/motion.c  ****     while (motion_end_flag == FALSE)
 863              		.loc 1 213 0 discriminator 1
 864 0052 404B     		ldr	r3, .L55+20
 865 0054 1B78     		ldrb	r3, [r3]	@ zero_extendqisi2
 866 0056 002B     		cmp	r3, #0
 867 0058 FBD0     		beq	.L51
 214:Src/motion.c  ****     {
 215:Src/motion.c  ****     }
 216:Src/motion.c  ****     straight.v_now = 0.0f;
 868              		.loc 1 216 0
 869 005a 9FED3A8A 		vldr.32	s16, .L55+4
 870 005e 3E4B     		ldr	r3, .L55+24
ARM GAS  C:\Users\kotaro\AppData\Local\Temp\cc2MmsOy.s 			page 20


 871 0060 83ED038A 		vstr.32	s16, [r3, #12]
 217:Src/motion.c  ****     angle.v_now = 0.0f;
 872              		.loc 1 217 0
 873 0064 3D4B     		ldr	r3, .L55+28
 874 0066 83ED038A 		vstr.32	s16, [r3, #12]
 218:Src/motion.c  ****     error_ang_sum = 0.0f;
 875              		.loc 1 218 0
 876 006a 3D4B     		ldr	r3, .L55+32
 877 006c 83ED008A 		vstr.32	s16, [r3]
 219:Src/motion.c  ****     error_ang_old = 0.0f;
 878              		.loc 1 219 0
 879 0070 3C4B     		ldr	r3, .L55+36
 880 0072 83ED008A 		vstr.32	s16, [r3]
 220:Src/motion.c  ****     HAL_Delay(500);
 881              		.loc 1 220 0
 882 0076 4FF4FA70 		mov	r0, #500
 883 007a FFF7FEFF 		bl	HAL_Delay
 884              	.LVL45:
 221:Src/motion.c  ****     Control_StrCalculator(0, 0, 0, 0, 1, 0);
 885              		.loc 1 221 0
 886 007e F0EE482A 		vmov.f32	s5, s16
 887 0082 B7EE002A 		vmov.f32	s4, #1.0e+0
 888 0086 F0EE481A 		vmov.f32	s3, s16
 889 008a B0EE481A 		vmov.f32	s2, s16
 890 008e F0EE480A 		vmov.f32	s1, s16
 891 0092 B0EE480A 		vmov.f32	s0, s16
 892 0096 FFF7FEFF 		bl	Control_StrCalculator
 893              	.LVL46:
 222:Src/motion.c  ****     Control_AngCalculator(185.0f, 0.0f, VELO_ANG_S, 0.0f, ACCEL_ANG_S, 1);
 894              		.loc 1 222 0
 895 009a F7EE002A 		vmov.f32	s5, #1.0e+0
 896 009e 9FED322A 		vldr.32	s4, .L55+40
 897 00a2 F0EE481A 		vmov.f32	s3, s16
 898 00a6 9FED281A 		vldr.32	s2, .L55+8
 899 00aa F0EE480A 		vmov.f32	s1, s16
 900 00ae 9FED2F0A 		vldr.32	s0, .L55+44
 901 00b2 FFF7FEFF 		bl	Control_AngCalculator
 902              	.LVL47:
 223:Src/motion.c  ****     motion_end_flag = FALSE;
 903              		.loc 1 223 0
 904 00b6 274B     		ldr	r3, .L55+20
 905 00b8 0022     		movs	r2, #0
 906 00ba 1A70     		strb	r2, [r3]
 907              	.L52:
 224:Src/motion.c  ****     while (motion_end_flag == FALSE)
 908              		.loc 1 224 0 discriminator 1
 909 00bc 254B     		ldr	r3, .L55+20
 910 00be 1B78     		ldrb	r3, [r3]	@ zero_extendqisi2
 911 00c0 002B     		cmp	r3, #0
 912 00c2 FBD0     		beq	.L52
 225:Src/motion.c  ****     {
 226:Src/motion.c  ****     }
 227:Src/motion.c  ****     straight.v_now = 0.0f;
 913              		.loc 1 227 0
 914 00c4 9FED1F8A 		vldr.32	s16, .L55+4
 915 00c8 234B     		ldr	r3, .L55+24
 916 00ca 83ED038A 		vstr.32	s16, [r3, #12]
ARM GAS  C:\Users\kotaro\AppData\Local\Temp\cc2MmsOy.s 			page 21


 228:Src/motion.c  ****     angle.v_now = 0.0f;
 917              		.loc 1 228 0
 918 00ce 234B     		ldr	r3, .L55+28
 919 00d0 83ED038A 		vstr.32	s16, [r3, #12]
 229:Src/motion.c  ****     error_ang_sum = 0.0f;
 920              		.loc 1 229 0
 921 00d4 224B     		ldr	r3, .L55+32
 922 00d6 83ED008A 		vstr.32	s16, [r3]
 230:Src/motion.c  ****     error_ang_old = 0.0f;
 923              		.loc 1 230 0
 924 00da 224B     		ldr	r3, .L55+36
 925 00dc 83ED008A 		vstr.32	s16, [r3]
 231:Src/motion.c  ****     HAL_Delay(800);
 926              		.loc 1 231 0
 927 00e0 4FF44870 		mov	r0, #800
 928 00e4 FFF7FEFF 		bl	HAL_Delay
 929              	.LVL48:
 232:Src/motion.c  ****     Control_StrCalculator(90.0f, 0, VELO_S, VELO_S, ACCEL_S, 1);
 930              		.loc 1 232 0
 931 00e8 9FED171A 		vldr.32	s2, .L55+8
 932 00ec F7EE002A 		vmov.f32	s5, #1.0e+0
 933 00f0 9FED162A 		vldr.32	s4, .L55+12
 934 00f4 F0EE411A 		vmov.f32	s3, s2
 935 00f8 F0EE480A 		vmov.f32	s1, s16
 936 00fc 9FED140A 		vldr.32	s0, .L55+16
 937 0100 FFF7FEFF 		bl	Control_StrCalculator
 938              	.LVL49:
 233:Src/motion.c  ****     Control_AngCalculator(0, 0, 0, 0, 1, 0);
 939              		.loc 1 233 0
 940 0104 F0EE482A 		vmov.f32	s5, s16
 941 0108 B7EE002A 		vmov.f32	s4, #1.0e+0
 942 010c F0EE481A 		vmov.f32	s3, s16
 943 0110 B0EE481A 		vmov.f32	s2, s16
 944 0114 F0EE480A 		vmov.f32	s1, s16
 945 0118 B0EE480A 		vmov.f32	s0, s16
 946 011c FFF7FEFF 		bl	Control_AngCalculator
 947              	.LVL50:
 234:Src/motion.c  ****     motion_end_flag = FALSE;
 948              		.loc 1 234 0
 949 0120 0C4B     		ldr	r3, .L55+20
 950 0122 0022     		movs	r2, #0
 951 0124 1A70     		strb	r2, [r3]
 952              	.L53:
 235:Src/motion.c  ****     while (motion_end_flag == FALSE)
 953              		.loc 1 235 0 discriminator 1
 954 0126 0B4B     		ldr	r3, .L55+20
 955 0128 1B78     		ldrb	r3, [r3]	@ zero_extendqisi2
 956 012a 002B     		cmp	r3, #0
 957 012c FBD0     		beq	.L53
 236:Src/motion.c  ****     {
 237:Src/motion.c  ****     }
 238:Src/motion.c  ****     enc.offset = 0;
 958              		.loc 1 238 0
 959 012e 044B     		ldr	r3, .L55
 960 0130 0022     		movs	r2, #0
 961 0132 9A60     		str	r2, [r3, #8]	@ float
 239:Src/motion.c  ****     prefront_flag = TRUE;
ARM GAS  C:\Users\kotaro\AppData\Local\Temp\cc2MmsOy.s 			page 22


 962              		.loc 1 239 0
 963 0134 0E4B     		ldr	r3, .L55+48
 964 0136 0122     		movs	r2, #1
 965 0138 1A80     		strh	r2, [r3]	@ movhi
 240:Src/motion.c  **** }
 966              		.loc 1 240 0
 967 013a BDEC028B 		vldm	sp!, {d8}
 968              	.LCFI17:
 969              		.cfi_restore 80
 970              		.cfi_restore 81
 971              		.cfi_def_cfa_offset 8
 972 013e 08BD     		pop	{r3, pc}
 973              	.L56:
 974              		.align	2
 975              	.L55:
 976 0140 00000000 		.word	enc
 977 0144 00000000 		.word	0
 978 0148 0000C843 		.word	1137180672
 979 014c 00007A45 		.word	1165623296
 980 0150 0000B442 		.word	1119092736
 981 0154 00000000 		.word	motion_end_flag
 982 0158 00000000 		.word	straight
 983 015c 00000000 		.word	angle
 984 0160 00000000 		.word	error_ang_sum
 985 0164 00000000 		.word	error_ang_old
 986 0168 0000FA45 		.word	1174011904
 987 016c 00003943 		.word	1127809024
 988 0170 00000000 		.word	.LANCHOR1
 989              		.cfi_endproc
 990              	.LFE166:
 992              		.section	.text.Motion_WallSpinTurn,"ax",%progbits
 993              		.align	1
 994              		.global	Motion_WallSpinTurn
 995              		.syntax unified
 996              		.thumb
 997              		.thumb_func
 998              		.fpu fpv4-sp-d16
 1000              	Motion_WallSpinTurn:
 1001              	.LFB167:
 241:Src/motion.c  **** 
 242:Src/motion.c  **** void Motion_WallSpinTurn(void)
 243:Src/motion.c  **** {
 1002              		.loc 1 243 0
 1003              		.cfi_startproc
 1004              		@ args = 0, pretend = 0, frame = 0
 1005              		@ frame_needed = 0, uses_anonymous_args = 0
 1006 0000 08B5     		push	{r3, lr}
 1007              	.LCFI18:
 1008              		.cfi_def_cfa_offset 8
 1009              		.cfi_offset 3, -8
 1010              		.cfi_offset 14, -4
 1011 0002 2DED028B 		vpush.64	{d8}
 1012              	.LCFI19:
 1013              		.cfi_def_cfa_offset 16
 1014              		.cfi_offset 80, -16
 1015              		.cfi_offset 81, -12
 244:Src/motion.c  ****     Control_StrCalculator(90.0f - enc.offset, VELO_S, VELO_S, 0, ACCEL_S, 1);
ARM GAS  C:\Users\kotaro\AppData\Local\Temp\cc2MmsOy.s 			page 23


 1016              		.loc 1 244 0
 1017 0006 734B     		ldr	r3, .L64
 1018 0008 D3ED027A 		vldr.32	s15, [r3, #8]
 1019 000c 9FED728A 		vldr.32	s16, .L64+4
 1020 0010 DFED720A 		vldr.32	s1, .L64+8
 1021 0014 F7EE002A 		vmov.f32	s5, #1.0e+0
 1022 0018 9FED712A 		vldr.32	s4, .L64+12
 1023 001c F0EE481A 		vmov.f32	s3, s16
 1024 0020 B0EE601A 		vmov.f32	s2, s1
 1025 0024 9FED6F0A 		vldr.32	s0, .L64+16
 1026 0028 30EE670A 		vsub.f32	s0, s0, s15
 1027 002c FFF7FEFF 		bl	Control_StrCalculator
 1028              	.LVL51:
 245:Src/motion.c  ****     Control_AngCalculator(0, 0, 0, 0, 1, 0);
 1029              		.loc 1 245 0
 1030 0030 F0EE482A 		vmov.f32	s5, s16
 1031 0034 B7EE002A 		vmov.f32	s4, #1.0e+0
 1032 0038 F0EE481A 		vmov.f32	s3, s16
 1033 003c B0EE481A 		vmov.f32	s2, s16
 1034 0040 F0EE480A 		vmov.f32	s1, s16
 1035 0044 B0EE480A 		vmov.f32	s0, s16
 1036 0048 FFF7FEFF 		bl	Control_AngCalculator
 1037              	.LVL52:
 246:Src/motion.c  ****     motion_end_flag = FALSE;
 1038              		.loc 1 246 0
 1039 004c 664B     		ldr	r3, .L64+20
 1040 004e 0022     		movs	r2, #0
 1041 0050 1A70     		strb	r2, [r3]
 1042              	.L58:
 247:Src/motion.c  ****     while (motion_end_flag == FALSE)
 1043              		.loc 1 247 0 discriminator 1
 1044 0052 654B     		ldr	r3, .L64+20
 1045 0054 1B78     		ldrb	r3, [r3]	@ zero_extendqisi2
 1046 0056 002B     		cmp	r3, #0
 1047 0058 FBD0     		beq	.L58
 248:Src/motion.c  ****     {
 249:Src/motion.c  ****     }
 250:Src/motion.c  **** 
 251:Src/motion.c  ****     straight.v_now = 0;
 1048              		.loc 1 251 0
 1049 005a 0023     		movs	r3, #0
 1050 005c 634A     		ldr	r2, .L64+24
 1051 005e D360     		str	r3, [r2, #12]	@ float
 252:Src/motion.c  ****     angle.v_now = 0;
 1052              		.loc 1 252 0
 1053 0060 634A     		ldr	r2, .L64+28
 1054 0062 D360     		str	r3, [r2, #12]	@ float
 253:Src/motion.c  ****     error_ang_sum = 0.0f;
 1055              		.loc 1 253 0
 1056 0064 634A     		ldr	r2, .L64+32
 1057 0066 1360     		str	r3, [r2]	@ float
 254:Src/motion.c  ****     error_ang_old = 0.0f;
 1058              		.loc 1 254 0
 1059 0068 634A     		ldr	r2, .L64+36
 1060 006a 1360     		str	r3, [r2]	@ float
 255:Src/motion.c  ****     HAL_Delay(500);
 1061              		.loc 1 255 0
ARM GAS  C:\Users\kotaro\AppData\Local\Temp\cc2MmsOy.s 			page 24


 1062 006c 4FF4FA70 		mov	r0, #500
 1063 0070 FFF7FEFF 		bl	HAL_Delay
 1064              	.LVL53:
 256:Src/motion.c  **** 
 257:Src/motion.c  ****     front_wall_flag = TRUE;
 1065              		.loc 1 257 0
 1066 0074 614B     		ldr	r3, .L64+40
 1067 0076 0122     		movs	r2, #1
 1068 0078 1A70     		strb	r2, [r3]
 1069              	.L59:
 258:Src/motion.c  ****     while (front_wall_flag == TRUE)
 1070              		.loc 1 258 0 discriminator 1
 1071 007a 604B     		ldr	r3, .L64+40
 1072 007c 1B78     		ldrb	r3, [r3]	@ zero_extendqisi2
 1073 007e DBB2     		uxtb	r3, r3
 1074 0080 012B     		cmp	r3, #1
 1075 0082 FAD0     		beq	.L59
 259:Src/motion.c  ****     {
 260:Src/motion.c  ****     }
 261:Src/motion.c  **** 
 262:Src/motion.c  ****     straight.v_now = 0;
 1076              		.loc 1 262 0
 1077 0084 9FED548A 		vldr.32	s16, .L64+4
 1078 0088 584B     		ldr	r3, .L64+24
 1079 008a 83ED038A 		vstr.32	s16, [r3, #12]
 263:Src/motion.c  ****     angle.v_now = 0;
 1080              		.loc 1 263 0
 1081 008e 584B     		ldr	r3, .L64+28
 1082 0090 83ED038A 		vstr.32	s16, [r3, #12]
 264:Src/motion.c  ****     error_ang_sum = 0.0f;
 1083              		.loc 1 264 0
 1084 0094 574B     		ldr	r3, .L64+32
 1085 0096 83ED008A 		vstr.32	s16, [r3]
 265:Src/motion.c  ****     error_ang_old = 0.0f;
 1086              		.loc 1 265 0
 1087 009a 574B     		ldr	r3, .L64+36
 1088 009c 83ED008A 		vstr.32	s16, [r3]
 266:Src/motion.c  ****     HAL_Delay(500);
 1089              		.loc 1 266 0
 1090 00a0 4FF4FA70 		mov	r0, #500
 1091 00a4 FFF7FEFF 		bl	HAL_Delay
 1092              	.LVL54:
 267:Src/motion.c  **** 
 268:Src/motion.c  ****     Control_StrCalculator(0, 0, 0, 0, 1, 0);
 1093              		.loc 1 268 0
 1094 00a8 F0EE482A 		vmov.f32	s5, s16
 1095 00ac B7EE002A 		vmov.f32	s4, #1.0e+0
 1096 00b0 F0EE481A 		vmov.f32	s3, s16
 1097 00b4 B0EE481A 		vmov.f32	s2, s16
 1098 00b8 F0EE480A 		vmov.f32	s1, s16
 1099 00bc B0EE480A 		vmov.f32	s0, s16
 1100 00c0 FFF7FEFF 		bl	Control_StrCalculator
 1101              	.LVL55:
 269:Src/motion.c  ****     Control_AngCalculator(185.0f, 0.0f, VELO_ANG_S, 0.0f, ACCEL_ANG_S, 1);
 1102              		.loc 1 269 0
 1103 00c4 F7EE002A 		vmov.f32	s5, #1.0e+0
 1104 00c8 9FED4D2A 		vldr.32	s4, .L64+44
ARM GAS  C:\Users\kotaro\AppData\Local\Temp\cc2MmsOy.s 			page 25


 1105 00cc F0EE481A 		vmov.f32	s3, s16
 1106 00d0 9FED421A 		vldr.32	s2, .L64+8
 1107 00d4 F0EE480A 		vmov.f32	s1, s16
 1108 00d8 9FED4A0A 		vldr.32	s0, .L64+48
 1109 00dc FFF7FEFF 		bl	Control_AngCalculator
 1110              	.LVL56:
 270:Src/motion.c  ****     motion_end_flag = FALSE;
 1111              		.loc 1 270 0
 1112 00e0 414B     		ldr	r3, .L64+20
 1113 00e2 0022     		movs	r2, #0
 1114 00e4 1A70     		strb	r2, [r3]
 1115              	.L60:
 271:Src/motion.c  ****     while (motion_end_flag == FALSE)
 1116              		.loc 1 271 0 discriminator 1
 1117 00e6 404B     		ldr	r3, .L64+20
 1118 00e8 1B78     		ldrb	r3, [r3]	@ zero_extendqisi2
 1119 00ea 002B     		cmp	r3, #0
 1120 00ec FBD0     		beq	.L60
 272:Src/motion.c  ****     {
 273:Src/motion.c  ****     }
 274:Src/motion.c  ****     straight.v_now = 0;
 1121              		.loc 1 274 0
 1122 00ee 9FED3A8A 		vldr.32	s16, .L64+4
 1123 00f2 3E4B     		ldr	r3, .L64+24
 1124 00f4 83ED038A 		vstr.32	s16, [r3, #12]
 275:Src/motion.c  ****     angle.v_now = 0;
 1125              		.loc 1 275 0
 1126 00f8 3D4B     		ldr	r3, .L64+28
 1127 00fa 83ED038A 		vstr.32	s16, [r3, #12]
 276:Src/motion.c  ****     error_ang_sum = 0.0f;
 1128              		.loc 1 276 0
 1129 00fe 3D4B     		ldr	r3, .L64+32
 1130 0100 83ED008A 		vstr.32	s16, [r3]
 277:Src/motion.c  ****     error_ang_old = 0.0f;
 1131              		.loc 1 277 0
 1132 0104 3C4B     		ldr	r3, .L64+36
 1133 0106 83ED008A 		vstr.32	s16, [r3]
 278:Src/motion.c  ****     HAL_Delay(800);
 1134              		.loc 1 278 0
 1135 010a 4FF44870 		mov	r0, #800
 1136 010e FFF7FEFF 		bl	HAL_Delay
 1137              	.LVL57:
 279:Src/motion.c  **** 
 280:Src/motion.c  ****     Control_StrCalculator(55.0f, 0, 100, 0, 1000, -1);
 1138              		.loc 1 280 0
 1139 0112 FFEE002A 		vmov.f32	s5, #-1.0e+0
 1140 0116 9FED3C2A 		vldr.32	s4, .L64+52
 1141 011a F0EE481A 		vmov.f32	s3, s16
 1142 011e 9FED3B1A 		vldr.32	s2, .L64+56
 1143 0122 F0EE480A 		vmov.f32	s1, s16
 1144 0126 9FED3A0A 		vldr.32	s0, .L64+60
 1145 012a FFF7FEFF 		bl	Control_StrCalculator
 1146              	.LVL58:
 281:Src/motion.c  ****     Control_AngCalculator(0, 0, 0, 0, 1, 0);
 1147              		.loc 1 281 0
 1148 012e F0EE482A 		vmov.f32	s5, s16
 1149 0132 B7EE002A 		vmov.f32	s4, #1.0e+0
ARM GAS  C:\Users\kotaro\AppData\Local\Temp\cc2MmsOy.s 			page 26


 1150 0136 F0EE481A 		vmov.f32	s3, s16
 1151 013a B0EE481A 		vmov.f32	s2, s16
 1152 013e F0EE480A 		vmov.f32	s1, s16
 1153 0142 B0EE480A 		vmov.f32	s0, s16
 1154 0146 FFF7FEFF 		bl	Control_AngCalculator
 1155              	.LVL59:
 282:Src/motion.c  ****     motion_end_flag = FALSE;
 1156              		.loc 1 282 0
 1157 014a 274B     		ldr	r3, .L64+20
 1158 014c 0022     		movs	r2, #0
 1159 014e 1A70     		strb	r2, [r3]
 1160              	.L61:
 283:Src/motion.c  ****     while (motion_end_flag == FALSE)
 1161              		.loc 1 283 0 discriminator 1
 1162 0150 254B     		ldr	r3, .L64+20
 1163 0152 1B78     		ldrb	r3, [r3]	@ zero_extendqisi2
 1164 0154 002B     		cmp	r3, #0
 1165 0156 FBD0     		beq	.L61
 284:Src/motion.c  ****     {
 285:Src/motion.c  ****     }
 286:Src/motion.c  ****     straight.v_now = 0;
 1166              		.loc 1 286 0
 1167 0158 9FED1F8A 		vldr.32	s16, .L64+4
 1168 015c 234B     		ldr	r3, .L64+24
 1169 015e 83ED038A 		vstr.32	s16, [r3, #12]
 287:Src/motion.c  ****     angle.v_now = 0;
 1170              		.loc 1 287 0
 1171 0162 234B     		ldr	r3, .L64+28
 1172 0164 83ED038A 		vstr.32	s16, [r3, #12]
 288:Src/motion.c  ****     error_ang_sum = 0.0f;
 1173              		.loc 1 288 0
 1174 0168 224B     		ldr	r3, .L64+32
 1175 016a 83ED008A 		vstr.32	s16, [r3]
 289:Src/motion.c  ****     error_ang_old = 0.0f;
 1176              		.loc 1 289 0
 1177 016e 224B     		ldr	r3, .L64+36
 1178 0170 83ED008A 		vstr.32	s16, [r3]
 290:Src/motion.c  ****     HAL_Delay(500);
 1179              		.loc 1 290 0
 1180 0174 4FF4FA70 		mov	r0, #500
 1181 0178 FFF7FEFF 		bl	HAL_Delay
 1182              	.LVL60:
 291:Src/motion.c  **** 
 292:Src/motion.c  ****     Control_StrCalculator(130.0f, 0, VELO_S, VELO_S, ACCEL_S, 1);
 1183              		.loc 1 292 0
 1184 017c 9FED171A 		vldr.32	s2, .L64+8
 1185 0180 F7EE002A 		vmov.f32	s5, #1.0e+0
 1186 0184 9FED162A 		vldr.32	s4, .L64+12
 1187 0188 F0EE411A 		vmov.f32	s3, s2
 1188 018c F0EE480A 		vmov.f32	s1, s16
 1189 0190 9FED200A 		vldr.32	s0, .L64+64
 1190 0194 FFF7FEFF 		bl	Control_StrCalculator
 1191              	.LVL61:
 293:Src/motion.c  ****     Control_AngCalculator(0, 0, 0, 0, 1, 0);
 1192              		.loc 1 293 0
 1193 0198 F0EE482A 		vmov.f32	s5, s16
 1194 019c B7EE002A 		vmov.f32	s4, #1.0e+0
ARM GAS  C:\Users\kotaro\AppData\Local\Temp\cc2MmsOy.s 			page 27


 1195 01a0 F0EE481A 		vmov.f32	s3, s16
 1196 01a4 B0EE481A 		vmov.f32	s2, s16
 1197 01a8 F0EE480A 		vmov.f32	s1, s16
 1198 01ac B0EE480A 		vmov.f32	s0, s16
 1199 01b0 FFF7FEFF 		bl	Control_AngCalculator
 1200              	.LVL62:
 294:Src/motion.c  ****     motion_end_flag = FALSE;
 1201              		.loc 1 294 0
 1202 01b4 0C4B     		ldr	r3, .L64+20
 1203 01b6 0022     		movs	r2, #0
 1204 01b8 1A70     		strb	r2, [r3]
 1205              	.L62:
 295:Src/motion.c  ****     while (motion_end_flag == FALSE)
 1206              		.loc 1 295 0 discriminator 1
 1207 01ba 0B4B     		ldr	r3, .L64+20
 1208 01bc 1B78     		ldrb	r3, [r3]	@ zero_extendqisi2
 1209 01be 002B     		cmp	r3, #0
 1210 01c0 FBD0     		beq	.L62
 296:Src/motion.c  ****     {
 297:Src/motion.c  ****     }
 298:Src/motion.c  ****     enc.offset = 0.0f;
 1211              		.loc 1 298 0
 1212 01c2 044B     		ldr	r3, .L64
 1213 01c4 0022     		movs	r2, #0
 1214 01c6 9A60     		str	r2, [r3, #8]	@ float
 299:Src/motion.c  ****     prefront_flag = TRUE;
 1215              		.loc 1 299 0
 1216 01c8 134B     		ldr	r3, .L64+68
 1217 01ca 0122     		movs	r2, #1
 1218 01cc 1A80     		strh	r2, [r3]	@ movhi
 300:Src/motion.c  **** }
 1219              		.loc 1 300 0
 1220 01ce BDEC028B 		vldm	sp!, {d8}
 1221              	.LCFI20:
 1222              		.cfi_restore 80
 1223              		.cfi_restore 81
 1224              		.cfi_def_cfa_offset 8
 1225 01d2 08BD     		pop	{r3, pc}
 1226              	.L65:
 1227              		.align	2
 1228              	.L64:
 1229 01d4 00000000 		.word	enc
 1230 01d8 00000000 		.word	0
 1231 01dc 0000C843 		.word	1137180672
 1232 01e0 00007A45 		.word	1165623296
 1233 01e4 0000B442 		.word	1119092736
 1234 01e8 00000000 		.word	motion_end_flag
 1235 01ec 00000000 		.word	straight
 1236 01f0 00000000 		.word	angle
 1237 01f4 00000000 		.word	error_ang_sum
 1238 01f8 00000000 		.word	error_ang_old
 1239 01fc 00000000 		.word	front_wall_flag
 1240 0200 0000FA45 		.word	1174011904
 1241 0204 00003943 		.word	1127809024
 1242 0208 00007A44 		.word	1148846080
 1243 020c 0000C842 		.word	1120403456
 1244 0210 00005C42 		.word	1113325568
ARM GAS  C:\Users\kotaro\AppData\Local\Temp\cc2MmsOy.s 			page 28


 1245 0214 00000243 		.word	1124204544
 1246 0218 00000000 		.word	.LANCHOR1
 1247              		.cfi_endproc
 1248              	.LFE167:
 1250              		.section	.text.Motion_LeftTurn,"ax",%progbits
 1251              		.align	1
 1252              		.global	Motion_LeftTurn
 1253              		.syntax unified
 1254              		.thumb
 1255              		.thumb_func
 1256              		.fpu fpv4-sp-d16
 1258              	Motion_LeftTurn:
 1259              	.LFB168:
 301:Src/motion.c  **** 
 302:Src/motion.c  **** void Motion_LeftTurn(void)
 303:Src/motion.c  **** {
 1260              		.loc 1 303 0
 1261              		.cfi_startproc
 1262              		@ args = 0, pretend = 0, frame = 0
 1263              		@ frame_needed = 0, uses_anonymous_args = 0
 1264 0000 08B5     		push	{r3, lr}
 1265              	.LCFI21:
 1266              		.cfi_def_cfa_offset 8
 1267              		.cfi_offset 3, -8
 1268              		.cfi_offset 14, -4
 304:Src/motion.c  ****     //offset in
 305:Src/motion.c  ****     if (sen_front.is_wall == TRUE)
 1269              		.loc 1 305 0
 1270 0002 3F4B     		ldr	r3, .L74
 1271 0004 1B7F     		ldrb	r3, [r3, #28]	@ zero_extendqisi2
 1272 0006 012B     		cmp	r3, #1
 1273 0008 51D1     		bne	.L67
 1274              	.L68:
 306:Src/motion.c  ****     {
 307:Src/motion.c  ****         while (sen_front.now < OFFSET_SEN)
 1275              		.loc 1 307 0 discriminator 1
 1276 000a 3D4B     		ldr	r3, .L74
 1277 000c B3F90030 		ldrsh	r3, [r3]
 1278 0010 862B     		cmp	r3, #134
 1279 0012 FADD     		ble	.L68
 1280              	.L69:
 308:Src/motion.c  ****             ;
 309:Src/motion.c  ****     }
 310:Src/motion.c  ****     else
 311:Src/motion.c  ****     {
 312:Src/motion.c  ****         Control_StrCalculator(36.0f - enc.offset, VELO_S, VELO_S, VELO_S, 1, 1);
 313:Src/motion.c  ****         Control_AngCalculator(0, 0, 0, 0, 1, 0);
 314:Src/motion.c  ****         motion_end_flag = FALSE;
 315:Src/motion.c  ****         while (motion_end_flag == FALSE)
 316:Src/motion.c  ****         {
 317:Src/motion.c  ****         }
 318:Src/motion.c  ****     }
 319:Src/motion.c  ****     //turn
 320:Src/motion.c  ****     Control_StrCalculator(180.0f, VELO_S, VELO_S, VELO_S, 1, 1);
 1281              		.loc 1 320 0
 1282 0014 DFED3B0A 		vldr.32	s1, .L74+4
 1283 0018 F7EE002A 		vmov.f32	s5, #1.0e+0
ARM GAS  C:\Users\kotaro\AppData\Local\Temp\cc2MmsOy.s 			page 29


 1284 001c B0EE622A 		vmov.f32	s4, s5
 1285 0020 F0EE601A 		vmov.f32	s3, s1
 1286 0024 B0EE601A 		vmov.f32	s2, s1
 1287 0028 9FED370A 		vldr.32	s0, .L74+8
 1288 002c FFF7FEFF 		bl	Control_StrCalculator
 1289              	.LVL63:
 321:Src/motion.c  ****     Control_AngCalculator(90.88f, 0, VELO_ANG_S_SLALOM, 0, ACCEL_ANG_S_SLALOM, 1); //90.88f
 1290              		.loc 1 321 0
 1291 0030 DFED360A 		vldr.32	s1, .L74+12
 1292 0034 F7EE002A 		vmov.f32	s5, #1.0e+0
 1293 0038 9FED352A 		vldr.32	s4, .L74+16
 1294 003c F0EE601A 		vmov.f32	s3, s1
 1295 0040 9FED341A 		vldr.32	s2, .L74+20
 1296 0044 9FED340A 		vldr.32	s0, .L74+24
 1297 0048 FFF7FEFF 		bl	Control_AngCalculator
 1298              	.LVL64:
 322:Src/motion.c  ****     motion_end_flag = FALSE;
 1299              		.loc 1 322 0
 1300 004c 334B     		ldr	r3, .L74+28
 1301 004e 0022     		movs	r2, #0
 1302 0050 1A70     		strb	r2, [r3]
 1303              	.L71:
 323:Src/motion.c  ****     while (motion_end_flag == FALSE)
 1304              		.loc 1 323 0 discriminator 1
 1305 0052 324B     		ldr	r3, .L74+28
 1306 0054 1B78     		ldrb	r3, [r3]	@ zero_extendqisi2
 1307 0056 002B     		cmp	r3, #0
 1308 0058 FBD0     		beq	.L71
 324:Src/motion.c  ****     {
 325:Src/motion.c  ****     }
 326:Src/motion.c  ****     //offset out
 327:Src/motion.c  ****     Control_StrCalculator(42.0f, VELO_S, VELO_S, VELO_S, 1, 1);
 1309              		.loc 1 327 0
 1310 005a DFED2A0A 		vldr.32	s1, .L74+4
 1311 005e F7EE002A 		vmov.f32	s5, #1.0e+0
 1312 0062 B0EE622A 		vmov.f32	s4, s5
 1313 0066 F0EE601A 		vmov.f32	s3, s1
 1314 006a B0EE601A 		vmov.f32	s2, s1
 1315 006e 9FED2C0A 		vldr.32	s0, .L74+32
 1316 0072 FFF7FEFF 		bl	Control_StrCalculator
 1317              	.LVL65:
 328:Src/motion.c  ****     Control_AngCalculator(0, 0, 0, 0, 1, 0);
 1318              		.loc 1 328 0
 1319 0076 9FED250A 		vldr.32	s0, .L74+12
 1320 007a F0EE402A 		vmov.f32	s5, s0
 1321 007e B7EE002A 		vmov.f32	s4, #1.0e+0
 1322 0082 F0EE401A 		vmov.f32	s3, s0
 1323 0086 B0EE401A 		vmov.f32	s2, s0
 1324 008a F0EE400A 		vmov.f32	s1, s0
 1325 008e FFF7FEFF 		bl	Control_AngCalculator
 1326              	.LVL66:
 329:Src/motion.c  ****     motion_end_flag = FALSE;
 1327              		.loc 1 329 0
 1328 0092 224B     		ldr	r3, .L74+28
 1329 0094 0022     		movs	r2, #0
 1330 0096 1A70     		strb	r2, [r3]
 1331              	.L72:
ARM GAS  C:\Users\kotaro\AppData\Local\Temp\cc2MmsOy.s 			page 30


 330:Src/motion.c  ****     while (motion_end_flag == FALSE)
 1332              		.loc 1 330 0 discriminator 1
 1333 0098 204B     		ldr	r3, .L74+28
 1334 009a 1B78     		ldrb	r3, [r3]	@ zero_extendqisi2
 1335 009c 002B     		cmp	r3, #0
 1336 009e FBD0     		beq	.L72
 331:Src/motion.c  ****     {
 332:Src/motion.c  ****     }
 333:Src/motion.c  ****     enc.offset = 0.0f;
 1337              		.loc 1 333 0
 1338 00a0 204B     		ldr	r3, .L74+36
 1339 00a2 0022     		movs	r2, #0
 1340 00a4 9A60     		str	r2, [r3, #8]	@ float
 334:Src/motion.c  ****     prefront_flag = FALSE;
 1341              		.loc 1 334 0
 1342 00a6 204B     		ldr	r3, .L74+40
 1343 00a8 0022     		movs	r2, #0
 1344 00aa 1A80     		strh	r2, [r3]	@ movhi
 335:Src/motion.c  **** }
 1345              		.loc 1 335 0
 1346 00ac 08BD     		pop	{r3, pc}
 1347              	.L67:
 312:Src/motion.c  ****         Control_AngCalculator(0, 0, 0, 0, 1, 0);
 1348              		.loc 1 312 0
 1349 00ae 1D4B     		ldr	r3, .L74+36
 1350 00b0 D3ED027A 		vldr.32	s15, [r3, #8]
 1351 00b4 DFED130A 		vldr.32	s1, .L74+4
 1352 00b8 F7EE002A 		vmov.f32	s5, #1.0e+0
 1353 00bc B0EE622A 		vmov.f32	s4, s5
 1354 00c0 F0EE601A 		vmov.f32	s3, s1
 1355 00c4 B0EE601A 		vmov.f32	s2, s1
 1356 00c8 9FED180A 		vldr.32	s0, .L74+44
 1357 00cc 30EE670A 		vsub.f32	s0, s0, s15
 1358 00d0 FFF7FEFF 		bl	Control_StrCalculator
 1359              	.LVL67:
 313:Src/motion.c  ****         motion_end_flag = FALSE;
 1360              		.loc 1 313 0
 1361 00d4 9FED0D0A 		vldr.32	s0, .L74+12
 1362 00d8 F0EE402A 		vmov.f32	s5, s0
 1363 00dc B7EE002A 		vmov.f32	s4, #1.0e+0
 1364 00e0 F0EE401A 		vmov.f32	s3, s0
 1365 00e4 B0EE401A 		vmov.f32	s2, s0
 1366 00e8 F0EE400A 		vmov.f32	s1, s0
 1367 00ec FFF7FEFF 		bl	Control_AngCalculator
 1368              	.LVL68:
 314:Src/motion.c  ****         while (motion_end_flag == FALSE)
 1369              		.loc 1 314 0
 1370 00f0 0A4B     		ldr	r3, .L74+28
 1371 00f2 0022     		movs	r2, #0
 1372 00f4 1A70     		strb	r2, [r3]
 1373              	.L70:
 315:Src/motion.c  ****         {
 1374              		.loc 1 315 0 discriminator 1
 1375 00f6 094B     		ldr	r3, .L74+28
 1376 00f8 1B78     		ldrb	r3, [r3]	@ zero_extendqisi2
 1377 00fa 002B     		cmp	r3, #0
 1378 00fc FBD0     		beq	.L70
ARM GAS  C:\Users\kotaro\AppData\Local\Temp\cc2MmsOy.s 			page 31


 1379 00fe 89E7     		b	.L69
 1380              	.L75:
 1381              		.align	2
 1382              	.L74:
 1383 0100 00000000 		.word	sen_front
 1384 0104 0000C843 		.word	1137180672
 1385 0108 00003443 		.word	1127481344
 1386 010c 00000000 		.word	0
 1387 0110 00401C46 		.word	1176256512
 1388 0114 00001644 		.word	1142292480
 1389 0118 8FC2B542 		.word	1119208079
 1390 011c 00000000 		.word	motion_end_flag
 1391 0120 00002842 		.word	1109917696
 1392 0124 00000000 		.word	enc
 1393 0128 00000000 		.word	.LANCHOR1
 1394 012c 00001042 		.word	1108344832
 1395              		.cfi_endproc
 1396              	.LFE168:
 1398              		.section	.text.Motion_RightTurn,"ax",%progbits
 1399              		.align	1
 1400              		.global	Motion_RightTurn
 1401              		.syntax unified
 1402              		.thumb
 1403              		.thumb_func
 1404              		.fpu fpv4-sp-d16
 1406              	Motion_RightTurn:
 1407              	.LFB169:
 336:Src/motion.c  **** 
 337:Src/motion.c  **** void Motion_RightTurn(void)
 338:Src/motion.c  **** {
 1408              		.loc 1 338 0
 1409              		.cfi_startproc
 1410              		@ args = 0, pretend = 0, frame = 0
 1411              		@ frame_needed = 0, uses_anonymous_args = 0
 1412 0000 08B5     		push	{r3, lr}
 1413              	.LCFI22:
 1414              		.cfi_def_cfa_offset 8
 1415              		.cfi_offset 3, -8
 1416              		.cfi_offset 14, -4
 339:Src/motion.c  ****     //offset in
 340:Src/motion.c  ****     if (sen_front.is_wall == TRUE)
 1417              		.loc 1 340 0
 1418 0002 3F4B     		ldr	r3, .L84
 1419 0004 1B7F     		ldrb	r3, [r3, #28]	@ zero_extendqisi2
 1420 0006 012B     		cmp	r3, #1
 1421 0008 51D1     		bne	.L77
 1422              	.L78:
 341:Src/motion.c  ****     {
 342:Src/motion.c  ****         while (sen_front.now < OFFSET_SEN + 3)
 1423              		.loc 1 342 0 discriminator 1
 1424 000a 3D4B     		ldr	r3, .L84
 1425 000c B3F90030 		ldrsh	r3, [r3]
 1426 0010 892B     		cmp	r3, #137
 1427 0012 FADD     		ble	.L78
 1428              	.L79:
 343:Src/motion.c  ****             ;
 344:Src/motion.c  ****     }
ARM GAS  C:\Users\kotaro\AppData\Local\Temp\cc2MmsOy.s 			page 32


 345:Src/motion.c  ****     else
 346:Src/motion.c  ****     {
 347:Src/motion.c  ****         Control_StrCalculator(38.0f - enc.offset, VELO_S, VELO_S, VELO_S, 1, 1);
 348:Src/motion.c  ****         Control_AngCalculator(0, 0, 0, 0, 1, 0);
 349:Src/motion.c  ****         motion_end_flag = FALSE;
 350:Src/motion.c  ****         while (motion_end_flag == FALSE)
 351:Src/motion.c  ****         {
 352:Src/motion.c  ****         }
 353:Src/motion.c  ****     }
 354:Src/motion.c  ****     //turn
 355:Src/motion.c  ****     Control_StrCalculator(180.0f, VELO_S, VELO_S, VELO_S, 1, 1);
 1429              		.loc 1 355 0
 1430 0014 DFED3B0A 		vldr.32	s1, .L84+4
 1431 0018 F7EE002A 		vmov.f32	s5, #1.0e+0
 1432 001c B0EE622A 		vmov.f32	s4, s5
 1433 0020 F0EE601A 		vmov.f32	s3, s1
 1434 0024 B0EE601A 		vmov.f32	s2, s1
 1435 0028 9FED370A 		vldr.32	s0, .L84+8
 1436 002c FFF7FEFF 		bl	Control_StrCalculator
 1437              	.LVL69:
 356:Src/motion.c  ****     Control_AngCalculator(91.0f, 0, VELO_ANG_S_SLALOM, 0, ACCEL_ANG_S_SLALOM, -1); //90.80f
 1438              		.loc 1 356 0
 1439 0030 DFED360A 		vldr.32	s1, .L84+12
 1440 0034 FFEE002A 		vmov.f32	s5, #-1.0e+0
 1441 0038 9FED352A 		vldr.32	s4, .L84+16
 1442 003c F0EE601A 		vmov.f32	s3, s1
 1443 0040 9FED341A 		vldr.32	s2, .L84+20
 1444 0044 9FED340A 		vldr.32	s0, .L84+24
 1445 0048 FFF7FEFF 		bl	Control_AngCalculator
 1446              	.LVL70:
 357:Src/motion.c  ****     motion_end_flag = FALSE;
 1447              		.loc 1 357 0
 1448 004c 334B     		ldr	r3, .L84+28
 1449 004e 0022     		movs	r2, #0
 1450 0050 1A70     		strb	r2, [r3]
 1451              	.L81:
 358:Src/motion.c  ****     while (motion_end_flag == FALSE)
 1452              		.loc 1 358 0 discriminator 1
 1453 0052 324B     		ldr	r3, .L84+28
 1454 0054 1B78     		ldrb	r3, [r3]	@ zero_extendqisi2
 1455 0056 002B     		cmp	r3, #0
 1456 0058 FBD0     		beq	.L81
 359:Src/motion.c  ****     {
 360:Src/motion.c  ****     }
 361:Src/motion.c  ****     //offset out
 362:Src/motion.c  ****     Control_StrCalculator(52.0f, VELO_S, VELO_S, VELO_S, 1, 1);
 1457              		.loc 1 362 0
 1458 005a DFED2A0A 		vldr.32	s1, .L84+4
 1459 005e F7EE002A 		vmov.f32	s5, #1.0e+0
 1460 0062 B0EE622A 		vmov.f32	s4, s5
 1461 0066 F0EE601A 		vmov.f32	s3, s1
 1462 006a B0EE601A 		vmov.f32	s2, s1
 1463 006e 9FED2C0A 		vldr.32	s0, .L84+32
 1464 0072 FFF7FEFF 		bl	Control_StrCalculator
 1465              	.LVL71:
 363:Src/motion.c  ****     Control_AngCalculator(0, 0, 0, 0, 1, 0);
 1466              		.loc 1 363 0
ARM GAS  C:\Users\kotaro\AppData\Local\Temp\cc2MmsOy.s 			page 33


 1467 0076 9FED250A 		vldr.32	s0, .L84+12
 1468 007a F0EE402A 		vmov.f32	s5, s0
 1469 007e B7EE002A 		vmov.f32	s4, #1.0e+0
 1470 0082 F0EE401A 		vmov.f32	s3, s0
 1471 0086 B0EE401A 		vmov.f32	s2, s0
 1472 008a F0EE400A 		vmov.f32	s1, s0
 1473 008e FFF7FEFF 		bl	Control_AngCalculator
 1474              	.LVL72:
 364:Src/motion.c  ****     motion_end_flag = FALSE;
 1475              		.loc 1 364 0
 1476 0092 224B     		ldr	r3, .L84+28
 1477 0094 0022     		movs	r2, #0
 1478 0096 1A70     		strb	r2, [r3]
 1479              	.L82:
 365:Src/motion.c  ****     while (motion_end_flag == FALSE)
 1480              		.loc 1 365 0 discriminator 1
 1481 0098 204B     		ldr	r3, .L84+28
 1482 009a 1B78     		ldrb	r3, [r3]	@ zero_extendqisi2
 1483 009c 002B     		cmp	r3, #0
 1484 009e FBD0     		beq	.L82
 366:Src/motion.c  ****     {
 367:Src/motion.c  ****     }
 368:Src/motion.c  ****     enc.offset = 0.0f;
 1485              		.loc 1 368 0
 1486 00a0 204B     		ldr	r3, .L84+36
 1487 00a2 0022     		movs	r2, #0
 1488 00a4 9A60     		str	r2, [r3, #8]	@ float
 369:Src/motion.c  ****     prefront_flag = FALSE;
 1489              		.loc 1 369 0
 1490 00a6 204B     		ldr	r3, .L84+40
 1491 00a8 0022     		movs	r2, #0
 1492 00aa 1A80     		strh	r2, [r3]	@ movhi
 370:Src/motion.c  **** }
 1493              		.loc 1 370 0
 1494 00ac 08BD     		pop	{r3, pc}
 1495              	.L77:
 347:Src/motion.c  ****         Control_AngCalculator(0, 0, 0, 0, 1, 0);
 1496              		.loc 1 347 0
 1497 00ae 1D4B     		ldr	r3, .L84+36
 1498 00b0 D3ED027A 		vldr.32	s15, [r3, #8]
 1499 00b4 DFED130A 		vldr.32	s1, .L84+4
 1500 00b8 F7EE002A 		vmov.f32	s5, #1.0e+0
 1501 00bc B0EE622A 		vmov.f32	s4, s5
 1502 00c0 F0EE601A 		vmov.f32	s3, s1
 1503 00c4 B0EE601A 		vmov.f32	s2, s1
 1504 00c8 9FED180A 		vldr.32	s0, .L84+44
 1505 00cc 30EE670A 		vsub.f32	s0, s0, s15
 1506 00d0 FFF7FEFF 		bl	Control_StrCalculator
 1507              	.LVL73:
 348:Src/motion.c  ****         motion_end_flag = FALSE;
 1508              		.loc 1 348 0
 1509 00d4 9FED0D0A 		vldr.32	s0, .L84+12
 1510 00d8 F0EE402A 		vmov.f32	s5, s0
 1511 00dc B7EE002A 		vmov.f32	s4, #1.0e+0
 1512 00e0 F0EE401A 		vmov.f32	s3, s0
 1513 00e4 B0EE401A 		vmov.f32	s2, s0
 1514 00e8 F0EE400A 		vmov.f32	s1, s0
ARM GAS  C:\Users\kotaro\AppData\Local\Temp\cc2MmsOy.s 			page 34


 1515 00ec FFF7FEFF 		bl	Control_AngCalculator
 1516              	.LVL74:
 349:Src/motion.c  ****         while (motion_end_flag == FALSE)
 1517              		.loc 1 349 0
 1518 00f0 0A4B     		ldr	r3, .L84+28
 1519 00f2 0022     		movs	r2, #0
 1520 00f4 1A70     		strb	r2, [r3]
 1521              	.L80:
 350:Src/motion.c  ****         {
 1522              		.loc 1 350 0 discriminator 1
 1523 00f6 094B     		ldr	r3, .L84+28
 1524 00f8 1B78     		ldrb	r3, [r3]	@ zero_extendqisi2
 1525 00fa 002B     		cmp	r3, #0
 1526 00fc FBD0     		beq	.L80
 1527 00fe 89E7     		b	.L79
 1528              	.L85:
 1529              		.align	2
 1530              	.L84:
 1531 0100 00000000 		.word	sen_front
 1532 0104 0000C843 		.word	1137180672
 1533 0108 00003443 		.word	1127481344
 1534 010c 00000000 		.word	0
 1535 0110 00401C46 		.word	1176256512
 1536 0114 00001644 		.word	1142292480
 1537 0118 0000B642 		.word	1119223808
 1538 011c 00000000 		.word	motion_end_flag
 1539 0120 00005042 		.word	1112539136
 1540 0124 00000000 		.word	enc
 1541 0128 00000000 		.word	.LANCHOR1
 1542 012c 00001842 		.word	1108869120
 1543              		.cfi_endproc
 1544              	.LFE169:
 1546              		.section	.text.Motion_Switch,"ax",%progbits
 1547              		.align	1
 1548              		.global	Motion_Switch
 1549              		.syntax unified
 1550              		.thumb
 1551              		.thumb_func
 1552              		.fpu fpv4-sp-d16
 1554              	Motion_Switch:
 1555              	.LFB170:
 371:Src/motion.c  **** 
 372:Src/motion.c  **** void Motion_Switch(uint8_t motion)
 373:Src/motion.c  **** {
 1556              		.loc 1 373 0
 1557              		.cfi_startproc
 1558              		@ args = 0, pretend = 0, frame = 0
 1559              		@ frame_needed = 0, uses_anonymous_args = 0
 1560              	.LVL75:
 1561 0000 08B5     		push	{r3, lr}
 1562              	.LCFI23:
 1563              		.cfi_def_cfa_offset 8
 1564              		.cfi_offset 3, -8
 1565              		.cfi_offset 14, -4
 374:Src/motion.c  ****     switch (motion & 0xf)
 1566              		.loc 1 374 0
 1567 0002 00F00F03 		and	r3, r0, #15
ARM GAS  C:\Users\kotaro\AppData\Local\Temp\cc2MmsOy.s 			page 35


 1568 0006 042B     		cmp	r3, #4
 1569 0008 14D8     		bhi	.L87
 1570 000a DFE803F0 		tbb	[pc, r3]
 1571              	.L89:
 1572 000e 03       		.byte	(.L88-.L89)/2
 1573 000f 0A       		.byte	(.L90-.L89)/2
 1574 0010 07       		.byte	(.L91-.L89)/2
 1575 0011 0D       		.byte	(.L92-.L89)/2
 1576 0012 10       		.byte	(.L93-.L89)/2
 1577 0013 00       		.p2align 1
 1578              	.L88:
 375:Src/motion.c  ****     {
 376:Src/motion.c  ****     case FRONT:
 377:Src/motion.c  ****         Motion_Straight(motion >> 4);
 1579              		.loc 1 377 0
 1580 0014 0009     		lsrs	r0, r0, #4
 1581              	.LVL76:
 1582 0016 FFF7FEFF 		bl	Motion_Straight
 1583              	.LVL77:
 1584              	.L86:
 378:Src/motion.c  ****         break;
 379:Src/motion.c  ****     case RIGHT:
 380:Src/motion.c  ****         Motion_RightTurn();
 381:Src/motion.c  ****         break;
 382:Src/motion.c  ****     case LEFT:
 383:Src/motion.c  ****         Motion_LeftTurn();
 384:Src/motion.c  ****         break;
 385:Src/motion.c  ****     case REAR:
 386:Src/motion.c  ****         Motion_SpinTurn();
 387:Src/motion.c  ****         break;
 388:Src/motion.c  ****     case PIVO_REAR:
 389:Src/motion.c  ****         Motion_WallSpinTurn();
 390:Src/motion.c  ****         break;
 391:Src/motion.c  ****     default:
 392:Src/motion.c  ****         motor_flag = FALSE;
 393:Src/motion.c  ****         break;
 394:Src/motion.c  ****     }
 395:Src/motion.c  **** }
 1585              		.loc 1 395 0
 1586 001a 08BD     		pop	{r3, pc}
 1587              	.LVL78:
 1588              	.L91:
 380:Src/motion.c  ****         break;
 1589              		.loc 1 380 0
 1590 001c FFF7FEFF 		bl	Motion_RightTurn
 1591              	.LVL79:
 381:Src/motion.c  ****     case LEFT:
 1592              		.loc 1 381 0
 1593 0020 FBE7     		b	.L86
 1594              	.LVL80:
 1595              	.L90:
 383:Src/motion.c  ****         break;
 1596              		.loc 1 383 0
 1597 0022 FFF7FEFF 		bl	Motion_LeftTurn
 1598              	.LVL81:
 384:Src/motion.c  ****     case REAR:
 1599              		.loc 1 384 0
ARM GAS  C:\Users\kotaro\AppData\Local\Temp\cc2MmsOy.s 			page 36


 1600 0026 F8E7     		b	.L86
 1601              	.LVL82:
 1602              	.L92:
 386:Src/motion.c  ****         break;
 1603              		.loc 1 386 0
 1604 0028 FFF7FEFF 		bl	Motion_SpinTurn
 1605              	.LVL83:
 387:Src/motion.c  ****     case PIVO_REAR:
 1606              		.loc 1 387 0
 1607 002c F5E7     		b	.L86
 1608              	.LVL84:
 1609              	.L93:
 389:Src/motion.c  ****         break;
 1610              		.loc 1 389 0
 1611 002e FFF7FEFF 		bl	Motion_WallSpinTurn
 1612              	.LVL85:
 390:Src/motion.c  ****     default:
 1613              		.loc 1 390 0
 1614 0032 F2E7     		b	.L86
 1615              	.LVL86:
 1616              	.L87:
 392:Src/motion.c  ****         break;
 1617              		.loc 1 392 0
 1618 0034 014B     		ldr	r3, .L96
 1619 0036 0022     		movs	r2, #0
 1620 0038 1A70     		strb	r2, [r3]
 1621              		.loc 1 395 0
 1622 003a EEE7     		b	.L86
 1623              	.L97:
 1624              		.align	2
 1625              	.L96:
 1626 003c 00000000 		.word	motor_flag
 1627              		.cfi_endproc
 1628              	.LFE170:
 1630              		.section	.text.Motion_FastStart,"ax",%progbits
 1631              		.align	1
 1632              		.global	Motion_FastStart
 1633              		.syntax unified
 1634              		.thumb
 1635              		.thumb_func
 1636              		.fpu fpv4-sp-d16
 1638              	Motion_FastStart:
 1639              	.LFB171:
 396:Src/motion.c  **** 
 397:Src/motion.c  **** void Motion_FastStart(uint8_t step, float velo_end)
 398:Src/motion.c  **** {
 1640              		.loc 1 398 0
 1641              		.cfi_startproc
 1642              		@ args = 0, pretend = 0, frame = 0
 1643              		@ frame_needed = 0, uses_anonymous_args = 0
 1644              	.LVL87:
 1645 0000 10B5     		push	{r4, lr}
 1646              	.LCFI24:
 1647              		.cfi_def_cfa_offset 8
 1648              		.cfi_offset 4, -8
 1649              		.cfi_offset 14, -4
 1650 0002 2DED028B 		vpush.64	{d8}
ARM GAS  C:\Users\kotaro\AppData\Local\Temp\cc2MmsOy.s 			page 37


 1651              	.LCFI25:
 1652              		.cfi_def_cfa_offset 16
 1653              		.cfi_offset 80, -16
 1654              		.cfi_offset 81, -12
 1655 0006 0446     		mov	r4, r0
 1656 0008 F0EE408A 		vmov.f32	s17, s0
 399:Src/motion.c  ****     diagonal_step = 90.0f * sqrt(2);
 1657              		.loc 1 399 0
 1658 000c 274B     		ldr	r3, .L103
 1659 000e 284A     		ldr	r2, .L103+4
 1660 0010 1A60     		str	r2, [r3]	@ float
 400:Src/motion.c  ****     Control_ResetVelo();
 1661              		.loc 1 400 0
 1662 0012 FFF7FEFF 		bl	Control_ResetVelo
 1663              	.LVL88:
 401:Src/motion.c  ****     float velo = VELO_F + gain_velo * (float)(step - 1);
 1664              		.loc 1 401 0
 1665 0016 631E     		subs	r3, r4, #1
 1666 0018 01EE103A 		vmov	s2, r3	@ int
 1667 001c B8EEC11A 		vcvt.f32.s32	s2, s2
 1668 0020 244B     		ldr	r3, .L103+8
 1669 0022 D3ED007A 		vldr.32	s15, [r3]
 1670 0026 21EE271A 		vmul.f32	s2, s2, s15
 1671 002a DFED237A 		vldr.32	s15, .L103+12
 1672 002e 31EE271A 		vadd.f32	s2, s2, s15
 1673              	.LVL89:
 402:Src/motion.c  ****     if (velo > 2400)
 1674              		.loc 1 402 0
 1675 0032 DFED227A 		vldr.32	s15, .L103+16
 1676 0036 B4EEE71A 		vcmpe.f32	s2, s15
 1677 003a F1EE10FA 		vmrs	APSR_nzcv, FPSCR
 1678 003e 01DD     		ble	.L99
 403:Src/motion.c  ****     {
 404:Src/motion.c  ****         velo = 2400;
 1679              		.loc 1 404 0
 1680 0040 B0EE671A 		vmov.f32	s2, s15
 1681              	.LVL90:
 1682              	.L99:
 405:Src/motion.c  ****     }
 406:Src/motion.c  ****     Control_StrCalculator(40.0f + 90.0f * (float)step, 0.0f, velo, velo_end, ACCEL_F, 1);
 1683              		.loc 1 406 0
 1684 0044 07EE904A 		vmov	s15, r4	@ int
 1685 0048 F8EE677A 		vcvt.f32.u32	s15, s15
 1686 004c 9FED1C0A 		vldr.32	s0, .L103+20
 1687 0050 67EE807A 		vmul.f32	s15, s15, s0
 1688 0054 9FED1B8A 		vldr.32	s16, .L103+24
 1689 0058 F7EE002A 		vmov.f32	s5, #1.0e+0
 1690 005c 9FED1A2A 		vldr.32	s4, .L103+28
 1691 0060 F0EE681A 		vmov.f32	s3, s17
 1692 0064 F0EE480A 		vmov.f32	s1, s16
 1693 0068 9FED180A 		vldr.32	s0, .L103+32
 1694 006c 37EE800A 		vadd.f32	s0, s15, s0
 1695 0070 FFF7FEFF 		bl	Control_StrCalculator
 1696              	.LVL91:
 407:Src/motion.c  ****     Control_AngCalculator(0, 0, 0, 0, 1, 0);
 1697              		.loc 1 407 0
 1698 0074 F0EE482A 		vmov.f32	s5, s16
ARM GAS  C:\Users\kotaro\AppData\Local\Temp\cc2MmsOy.s 			page 38


 1699 0078 B7EE002A 		vmov.f32	s4, #1.0e+0
 1700 007c F0EE481A 		vmov.f32	s3, s16
 1701 0080 B0EE481A 		vmov.f32	s2, s16
 1702 0084 F0EE480A 		vmov.f32	s1, s16
 1703 0088 B0EE480A 		vmov.f32	s0, s16
 1704 008c FFF7FEFF 		bl	Control_AngCalculator
 1705              	.LVL92:
 408:Src/motion.c  ****     motion_end_flag = FALSE;
 1706              		.loc 1 408 0
 1707 0090 0F4B     		ldr	r3, .L103+36
 1708 0092 0022     		movs	r2, #0
 1709 0094 1A70     		strb	r2, [r3]
 1710              	.L100:
 409:Src/motion.c  ****     while (motion_end_flag == FALSE)
 1711              		.loc 1 409 0 discriminator 1
 1712 0096 0E4B     		ldr	r3, .L103+36
 1713 0098 1B78     		ldrb	r3, [r3]	@ zero_extendqisi2
 1714 009a 002B     		cmp	r3, #0
 1715 009c FBD0     		beq	.L100
 410:Src/motion.c  ****     {
 411:Src/motion.c  ****     }
 412:Src/motion.c  ****     enc.offset = 0.0f;
 1716              		.loc 1 412 0
 1717 009e 0D4B     		ldr	r3, .L103+40
 1718 00a0 0022     		movs	r2, #0
 1719 00a2 9A60     		str	r2, [r3, #8]	@ float
 413:Src/motion.c  **** }
 1720              		.loc 1 413 0
 1721 00a4 BDEC028B 		vldm	sp!, {d8}
 1722              	.LCFI26:
 1723              		.cfi_restore 80
 1724              		.cfi_restore 81
 1725              		.cfi_def_cfa_offset 8
 1726 00a8 10BD     		pop	{r4, pc}
 1727              	.L104:
 1728 00aa 00BF     		.align	2
 1729              	.L103:
 1730 00ac 00000000 		.word	.LANCHOR2
 1731 00b0 F68EFE42 		.word	1123978998
 1732 00b4 00000000 		.word	.LANCHOR0
 1733 00b8 00004844 		.word	1145569280
 1734 00bc 00001645 		.word	1159069696
 1735 00c0 0000B442 		.word	1119092736
 1736 00c4 00000000 		.word	0
 1737 00c8 0000FA45 		.word	1174011904
 1738 00cc 00002042 		.word	1109393408
 1739 00d0 00000000 		.word	motion_end_flag
 1740 00d4 00000000 		.word	enc
 1741              		.cfi_endproc
 1742              	.LFE171:
 1744              		.section	.text.Motion_FastStraight,"ax",%progbits
 1745              		.align	1
 1746              		.global	Motion_FastStraight
 1747              		.syntax unified
 1748              		.thumb
 1749              		.thumb_func
 1750              		.fpu fpv4-sp-d16
ARM GAS  C:\Users\kotaro\AppData\Local\Temp\cc2MmsOy.s 			page 39


 1752              	Motion_FastStraight:
 1753              	.LFB172:
 414:Src/motion.c  **** 
 415:Src/motion.c  **** void Motion_FastStraight(uint8_t step, float v_start, float v_end)
 416:Src/motion.c  **** {
 1754              		.loc 1 416 0
 1755              		.cfi_startproc
 1756              		@ args = 0, pretend = 0, frame = 0
 1757              		@ frame_needed = 0, uses_anonymous_args = 0
 1758              	.LVL93:
 1759 0000 08B5     		push	{r3, lr}
 1760              	.LCFI27:
 1761              		.cfi_def_cfa_offset 8
 1762              		.cfi_offset 3, -8
 1763              		.cfi_offset 14, -4
 1764 0002 F0EE601A 		vmov.f32	s3, s1
 417:Src/motion.c  ****     float velo = VELO_F + gain_velo * (float)step;
 1765              		.loc 1 417 0
 1766 0006 07EE900A 		vmov	s15, r0	@ int
 1767 000a F8EE677A 		vcvt.f32.u32	s15, s15
 1768 000e 1E4B     		ldr	r3, .L110
 1769 0010 93ED001A 		vldr.32	s2, [r3]
 1770 0014 27EE811A 		vmul.f32	s2, s15, s2
 1771 0018 9FED1C7A 		vldr.32	s14, .L110+4
 1772 001c 31EE071A 		vadd.f32	s2, s2, s14
 1773              	.LVL94:
 418:Src/motion.c  ****     if (velo > 2400)
 1774              		.loc 1 418 0
 1775 0020 9FED1B7A 		vldr.32	s14, .L110+8
 1776 0024 B4EEC71A 		vcmpe.f32	s2, s14
 1777 0028 F1EE10FA 		vmrs	APSR_nzcv, FPSCR
 1778 002c 01DD     		ble	.L106
 419:Src/motion.c  ****     {
 420:Src/motion.c  ****         velo = 2400;
 1779              		.loc 1 420 0
 1780 002e B0EE471A 		vmov.f32	s2, s14
 1781              	.LVL95:
 1782              	.L106:
 421:Src/motion.c  ****     }
 422:Src/motion.c  ****     Control_StrCalculator(90.0f * (float)step - enc.offset, v_start, velo, v_end, ACCEL_F, 1);
 1783              		.loc 1 422 0
 1784 0032 9FED187A 		vldr.32	s14, .L110+12
 1785 0036 67EE877A 		vmul.f32	s15, s15, s14
 1786 003a 174B     		ldr	r3, .L110+16
 1787 003c 93ED027A 		vldr.32	s14, [r3, #8]
 1788 0040 F7EE002A 		vmov.f32	s5, #1.0e+0
 1789 0044 9FED152A 		vldr.32	s4, .L110+20
 1790 0048 F0EE400A 		vmov.f32	s1, s0
 1791              	.LVL96:
 1792 004c 37EEC70A 		vsub.f32	s0, s15, s14
 1793              	.LVL97:
 1794 0050 FFF7FEFF 		bl	Control_StrCalculator
 1795              	.LVL98:
 423:Src/motion.c  ****     Control_AngCalculator(0, 0, 0, 0, 1, 0);
 1796              		.loc 1 423 0
 1797 0054 9FED120A 		vldr.32	s0, .L110+24
 1798 0058 F0EE402A 		vmov.f32	s5, s0
ARM GAS  C:\Users\kotaro\AppData\Local\Temp\cc2MmsOy.s 			page 40


 1799 005c B7EE002A 		vmov.f32	s4, #1.0e+0
 1800 0060 F0EE401A 		vmov.f32	s3, s0
 1801 0064 B0EE401A 		vmov.f32	s2, s0
 1802 0068 F0EE400A 		vmov.f32	s1, s0
 1803 006c FFF7FEFF 		bl	Control_AngCalculator
 1804              	.LVL99:
 424:Src/motion.c  ****     motion_end_flag = FALSE;
 1805              		.loc 1 424 0
 1806 0070 0C4B     		ldr	r3, .L110+28
 1807 0072 0022     		movs	r2, #0
 1808 0074 1A70     		strb	r2, [r3]
 1809              	.L107:
 425:Src/motion.c  ****     while (motion_end_flag == FALSE)
 1810              		.loc 1 425 0 discriminator 1
 1811 0076 0B4B     		ldr	r3, .L110+28
 1812 0078 1B78     		ldrb	r3, [r3]	@ zero_extendqisi2
 1813 007a 002B     		cmp	r3, #0
 1814 007c FBD0     		beq	.L107
 426:Src/motion.c  ****     {
 427:Src/motion.c  ****     }
 428:Src/motion.c  ****     enc.offset = 0.0f;
 1815              		.loc 1 428 0
 1816 007e 064B     		ldr	r3, .L110+16
 1817 0080 0022     		movs	r2, #0
 1818 0082 9A60     		str	r2, [r3, #8]	@ float
 429:Src/motion.c  **** }
 1819              		.loc 1 429 0
 1820 0084 08BD     		pop	{r3, pc}
 1821              	.L111:
 1822 0086 00BF     		.align	2
 1823              	.L110:
 1824 0088 00000000 		.word	.LANCHOR0
 1825 008c 00004844 		.word	1145569280
 1826 0090 00001645 		.word	1159069696
 1827 0094 0000B442 		.word	1119092736
 1828 0098 00000000 		.word	enc
 1829 009c 0000FA45 		.word	1174011904
 1830 00a0 00000000 		.word	0
 1831 00a4 00000000 		.word	motion_end_flag
 1832              		.cfi_endproc
 1833              	.LFE172:
 1835              		.section	.text.Motion_Adjust,"ax",%progbits
 1836              		.align	1
 1837              		.global	Motion_Adjust
 1838              		.syntax unified
 1839              		.thumb
 1840              		.thumb_func
 1841              		.fpu fpv4-sp-d16
 1843              	Motion_Adjust:
 1844              	.LFB173:
 430:Src/motion.c  **** 
 431:Src/motion.c  **** void Motion_Adjust(uint16_t step, float velo_s)
 432:Src/motion.c  **** {
 1845              		.loc 1 432 0
 1846              		.cfi_startproc
 1847              		@ args = 0, pretend = 0, frame = 0
 1848              		@ frame_needed = 0, uses_anonymous_args = 0
ARM GAS  C:\Users\kotaro\AppData\Local\Temp\cc2MmsOy.s 			page 41


 1849              	.LVL100:
 1850 0000 08B5     		push	{r3, lr}
 1851              	.LCFI28:
 1852              		.cfi_def_cfa_offset 8
 1853              		.cfi_offset 3, -8
 1854              		.cfi_offset 14, -4
 1855 0002 2DED028B 		vpush.64	{d8}
 1856              	.LCFI29:
 1857              		.cfi_def_cfa_offset 16
 1858              		.cfi_offset 80, -16
 1859              		.cfi_offset 81, -12
 433:Src/motion.c  ****     if (step == 1)
 1860              		.loc 1 433 0
 1861 0006 0128     		cmp	r0, #1
 1862 0008 30D0     		beq	.L117
 434:Src/motion.c  ****     {
 435:Src/motion.c  ****         Control_EdgeSet(20);
 436:Src/motion.c  ****         Control_StrCalculator(110.0f - enc.offset, velo_s, VELO_F, VELO_F, ACCEL_F, 1);
 437:Src/motion.c  ****         Control_AngCalculator(0, 0, 0, 0, 1, 0);
 438:Src/motion.c  ****     }
 439:Src/motion.c  ****     else
 440:Src/motion.c  ****     {
 441:Src/motion.c  ****         Control_EdgeSet(0);
 1863              		.loc 1 441 0
 1864 000a 0020     		movs	r0, #0
 1865              	.LVL101:
 1866 000c FFF7FEFF 		bl	Control_EdgeSet
 1867              	.LVL102:
 442:Src/motion.c  ****         Control_StrCalculator(180.0f - enc.offset, VELO_S, VELO_S, VELO_S, 1, 1);
 1868              		.loc 1 442 0
 1869 0010 2A4B     		ldr	r3, .L118
 1870 0012 D3ED027A 		vldr.32	s15, [r3, #8]
 1871 0016 DFED2A0A 		vldr.32	s1, .L118+4
 1872 001a F7EE002A 		vmov.f32	s5, #1.0e+0
 1873 001e B0EE622A 		vmov.f32	s4, s5
 1874 0022 F0EE601A 		vmov.f32	s3, s1
 1875 0026 B0EE601A 		vmov.f32	s2, s1
 1876 002a 9FED260A 		vldr.32	s0, .L118+8
 1877 002e 30EE670A 		vsub.f32	s0, s0, s15
 1878 0032 FFF7FEFF 		bl	Control_StrCalculator
 1879              	.LVL103:
 443:Src/motion.c  ****         Control_AngCalculator(0, 0, 0, 0, 1, 0);
 1880              		.loc 1 443 0
 1881 0036 9FED240A 		vldr.32	s0, .L118+12
 1882 003a F0EE402A 		vmov.f32	s5, s0
 1883 003e B7EE002A 		vmov.f32	s4, #1.0e+0
 1884 0042 F0EE401A 		vmov.f32	s3, s0
 1885 0046 B0EE401A 		vmov.f32	s2, s0
 1886 004a F0EE400A 		vmov.f32	s1, s0
 1887 004e FFF7FEFF 		bl	Control_AngCalculator
 1888              	.LVL104:
 1889              	.L114:
 444:Src/motion.c  ****     }
 445:Src/motion.c  ****     motion_end_flag = FALSE;
 1890              		.loc 1 445 0
 1891 0052 1E4B     		ldr	r3, .L118+16
 1892 0054 0022     		movs	r2, #0
ARM GAS  C:\Users\kotaro\AppData\Local\Temp\cc2MmsOy.s 			page 42


 1893 0056 1A70     		strb	r2, [r3]
 1894              	.L115:
 446:Src/motion.c  ****     while (motion_end_flag == FALSE)
 1895              		.loc 1 446 0 discriminator 1
 1896 0058 1C4B     		ldr	r3, .L118+16
 1897 005a 1B78     		ldrb	r3, [r3]	@ zero_extendqisi2
 1898 005c 002B     		cmp	r3, #0
 1899 005e FBD0     		beq	.L115
 447:Src/motion.c  ****     {
 448:Src/motion.c  ****     }
 449:Src/motion.c  ****     enc.offset = 0.0f;
 1900              		.loc 1 449 0
 1901 0060 164B     		ldr	r3, .L118
 1902 0062 0022     		movs	r2, #0
 1903 0064 9A60     		str	r2, [r3, #8]	@ float
 450:Src/motion.c  **** }
 1904              		.loc 1 450 0
 1905 0066 BDEC028B 		vldm	sp!, {d8}
 1906              	.LCFI30:
 1907              		.cfi_remember_state
 1908              		.cfi_restore 80
 1909              		.cfi_restore 81
 1910              		.cfi_def_cfa_offset 8
 1911 006a 08BD     		pop	{r3, pc}
 1912              	.LVL105:
 1913              	.L117:
 1914              	.LCFI31:
 1915              		.cfi_restore_state
 1916 006c B0EE408A 		vmov.f32	s16, s0
 435:Src/motion.c  ****         Control_StrCalculator(110.0f - enc.offset, velo_s, VELO_F, VELO_F, ACCEL_F, 1);
 1917              		.loc 1 435 0
 1918 0070 1420     		movs	r0, #20
 1919              	.LVL106:
 1920 0072 FFF7FEFF 		bl	Control_EdgeSet
 1921              	.LVL107:
 436:Src/motion.c  ****         Control_AngCalculator(0, 0, 0, 0, 1, 0);
 1922              		.loc 1 436 0
 1923 0076 114B     		ldr	r3, .L118
 1924 0078 D3ED027A 		vldr.32	s15, [r3, #8]
 1925 007c 9FED141A 		vldr.32	s2, .L118+20
 1926 0080 F7EE002A 		vmov.f32	s5, #1.0e+0
 1927 0084 9FED132A 		vldr.32	s4, .L118+24
 1928 0088 F0EE411A 		vmov.f32	s3, s2
 1929 008c F0EE480A 		vmov.f32	s1, s16
 1930 0090 9FED110A 		vldr.32	s0, .L118+28
 1931 0094 30EE670A 		vsub.f32	s0, s0, s15
 1932 0098 FFF7FEFF 		bl	Control_StrCalculator
 1933              	.LVL108:
 437:Src/motion.c  ****     }
 1934              		.loc 1 437 0
 1935 009c 9FED0A0A 		vldr.32	s0, .L118+12
 1936 00a0 F0EE402A 		vmov.f32	s5, s0
 1937 00a4 B7EE002A 		vmov.f32	s4, #1.0e+0
 1938 00a8 F0EE401A 		vmov.f32	s3, s0
 1939 00ac B0EE401A 		vmov.f32	s2, s0
 1940 00b0 F0EE400A 		vmov.f32	s1, s0
 1941 00b4 FFF7FEFF 		bl	Control_AngCalculator
ARM GAS  C:\Users\kotaro\AppData\Local\Temp\cc2MmsOy.s 			page 43


 1942              	.LVL109:
 1943 00b8 CBE7     		b	.L114
 1944              	.L119:
 1945 00ba 00BF     		.align	2
 1946              	.L118:
 1947 00bc 00000000 		.word	enc
 1948 00c0 0000C843 		.word	1137180672
 1949 00c4 00003443 		.word	1127481344
 1950 00c8 00000000 		.word	0
 1951 00cc 00000000 		.word	motion_end_flag
 1952 00d0 00004844 		.word	1145569280
 1953 00d4 0000FA45 		.word	1174011904
 1954 00d8 0000DC42 		.word	1121714176
 1955              		.cfi_endproc
 1956              	.LFE173:
 1958              		.section	.text.Motion_FastGoal,"ax",%progbits
 1959              		.align	1
 1960              		.global	Motion_FastGoal
 1961              		.syntax unified
 1962              		.thumb
 1963              		.thumb_func
 1964              		.fpu fpv4-sp-d16
 1966              	Motion_FastGoal:
 1967              	.LFB174:
 451:Src/motion.c  **** 
 452:Src/motion.c  **** void Motion_FastGoal(uint8_t step, float v_start)
 453:Src/motion.c  **** {
 1968              		.loc 1 453 0
 1969              		.cfi_startproc
 1970              		@ args = 0, pretend = 0, frame = 0
 1971              		@ frame_needed = 0, uses_anonymous_args = 0
 1972              	.LVL110:
 1973 0000 08B5     		push	{r3, lr}
 1974              	.LCFI32:
 1975              		.cfi_def_cfa_offset 8
 1976              		.cfi_offset 3, -8
 1977              		.cfi_offset 14, -4
 1978 0002 2DED028B 		vpush.64	{d8}
 1979              	.LCFI33:
 1980              		.cfi_def_cfa_offset 16
 1981              		.cfi_offset 80, -16
 1982              		.cfi_offset 81, -12
 1983 0006 F0EE400A 		vmov.f32	s1, s0
 454:Src/motion.c  ****     float velo = VELO_F + gain_velo * (step - 1);
 1984              		.loc 1 454 0
 1985 000a 431E     		subs	r3, r0, #1
 1986 000c 01EE103A 		vmov	s2, r3	@ int
 1987 0010 B8EEC11A 		vcvt.f32.s32	s2, s2
 1988 0014 254B     		ldr	r3, .L125
 1989 0016 D3ED007A 		vldr.32	s15, [r3]
 1990 001a 21EE271A 		vmul.f32	s2, s2, s15
 1991 001e DFED247A 		vldr.32	s15, .L125+4
 1992 0022 31EE271A 		vadd.f32	s2, s2, s15
 1993              	.LVL111:
 455:Src/motion.c  ****     if (velo > 2400)
 1994              		.loc 1 455 0
 1995 0026 DFED237A 		vldr.32	s15, .L125+8
ARM GAS  C:\Users\kotaro\AppData\Local\Temp\cc2MmsOy.s 			page 44


 1996 002a B4EEE71A 		vcmpe.f32	s2, s15
 1997 002e F1EE10FA 		vmrs	APSR_nzcv, FPSCR
 1998 0032 01DD     		ble	.L121
 456:Src/motion.c  ****     {
 457:Src/motion.c  ****         velo = 2400;
 1999              		.loc 1 457 0
 2000 0034 B0EE671A 		vmov.f32	s2, s15
 2001              	.LVL112:
 2002              	.L121:
 458:Src/motion.c  ****     }
 459:Src/motion.c  ****     Control_StrCalculator(90.0f + 90.0f * (float)step - enc.offset, v_start, velo, 0, ACCEL_F, 1);
 2003              		.loc 1 459 0
 2004 0038 07EE900A 		vmov	s15, r0	@ int
 2005 003c F8EE677A 		vcvt.f32.u32	s15, s15
 2006 0040 9FED1D7A 		vldr.32	s14, .L125+12
 2007 0044 67EE877A 		vmul.f32	s15, s15, s14
 2008 0048 77EE877A 		vadd.f32	s15, s15, s14
 2009 004c 1B4B     		ldr	r3, .L125+16
 2010 004e 93ED020A 		vldr.32	s0, [r3, #8]
 2011              	.LVL113:
 2012 0052 9FED1B8A 		vldr.32	s16, .L125+20
 2013 0056 F7EE002A 		vmov.f32	s5, #1.0e+0
 2014 005a 9FED1A2A 		vldr.32	s4, .L125+24
 2015 005e F0EE481A 		vmov.f32	s3, s16
 2016 0062 37EEC00A 		vsub.f32	s0, s15, s0
 2017 0066 FFF7FEFF 		bl	Control_StrCalculator
 2018              	.LVL114:
 460:Src/motion.c  ****     Control_AngCalculator(0, 0, 0, 0, 1, 0);
 2019              		.loc 1 460 0
 2020 006a F0EE482A 		vmov.f32	s5, s16
 2021 006e B7EE002A 		vmov.f32	s4, #1.0e+0
 2022 0072 F0EE481A 		vmov.f32	s3, s16
 2023 0076 B0EE481A 		vmov.f32	s2, s16
 2024 007a F0EE480A 		vmov.f32	s1, s16
 2025 007e B0EE480A 		vmov.f32	s0, s16
 2026 0082 FFF7FEFF 		bl	Control_AngCalculator
 2027              	.LVL115:
 461:Src/motion.c  ****     motion_end_flag = FALSE;
 2028              		.loc 1 461 0
 2029 0086 104B     		ldr	r3, .L125+28
 2030 0088 0022     		movs	r2, #0
 2031 008a 1A70     		strb	r2, [r3]
 2032              	.L122:
 462:Src/motion.c  ****     while (motion_end_flag == FALSE)
 2033              		.loc 1 462 0 discriminator 1
 2034 008c 0E4B     		ldr	r3, .L125+28
 2035 008e 1B78     		ldrb	r3, [r3]	@ zero_extendqisi2
 2036 0090 002B     		cmp	r3, #0
 2037 0092 FBD0     		beq	.L122
 463:Src/motion.c  ****     {
 464:Src/motion.c  ****     }
 465:Src/motion.c  ****     straight.v_now = 0;
 2038              		.loc 1 465 0
 2039 0094 0023     		movs	r3, #0
 2040 0096 0D4A     		ldr	r2, .L125+32
 2041 0098 D360     		str	r3, [r2, #12]	@ float
 466:Src/motion.c  ****     angle.v_now = 0;
ARM GAS  C:\Users\kotaro\AppData\Local\Temp\cc2MmsOy.s 			page 45


 2042              		.loc 1 466 0
 2043 009a 0D4A     		ldr	r2, .L125+36
 2044 009c D360     		str	r3, [r2, #12]	@ float
 467:Src/motion.c  ****     HAL_Delay(800);
 2045              		.loc 1 467 0
 2046 009e 4FF44870 		mov	r0, #800
 2047 00a2 FFF7FEFF 		bl	HAL_Delay
 2048              	.LVL116:
 468:Src/motion.c  **** }
 2049              		.loc 1 468 0
 2050 00a6 BDEC028B 		vldm	sp!, {d8}
 2051              	.LCFI34:
 2052              		.cfi_restore 80
 2053              		.cfi_restore 81
 2054              		.cfi_def_cfa_offset 8
 2055 00aa 08BD     		pop	{r3, pc}
 2056              	.L126:
 2057              		.align	2
 2058              	.L125:
 2059 00ac 00000000 		.word	.LANCHOR0
 2060 00b0 00004844 		.word	1145569280
 2061 00b4 00001645 		.word	1159069696
 2062 00b8 0000B442 		.word	1119092736
 2063 00bc 00000000 		.word	enc
 2064 00c0 00000000 		.word	0
 2065 00c4 0000FA45 		.word	1174011904
 2066 00c8 00000000 		.word	motion_end_flag
 2067 00cc 00000000 		.word	straight
 2068 00d0 00000000 		.word	angle
 2069              		.cfi_endproc
 2070              	.LFE174:
 2072              		.section	.text.Motion_Diagonal,"ax",%progbits
 2073              		.align	1
 2074              		.global	Motion_Diagonal
 2075              		.syntax unified
 2076              		.thumb
 2077              		.thumb_func
 2078              		.fpu fpv4-sp-d16
 2080              	Motion_Diagonal:
 2081              	.LFB175:
 469:Src/motion.c  **** 
 470:Src/motion.c  **** void Motion_Diagonal(uint8_t step)
 471:Src/motion.c  **** {
 2082              		.loc 1 471 0
 2083              		.cfi_startproc
 2084              		@ args = 0, pretend = 0, frame = 0
 2085              		@ frame_needed = 0, uses_anonymous_args = 0
 2086              	.LVL117:
 2087 0000 08B5     		push	{r3, lr}
 2088              	.LCFI35:
 2089              		.cfi_def_cfa_offset 8
 2090              		.cfi_offset 3, -8
 2091              		.cfi_offset 14, -4
 472:Src/motion.c  ****     Control_StrCalculator(diagonal_step * (float)step - enc.offset, VELO_F, VELO_F, VELO_F, ACCEL_F
 2092              		.loc 1 472 0
 2093 0002 07EE900A 		vmov	s15, r0	@ int
 2094 0006 F8EE677A 		vcvt.f32.u32	s15, s15
ARM GAS  C:\Users\kotaro\AppData\Local\Temp\cc2MmsOy.s 			page 46


 2095 000a 174B     		ldr	r3, .L130
 2096 000c 93ED000A 		vldr.32	s0, [r3]
 2097 0010 67EE807A 		vmul.f32	s15, s15, s0
 2098 0014 154B     		ldr	r3, .L130+4
 2099 0016 93ED020A 		vldr.32	s0, [r3, #8]
 2100 001a DFED150A 		vldr.32	s1, .L130+8
 2101 001e F7EE002A 		vmov.f32	s5, #1.0e+0
 2102 0022 9FED142A 		vldr.32	s4, .L130+12
 2103 0026 F0EE601A 		vmov.f32	s3, s1
 2104 002a B0EE601A 		vmov.f32	s2, s1
 2105 002e 37EEC00A 		vsub.f32	s0, s15, s0
 2106 0032 FFF7FEFF 		bl	Control_StrCalculator
 2107              	.LVL118:
 473:Src/motion.c  ****     Control_AngCalculator(0, 0, 0, 0, 1, 0);
 2108              		.loc 1 473 0
 2109 0036 9FED100A 		vldr.32	s0, .L130+16
 2110 003a F0EE402A 		vmov.f32	s5, s0
 2111 003e B7EE002A 		vmov.f32	s4, #1.0e+0
 2112 0042 F0EE401A 		vmov.f32	s3, s0
 2113 0046 B0EE401A 		vmov.f32	s2, s0
 2114 004a F0EE400A 		vmov.f32	s1, s0
 2115 004e FFF7FEFF 		bl	Control_AngCalculator
 2116              	.LVL119:
 474:Src/motion.c  ****     motion_end_flag = FALSE;
 2117              		.loc 1 474 0
 2118 0052 0A4B     		ldr	r3, .L130+20
 2119 0054 0022     		movs	r2, #0
 2120 0056 1A70     		strb	r2, [r3]
 2121              	.L128:
 475:Src/motion.c  ****     while (motion_end_flag == FALSE)
 2122              		.loc 1 475 0 discriminator 1
 2123 0058 084B     		ldr	r3, .L130+20
 2124 005a 1B78     		ldrb	r3, [r3]	@ zero_extendqisi2
 2125 005c 002B     		cmp	r3, #0
 2126 005e FBD0     		beq	.L128
 476:Src/motion.c  ****     {
 477:Src/motion.c  ****     }
 478:Src/motion.c  ****     enc.offset = 0.0f;
 2127              		.loc 1 478 0
 2128 0060 024B     		ldr	r3, .L130+4
 2129 0062 0022     		movs	r2, #0
 2130 0064 9A60     		str	r2, [r3, #8]	@ float
 479:Src/motion.c  **** }
 2131              		.loc 1 479 0
 2132 0066 08BD     		pop	{r3, pc}
 2133              	.L131:
 2134              		.align	2
 2135              	.L130:
 2136 0068 00000000 		.word	.LANCHOR2
 2137 006c 00000000 		.word	enc
 2138 0070 00004844 		.word	1145569280
 2139 0074 0000FA45 		.word	1174011904
 2140 0078 00000000 		.word	0
 2141 007c 00000000 		.word	motion_end_flag
 2142              		.cfi_endproc
 2143              	.LFE175:
 2145              		.section	.text.Motion_DiagonalLeft,"ax",%progbits
ARM GAS  C:\Users\kotaro\AppData\Local\Temp\cc2MmsOy.s 			page 47


 2146              		.align	1
 2147              		.global	Motion_DiagonalLeft
 2148              		.syntax unified
 2149              		.thumb
 2150              		.thumb_func
 2151              		.fpu fpv4-sp-d16
 2153              	Motion_DiagonalLeft:
 2154              	.LFB176:
 480:Src/motion.c  **** 
 481:Src/motion.c  **** void Motion_DiagonalLeft(uint8_t step)
 482:Src/motion.c  **** {
 2155              		.loc 1 482 0
 2156              		.cfi_startproc
 2157              		@ args = 0, pretend = 0, frame = 0
 2158              		@ frame_needed = 0, uses_anonymous_args = 0
 2159              	.LVL120:
 2160 0000 08B5     		push	{r3, lr}
 2161              	.LCFI36:
 2162              		.cfi_def_cfa_offset 8
 2163              		.cfi_offset 3, -8
 2164              		.cfi_offset 14, -4
 483:Src/motion.c  ****     if (step > 1)
 2165              		.loc 1 483 0
 2166 0002 0128     		cmp	r0, #1
 2167 0004 42D9     		bls	.L133
 2168              	.LBB3:
 484:Src/motion.c  ****     {
 485:Src/motion.c  ****         step--;
 2169              		.loc 1 485 0
 2170 0006 0138     		subs	r0, r0, #1
 2171              	.LVL121:
 2172 0008 C3B2     		uxtb	r3, r0
 2173 000a 00EE103A 		vmov	s0, r3	@ int
 2174              	.LVL122:
 486:Src/motion.c  ****         float velo = VELO_F + gain_velo * step;
 2175              		.loc 1 486 0
 2176 000e B8EEC01A 		vcvt.f32.s32	s2, s0
 2177 0012 324B     		ldr	r3, .L139
 2178 0014 D3ED007A 		vldr.32	s15, [r3]
 2179 0018 21EE271A 		vmul.f32	s2, s2, s15
 2180 001c DFED307A 		vldr.32	s15, .L139+4
 2181 0020 31EE271A 		vadd.f32	s2, s2, s15
 2182              	.LVL123:
 487:Src/motion.c  ****         if (velo > 2400.0f)
 2183              		.loc 1 487 0
 2184 0024 DFED2F7A 		vldr.32	s15, .L139+8
 2185 0028 B4EEE71A 		vcmpe.f32	s2, s15
 2186 002c F1EE10FA 		vmrs	APSR_nzcv, FPSCR
 2187 0030 01DD     		ble	.L134
 488:Src/motion.c  ****         {
 489:Src/motion.c  ****             velo = 2400.0f;
 2188              		.loc 1 489 0
 2189 0032 B0EE671A 		vmov.f32	s2, s15
 2190              	.LVL124:
 2191              	.L134:
 490:Src/motion.c  ****         }
 491:Src/motion.c  ****         Control_StrCalculator(diagonal_step * (float)step - enc.offset, VELO_F, velo, VELO_F, ACCEL
ARM GAS  C:\Users\kotaro\AppData\Local\Temp\cc2MmsOy.s 			page 48


 2192              		.loc 1 491 0
 2193 0036 B8EE400A 		vcvt.f32.u32	s0, s0
 2194 003a 2B4B     		ldr	r3, .L139+12
 2195 003c D3ED007A 		vldr.32	s15, [r3]
 2196 0040 20EE270A 		vmul.f32	s0, s0, s15
 2197 0044 294B     		ldr	r3, .L139+16
 2198 0046 D3ED027A 		vldr.32	s15, [r3, #8]
 2199 004a DFED250A 		vldr.32	s1, .L139+4
 2200 004e F7EE002A 		vmov.f32	s5, #1.0e+0
 2201 0052 9FED272A 		vldr.32	s4, .L139+20
 2202 0056 F0EE601A 		vmov.f32	s3, s1
 2203 005a 30EE670A 		vsub.f32	s0, s0, s15
 2204 005e FFF7FEFF 		bl	Control_StrCalculator
 2205              	.LVL125:
 492:Src/motion.c  ****         Control_AngCalculator(0, 0, 0, 0, 1, 0);
 2206              		.loc 1 492 0
 2207 0062 9FED240A 		vldr.32	s0, .L139+24
 2208 0066 F0EE402A 		vmov.f32	s5, s0
 2209 006a B7EE002A 		vmov.f32	s4, #1.0e+0
 2210 006e F0EE401A 		vmov.f32	s3, s0
 2211 0072 B0EE401A 		vmov.f32	s2, s0
 2212 0076 F0EE400A 		vmov.f32	s1, s0
 2213 007a FFF7FEFF 		bl	Control_AngCalculator
 2214              	.LVL126:
 493:Src/motion.c  ****         motion_end_flag = FALSE;
 2215              		.loc 1 493 0
 2216 007e 1E4B     		ldr	r3, .L139+28
 2217 0080 0022     		movs	r2, #0
 2218 0082 1A70     		strb	r2, [r3]
 2219              	.L135:
 494:Src/motion.c  ****         while (motion_end_flag == FALSE)
 2220              		.loc 1 494 0 discriminator 1
 2221 0084 1C4B     		ldr	r3, .L139+28
 2222 0086 1B78     		ldrb	r3, [r3]	@ zero_extendqisi2
 2223 0088 002B     		cmp	r3, #0
 2224 008a FBD0     		beq	.L135
 2225              	.L133:
 2226              	.LBE3:
 495:Src/motion.c  ****         {
 496:Src/motion.c  ****         }
 497:Src/motion.c  ****     }
 498:Src/motion.c  ****     /*
 499:Src/motion.c  ****     while (sen_l.diff > -40)
 500:Src/motion.c  ****         ;
 501:Src/motion.c  ****     Control_StrCalculator(15.25f, VELO_F, VELO_F, VELO_F, ACCEL_F, 1);
 502:Src/motion.c  ****     */
 503:Src/motion.c  ****     Control_StrCalculator(diagonal_step, VELO_F, VELO_F, VELO_F, ACCEL_F, 1);
 2227              		.loc 1 503 0
 2228 008c DFED140A 		vldr.32	s1, .L139+4
 2229 0090 F7EE002A 		vmov.f32	s5, #1.0e+0
 2230 0094 9FED162A 		vldr.32	s4, .L139+20
 2231 0098 F0EE601A 		vmov.f32	s3, s1
 2232 009c B0EE601A 		vmov.f32	s2, s1
 2233 00a0 114B     		ldr	r3, .L139+12
 2234 00a2 93ED000A 		vldr.32	s0, [r3]
 2235 00a6 FFF7FEFF 		bl	Control_StrCalculator
 2236              	.LVL127:
ARM GAS  C:\Users\kotaro\AppData\Local\Temp\cc2MmsOy.s 			page 49


 504:Src/motion.c  ****     Control_AngCalculator(0, 0, 0, 0, 1, 0);
 2237              		.loc 1 504 0
 2238 00aa 9FED120A 		vldr.32	s0, .L139+24
 2239 00ae F0EE402A 		vmov.f32	s5, s0
 2240 00b2 B7EE002A 		vmov.f32	s4, #1.0e+0
 2241 00b6 F0EE401A 		vmov.f32	s3, s0
 2242 00ba B0EE401A 		vmov.f32	s2, s0
 2243 00be F0EE400A 		vmov.f32	s1, s0
 2244 00c2 FFF7FEFF 		bl	Control_AngCalculator
 2245              	.LVL128:
 505:Src/motion.c  ****     motion_end_flag = FALSE;
 2246              		.loc 1 505 0
 2247 00c6 0C4B     		ldr	r3, .L139+28
 2248 00c8 0022     		movs	r2, #0
 2249 00ca 1A70     		strb	r2, [r3]
 2250              	.L136:
 506:Src/motion.c  ****     while (motion_end_flag == FALSE)
 2251              		.loc 1 506 0 discriminator 1
 2252 00cc 0A4B     		ldr	r3, .L139+28
 2253 00ce 1B78     		ldrb	r3, [r3]	@ zero_extendqisi2
 2254 00d0 002B     		cmp	r3, #0
 2255 00d2 FBD0     		beq	.L136
 507:Src/motion.c  ****     {
 508:Src/motion.c  ****     }
 509:Src/motion.c  ****     enc.offset = 0.0f;
 2256              		.loc 1 509 0
 2257 00d4 054B     		ldr	r3, .L139+16
 2258 00d6 0022     		movs	r2, #0
 2259 00d8 9A60     		str	r2, [r3, #8]	@ float
 510:Src/motion.c  **** }
 2260              		.loc 1 510 0
 2261 00da 08BD     		pop	{r3, pc}
 2262              	.L140:
 2263              		.align	2
 2264              	.L139:
 2265 00dc 00000000 		.word	.LANCHOR0
 2266 00e0 00004844 		.word	1145569280
 2267 00e4 00001645 		.word	1159069696
 2268 00e8 00000000 		.word	.LANCHOR2
 2269 00ec 00000000 		.word	enc
 2270 00f0 0000FA45 		.word	1174011904
 2271 00f4 00000000 		.word	0
 2272 00f8 00000000 		.word	motion_end_flag
 2273              		.cfi_endproc
 2274              	.LFE176:
 2276              		.section	.text.Motion_DiagonalRight,"ax",%progbits
 2277              		.align	1
 2278              		.global	Motion_DiagonalRight
 2279              		.syntax unified
 2280              		.thumb
 2281              		.thumb_func
 2282              		.fpu fpv4-sp-d16
 2284              	Motion_DiagonalRight:
 2285              	.LFB177:
 511:Src/motion.c  **** 
 512:Src/motion.c  **** void Motion_DiagonalRight(uint8_t step)
 513:Src/motion.c  **** {
ARM GAS  C:\Users\kotaro\AppData\Local\Temp\cc2MmsOy.s 			page 50


 2286              		.loc 1 513 0
 2287              		.cfi_startproc
 2288              		@ args = 0, pretend = 0, frame = 0
 2289              		@ frame_needed = 0, uses_anonymous_args = 0
 2290              	.LVL129:
 2291 0000 08B5     		push	{r3, lr}
 2292              	.LCFI37:
 2293              		.cfi_def_cfa_offset 8
 2294              		.cfi_offset 3, -8
 2295              		.cfi_offset 14, -4
 514:Src/motion.c  ****     if (step > 1)
 2296              		.loc 1 514 0
 2297 0002 0128     		cmp	r0, #1
 2298 0004 40D9     		bls	.L145
 2299              	.LBB4:
 515:Src/motion.c  ****     {
 516:Src/motion.c  ****         step--;
 2300              		.loc 1 516 0
 2301 0006 0138     		subs	r0, r0, #1
 2302              	.LVL130:
 2303 0008 C0B2     		uxtb	r0, r0
 2304              	.LVL131:
 517:Src/motion.c  ****         float velo = VELO_F + gain_velo * (float)step;
 2305              		.loc 1 517 0
 2306 000a 07EE900A 		vmov	s15, r0	@ int
 2307 000e B8EE670A 		vcvt.f32.u32	s0, s15
 2308 0012 344B     		ldr	r3, .L149
 2309 0014 93ED001A 		vldr.32	s2, [r3]
 2310 0018 20EE011A 		vmul.f32	s2, s0, s2
 2311 001c DFED327A 		vldr.32	s15, .L149+4
 2312 0020 31EE271A 		vadd.f32	s2, s2, s15
 2313              	.LVL132:
 518:Src/motion.c  ****         if (velo > 2400.0f)
 2314              		.loc 1 518 0
 2315 0024 DFED317A 		vldr.32	s15, .L149+8
 2316 0028 B4EEE71A 		vcmpe.f32	s2, s15
 2317 002c F1EE10FA 		vmrs	APSR_nzcv, FPSCR
 2318 0030 01DD     		ble	.L143
 519:Src/motion.c  ****         {
 520:Src/motion.c  ****             velo = 2400.0f;
 2319              		.loc 1 520 0
 2320 0032 B0EE671A 		vmov.f32	s2, s15
 2321              	.LVL133:
 2322              	.L143:
 521:Src/motion.c  ****         }
 522:Src/motion.c  ****         Control_StrCalculator(diagonal_step * (float)step - enc.offset, VELO_F, velo, VELO_F, ACCEL
 2323              		.loc 1 522 0
 2324 0036 2E4B     		ldr	r3, .L149+12
 2325 0038 D3ED007A 		vldr.32	s15, [r3]
 2326 003c 20EE270A 		vmul.f32	s0, s0, s15
 2327 0040 2C4B     		ldr	r3, .L149+16
 2328 0042 D3ED027A 		vldr.32	s15, [r3, #8]
 2329 0046 DFED280A 		vldr.32	s1, .L149+4
 2330 004a F7EE002A 		vmov.f32	s5, #1.0e+0
 2331 004e 9FED2A2A 		vldr.32	s4, .L149+20
 2332 0052 F0EE601A 		vmov.f32	s3, s1
 2333 0056 30EE670A 		vsub.f32	s0, s0, s15
ARM GAS  C:\Users\kotaro\AppData\Local\Temp\cc2MmsOy.s 			page 51


 2334 005a FFF7FEFF 		bl	Control_StrCalculator
 2335              	.LVL134:
 523:Src/motion.c  ****         Control_AngCalculator(0, 0, 0, 0, 1, 0);
 2336              		.loc 1 523 0
 2337 005e 9FED270A 		vldr.32	s0, .L149+24
 2338 0062 F0EE402A 		vmov.f32	s5, s0
 2339 0066 B7EE002A 		vmov.f32	s4, #1.0e+0
 2340 006a F0EE401A 		vmov.f32	s3, s0
 2341 006e B0EE401A 		vmov.f32	s2, s0
 2342 0072 F0EE400A 		vmov.f32	s1, s0
 2343 0076 FFF7FEFF 		bl	Control_AngCalculator
 2344              	.LVL135:
 524:Src/motion.c  ****         motion_end_flag = FALSE;
 2345              		.loc 1 524 0
 2346 007a 214B     		ldr	r3, .L149+28
 2347 007c 0022     		movs	r2, #0
 2348 007e 1A70     		strb	r2, [r3]
 2349              	.L144:
 525:Src/motion.c  ****         while (motion_end_flag == FALSE)
 2350              		.loc 1 525 0 discriminator 1
 2351 0080 1F4B     		ldr	r3, .L149+28
 2352 0082 1B78     		ldrb	r3, [r3]	@ zero_extendqisi2
 2353 0084 002B     		cmp	r3, #0
 2354 0086 FBD0     		beq	.L144
 2355              	.L145:
 2356              	.LBE4:
 526:Src/motion.c  ****         {
 527:Src/motion.c  ****         }
 528:Src/motion.c  ****     }
 529:Src/motion.c  ****     while (sen_r.diff > -30)
 2357              		.loc 1 529 0 discriminator 1
 2358 0088 1E4B     		ldr	r3, .L149+32
 2359 008a B3F91A30 		ldrsh	r3, [r3, #26]
 2360 008e 13F11D0F 		cmn	r3, #29
 2361 0092 F9DA     		bge	.L145
 530:Src/motion.c  ****         ;
 531:Src/motion.c  ****     Control_StrCalculator(16.5f, VELO_F, VELO_F, VELO_F, ACCEL_F, 1);
 2362              		.loc 1 531 0
 2363 0094 DFED140A 		vldr.32	s1, .L149+4
 2364 0098 F7EE002A 		vmov.f32	s5, #1.0e+0
 2365 009c 9FED162A 		vldr.32	s4, .L149+20
 2366 00a0 F0EE601A 		vmov.f32	s3, s1
 2367 00a4 B0EE601A 		vmov.f32	s2, s1
 2368 00a8 9FED170A 		vldr.32	s0, .L149+36
 2369 00ac FFF7FEFF 		bl	Control_StrCalculator
 2370              	.LVL136:
 532:Src/motion.c  ****     Control_AngCalculator(0, 0, 0, 0, 1, 0);
 2371              		.loc 1 532 0
 2372 00b0 9FED120A 		vldr.32	s0, .L149+24
 2373 00b4 F0EE402A 		vmov.f32	s5, s0
 2374 00b8 B7EE002A 		vmov.f32	s4, #1.0e+0
 2375 00bc F0EE401A 		vmov.f32	s3, s0
 2376 00c0 B0EE401A 		vmov.f32	s2, s0
 2377 00c4 F0EE400A 		vmov.f32	s1, s0
 2378 00c8 FFF7FEFF 		bl	Control_AngCalculator
 2379              	.LVL137:
 533:Src/motion.c  ****     motion_end_flag = FALSE;
ARM GAS  C:\Users\kotaro\AppData\Local\Temp\cc2MmsOy.s 			page 52


 2380              		.loc 1 533 0
 2381 00cc 0C4B     		ldr	r3, .L149+28
 2382 00ce 0022     		movs	r2, #0
 2383 00d0 1A70     		strb	r2, [r3]
 2384              	.L146:
 534:Src/motion.c  ****     while (motion_end_flag == FALSE)
 2385              		.loc 1 534 0 discriminator 1
 2386 00d2 0B4B     		ldr	r3, .L149+28
 2387 00d4 1B78     		ldrb	r3, [r3]	@ zero_extendqisi2
 2388 00d6 002B     		cmp	r3, #0
 2389 00d8 FBD0     		beq	.L146
 535:Src/motion.c  ****     {
 536:Src/motion.c  ****     }
 537:Src/motion.c  ****     enc.offset = 0.0f;
 2390              		.loc 1 537 0
 2391 00da 064B     		ldr	r3, .L149+16
 2392 00dc 0022     		movs	r2, #0
 2393 00de 9A60     		str	r2, [r3, #8]	@ float
 538:Src/motion.c  **** }
 2394              		.loc 1 538 0
 2395 00e0 08BD     		pop	{r3, pc}
 2396              	.L150:
 2397 00e2 00BF     		.align	2
 2398              	.L149:
 2399 00e4 00000000 		.word	.LANCHOR0
 2400 00e8 00004844 		.word	1145569280
 2401 00ec 00001645 		.word	1159069696
 2402 00f0 00000000 		.word	.LANCHOR2
 2403 00f4 00000000 		.word	enc
 2404 00f8 0000FA45 		.word	1174011904
 2405 00fc 00000000 		.word	0
 2406 0100 00000000 		.word	motion_end_flag
 2407 0104 00000000 		.word	sen_r
 2408 0108 00008441 		.word	1099169792
 2409              		.cfi_endproc
 2410              	.LFE177:
 2412              		.section	.text.Motion_DiagonalStart,"ax",%progbits
 2413              		.align	1
 2414              		.global	Motion_DiagonalStart
 2415              		.syntax unified
 2416              		.thumb
 2417              		.thumb_func
 2418              		.fpu fpv4-sp-d16
 2420              	Motion_DiagonalStart:
 2421              	.LFB178:
 539:Src/motion.c  **** 
 540:Src/motion.c  **** void Motion_DiagonalStart(void)
 541:Src/motion.c  **** {
 2422              		.loc 1 541 0
 2423              		.cfi_startproc
 2424              		@ args = 0, pretend = 0, frame = 0
 2425              		@ frame_needed = 0, uses_anonymous_args = 0
 2426 0000 08B5     		push	{r3, lr}
 2427              	.LCFI38:
 2428              		.cfi_def_cfa_offset 8
 2429              		.cfi_offset 3, -8
 2430              		.cfi_offset 14, -4
ARM GAS  C:\Users\kotaro\AppData\Local\Temp\cc2MmsOy.s 			page 53


 2431 0002 2DED028B 		vpush.64	{d8}
 2432              	.LCFI39:
 2433              		.cfi_def_cfa_offset 16
 2434              		.cfi_offset 80, -16
 2435              		.cfi_offset 81, -12
 542:Src/motion.c  ****     Control_ResetVelo();
 2436              		.loc 1 542 0
 2437 0006 FFF7FEFF 		bl	Control_ResetVelo
 2438              	.LVL138:
 543:Src/motion.c  ****     diagonal_step = 90.0f * sqrt(2);
 2439              		.loc 1 543 0
 2440 000a 174B     		ldr	r3, .L154
 2441 000c 174A     		ldr	r2, .L154+4
 2442 000e 1A60     		str	r2, [r3]	@ float
 544:Src/motion.c  ****     Control_StrCalculator(diagonal_step * 2.0f, 0, VELO_F, VELO_F, ACCEL_F, 1);
 2443              		.loc 1 544 0
 2444 0010 9FED171A 		vldr.32	s2, .L154+8
 2445 0014 9FED178A 		vldr.32	s16, .L154+12
 2446 0018 F7EE002A 		vmov.f32	s5, #1.0e+0
 2447 001c 9FED162A 		vldr.32	s4, .L154+16
 2448 0020 F0EE411A 		vmov.f32	s3, s2
 2449 0024 F0EE480A 		vmov.f32	s1, s16
 2450 0028 9FED140A 		vldr.32	s0, .L154+20
 2451 002c FFF7FEFF 		bl	Control_StrCalculator
 2452              	.LVL139:
 545:Src/motion.c  ****     Control_AngCalculator(0, 0, 0, 0, 1, 0);
 2453              		.loc 1 545 0
 2454 0030 F0EE482A 		vmov.f32	s5, s16
 2455 0034 B7EE002A 		vmov.f32	s4, #1.0e+0
 2456 0038 F0EE481A 		vmov.f32	s3, s16
 2457 003c B0EE481A 		vmov.f32	s2, s16
 2458 0040 F0EE480A 		vmov.f32	s1, s16
 2459 0044 B0EE480A 		vmov.f32	s0, s16
 2460 0048 FFF7FEFF 		bl	Control_AngCalculator
 2461              	.LVL140:
 546:Src/motion.c  ****     motion_end_flag = FALSE;
 2462              		.loc 1 546 0
 2463 004c 0C4B     		ldr	r3, .L154+24
 2464 004e 0022     		movs	r2, #0
 2465 0050 1A70     		strb	r2, [r3]
 2466              	.L152:
 547:Src/motion.c  ****     while (motion_end_flag == FALSE)
 2467              		.loc 1 547 0 discriminator 1
 2468 0052 0B4B     		ldr	r3, .L154+24
 2469 0054 1B78     		ldrb	r3, [r3]	@ zero_extendqisi2
 2470 0056 002B     		cmp	r3, #0
 2471 0058 FBD0     		beq	.L152
 548:Src/motion.c  ****     {
 549:Src/motion.c  ****     }
 550:Src/motion.c  ****     enc.offset = 0;
 2472              		.loc 1 550 0
 2473 005a 0A4B     		ldr	r3, .L154+28
 2474 005c 0022     		movs	r2, #0
 2475 005e 9A60     		str	r2, [r3, #8]	@ float
 551:Src/motion.c  **** }
 2476              		.loc 1 551 0
 2477 0060 BDEC028B 		vldm	sp!, {d8}
ARM GAS  C:\Users\kotaro\AppData\Local\Temp\cc2MmsOy.s 			page 54


 2478              	.LCFI40:
 2479              		.cfi_restore 80
 2480              		.cfi_restore 81
 2481              		.cfi_def_cfa_offset 8
 2482 0064 08BD     		pop	{r3, pc}
 2483              	.L155:
 2484 0066 00BF     		.align	2
 2485              	.L154:
 2486 0068 00000000 		.word	.LANCHOR2
 2487 006c F68EFE42 		.word	1123978998
 2488 0070 00004844 		.word	1145569280
 2489 0074 00000000 		.word	0
 2490 0078 0000FA45 		.word	1174011904
 2491 007c F68E7E43 		.word	1132367606
 2492 0080 00000000 		.word	motion_end_flag
 2493 0084 00000000 		.word	enc
 2494              		.cfi_endproc
 2495              	.LFE178:
 2497              		.section	.text.Motion_DiagonalStop,"ax",%progbits
 2498              		.align	1
 2499              		.global	Motion_DiagonalStop
 2500              		.syntax unified
 2501              		.thumb
 2502              		.thumb_func
 2503              		.fpu fpv4-sp-d16
 2505              	Motion_DiagonalStop:
 2506              	.LFB179:
 552:Src/motion.c  **** 
 553:Src/motion.c  **** void Motion_DiagonalStop(void)
 554:Src/motion.c  **** {
 2507              		.loc 1 554 0
 2508              		.cfi_startproc
 2509              		@ args = 0, pretend = 0, frame = 0
 2510              		@ frame_needed = 0, uses_anonymous_args = 0
 2511 0000 08B5     		push	{r3, lr}
 2512              	.LCFI41:
 2513              		.cfi_def_cfa_offset 8
 2514              		.cfi_offset 3, -8
 2515              		.cfi_offset 14, -4
 2516 0002 2DED028B 		vpush.64	{d8}
 2517              	.LCFI42:
 2518              		.cfi_def_cfa_offset 16
 2519              		.cfi_offset 80, -16
 2520              		.cfi_offset 81, -12
 555:Src/motion.c  ****     Control_StrCalculator(diagonal_step * 2.0f - enc.offset, VELO_F, VELO_F, 0, ACCEL_F, 1);
 2521              		.loc 1 555 0
 2522 0006 1E4B     		ldr	r3, .L159
 2523 0008 93ED000A 		vldr.32	s0, [r3]
 2524 000c 30EE000A 		vadd.f32	s0, s0, s0
 2525 0010 1C4B     		ldr	r3, .L159+4
 2526 0012 D3ED027A 		vldr.32	s15, [r3, #8]
 2527 0016 9FED1C8A 		vldr.32	s16, .L159+8
 2528 001a DFED1C0A 		vldr.32	s1, .L159+12
 2529 001e F7EE002A 		vmov.f32	s5, #1.0e+0
 2530 0022 9FED1B2A 		vldr.32	s4, .L159+16
 2531 0026 F0EE481A 		vmov.f32	s3, s16
 2532 002a B0EE601A 		vmov.f32	s2, s1
ARM GAS  C:\Users\kotaro\AppData\Local\Temp\cc2MmsOy.s 			page 55


 2533 002e 30EE670A 		vsub.f32	s0, s0, s15
 2534 0032 FFF7FEFF 		bl	Control_StrCalculator
 2535              	.LVL141:
 556:Src/motion.c  ****     Control_AngCalculator(0, 0, 0, 0, 1, 0);
 2536              		.loc 1 556 0
 2537 0036 F0EE482A 		vmov.f32	s5, s16
 2538 003a B7EE002A 		vmov.f32	s4, #1.0e+0
 2539 003e F0EE481A 		vmov.f32	s3, s16
 2540 0042 B0EE481A 		vmov.f32	s2, s16
 2541 0046 F0EE480A 		vmov.f32	s1, s16
 2542 004a B0EE480A 		vmov.f32	s0, s16
 2543 004e FFF7FEFF 		bl	Control_AngCalculator
 2544              	.LVL142:
 557:Src/motion.c  ****     motion_end_flag = FALSE;
 2545              		.loc 1 557 0
 2546 0052 104B     		ldr	r3, .L159+20
 2547 0054 0022     		movs	r2, #0
 2548 0056 1A70     		strb	r2, [r3]
 2549              	.L157:
 558:Src/motion.c  ****     while (motion_end_flag == FALSE)
 2550              		.loc 1 558 0 discriminator 1
 2551 0058 0E4B     		ldr	r3, .L159+20
 2552 005a 1B78     		ldrb	r3, [r3]	@ zero_extendqisi2
 2553 005c 002B     		cmp	r3, #0
 2554 005e FBD0     		beq	.L157
 559:Src/motion.c  ****     {
 560:Src/motion.c  ****     }
 561:Src/motion.c  ****     straight.v_now = 0;
 2555              		.loc 1 561 0
 2556 0060 0023     		movs	r3, #0
 2557 0062 0D4A     		ldr	r2, .L159+24
 2558 0064 D360     		str	r3, [r2, #12]	@ float
 562:Src/motion.c  ****     angle.v_now = 0;
 2559              		.loc 1 562 0
 2560 0066 0D4A     		ldr	r2, .L159+28
 2561 0068 D360     		str	r3, [r2, #12]	@ float
 563:Src/motion.c  ****     error_ang_sum = 0.0f;
 2562              		.loc 1 563 0
 2563 006a 0D4A     		ldr	r2, .L159+32
 2564 006c 1360     		str	r3, [r2]	@ float
 564:Src/motion.c  ****     error_ang_old = 0.0f;
 2565              		.loc 1 564 0
 2566 006e 0D4A     		ldr	r2, .L159+36
 2567 0070 1360     		str	r3, [r2]	@ float
 565:Src/motion.c  ****     HAL_Delay(500);
 2568              		.loc 1 565 0
 2569 0072 4FF4FA70 		mov	r0, #500
 2570 0076 FFF7FEFF 		bl	HAL_Delay
 2571              	.LVL143:
 566:Src/motion.c  **** }
 2572              		.loc 1 566 0
 2573 007a BDEC028B 		vldm	sp!, {d8}
 2574              	.LCFI43:
 2575              		.cfi_restore 80
 2576              		.cfi_restore 81
 2577              		.cfi_def_cfa_offset 8
 2578 007e 08BD     		pop	{r3, pc}
ARM GAS  C:\Users\kotaro\AppData\Local\Temp\cc2MmsOy.s 			page 56


 2579              	.L160:
 2580              		.align	2
 2581              	.L159:
 2582 0080 00000000 		.word	.LANCHOR2
 2583 0084 00000000 		.word	enc
 2584 0088 00000000 		.word	0
 2585 008c 00004844 		.word	1145569280
 2586 0090 0000FA45 		.word	1174011904
 2587 0094 00000000 		.word	motion_end_flag
 2588 0098 00000000 		.word	straight
 2589 009c 00000000 		.word	angle
 2590 00a0 00000000 		.word	error_ang_sum
 2591 00a4 00000000 		.word	error_ang_old
 2592              		.cfi_endproc
 2593              	.LFE179:
 2595              		.section	.text.Motion_InLeft45Turn,"ax",%progbits
 2596              		.align	1
 2597              		.global	Motion_InLeft45Turn
 2598              		.syntax unified
 2599              		.thumb
 2600              		.thumb_func
 2601              		.fpu fpv4-sp-d16
 2603              	Motion_InLeft45Turn:
 2604              	.LFB180:
 567:Src/motion.c  **** 
 568:Src/motion.c  **** void Motion_InLeft45Turn(void)
 569:Src/motion.c  **** {
 2605              		.loc 1 569 0
 2606              		.cfi_startproc
 2607              		@ args = 0, pretend = 0, frame = 0
 2608              		@ frame_needed = 0, uses_anonymous_args = 0
 2609 0000 08B5     		push	{r3, lr}
 2610              	.LCFI44:
 2611              		.cfi_def_cfa_offset 8
 2612              		.cfi_offset 3, -8
 2613              		.cfi_offset 14, -4
 570:Src/motion.c  ****     //offset in
 571:Src/motion.c  ****     Control_StrCalculator(43.0f - enc.offset, VELO_F, VELO_F, VELO_F, ACCEL_F, 1);
 2614              		.loc 1 571 0
 2615 0002 3A4B     		ldr	r3, .L166
 2616 0004 D3ED027A 		vldr.32	s15, [r3, #8]
 2617 0008 DFED390A 		vldr.32	s1, .L166+4
 2618 000c F7EE002A 		vmov.f32	s5, #1.0e+0
 2619 0010 9FED382A 		vldr.32	s4, .L166+8
 2620 0014 F0EE601A 		vmov.f32	s3, s1
 2621 0018 B0EE601A 		vmov.f32	s2, s1
 2622 001c 9FED360A 		vldr.32	s0, .L166+12
 2623 0020 30EE670A 		vsub.f32	s0, s0, s15
 2624 0024 FFF7FEFF 		bl	Control_StrCalculator
 2625              	.LVL144:
 572:Src/motion.c  ****     Control_AngCalculator(0, 0, 0, 0, 1, 0);
 2626              		.loc 1 572 0
 2627 0028 9FED340A 		vldr.32	s0, .L166+16
 2628 002c F0EE402A 		vmov.f32	s5, s0
 2629 0030 B7EE002A 		vmov.f32	s4, #1.0e+0
 2630 0034 F0EE401A 		vmov.f32	s3, s0
 2631 0038 B0EE401A 		vmov.f32	s2, s0
ARM GAS  C:\Users\kotaro\AppData\Local\Temp\cc2MmsOy.s 			page 57


 2632 003c F0EE400A 		vmov.f32	s1, s0
 2633 0040 FFF7FEFF 		bl	Control_AngCalculator
 2634              	.LVL145:
 573:Src/motion.c  ****     motion_end_flag = FALSE;
 2635              		.loc 1 573 0
 2636 0044 2E4B     		ldr	r3, .L166+20
 2637 0046 0022     		movs	r2, #0
 2638 0048 1A70     		strb	r2, [r3]
 2639              	.L162:
 574:Src/motion.c  ****     while (motion_end_flag == FALSE)
 2640              		.loc 1 574 0 discriminator 1
 2641 004a 2D4B     		ldr	r3, .L166+20
 2642 004c 1B78     		ldrb	r3, [r3]	@ zero_extendqisi2
 2643 004e 002B     		cmp	r3, #0
 2644 0050 FBD0     		beq	.L162
 575:Src/motion.c  ****     {
 576:Src/motion.c  ****     }
 577:Src/motion.c  ****     //turn
 578:Src/motion.c  ****     Control_StrCalculator(800.0f, VELO_F, VELO_F, VELO_F, 1, 1);
 2645              		.loc 1 578 0
 2646 0052 9FED270A 		vldr.32	s0, .L166+4
 2647 0056 F7EE002A 		vmov.f32	s5, #1.0e+0
 2648 005a B0EE622A 		vmov.f32	s4, s5
 2649 005e F0EE401A 		vmov.f32	s3, s0
 2650 0062 B0EE401A 		vmov.f32	s2, s0
 2651 0066 F0EE400A 		vmov.f32	s1, s0
 2652 006a FFF7FEFF 		bl	Control_StrCalculator
 2653              	.LVL146:
 579:Src/motion.c  ****     Control_AngCalculator(45.0f, 0, 600.0f, 0, 20000.0f, 1);
 2654              		.loc 1 579 0
 2655 006e DFED230A 		vldr.32	s1, .L166+16
 2656 0072 F7EE002A 		vmov.f32	s5, #1.0e+0
 2657 0076 9FED232A 		vldr.32	s4, .L166+24
 2658 007a F0EE601A 		vmov.f32	s3, s1
 2659 007e 9FED221A 		vldr.32	s2, .L166+28
 2660 0082 9FED220A 		vldr.32	s0, .L166+32
 2661 0086 FFF7FEFF 		bl	Control_AngCalculator
 2662              	.LVL147:
 580:Src/motion.c  ****     motion_end_flag = FALSE;
 2663              		.loc 1 580 0
 2664 008a 1D4B     		ldr	r3, .L166+20
 2665 008c 0022     		movs	r2, #0
 2666 008e 1A70     		strb	r2, [r3]
 2667              	.L163:
 581:Src/motion.c  ****     while (motion_end_flag == FALSE)
 2668              		.loc 1 581 0 discriminator 1
 2669 0090 1B4B     		ldr	r3, .L166+20
 2670 0092 1B78     		ldrb	r3, [r3]	@ zero_extendqisi2
 2671 0094 002B     		cmp	r3, #0
 2672 0096 FBD0     		beq	.L163
 582:Src/motion.c  ****     {
 583:Src/motion.c  ****     }
 584:Src/motion.c  ****     //offset out
 585:Src/motion.c  ****     Control_StrCalculator(96.0f, VELO_F, VELO_F, VELO_F, 1, 1);
 2673              		.loc 1 585 0
 2674 0098 DFED150A 		vldr.32	s1, .L166+4
 2675 009c F7EE002A 		vmov.f32	s5, #1.0e+0
ARM GAS  C:\Users\kotaro\AppData\Local\Temp\cc2MmsOy.s 			page 58


 2676 00a0 B0EE622A 		vmov.f32	s4, s5
 2677 00a4 F0EE601A 		vmov.f32	s3, s1
 2678 00a8 B0EE601A 		vmov.f32	s2, s1
 2679 00ac 9FED180A 		vldr.32	s0, .L166+36
 2680 00b0 FFF7FEFF 		bl	Control_StrCalculator
 2681              	.LVL148:
 586:Src/motion.c  ****     Control_AngCalculator(0, 0, 0, 0, 1, 0);
 2682              		.loc 1 586 0
 2683 00b4 9FED110A 		vldr.32	s0, .L166+16
 2684 00b8 F0EE402A 		vmov.f32	s5, s0
 2685 00bc B7EE002A 		vmov.f32	s4, #1.0e+0
 2686 00c0 F0EE401A 		vmov.f32	s3, s0
 2687 00c4 B0EE401A 		vmov.f32	s2, s0
 2688 00c8 F0EE400A 		vmov.f32	s1, s0
 2689 00cc FFF7FEFF 		bl	Control_AngCalculator
 2690              	.LVL149:
 587:Src/motion.c  ****     control_wall_flag = 3;
 2691              		.loc 1 587 0
 2692 00d0 104B     		ldr	r3, .L166+40
 2693 00d2 0322     		movs	r2, #3
 2694 00d4 1A70     		strb	r2, [r3]
 588:Src/motion.c  ****     motion_end_flag = FALSE;
 2695              		.loc 1 588 0
 2696 00d6 0A4B     		ldr	r3, .L166+20
 2697 00d8 0022     		movs	r2, #0
 2698 00da 1A70     		strb	r2, [r3]
 2699              	.L164:
 589:Src/motion.c  ****     while (motion_end_flag == FALSE)
 2700              		.loc 1 589 0 discriminator 1
 2701 00dc 084B     		ldr	r3, .L166+20
 2702 00de 1B78     		ldrb	r3, [r3]	@ zero_extendqisi2
 2703 00e0 002B     		cmp	r3, #0
 2704 00e2 FBD0     		beq	.L164
 590:Src/motion.c  ****     {
 591:Src/motion.c  ****     }
 592:Src/motion.c  ****     enc.offset = 0.0f;
 2705              		.loc 1 592 0
 2706 00e4 014B     		ldr	r3, .L166
 2707 00e6 0022     		movs	r2, #0
 2708 00e8 9A60     		str	r2, [r3, #8]	@ float
 593:Src/motion.c  **** }
 2709              		.loc 1 593 0
 2710 00ea 08BD     		pop	{r3, pc}
 2711              	.L167:
 2712              		.align	2
 2713              	.L166:
 2714 00ec 00000000 		.word	enc
 2715 00f0 00004844 		.word	1145569280
 2716 00f4 0000FA45 		.word	1174011904
 2717 00f8 00002C42 		.word	1110179840
 2718 00fc 00000000 		.word	0
 2719 0100 00000000 		.word	motion_end_flag
 2720 0104 00409C46 		.word	1184645120
 2721 0108 00001644 		.word	1142292480
 2722 010c 00003442 		.word	1110704128
 2723 0110 0000C042 		.word	1119879168
 2724 0114 00000000 		.word	control_wall_flag
ARM GAS  C:\Users\kotaro\AppData\Local\Temp\cc2MmsOy.s 			page 59


 2725              		.cfi_endproc
 2726              	.LFE180:
 2728              		.section	.text.Motion_InRight45Turn,"ax",%progbits
 2729              		.align	1
 2730              		.global	Motion_InRight45Turn
 2731              		.syntax unified
 2732              		.thumb
 2733              		.thumb_func
 2734              		.fpu fpv4-sp-d16
 2736              	Motion_InRight45Turn:
 2737              	.LFB181:
 594:Src/motion.c  **** 
 595:Src/motion.c  **** void Motion_InRight45Turn(void)
 596:Src/motion.c  **** {
 2738              		.loc 1 596 0
 2739              		.cfi_startproc
 2740              		@ args = 0, pretend = 0, frame = 0
 2741              		@ frame_needed = 0, uses_anonymous_args = 0
 2742 0000 08B5     		push	{r3, lr}
 2743              	.LCFI45:
 2744              		.cfi_def_cfa_offset 8
 2745              		.cfi_offset 3, -8
 2746              		.cfi_offset 14, -4
 597:Src/motion.c  ****     //offset in
 598:Src/motion.c  ****     Control_StrCalculator(43.0f - enc.offset, VELO_F, VELO_F, VELO_F, ACCEL_F, 1);
 2747              		.loc 1 598 0
 2748 0002 3A4B     		ldr	r3, .L173
 2749 0004 D3ED027A 		vldr.32	s15, [r3, #8]
 2750 0008 DFED390A 		vldr.32	s1, .L173+4
 2751 000c F7EE002A 		vmov.f32	s5, #1.0e+0
 2752 0010 9FED382A 		vldr.32	s4, .L173+8
 2753 0014 F0EE601A 		vmov.f32	s3, s1
 2754 0018 B0EE601A 		vmov.f32	s2, s1
 2755 001c 9FED360A 		vldr.32	s0, .L173+12
 2756 0020 30EE670A 		vsub.f32	s0, s0, s15
 2757 0024 FFF7FEFF 		bl	Control_StrCalculator
 2758              	.LVL150:
 599:Src/motion.c  ****     Control_AngCalculator(0, 0, 0, 0, 1, 0);
 2759              		.loc 1 599 0
 2760 0028 9FED340A 		vldr.32	s0, .L173+16
 2761 002c F0EE402A 		vmov.f32	s5, s0
 2762 0030 B7EE002A 		vmov.f32	s4, #1.0e+0
 2763 0034 F0EE401A 		vmov.f32	s3, s0
 2764 0038 B0EE401A 		vmov.f32	s2, s0
 2765 003c F0EE400A 		vmov.f32	s1, s0
 2766 0040 FFF7FEFF 		bl	Control_AngCalculator
 2767              	.LVL151:
 600:Src/motion.c  ****     motion_end_flag = FALSE;
 2768              		.loc 1 600 0
 2769 0044 2E4B     		ldr	r3, .L173+20
 2770 0046 0022     		movs	r2, #0
 2771 0048 1A70     		strb	r2, [r3]
 2772              	.L169:
 601:Src/motion.c  ****     while (motion_end_flag == FALSE)
 2773              		.loc 1 601 0 discriminator 1
 2774 004a 2D4B     		ldr	r3, .L173+20
 2775 004c 1B78     		ldrb	r3, [r3]	@ zero_extendqisi2
ARM GAS  C:\Users\kotaro\AppData\Local\Temp\cc2MmsOy.s 			page 60


 2776 004e 002B     		cmp	r3, #0
 2777 0050 FBD0     		beq	.L169
 602:Src/motion.c  ****     {
 603:Src/motion.c  ****     }
 604:Src/motion.c  ****     //turn
 605:Src/motion.c  ****     Control_StrCalculator(800.0f, VELO_F, VELO_F, VELO_F, 1, 1);
 2778              		.loc 1 605 0
 2779 0052 9FED270A 		vldr.32	s0, .L173+4
 2780 0056 F7EE002A 		vmov.f32	s5, #1.0e+0
 2781 005a B0EE622A 		vmov.f32	s4, s5
 2782 005e F0EE401A 		vmov.f32	s3, s0
 2783 0062 B0EE401A 		vmov.f32	s2, s0
 2784 0066 F0EE400A 		vmov.f32	s1, s0
 2785 006a FFF7FEFF 		bl	Control_StrCalculator
 2786              	.LVL152:
 606:Src/motion.c  ****     Control_AngCalculator(45.5f, 0, 600.0f, 0, 20000.0f, -1);
 2787              		.loc 1 606 0
 2788 006e DFED230A 		vldr.32	s1, .L173+16
 2789 0072 FFEE002A 		vmov.f32	s5, #-1.0e+0
 2790 0076 9FED232A 		vldr.32	s4, .L173+24
 2791 007a F0EE601A 		vmov.f32	s3, s1
 2792 007e 9FED221A 		vldr.32	s2, .L173+28
 2793 0082 9FED220A 		vldr.32	s0, .L173+32
 2794 0086 FFF7FEFF 		bl	Control_AngCalculator
 2795              	.LVL153:
 607:Src/motion.c  ****     motion_end_flag = FALSE;
 2796              		.loc 1 607 0
 2797 008a 1D4B     		ldr	r3, .L173+20
 2798 008c 0022     		movs	r2, #0
 2799 008e 1A70     		strb	r2, [r3]
 2800              	.L170:
 608:Src/motion.c  ****     while (motion_end_flag == FALSE)
 2801              		.loc 1 608 0 discriminator 1
 2802 0090 1B4B     		ldr	r3, .L173+20
 2803 0092 1B78     		ldrb	r3, [r3]	@ zero_extendqisi2
 2804 0094 002B     		cmp	r3, #0
 2805 0096 FBD0     		beq	.L170
 609:Src/motion.c  ****     {
 610:Src/motion.c  ****     }
 611:Src/motion.c  ****     //offset out
 612:Src/motion.c  ****     Control_StrCalculator(92.0f, VELO_F, VELO_F, VELO_F, 1, 1);
 2806              		.loc 1 612 0
 2807 0098 DFED150A 		vldr.32	s1, .L173+4
 2808 009c F7EE002A 		vmov.f32	s5, #1.0e+0
 2809 00a0 B0EE622A 		vmov.f32	s4, s5
 2810 00a4 F0EE601A 		vmov.f32	s3, s1
 2811 00a8 B0EE601A 		vmov.f32	s2, s1
 2812 00ac 9FED180A 		vldr.32	s0, .L173+36
 2813 00b0 FFF7FEFF 		bl	Control_StrCalculator
 2814              	.LVL154:
 613:Src/motion.c  ****     Control_AngCalculator(0, 0, 0, 0, 1, 0);
 2815              		.loc 1 613 0
 2816 00b4 9FED110A 		vldr.32	s0, .L173+16
 2817 00b8 F0EE402A 		vmov.f32	s5, s0
 2818 00bc B7EE002A 		vmov.f32	s4, #1.0e+0
 2819 00c0 F0EE401A 		vmov.f32	s3, s0
 2820 00c4 B0EE401A 		vmov.f32	s2, s0
ARM GAS  C:\Users\kotaro\AppData\Local\Temp\cc2MmsOy.s 			page 61


 2821 00c8 F0EE400A 		vmov.f32	s1, s0
 2822 00cc FFF7FEFF 		bl	Control_AngCalculator
 2823              	.LVL155:
 614:Src/motion.c  ****     control_wall_flag = 3;
 2824              		.loc 1 614 0
 2825 00d0 104B     		ldr	r3, .L173+40
 2826 00d2 0322     		movs	r2, #3
 2827 00d4 1A70     		strb	r2, [r3]
 615:Src/motion.c  ****     motion_end_flag = FALSE;
 2828              		.loc 1 615 0
 2829 00d6 0A4B     		ldr	r3, .L173+20
 2830 00d8 0022     		movs	r2, #0
 2831 00da 1A70     		strb	r2, [r3]
 2832              	.L171:
 616:Src/motion.c  ****     while (motion_end_flag == FALSE)
 2833              		.loc 1 616 0 discriminator 1
 2834 00dc 084B     		ldr	r3, .L173+20
 2835 00de 1B78     		ldrb	r3, [r3]	@ zero_extendqisi2
 2836 00e0 002B     		cmp	r3, #0
 2837 00e2 FBD0     		beq	.L171
 617:Src/motion.c  ****     {
 618:Src/motion.c  ****     }
 619:Src/motion.c  ****     enc.offset = 0.0f;
 2838              		.loc 1 619 0
 2839 00e4 014B     		ldr	r3, .L173
 2840 00e6 0022     		movs	r2, #0
 2841 00e8 9A60     		str	r2, [r3, #8]	@ float
 620:Src/motion.c  **** }
 2842              		.loc 1 620 0
 2843 00ea 08BD     		pop	{r3, pc}
 2844              	.L174:
 2845              		.align	2
 2846              	.L173:
 2847 00ec 00000000 		.word	enc
 2848 00f0 00004844 		.word	1145569280
 2849 00f4 0000FA45 		.word	1174011904
 2850 00f8 00002C42 		.word	1110179840
 2851 00fc 00000000 		.word	0
 2852 0100 00000000 		.word	motion_end_flag
 2853 0104 00409C46 		.word	1184645120
 2854 0108 00001644 		.word	1142292480
 2855 010c 00003642 		.word	1110835200
 2856 0110 0000B842 		.word	1119354880
 2857 0114 00000000 		.word	control_wall_flag
 2858              		.cfi_endproc
 2859              	.LFE181:
 2861              		.section	.text.Motion_OutLeft45Turn,"ax",%progbits
 2862              		.align	1
 2863              		.global	Motion_OutLeft45Turn
 2864              		.syntax unified
 2865              		.thumb
 2866              		.thumb_func
 2867              		.fpu fpv4-sp-d16
 2869              	Motion_OutLeft45Turn:
 2870              	.LFB182:
 621:Src/motion.c  **** 
 622:Src/motion.c  **** void Motion_OutLeft45Turn(float v_end)
ARM GAS  C:\Users\kotaro\AppData\Local\Temp\cc2MmsOy.s 			page 62


 623:Src/motion.c  **** {
 2871              		.loc 1 623 0
 2872              		.cfi_startproc
 2873              		@ args = 0, pretend = 0, frame = 0
 2874              		@ frame_needed = 0, uses_anonymous_args = 0
 2875              	.LVL156:
 2876 0000 08B5     		push	{r3, lr}
 2877              	.LCFI46:
 2878              		.cfi_def_cfa_offset 8
 2879              		.cfi_offset 3, -8
 2880              		.cfi_offset 14, -4
 2881 0002 2DED028B 		vpush.64	{d8}
 2882              	.LCFI47:
 2883              		.cfi_def_cfa_offset 16
 2884              		.cfi_offset 80, -16
 2885              		.cfi_offset 81, -12
 2886 0006 B0EE408A 		vmov.f32	s16, s0
 624:Src/motion.c  ****     //offset in
 625:Src/motion.c  ****     Control_StrCalculator(56.0f - enc.offset, VELO_F, VELO_F, VELO_F, 1, 1);
 2887              		.loc 1 625 0
 2888 000a 3B4B     		ldr	r3, .L180
 2889 000c D3ED027A 		vldr.32	s15, [r3, #8]
 2890 0010 DFED3A0A 		vldr.32	s1, .L180+4
 2891 0014 F7EE002A 		vmov.f32	s5, #1.0e+0
 2892 0018 B0EE622A 		vmov.f32	s4, s5
 2893 001c F0EE601A 		vmov.f32	s3, s1
 2894 0020 B0EE601A 		vmov.f32	s2, s1
 2895 0024 9FED360A 		vldr.32	s0, .L180+8
 2896              	.LVL157:
 2897 0028 30EE670A 		vsub.f32	s0, s0, s15
 2898 002c FFF7FEFF 		bl	Control_StrCalculator
 2899              	.LVL158:
 626:Src/motion.c  ****     Control_AngCalculator(0, 0, 0, 0, 1, 0);
 2900              		.loc 1 626 0
 2901 0030 9FED340A 		vldr.32	s0, .L180+12
 2902 0034 F0EE402A 		vmov.f32	s5, s0
 2903 0038 B7EE002A 		vmov.f32	s4, #1.0e+0
 2904 003c F0EE401A 		vmov.f32	s3, s0
 2905 0040 B0EE401A 		vmov.f32	s2, s0
 2906 0044 F0EE400A 		vmov.f32	s1, s0
 2907 0048 FFF7FEFF 		bl	Control_AngCalculator
 2908              	.LVL159:
 627:Src/motion.c  ****     motion_end_flag = FALSE;
 2909              		.loc 1 627 0
 2910 004c 2E4B     		ldr	r3, .L180+16
 2911 004e 0022     		movs	r2, #0
 2912 0050 1A70     		strb	r2, [r3]
 2913              	.L176:
 628:Src/motion.c  ****     while (motion_end_flag == FALSE)
 2914              		.loc 1 628 0 discriminator 1
 2915 0052 2D4B     		ldr	r3, .L180+16
 2916 0054 1B78     		ldrb	r3, [r3]	@ zero_extendqisi2
 2917 0056 002B     		cmp	r3, #0
 2918 0058 FBD0     		beq	.L176
 629:Src/motion.c  ****     {
 630:Src/motion.c  ****     }
 631:Src/motion.c  ****     //turn
ARM GAS  C:\Users\kotaro\AppData\Local\Temp\cc2MmsOy.s 			page 63


 632:Src/motion.c  ****     Control_StrCalculator(800.0f, VELO_F, VELO_F, VELO_F, 1, 1);
 2919              		.loc 1 632 0
 2920 005a 9FED280A 		vldr.32	s0, .L180+4
 2921 005e F7EE002A 		vmov.f32	s5, #1.0e+0
 2922 0062 B0EE622A 		vmov.f32	s4, s5
 2923 0066 F0EE401A 		vmov.f32	s3, s0
 2924 006a B0EE401A 		vmov.f32	s2, s0
 2925 006e F0EE400A 		vmov.f32	s1, s0
 2926 0072 FFF7FEFF 		bl	Control_StrCalculator
 2927              	.LVL160:
 633:Src/motion.c  ****     Control_AngCalculator(45.5f, 0, 600.0f, 0, 20000.0f, 1);
 2928              		.loc 1 633 0
 2929 0076 DFED230A 		vldr.32	s1, .L180+12
 2930 007a F7EE002A 		vmov.f32	s5, #1.0e+0
 2931 007e 9FED232A 		vldr.32	s4, .L180+20
 2932 0082 F0EE601A 		vmov.f32	s3, s1
 2933 0086 9FED221A 		vldr.32	s2, .L180+24
 2934 008a 9FED220A 		vldr.32	s0, .L180+28
 2935 008e FFF7FEFF 		bl	Control_AngCalculator
 2936              	.LVL161:
 634:Src/motion.c  ****     motion_end_flag = FALSE;
 2937              		.loc 1 634 0
 2938 0092 1D4B     		ldr	r3, .L180+16
 2939 0094 0022     		movs	r2, #0
 2940 0096 1A70     		strb	r2, [r3]
 2941              	.L177:
 635:Src/motion.c  ****     while (motion_end_flag == FALSE)
 2942              		.loc 1 635 0 discriminator 1
 2943 0098 1B4B     		ldr	r3, .L180+16
 2944 009a 1B78     		ldrb	r3, [r3]	@ zero_extendqisi2
 2945 009c 002B     		cmp	r3, #0
 2946 009e FBD0     		beq	.L177
 636:Src/motion.c  ****     {
 637:Src/motion.c  ****     }
 638:Src/motion.c  ****     //offset out
 639:Src/motion.c  ****     Control_StrCalculator(75.0f, VELO_F, VELO_F, v_end, 16000.0f, 1);
 2947              		.loc 1 639 0
 2948 00a0 DFED160A 		vldr.32	s1, .L180+4
 2949 00a4 F7EE002A 		vmov.f32	s5, #1.0e+0
 2950 00a8 9FED1B2A 		vldr.32	s4, .L180+32
 2951 00ac F0EE481A 		vmov.f32	s3, s16
 2952 00b0 B0EE601A 		vmov.f32	s2, s1
 2953 00b4 9FED190A 		vldr.32	s0, .L180+36
 2954 00b8 FFF7FEFF 		bl	Control_StrCalculator
 2955              	.LVL162:
 640:Src/motion.c  ****     Control_AngCalculator(0, 0, 0, 0, 1, 0);
 2956              		.loc 1 640 0
 2957 00bc 9FED110A 		vldr.32	s0, .L180+12
 2958 00c0 F0EE402A 		vmov.f32	s5, s0
 2959 00c4 B7EE002A 		vmov.f32	s4, #1.0e+0
 2960 00c8 F0EE401A 		vmov.f32	s3, s0
 2961 00cc B0EE401A 		vmov.f32	s2, s0
 2962 00d0 F0EE400A 		vmov.f32	s1, s0
 2963 00d4 FFF7FEFF 		bl	Control_AngCalculator
 2964              	.LVL163:
 641:Src/motion.c  ****     control_wall_flag = 2;
 2965              		.loc 1 641 0
ARM GAS  C:\Users\kotaro\AppData\Local\Temp\cc2MmsOy.s 			page 64


 2966 00d8 114B     		ldr	r3, .L180+40
 2967 00da 0222     		movs	r2, #2
 2968 00dc 1A70     		strb	r2, [r3]
 642:Src/motion.c  ****     motion_end_flag = FALSE;
 2969              		.loc 1 642 0
 2970 00de 0A4B     		ldr	r3, .L180+16
 2971 00e0 0022     		movs	r2, #0
 2972 00e2 1A70     		strb	r2, [r3]
 2973              	.L178:
 643:Src/motion.c  ****     while (motion_end_flag == FALSE)
 2974              		.loc 1 643 0 discriminator 1
 2975 00e4 084B     		ldr	r3, .L180+16
 2976 00e6 1B78     		ldrb	r3, [r3]	@ zero_extendqisi2
 2977 00e8 002B     		cmp	r3, #0
 2978 00ea FBD0     		beq	.L178
 644:Src/motion.c  ****     {
 645:Src/motion.c  ****     }
 646:Src/motion.c  ****     enc.offset = 0.0f;
 2979              		.loc 1 646 0
 2980 00ec 024B     		ldr	r3, .L180
 2981 00ee 0022     		movs	r2, #0
 2982 00f0 9A60     		str	r2, [r3, #8]	@ float
 647:Src/motion.c  **** }
 2983              		.loc 1 647 0
 2984 00f2 BDEC028B 		vldm	sp!, {d8}
 2985              	.LCFI48:
 2986              		.cfi_restore 80
 2987              		.cfi_restore 81
 2988              		.cfi_def_cfa_offset 8
 2989              	.LVL164:
 2990 00f6 08BD     		pop	{r3, pc}
 2991              	.L181:
 2992              		.align	2
 2993              	.L180:
 2994 00f8 00000000 		.word	enc
 2995 00fc 00004844 		.word	1145569280
 2996 0100 00006042 		.word	1113587712
 2997 0104 00000000 		.word	0
 2998 0108 00000000 		.word	motion_end_flag
 2999 010c 00409C46 		.word	1184645120
 3000 0110 00001644 		.word	1142292480
 3001 0114 00003642 		.word	1110835200
 3002 0118 00007A46 		.word	1182400512
 3003 011c 00009642 		.word	1117126656
 3004 0120 00000000 		.word	control_wall_flag
 3005              		.cfi_endproc
 3006              	.LFE182:
 3008              		.section	.text.Motion_OutRight45Turn,"ax",%progbits
 3009              		.align	1
 3010              		.global	Motion_OutRight45Turn
 3011              		.syntax unified
 3012              		.thumb
 3013              		.thumb_func
 3014              		.fpu fpv4-sp-d16
 3016              	Motion_OutRight45Turn:
 3017              	.LFB183:
 648:Src/motion.c  **** 
ARM GAS  C:\Users\kotaro\AppData\Local\Temp\cc2MmsOy.s 			page 65


 649:Src/motion.c  **** void Motion_OutRight45Turn(float v_end)
 650:Src/motion.c  **** {
 3018              		.loc 1 650 0
 3019              		.cfi_startproc
 3020              		@ args = 0, pretend = 0, frame = 0
 3021              		@ frame_needed = 0, uses_anonymous_args = 0
 3022              	.LVL165:
 3023 0000 08B5     		push	{r3, lr}
 3024              	.LCFI49:
 3025              		.cfi_def_cfa_offset 8
 3026              		.cfi_offset 3, -8
 3027              		.cfi_offset 14, -4
 3028 0002 2DED028B 		vpush.64	{d8}
 3029              	.LCFI50:
 3030              		.cfi_def_cfa_offset 16
 3031              		.cfi_offset 80, -16
 3032              		.cfi_offset 81, -12
 3033 0006 B0EE408A 		vmov.f32	s16, s0
 651:Src/motion.c  ****     //offset in
 652:Src/motion.c  ****     Control_StrCalculator(81.0f - enc.offset, VELO_F, VELO_F, VELO_F, 1, 1);
 3034              		.loc 1 652 0
 3035 000a 3B4B     		ldr	r3, .L187
 3036 000c D3ED027A 		vldr.32	s15, [r3, #8]
 3037 0010 DFED3A0A 		vldr.32	s1, .L187+4
 3038 0014 F7EE002A 		vmov.f32	s5, #1.0e+0
 3039 0018 B0EE622A 		vmov.f32	s4, s5
 3040 001c F0EE601A 		vmov.f32	s3, s1
 3041 0020 B0EE601A 		vmov.f32	s2, s1
 3042 0024 9FED360A 		vldr.32	s0, .L187+8
 3043              	.LVL166:
 3044 0028 30EE670A 		vsub.f32	s0, s0, s15
 3045 002c FFF7FEFF 		bl	Control_StrCalculator
 3046              	.LVL167:
 653:Src/motion.c  ****     Control_AngCalculator(0, 0, 0, 0, 1, 0);
 3047              		.loc 1 653 0
 3048 0030 9FED340A 		vldr.32	s0, .L187+12
 3049 0034 F0EE402A 		vmov.f32	s5, s0
 3050 0038 B7EE002A 		vmov.f32	s4, #1.0e+0
 3051 003c F0EE401A 		vmov.f32	s3, s0
 3052 0040 B0EE401A 		vmov.f32	s2, s0
 3053 0044 F0EE400A 		vmov.f32	s1, s0
 3054 0048 FFF7FEFF 		bl	Control_AngCalculator
 3055              	.LVL168:
 654:Src/motion.c  ****     motion_end_flag = FALSE;
 3056              		.loc 1 654 0
 3057 004c 2E4B     		ldr	r3, .L187+16
 3058 004e 0022     		movs	r2, #0
 3059 0050 1A70     		strb	r2, [r3]
 3060              	.L183:
 655:Src/motion.c  ****     while (motion_end_flag == FALSE)
 3061              		.loc 1 655 0 discriminator 1
 3062 0052 2D4B     		ldr	r3, .L187+16
 3063 0054 1B78     		ldrb	r3, [r3]	@ zero_extendqisi2
 3064 0056 002B     		cmp	r3, #0
 3065 0058 FBD0     		beq	.L183
 656:Src/motion.c  ****     {
 657:Src/motion.c  ****     }
ARM GAS  C:\Users\kotaro\AppData\Local\Temp\cc2MmsOy.s 			page 66


 658:Src/motion.c  ****     //turn
 659:Src/motion.c  ****     Control_StrCalculator(800.0f, VELO_F, VELO_F, VELO_F, 1, 1);
 3066              		.loc 1 659 0
 3067 005a 9FED280A 		vldr.32	s0, .L187+4
 3068 005e F7EE002A 		vmov.f32	s5, #1.0e+0
 3069 0062 B0EE622A 		vmov.f32	s4, s5
 3070 0066 F0EE401A 		vmov.f32	s3, s0
 3071 006a B0EE401A 		vmov.f32	s2, s0
 3072 006e F0EE400A 		vmov.f32	s1, s0
 3073 0072 FFF7FEFF 		bl	Control_StrCalculator
 3074              	.LVL169:
 660:Src/motion.c  ****     Control_AngCalculator(45.5f, 0, 600.0f, 0, 20000.0f, -1);
 3075              		.loc 1 660 0
 3076 0076 DFED230A 		vldr.32	s1, .L187+12
 3077 007a FFEE002A 		vmov.f32	s5, #-1.0e+0
 3078 007e 9FED232A 		vldr.32	s4, .L187+20
 3079 0082 F0EE601A 		vmov.f32	s3, s1
 3080 0086 9FED221A 		vldr.32	s2, .L187+24
 3081 008a 9FED220A 		vldr.32	s0, .L187+28
 3082 008e FFF7FEFF 		bl	Control_AngCalculator
 3083              	.LVL170:
 661:Src/motion.c  ****     motion_end_flag = FALSE;
 3084              		.loc 1 661 0
 3085 0092 1D4B     		ldr	r3, .L187+16
 3086 0094 0022     		movs	r2, #0
 3087 0096 1A70     		strb	r2, [r3]
 3088              	.L184:
 662:Src/motion.c  ****     while (motion_end_flag == FALSE)
 3089              		.loc 1 662 0 discriminator 1
 3090 0098 1B4B     		ldr	r3, .L187+16
 3091 009a 1B78     		ldrb	r3, [r3]	@ zero_extendqisi2
 3092 009c 002B     		cmp	r3, #0
 3093 009e FBD0     		beq	.L184
 663:Src/motion.c  ****     {
 664:Src/motion.c  ****     }
 665:Src/motion.c  ****     //offset out
 666:Src/motion.c  ****     Control_StrCalculator(47.0f, VELO_F, VELO_F, v_end, 16000.0f, 1);
 3094              		.loc 1 666 0
 3095 00a0 DFED160A 		vldr.32	s1, .L187+4
 3096 00a4 F7EE002A 		vmov.f32	s5, #1.0e+0
 3097 00a8 9FED1B2A 		vldr.32	s4, .L187+32
 3098 00ac F0EE481A 		vmov.f32	s3, s16
 3099 00b0 B0EE601A 		vmov.f32	s2, s1
 3100 00b4 9FED190A 		vldr.32	s0, .L187+36
 3101 00b8 FFF7FEFF 		bl	Control_StrCalculator
 3102              	.LVL171:
 667:Src/motion.c  ****     Control_AngCalculator(0, 0, 0, 0, 1, 0);
 3103              		.loc 1 667 0
 3104 00bc 9FED110A 		vldr.32	s0, .L187+12
 3105 00c0 F0EE402A 		vmov.f32	s5, s0
 3106 00c4 B7EE002A 		vmov.f32	s4, #1.0e+0
 3107 00c8 F0EE401A 		vmov.f32	s3, s0
 3108 00cc B0EE401A 		vmov.f32	s2, s0
 3109 00d0 F0EE400A 		vmov.f32	s1, s0
 3110 00d4 FFF7FEFF 		bl	Control_AngCalculator
 3111              	.LVL172:
 668:Src/motion.c  ****     control_wall_flag = 2;
ARM GAS  C:\Users\kotaro\AppData\Local\Temp\cc2MmsOy.s 			page 67


 3112              		.loc 1 668 0
 3113 00d8 114B     		ldr	r3, .L187+40
 3114 00da 0222     		movs	r2, #2
 3115 00dc 1A70     		strb	r2, [r3]
 669:Src/motion.c  ****     motion_end_flag = FALSE;
 3116              		.loc 1 669 0
 3117 00de 0A4B     		ldr	r3, .L187+16
 3118 00e0 0022     		movs	r2, #0
 3119 00e2 1A70     		strb	r2, [r3]
 3120              	.L185:
 670:Src/motion.c  ****     while (motion_end_flag == FALSE)
 3121              		.loc 1 670 0 discriminator 1
 3122 00e4 084B     		ldr	r3, .L187+16
 3123 00e6 1B78     		ldrb	r3, [r3]	@ zero_extendqisi2
 3124 00e8 002B     		cmp	r3, #0
 3125 00ea FBD0     		beq	.L185
 671:Src/motion.c  ****     {
 672:Src/motion.c  ****     }
 673:Src/motion.c  ****     enc.offset = 0.0f;
 3126              		.loc 1 673 0
 3127 00ec 024B     		ldr	r3, .L187
 3128 00ee 0022     		movs	r2, #0
 3129 00f0 9A60     		str	r2, [r3, #8]	@ float
 674:Src/motion.c  **** }
 3130              		.loc 1 674 0
 3131 00f2 BDEC028B 		vldm	sp!, {d8}
 3132              	.LCFI51:
 3133              		.cfi_restore 80
 3134              		.cfi_restore 81
 3135              		.cfi_def_cfa_offset 8
 3136              	.LVL173:
 3137 00f6 08BD     		pop	{r3, pc}
 3138              	.L188:
 3139              		.align	2
 3140              	.L187:
 3141 00f8 00000000 		.word	enc
 3142 00fc 00004844 		.word	1145569280
 3143 0100 0000A242 		.word	1117913088
 3144 0104 00000000 		.word	0
 3145 0108 00000000 		.word	motion_end_flag
 3146 010c 00409C46 		.word	1184645120
 3147 0110 00001644 		.word	1142292480
 3148 0114 00003642 		.word	1110835200
 3149 0118 00007A46 		.word	1182400512
 3150 011c 00003C42 		.word	1111228416
 3151 0120 00000000 		.word	control_wall_flag
 3152              		.cfi_endproc
 3153              	.LFE183:
 3155              		.section	.text.Motion_Left90Turn,"ax",%progbits
 3156              		.align	1
 3157              		.global	Motion_Left90Turn
 3158              		.syntax unified
 3159              		.thumb
 3160              		.thumb_func
 3161              		.fpu fpv4-sp-d16
 3163              	Motion_Left90Turn:
 3164              	.LFB184:
ARM GAS  C:\Users\kotaro\AppData\Local\Temp\cc2MmsOy.s 			page 68


 675:Src/motion.c  **** 
 676:Src/motion.c  **** void Motion_Left90Turn(float v_end)
 677:Src/motion.c  **** {
 3165              		.loc 1 677 0
 3166              		.cfi_startproc
 3167              		@ args = 0, pretend = 0, frame = 0
 3168              		@ frame_needed = 0, uses_anonymous_args = 0
 3169              	.LVL174:
 3170 0000 08B5     		push	{r3, lr}
 3171              	.LCFI52:
 3172              		.cfi_def_cfa_offset 8
 3173              		.cfi_offset 3, -8
 3174              		.cfi_offset 14, -4
 3175 0002 2DED028B 		vpush.64	{d8}
 3176              	.LCFI53:
 3177              		.cfi_def_cfa_offset 16
 3178              		.cfi_offset 80, -16
 3179              		.cfi_offset 81, -12
 3180 0006 B0EE408A 		vmov.f32	s16, s0
 678:Src/motion.c  ****     //offset in
 679:Src/motion.c  ****     Control_StrCalculator(10.5f - enc.offset, VELO_F, VELO_F, VELO_F, ACCEL_F, 1);
 3181              		.loc 1 679 0
 3182 000a 3A4B     		ldr	r3, .L194
 3183 000c D3ED027A 		vldr.32	s15, [r3, #8]
 3184 0010 DFED390A 		vldr.32	s1, .L194+4
 3185 0014 F7EE002A 		vmov.f32	s5, #1.0e+0
 3186 0018 9FED382A 		vldr.32	s4, .L194+8
 3187 001c F0EE601A 		vmov.f32	s3, s1
 3188 0020 B0EE601A 		vmov.f32	s2, s1
 3189 0024 B2EE050A 		vmov.f32	s0, #1.05e+1
 3190              	.LVL175:
 3191 0028 30EE670A 		vsub.f32	s0, s0, s15
 3192 002c FFF7FEFF 		bl	Control_StrCalculator
 3193              	.LVL176:
 680:Src/motion.c  ****     Control_AngCalculator(0, 0, 0, 0, 1, 0);
 3194              		.loc 1 680 0
 3195 0030 9FED330A 		vldr.32	s0, .L194+12
 3196 0034 F0EE402A 		vmov.f32	s5, s0
 3197 0038 B7EE002A 		vmov.f32	s4, #1.0e+0
 3198 003c F0EE401A 		vmov.f32	s3, s0
 3199 0040 B0EE401A 		vmov.f32	s2, s0
 3200 0044 F0EE400A 		vmov.f32	s1, s0
 3201 0048 FFF7FEFF 		bl	Control_AngCalculator
 3202              	.LVL177:
 681:Src/motion.c  ****     motion_end_flag = FALSE;
 3203              		.loc 1 681 0
 3204 004c 2D4B     		ldr	r3, .L194+16
 3205 004e 0022     		movs	r2, #0
 3206 0050 1A70     		strb	r2, [r3]
 3207              	.L190:
 682:Src/motion.c  ****     while (motion_end_flag == FALSE)
 3208              		.loc 1 682 0 discriminator 1
 3209 0052 2C4B     		ldr	r3, .L194+16
 3210 0054 1B78     		ldrb	r3, [r3]	@ zero_extendqisi2
 3211 0056 002B     		cmp	r3, #0
 3212 0058 FBD0     		beq	.L190
 683:Src/motion.c  ****     {
ARM GAS  C:\Users\kotaro\AppData\Local\Temp\cc2MmsOy.s 			page 69


 684:Src/motion.c  ****     }
 685:Src/motion.c  ****     //turn
 686:Src/motion.c  ****     Control_StrCalculator(600.0f, VELO_F, VELO_F, VELO_F, 1, 1);
 3213              		.loc 1 686 0
 3214 005a DFED270A 		vldr.32	s1, .L194+4
 3215 005e F7EE002A 		vmov.f32	s5, #1.0e+0
 3216 0062 B0EE622A 		vmov.f32	s4, s5
 3217 0066 F0EE601A 		vmov.f32	s3, s1
 3218 006a B0EE601A 		vmov.f32	s2, s1
 3219 006e 9FED260A 		vldr.32	s0, .L194+20
 3220 0072 FFF7FEFF 		bl	Control_StrCalculator
 3221              	.LVL178:
 687:Src/motion.c  ****     Control_AngCalculator(90.5f, 0, VELO_ANG_B, 0, ACCEL_ANG_B, 1);
 3222              		.loc 1 687 0
 3223 0076 DFED220A 		vldr.32	s1, .L194+12
 3224 007a F7EE002A 		vmov.f32	s5, #1.0e+0
 3225 007e 9FED232A 		vldr.32	s4, .L194+24
 3226 0082 F0EE601A 		vmov.f32	s3, s1
 3227 0086 9FED221A 		vldr.32	s2, .L194+28
 3228 008a 9FED220A 		vldr.32	s0, .L194+32
 3229 008e FFF7FEFF 		bl	Control_AngCalculator
 3230              	.LVL179:
 688:Src/motion.c  ****     motion_end_flag = FALSE;
 3231              		.loc 1 688 0
 3232 0092 1C4B     		ldr	r3, .L194+16
 3233 0094 0022     		movs	r2, #0
 3234 0096 1A70     		strb	r2, [r3]
 3235              	.L191:
 689:Src/motion.c  ****     while (motion_end_flag == FALSE)
 3236              		.loc 1 689 0 discriminator 1
 3237 0098 1A4B     		ldr	r3, .L194+16
 3238 009a 1B78     		ldrb	r3, [r3]	@ zero_extendqisi2
 3239 009c 002B     		cmp	r3, #0
 3240 009e FBD0     		beq	.L191
 690:Src/motion.c  ****     {
 691:Src/motion.c  ****     }
 692:Src/motion.c  ****     //offset out
 693:Src/motion.c  ****     Control_StrCalculator(20.0f, VELO_F, VELO_F, v_end, 16000.0f, 1);
 3241              		.loc 1 693 0
 3242 00a0 DFED150A 		vldr.32	s1, .L194+4
 3243 00a4 F7EE002A 		vmov.f32	s5, #1.0e+0
 3244 00a8 9FED1B2A 		vldr.32	s4, .L194+36
 3245 00ac F0EE481A 		vmov.f32	s3, s16
 3246 00b0 B0EE601A 		vmov.f32	s2, s1
 3247 00b4 B3EE040A 		vmov.f32	s0, #2.0e+1
 3248 00b8 FFF7FEFF 		bl	Control_StrCalculator
 3249              	.LVL180:
 694:Src/motion.c  ****     Control_AngCalculator(0, 0, 0, 0, 1, 0);
 3250              		.loc 1 694 0
 3251 00bc 9FED100A 		vldr.32	s0, .L194+12
 3252 00c0 F0EE402A 		vmov.f32	s5, s0
 3253 00c4 B7EE002A 		vmov.f32	s4, #1.0e+0
 3254 00c8 F0EE401A 		vmov.f32	s3, s0
 3255 00cc B0EE401A 		vmov.f32	s2, s0
 3256 00d0 F0EE400A 		vmov.f32	s1, s0
 3257 00d4 FFF7FEFF 		bl	Control_AngCalculator
 3258              	.LVL181:
ARM GAS  C:\Users\kotaro\AppData\Local\Temp\cc2MmsOy.s 			page 70


 695:Src/motion.c  ****     motion_end_flag = FALSE;
 3259              		.loc 1 695 0
 3260 00d8 0A4B     		ldr	r3, .L194+16
 3261 00da 0022     		movs	r2, #0
 3262 00dc 1A70     		strb	r2, [r3]
 3263              	.L192:
 696:Src/motion.c  ****     while (motion_end_flag == FALSE)
 3264              		.loc 1 696 0 discriminator 1
 3265 00de 094B     		ldr	r3, .L194+16
 3266 00e0 1B78     		ldrb	r3, [r3]	@ zero_extendqisi2
 3267 00e2 002B     		cmp	r3, #0
 3268 00e4 FBD0     		beq	.L192
 697:Src/motion.c  ****     {
 698:Src/motion.c  ****     }
 699:Src/motion.c  ****     enc.offset = 0.0f;
 3269              		.loc 1 699 0
 3270 00e6 034B     		ldr	r3, .L194
 3271 00e8 0022     		movs	r2, #0
 3272 00ea 9A60     		str	r2, [r3, #8]	@ float
 700:Src/motion.c  **** }
 3273              		.loc 1 700 0
 3274 00ec BDEC028B 		vldm	sp!, {d8}
 3275              	.LCFI54:
 3276              		.cfi_restore 80
 3277              		.cfi_restore 81
 3278              		.cfi_def_cfa_offset 8
 3279              	.LVL182:
 3280 00f0 08BD     		pop	{r3, pc}
 3281              	.L195:
 3282 00f2 00BF     		.align	2
 3283              	.L194:
 3284 00f4 00000000 		.word	enc
 3285 00f8 00004844 		.word	1145569280
 3286 00fc 0000FA45 		.word	1174011904
 3287 0100 00000000 		.word	0
 3288 0104 00000000 		.word	motion_end_flag
 3289 0108 00001644 		.word	1142292480
 3290 010c 00007A45 		.word	1165623296
 3291 0110 0000BE43 		.word	1136525312
 3292 0114 0000B542 		.word	1119158272
 3293 0118 00007A46 		.word	1182400512
 3294              		.cfi_endproc
 3295              	.LFE184:
 3297              		.section	.text.Motion_Right90Turn,"ax",%progbits
 3298              		.align	1
 3299              		.global	Motion_Right90Turn
 3300              		.syntax unified
 3301              		.thumb
 3302              		.thumb_func
 3303              		.fpu fpv4-sp-d16
 3305              	Motion_Right90Turn:
 3306              	.LFB185:
 701:Src/motion.c  **** 
 702:Src/motion.c  **** void Motion_Right90Turn(float v_end)
 703:Src/motion.c  **** {
 3307              		.loc 1 703 0
 3308              		.cfi_startproc
ARM GAS  C:\Users\kotaro\AppData\Local\Temp\cc2MmsOy.s 			page 71


 3309              		@ args = 0, pretend = 0, frame = 0
 3310              		@ frame_needed = 0, uses_anonymous_args = 0
 3311              	.LVL183:
 3312 0000 08B5     		push	{r3, lr}
 3313              	.LCFI55:
 3314              		.cfi_def_cfa_offset 8
 3315              		.cfi_offset 3, -8
 3316              		.cfi_offset 14, -4
 3317 0002 2DED028B 		vpush.64	{d8}
 3318              	.LCFI56:
 3319              		.cfi_def_cfa_offset 16
 3320              		.cfi_offset 80, -16
 3321              		.cfi_offset 81, -12
 3322 0006 B0EE408A 		vmov.f32	s16, s0
 704:Src/motion.c  ****     //offset in
 705:Src/motion.c  ****     Control_StrCalculator(12.0f - enc.offset, VELO_F, VELO_F, VELO_F, ACCEL_F, 1);
 3323              		.loc 1 705 0
 3324 000a 3A4B     		ldr	r3, .L201
 3325 000c D3ED027A 		vldr.32	s15, [r3, #8]
 3326 0010 DFED390A 		vldr.32	s1, .L201+4
 3327 0014 F7EE002A 		vmov.f32	s5, #1.0e+0
 3328 0018 9FED382A 		vldr.32	s4, .L201+8
 3329 001c F0EE601A 		vmov.f32	s3, s1
 3330 0020 B0EE601A 		vmov.f32	s2, s1
 3331 0024 B2EE080A 		vmov.f32	s0, #1.2e+1
 3332              	.LVL184:
 3333 0028 30EE670A 		vsub.f32	s0, s0, s15
 3334 002c FFF7FEFF 		bl	Control_StrCalculator
 3335              	.LVL185:
 706:Src/motion.c  ****     Control_AngCalculator(0, 0, 0, 0, 1, 0);
 3336              		.loc 1 706 0
 3337 0030 9FED330A 		vldr.32	s0, .L201+12
 3338 0034 F0EE402A 		vmov.f32	s5, s0
 3339 0038 B7EE002A 		vmov.f32	s4, #1.0e+0
 3340 003c F0EE401A 		vmov.f32	s3, s0
 3341 0040 B0EE401A 		vmov.f32	s2, s0
 3342 0044 F0EE400A 		vmov.f32	s1, s0
 3343 0048 FFF7FEFF 		bl	Control_AngCalculator
 3344              	.LVL186:
 707:Src/motion.c  ****     motion_end_flag = FALSE;
 3345              		.loc 1 707 0
 3346 004c 2D4B     		ldr	r3, .L201+16
 3347 004e 0022     		movs	r2, #0
 3348 0050 1A70     		strb	r2, [r3]
 3349              	.L197:
 708:Src/motion.c  ****     while (motion_end_flag == FALSE)
 3350              		.loc 1 708 0 discriminator 1
 3351 0052 2C4B     		ldr	r3, .L201+16
 3352 0054 1B78     		ldrb	r3, [r3]	@ zero_extendqisi2
 3353 0056 002B     		cmp	r3, #0
 3354 0058 FBD0     		beq	.L197
 709:Src/motion.c  ****     {
 710:Src/motion.c  ****     }
 711:Src/motion.c  ****     //turn
 712:Src/motion.c  ****     Control_StrCalculator(600.0f, VELO_F, VELO_F, VELO_F, 1, 1);
 3355              		.loc 1 712 0
 3356 005a DFED270A 		vldr.32	s1, .L201+4
ARM GAS  C:\Users\kotaro\AppData\Local\Temp\cc2MmsOy.s 			page 72


 3357 005e F7EE002A 		vmov.f32	s5, #1.0e+0
 3358 0062 B0EE622A 		vmov.f32	s4, s5
 3359 0066 F0EE601A 		vmov.f32	s3, s1
 3360 006a B0EE601A 		vmov.f32	s2, s1
 3361 006e 9FED260A 		vldr.32	s0, .L201+20
 3362 0072 FFF7FEFF 		bl	Control_StrCalculator
 3363              	.LVL187:
 713:Src/motion.c  ****     Control_AngCalculator(90.5f, 0, VELO_ANG_B, 0, ACCEL_ANG_B, -1);
 3364              		.loc 1 713 0
 3365 0076 DFED220A 		vldr.32	s1, .L201+12
 3366 007a FFEE002A 		vmov.f32	s5, #-1.0e+0
 3367 007e 9FED232A 		vldr.32	s4, .L201+24
 3368 0082 F0EE601A 		vmov.f32	s3, s1
 3369 0086 9FED221A 		vldr.32	s2, .L201+28
 3370 008a 9FED220A 		vldr.32	s0, .L201+32
 3371 008e FFF7FEFF 		bl	Control_AngCalculator
 3372              	.LVL188:
 714:Src/motion.c  ****     motion_end_flag = FALSE;
 3373              		.loc 1 714 0
 3374 0092 1C4B     		ldr	r3, .L201+16
 3375 0094 0022     		movs	r2, #0
 3376 0096 1A70     		strb	r2, [r3]
 3377              	.L198:
 715:Src/motion.c  ****     while (motion_end_flag == FALSE)
 3378              		.loc 1 715 0 discriminator 1
 3379 0098 1A4B     		ldr	r3, .L201+16
 3380 009a 1B78     		ldrb	r3, [r3]	@ zero_extendqisi2
 3381 009c 002B     		cmp	r3, #0
 3382 009e FBD0     		beq	.L198
 716:Src/motion.c  ****     {
 717:Src/motion.c  ****     }
 718:Src/motion.c  ****     //offset out
 719:Src/motion.c  ****     Control_StrCalculator(28.0f, VELO_F, VELO_F, v_end, 16000.0f, 1);
 3383              		.loc 1 719 0
 3384 00a0 DFED150A 		vldr.32	s1, .L201+4
 3385 00a4 F7EE002A 		vmov.f32	s5, #1.0e+0
 3386 00a8 9FED1B2A 		vldr.32	s4, .L201+36
 3387 00ac F0EE481A 		vmov.f32	s3, s16
 3388 00b0 B0EE601A 		vmov.f32	s2, s1
 3389 00b4 B3EE0C0A 		vmov.f32	s0, #2.8e+1
 3390 00b8 FFF7FEFF 		bl	Control_StrCalculator
 3391              	.LVL189:
 720:Src/motion.c  ****     Control_AngCalculator(0, 0, 0, 0, 1, 0);
 3392              		.loc 1 720 0
 3393 00bc 9FED100A 		vldr.32	s0, .L201+12
 3394 00c0 F0EE402A 		vmov.f32	s5, s0
 3395 00c4 B7EE002A 		vmov.f32	s4, #1.0e+0
 3396 00c8 F0EE401A 		vmov.f32	s3, s0
 3397 00cc B0EE401A 		vmov.f32	s2, s0
 3398 00d0 F0EE400A 		vmov.f32	s1, s0
 3399 00d4 FFF7FEFF 		bl	Control_AngCalculator
 3400              	.LVL190:
 721:Src/motion.c  ****     motion_end_flag = FALSE;
 3401              		.loc 1 721 0
 3402 00d8 0A4B     		ldr	r3, .L201+16
 3403 00da 0022     		movs	r2, #0
 3404 00dc 1A70     		strb	r2, [r3]
ARM GAS  C:\Users\kotaro\AppData\Local\Temp\cc2MmsOy.s 			page 73


 3405              	.L199:
 722:Src/motion.c  ****     while (motion_end_flag == FALSE)
 3406              		.loc 1 722 0 discriminator 1
 3407 00de 094B     		ldr	r3, .L201+16
 3408 00e0 1B78     		ldrb	r3, [r3]	@ zero_extendqisi2
 3409 00e2 002B     		cmp	r3, #0
 3410 00e4 FBD0     		beq	.L199
 723:Src/motion.c  ****     {
 724:Src/motion.c  ****     }
 725:Src/motion.c  ****     enc.offset = 0.0f;
 3411              		.loc 1 725 0
 3412 00e6 034B     		ldr	r3, .L201
 3413 00e8 0022     		movs	r2, #0
 3414 00ea 9A60     		str	r2, [r3, #8]	@ float
 726:Src/motion.c  **** }
 3415              		.loc 1 726 0
 3416 00ec BDEC028B 		vldm	sp!, {d8}
 3417              	.LCFI57:
 3418              		.cfi_restore 80
 3419              		.cfi_restore 81
 3420              		.cfi_def_cfa_offset 8
 3421              	.LVL191:
 3422 00f0 08BD     		pop	{r3, pc}
 3423              	.L202:
 3424 00f2 00BF     		.align	2
 3425              	.L201:
 3426 00f4 00000000 		.word	enc
 3427 00f8 00004844 		.word	1145569280
 3428 00fc 0000FA45 		.word	1174011904
 3429 0100 00000000 		.word	0
 3430 0104 00000000 		.word	motion_end_flag
 3431 0108 00001644 		.word	1142292480
 3432 010c 00007A45 		.word	1165623296
 3433 0110 0000BE43 		.word	1136525312
 3434 0114 0000B542 		.word	1119158272
 3435 0118 00007A46 		.word	1182400512
 3436              		.cfi_endproc
 3437              	.LFE185:
 3439              		.section	.text.Turn,"ax",%progbits
 3440              		.align	1
 3441              		.global	Turn
 3442              		.syntax unified
 3443              		.thumb
 3444              		.thumb_func
 3445              		.fpu fpv4-sp-d16
 3447              	Turn:
 3448              	.LFB186:
 727:Src/motion.c  **** 
 728:Src/motion.c  **** void Turn(float offset_in, float offset_out, float velo, float v_end, float deg, float velo_ang, fl
 729:Src/motion.c  **** {
 3449              		.loc 1 729 0
 3450              		.cfi_startproc
 3451              		@ args = 0, pretend = 0, frame = 0
 3452              		@ frame_needed = 0, uses_anonymous_args = 0
 3453              	.LVL192:
 3454 0000 10B5     		push	{r4, lr}
 3455              	.LCFI58:
ARM GAS  C:\Users\kotaro\AppData\Local\Temp\cc2MmsOy.s 			page 74


 3456              		.cfi_def_cfa_offset 8
 3457              		.cfi_offset 4, -8
 3458              		.cfi_offset 14, -4
 3459 0002 2DED088B 		vpush.64	{d8, d9, d10, d11}
 3460              	.LCFI59:
 3461              		.cfi_def_cfa_offset 40
 3462              		.cfi_offset 80, -40
 3463              		.cfi_offset 81, -36
 3464              		.cfi_offset 82, -32
 3465              		.cfi_offset 83, -28
 3466              		.cfi_offset 84, -24
 3467              		.cfi_offset 85, -20
 3468              		.cfi_offset 86, -16
 3469              		.cfi_offset 87, -12
 3470 0006 F0EE608A 		vmov.f32	s17, s1
 3471 000a B0EE418A 		vmov.f32	s16, s2
 3472 000e B0EE619A 		vmov.f32	s18, s3
 3473 0012 F0EE429A 		vmov.f32	s19, s4
 3474 0016 B0EE62AA 		vmov.f32	s20, s5
 3475 001a F0EE43AA 		vmov.f32	s21, s6
 3476 001e 0BEE100A 		vmov	s22, r0	@ int
 3477 0022 0C46     		mov	r4, r1
 730:Src/motion.c  ****     //offset in
 731:Src/motion.c  ****     Control_StrCalculator(offset_in - enc.offset, velo, velo, velo, 1, 1);
 3478              		.loc 1 731 0
 3479 0024 384B     		ldr	r3, .L208
 3480 0026 D3ED027A 		vldr.32	s15, [r3, #8]
 3481 002a F7EE002A 		vmov.f32	s5, #1.0e+0
 3482              	.LVL193:
 3483 002e B0EE622A 		vmov.f32	s4, s5
 3484              	.LVL194:
 3485 0032 F0EE411A 		vmov.f32	s3, s2
 3486              	.LVL195:
 3487 0036 F0EE410A 		vmov.f32	s1, s2
 3488              	.LVL196:
 3489 003a 30EE670A 		vsub.f32	s0, s0, s15
 3490              	.LVL197:
 3491 003e FFF7FEFF 		bl	Control_StrCalculator
 3492              	.LVL198:
 732:Src/motion.c  ****     Control_AngCalculator(0, 0, 0, 0, 1, 0);
 3493              		.loc 1 732 0
 3494 0042 9FED320A 		vldr.32	s0, .L208+4
 3495 0046 F0EE402A 		vmov.f32	s5, s0
 3496 004a B7EE002A 		vmov.f32	s4, #1.0e+0
 3497 004e F0EE401A 		vmov.f32	s3, s0
 3498 0052 B0EE401A 		vmov.f32	s2, s0
 3499 0056 F0EE400A 		vmov.f32	s1, s0
 3500 005a FFF7FEFF 		bl	Control_AngCalculator
 3501              	.LVL199:
 733:Src/motion.c  ****     motion_end_flag = FALSE;
 3502              		.loc 1 733 0
 3503 005e 2C4B     		ldr	r3, .L208+8
 3504 0060 0022     		movs	r2, #0
 3505 0062 1A70     		strb	r2, [r3]
 3506              	.L204:
 734:Src/motion.c  ****     while (motion_end_flag == FALSE)
 3507              		.loc 1 734 0 discriminator 1
ARM GAS  C:\Users\kotaro\AppData\Local\Temp\cc2MmsOy.s 			page 75


 3508 0064 2A4B     		ldr	r3, .L208+8
 3509 0066 1B78     		ldrb	r3, [r3]	@ zero_extendqisi2
 3510 0068 002B     		cmp	r3, #0
 3511 006a FBD0     		beq	.L204
 735:Src/motion.c  ****     {
 736:Src/motion.c  ****     }
 737:Src/motion.c  ****     //turn
 738:Src/motion.c  ****     Control_StrCalculator(600.0f, velo, velo, velo, 1, 1);
 3512              		.loc 1 738 0
 3513 006c F7EE002A 		vmov.f32	s5, #1.0e+0
 3514 0070 B0EE622A 		vmov.f32	s4, s5
 3515 0074 F0EE481A 		vmov.f32	s3, s16
 3516 0078 B0EE481A 		vmov.f32	s2, s16
 3517 007c F0EE480A 		vmov.f32	s1, s16
 3518 0080 9FED240A 		vldr.32	s0, .L208+12
 3519 0084 FFF7FEFF 		bl	Control_StrCalculator
 3520              	.LVL200:
 739:Src/motion.c  ****     Control_AngCalculator(deg, 0, velo_ang, 0, accel_ang, dir);
 3521              		.loc 1 739 0
 3522 0088 DFED200A 		vldr.32	s1, .L208+4
 3523 008c F8EE4B2A 		vcvt.f32.u32	s5, s22
 3524 0090 B0EE6A2A 		vmov.f32	s4, s21
 3525 0094 F0EE601A 		vmov.f32	s3, s1
 3526 0098 B0EE4A1A 		vmov.f32	s2, s20
 3527 009c B0EE690A 		vmov.f32	s0, s19
 3528 00a0 FFF7FEFF 		bl	Control_AngCalculator
 3529              	.LVL201:
 740:Src/motion.c  ****     motion_end_flag = FALSE;
 3530              		.loc 1 740 0
 3531 00a4 1A4B     		ldr	r3, .L208+8
 3532 00a6 0022     		movs	r2, #0
 3533 00a8 1A70     		strb	r2, [r3]
 3534              	.L205:
 741:Src/motion.c  ****     while (motion_end_flag == FALSE)
 3535              		.loc 1 741 0 discriminator 1
 3536 00aa 194B     		ldr	r3, .L208+8
 3537 00ac 1B78     		ldrb	r3, [r3]	@ zero_extendqisi2
 3538 00ae 002B     		cmp	r3, #0
 3539 00b0 FBD0     		beq	.L205
 742:Src/motion.c  ****     {
 743:Src/motion.c  ****     }
 744:Src/motion.c  ****     //offset out
 745:Src/motion.c  ****     Control_StrCalculator(offset_out, velo, velo, v_end, 16000.0f, 1);
 3540              		.loc 1 745 0
 3541 00b2 F7EE002A 		vmov.f32	s5, #1.0e+0
 3542 00b6 9FED182A 		vldr.32	s4, .L208+16
 3543 00ba F0EE491A 		vmov.f32	s3, s18
 3544 00be B0EE481A 		vmov.f32	s2, s16
 3545 00c2 F0EE480A 		vmov.f32	s1, s16
 3546 00c6 B0EE680A 		vmov.f32	s0, s17
 3547 00ca FFF7FEFF 		bl	Control_StrCalculator
 3548              	.LVL202:
 746:Src/motion.c  ****     Control_AngCalculator(0, 0, 0, 0, 1, 0);
 3549              		.loc 1 746 0
 3550 00ce 9FED0F0A 		vldr.32	s0, .L208+4
 3551 00d2 F0EE402A 		vmov.f32	s5, s0
 3552 00d6 B7EE002A 		vmov.f32	s4, #1.0e+0
ARM GAS  C:\Users\kotaro\AppData\Local\Temp\cc2MmsOy.s 			page 76


 3553 00da F0EE401A 		vmov.f32	s3, s0
 3554 00de B0EE401A 		vmov.f32	s2, s0
 3555 00e2 F0EE400A 		vmov.f32	s1, s0
 3556 00e6 FFF7FEFF 		bl	Control_AngCalculator
 3557              	.LVL203:
 747:Src/motion.c  ****     control_wall_flag = wall_flag;
 3558              		.loc 1 747 0
 3559 00ea 0C4B     		ldr	r3, .L208+20
 3560 00ec 1C70     		strb	r4, [r3]
 748:Src/motion.c  ****     motion_end_flag = FALSE;
 3561              		.loc 1 748 0
 3562 00ee 084B     		ldr	r3, .L208+8
 3563 00f0 0022     		movs	r2, #0
 3564 00f2 1A70     		strb	r2, [r3]
 3565              	.L206:
 749:Src/motion.c  ****     while (motion_end_flag == FALSE)
 3566              		.loc 1 749 0 discriminator 1
 3567 00f4 064B     		ldr	r3, .L208+8
 3568 00f6 1B78     		ldrb	r3, [r3]	@ zero_extendqisi2
 3569 00f8 002B     		cmp	r3, #0
 3570 00fa FBD0     		beq	.L206
 750:Src/motion.c  ****     {
 751:Src/motion.c  ****     }
 752:Src/motion.c  ****     enc.offset = 0.0f;
 3571              		.loc 1 752 0
 3572 00fc 024B     		ldr	r3, .L208
 3573 00fe 0022     		movs	r2, #0
 3574 0100 9A60     		str	r2, [r3, #8]	@ float
 753:Src/motion.c  **** }
 3575              		.loc 1 753 0
 3576 0102 BDEC088B 		vldm	sp!, {d8-d11}
 3577              	.LCFI60:
 3578              		.cfi_restore 86
 3579              		.cfi_restore 87
 3580              		.cfi_restore 84
 3581              		.cfi_restore 85
 3582              		.cfi_restore 82
 3583              		.cfi_restore 83
 3584              		.cfi_restore 80
 3585              		.cfi_restore 81
 3586              		.cfi_def_cfa_offset 8
 3587              	.LVL204:
 3588 0106 10BD     		pop	{r4, pc}
 3589              	.L209:
 3590              		.align	2
 3591              	.L208:
 3592 0108 00000000 		.word	enc
 3593 010c 00000000 		.word	0
 3594 0110 00000000 		.word	motion_end_flag
 3595 0114 00001644 		.word	1142292480
 3596 0118 00007A46 		.word	1182400512
 3597 011c 00000000 		.word	control_wall_flag
 3598              		.cfi_endproc
 3599              	.LFE186:
 3601              		.section	.text.Motion_FastLeftTurn,"ax",%progbits
 3602              		.align	1
 3603              		.global	Motion_FastLeftTurn
ARM GAS  C:\Users\kotaro\AppData\Local\Temp\cc2MmsOy.s 			page 77


 3604              		.syntax unified
 3605              		.thumb
 3606              		.thumb_func
 3607              		.fpu fpv4-sp-d16
 3609              	Motion_FastLeftTurn:
 3610              	.LFB187:
 754:Src/motion.c  **** 
 755:Src/motion.c  **** void Motion_FastLeftTurn(uint8_t type, float v_end)
 756:Src/motion.c  **** {
 3611              		.loc 1 756 0
 3612              		.cfi_startproc
 3613              		@ args = 0, pretend = 0, frame = 0
 3614              		@ frame_needed = 0, uses_anonymous_args = 0
 3615              	.LVL205:
 3616 0000 08B5     		push	{r3, lr}
 3617              	.LCFI61:
 3618              		.cfi_def_cfa_offset 8
 3619              		.cfi_offset 3, -8
 3620              		.cfi_offset 14, -4
 757:Src/motion.c  ****     switch (type)
 3621              		.loc 1 757 0
 3622 0002 0728     		cmp	r0, #7
 3623 0004 07D8     		bhi	.L210
 3624 0006 DFE800F0 		tbb	[pc, r0]
 3625              	.L213:
 3626 000a 04       		.byte	(.L212-.L213)/2
 3627 000b 1D       		.byte	(.L214-.L213)/2
 3628 000c 23       		.byte	(.L215-.L213)/2
 3629 000d 07       		.byte	(.L216-.L213)/2
 3630 000e 0A       		.byte	(.L217-.L213)/2
 3631 000f 20       		.byte	(.L218-.L213)/2
 3632 0010 36       		.byte	(.L219-.L213)/2
 3633 0011 49       		.byte	(.L220-.L213)/2
 3634              		.p2align 1
 3635              	.L212:
 758:Src/motion.c  ****     {
 759:Src/motion.c  ****     case SEARCH:
 760:Src/motion.c  ****         Motion_LeftTurn();
 3636              		.loc 1 760 0
 3637 0012 FFF7FEFF 		bl	Motion_LeftTurn
 3638              	.LVL206:
 3639              	.L210:
 761:Src/motion.c  ****         break;
 762:Src/motion.c  ****     case T_90:
 763:Src/motion.c  ****         Motion_Left90Turn(v_end);
 764:Src/motion.c  ****         break;
 765:Src/motion.c  ****     case T_180:
 766:Src/motion.c  ****         Turn(36.0f, 53.0f, 800.0f, v_end, 181.0f, 530.0f, 5000.0f, 1, 2);
 767:Src/motion.c  ****         break;
 768:Src/motion.c  ****     case T_45IN:
 769:Src/motion.c  ****         Motion_InLeft45Turn();
 770:Src/motion.c  ****         break;
 771:Src/motion.c  ****     case T_45OUT:
 772:Src/motion.c  ****         Motion_OutLeft45Turn(v_end);
 773:Src/motion.c  ****         break;
 774:Src/motion.c  ****     case T_135IN:
 775:Src/motion.c  ****         Turn(51.0f, 60.0f, 800.0f, 800.0f, 136.0f, 600.0f, 8000.0f, 1, 3);
ARM GAS  C:\Users\kotaro\AppData\Local\Temp\cc2MmsOy.s 			page 78


 776:Src/motion.c  ****         break;
 777:Src/motion.c  ****     case T_135OUT:
 778:Src/motion.c  ****         Turn(25.0f, 67.0f, 800.0f, v_end, 136.0f, 600.0f, 8000.0f, 1, 2);
 779:Src/motion.c  ****         break;
 780:Src/motion.c  ****     case T_V90:
 781:Src/motion.c  ****         Turn(60.0f, 75.0f, 800.0f, 800.0f, 91.0f, 800.0f, 20000.0f, 1, 3);
 782:Src/motion.c  ****         break;
 783:Src/motion.c  ****     }
 784:Src/motion.c  **** }
 3640              		.loc 1 784 0
 3641 0016 08BD     		pop	{r3, pc}
 3642              	.LVL207:
 3643              	.L216:
 763:Src/motion.c  ****         break;
 3644              		.loc 1 763 0
 3645 0018 FFF7FEFF 		bl	Motion_Left90Turn
 3646              	.LVL208:
 764:Src/motion.c  ****     case T_180:
 3647              		.loc 1 764 0
 3648 001c FBE7     		b	.L210
 3649              	.LVL209:
 3650              	.L217:
 766:Src/motion.c  ****         break;
 3651              		.loc 1 766 0
 3652 001e 0221     		movs	r1, #2
 3653 0020 0120     		movs	r0, #1
 3654              	.LVL210:
 3655 0022 9FED283A 		vldr.32	s6, .L222
 3656 0026 DFED282A 		vldr.32	s5, .L222+4
 3657 002a 9FED282A 		vldr.32	s4, .L222+8
 3658 002e F0EE401A 		vmov.f32	s3, s0
 3659 0032 9FED271A 		vldr.32	s2, .L222+12
 3660 0036 DFED270A 		vldr.32	s1, .L222+16
 3661 003a 9FED270A 		vldr.32	s0, .L222+20
 3662              	.LVL211:
 3663 003e FFF7FEFF 		bl	Turn
 3664              	.LVL212:
 767:Src/motion.c  ****     case T_45IN:
 3665              		.loc 1 767 0
 3666 0042 E8E7     		b	.L210
 3667              	.LVL213:
 3668              	.L214:
 769:Src/motion.c  ****         break;
 3669              		.loc 1 769 0
 3670 0044 FFF7FEFF 		bl	Motion_InLeft45Turn
 3671              	.LVL214:
 770:Src/motion.c  ****     case T_45OUT:
 3672              		.loc 1 770 0
 3673 0048 E5E7     		b	.L210
 3674              	.LVL215:
 3675              	.L218:
 772:Src/motion.c  ****         break;
 3676              		.loc 1 772 0
 3677 004a FFF7FEFF 		bl	Motion_OutLeft45Turn
 3678              	.LVL216:
 773:Src/motion.c  ****     case T_135IN:
 3679              		.loc 1 773 0
ARM GAS  C:\Users\kotaro\AppData\Local\Temp\cc2MmsOy.s 			page 79


 3680 004e E2E7     		b	.L210
 3681              	.LVL217:
 3682              	.L215:
 775:Src/motion.c  ****         break;
 3683              		.loc 1 775 0
 3684 0050 9FED1F1A 		vldr.32	s2, .L222+12
 3685 0054 0321     		movs	r1, #3
 3686 0056 0120     		movs	r0, #1
 3687              	.LVL218:
 3688 0058 9FED203A 		vldr.32	s6, .L222+24
 3689 005c DFED202A 		vldr.32	s5, .L222+28
 3690 0060 9FED202A 		vldr.32	s4, .L222+32
 3691 0064 F0EE411A 		vmov.f32	s3, s2
 3692 0068 DFED1F0A 		vldr.32	s1, .L222+36
 3693 006c 9FED1F0A 		vldr.32	s0, .L222+40
 3694              	.LVL219:
 3695 0070 FFF7FEFF 		bl	Turn
 3696              	.LVL220:
 776:Src/motion.c  ****     case T_135OUT:
 3697              		.loc 1 776 0
 3698 0074 CFE7     		b	.L210
 3699              	.LVL221:
 3700              	.L219:
 778:Src/motion.c  ****         break;
 3701              		.loc 1 778 0
 3702 0076 0221     		movs	r1, #2
 3703 0078 0120     		movs	r0, #1
 3704              	.LVL222:
 3705 007a 9FED183A 		vldr.32	s6, .L222+24
 3706 007e DFED182A 		vldr.32	s5, .L222+28
 3707 0082 9FED182A 		vldr.32	s4, .L222+32
 3708 0086 F0EE401A 		vmov.f32	s3, s0
 3709 008a 9FED111A 		vldr.32	s2, .L222+12
 3710 008e DFED180A 		vldr.32	s1, .L222+44
 3711 0092 B3EE090A 		vmov.f32	s0, #2.5e+1
 3712              	.LVL223:
 3713 0096 FFF7FEFF 		bl	Turn
 3714              	.LVL224:
 779:Src/motion.c  ****     case T_V90:
 3715              		.loc 1 779 0
 3716 009a BCE7     		b	.L210
 3717              	.LVL225:
 3718              	.L220:
 781:Src/motion.c  ****         break;
 3719              		.loc 1 781 0
 3720 009c 9FED0C1A 		vldr.32	s2, .L222+12
 3721 00a0 0321     		movs	r1, #3
 3722 00a2 0120     		movs	r0, #1
 3723              	.LVL226:
 3724 00a4 9FED133A 		vldr.32	s6, .L222+48
 3725 00a8 F0EE412A 		vmov.f32	s5, s2
 3726 00ac 9FED122A 		vldr.32	s4, .L222+52
 3727 00b0 F0EE411A 		vmov.f32	s3, s2
 3728 00b4 DFED110A 		vldr.32	s1, .L222+56
 3729 00b8 9FED0B0A 		vldr.32	s0, .L222+36
 3730              	.LVL227:
 3731 00bc FFF7FEFF 		bl	Turn
ARM GAS  C:\Users\kotaro\AppData\Local\Temp\cc2MmsOy.s 			page 80


 3732              	.LVL228:
 3733              		.loc 1 784 0
 3734 00c0 A9E7     		b	.L210
 3735              	.L223:
 3736 00c2 00BF     		.align	2
 3737              	.L222:
 3738 00c4 00409C45 		.word	1167867904
 3739 00c8 00800444 		.word	1141145600
 3740 00cc 00003543 		.word	1127546880
 3741 00d0 00004844 		.word	1145569280
 3742 00d4 00005442 		.word	1112801280
 3743 00d8 00001042 		.word	1108344832
 3744 00dc 0000FA45 		.word	1174011904
 3745 00e0 00001644 		.word	1142292480
 3746 00e4 00000843 		.word	1124597760
 3747 00e8 00007042 		.word	1114636288
 3748 00ec 00004C42 		.word	1112276992
 3749 00f0 00008642 		.word	1116078080
 3750 00f4 00409C46 		.word	1184645120
 3751 00f8 0000B642 		.word	1119223808
 3752 00fc 00009642 		.word	1117126656
 3753              		.cfi_endproc
 3754              	.LFE187:
 3756              		.section	.text.Motion_FastRightTurn,"ax",%progbits
 3757              		.align	1
 3758              		.global	Motion_FastRightTurn
 3759              		.syntax unified
 3760              		.thumb
 3761              		.thumb_func
 3762              		.fpu fpv4-sp-d16
 3764              	Motion_FastRightTurn:
 3765              	.LFB188:
 785:Src/motion.c  **** 
 786:Src/motion.c  **** void Motion_FastRightTurn(uint8_t type, float v_end)
 787:Src/motion.c  **** {
 3766              		.loc 1 787 0
 3767              		.cfi_startproc
 3768              		@ args = 0, pretend = 0, frame = 0
 3769              		@ frame_needed = 0, uses_anonymous_args = 0
 3770              	.LVL229:
 3771 0000 08B5     		push	{r3, lr}
 3772              	.LCFI62:
 3773              		.cfi_def_cfa_offset 8
 3774              		.cfi_offset 3, -8
 3775              		.cfi_offset 14, -4
 788:Src/motion.c  ****     switch (type)
 3776              		.loc 1 788 0
 3777 0002 0728     		cmp	r0, #7
 3778 0004 07D8     		bhi	.L224
 3779 0006 DFE800F0 		tbb	[pc, r0]
 3780              	.L227:
 3781 000a 04       		.byte	(.L226-.L227)/2
 3782 000b 1D       		.byte	(.L228-.L227)/2
 3783 000c 23       		.byte	(.L229-.L227)/2
 3784 000d 07       		.byte	(.L230-.L227)/2
 3785 000e 0A       		.byte	(.L231-.L227)/2
 3786 000f 20       		.byte	(.L232-.L227)/2
ARM GAS  C:\Users\kotaro\AppData\Local\Temp\cc2MmsOy.s 			page 81


 3787 0010 36       		.byte	(.L233-.L227)/2
 3788 0011 49       		.byte	(.L234-.L227)/2
 3789              		.p2align 1
 3790              	.L226:
 789:Src/motion.c  ****     {
 790:Src/motion.c  ****     case SEARCH:
 791:Src/motion.c  ****         Motion_RightTurn();
 3791              		.loc 1 791 0
 3792 0012 FFF7FEFF 		bl	Motion_RightTurn
 3793              	.LVL230:
 3794              	.L224:
 792:Src/motion.c  ****         break;
 793:Src/motion.c  ****     case T_90:
 794:Src/motion.c  ****         Motion_Right90Turn(v_end);
 795:Src/motion.c  ****         break;
 796:Src/motion.c  ****     case T_180:
 797:Src/motion.c  ****         Turn(30.0f, 50.0f, 800.0f, v_end, 181.0f, 530.0f, 5000.0f, -1, 2);
 798:Src/motion.c  ****         break;
 799:Src/motion.c  ****     case T_45IN:
 800:Src/motion.c  ****         //control_wall_flag = 0;
 801:Src/motion.c  ****         Motion_InRight45Turn();
 802:Src/motion.c  ****         break;
 803:Src/motion.c  ****     case T_45OUT:
 804:Src/motion.c  ****         Motion_OutRight45Turn(v_end);
 805:Src/motion.c  ****         //control_wall_flag = 2;
 806:Src/motion.c  ****         break;
 807:Src/motion.c  ****     case T_135IN:
 808:Src/motion.c  ****         //control_wall_flag = 0;
 809:Src/motion.c  ****         Turn(41.0f, 40.0f, 800.0f, 800.0f, 136.0f, 600.0f, 8000.0f, -1, 3);//in:41 out:40
 810:Src/motion.c  ****         break;
 811:Src/motion.c  ****     case T_135OUT:
 812:Src/motion.c  ****         Turn(25.0f, 57.0f, 800.0f, v_end, 136.0f, 600.0f, 8000.0f, -1, 2);
 813:Src/motion.c  ****         break;
 814:Src/motion.c  ****     case T_V90:
 815:Src/motion.c  ****         Turn(35.0f, 60.0f, 800.0f, 800.0f, 91.0f, 800.0f, 20000.0f, -1, 3);
 816:Src/motion.c  ****         //control_wall_flag = 2;
 817:Src/motion.c  ****         break;
 818:Src/motion.c  ****     }
 819:Src/motion.c  **** }...
 3795              		.loc 1 819 0
 3796 0016 08BD     		pop	{r3, pc}
 3797              	.LVL231:
 3798              	.L230:
 794:Src/motion.c  ****         Motion_Right90Turn(v_end);
 3799              		.loc 1 794 0
 3800 0018 FFF7FEFF 		bl	Motion_Right90Turn
 3801              	.LVL232:
 795:Src/motion.c  ****         break;
 3802              		.loc 1 795 0
 3803 001c FBE7     		b	.L224
 3804              	.LVL233:
 3805              	.L231:
 797:Src/motion.c  ****         Turn(30.0f, 50.0f, 800.0f, v_end, 181.0f, 530.0f, 5000.0f, -1, 2);
 3806              		.loc 1 797 0
 3807 001e 0221     		movs	r1, #2
 3808 0020 FF20     		movs	r0, #255
 3809              	.LVL234:
ARM GAS  C:\Users\kotaro\AppData\Local\Temp\cc2MmsOy.s 			page 82


 3810 0022 9FED283A 		vldr.32	s6, .L236
 3811 0026 DFED282A 		vldr.32	s5, .L236+4
 3812 002a 9FED282A 		vldr.32	s4, .L236+8
 3813 002e F0EE401A 		vmov.f32	s3, s0
 3814 0032 9FED271A 		vldr.32	s2, .L236+12
 3815 0036 DFED270A 		vldr.32	s1, .L236+16
 3816 003a B3EE0E0A 		vmov.f32	s0, #3.0e+1
 3817              	.LVL235:
 3818 003e FFF7FEFF 		bl	Turn
 3819              	.LVL236:
 798:Src/motion.c  ****         break;
 3820              		.loc 1 798 0
 3821 0042 E8E7     		b	.L224
 3822              	.LVL237:
 3823              	.L228:
 801:Src/motion.c  ****         Motion_InRight45Turn();
 3824              		.loc 1 801 0
 3825 0044 FFF7FEFF 		bl	Motion_InRight45Turn
 3826              	.LVL238:
 802:Src/motion.c  ****         break;
 3827              		.loc 1 802 0
 3828 0048 E5E7     		b	.L224
 3829              	.LVL239:
 3830              	.L232:
 804:Src/motion.c  ****         Motion_OutRight45Turn(v_end);
 3831              		.loc 1 804 0
 3832 004a FFF7FEFF 		bl	Motion_OutRight45Turn
 3833              	.LVL240:
 806:Src/motion.c  ****         break;
 3834              		.loc 1 806 0
 3835 004e E2E7     		b	.L224
 3836              	.LVL241:
 3837              	.L229:
 809:Src/motion.c  ****         Turn(41.0f, 40.0f, 800.0f, 800.0f, 136.0f, 600.0f, 8000.0f, -1, 3);//in:41 out:40
 3838              		.loc 1 809 0
 3839 0050 9FED1F1A 		vldr.32	s2, .L236+12
 3840 0054 0321     		movs	r1, #3
 3841 0056 FF20     		movs	r0, #255
 3842              	.LVL242:
 3843 0058 9FED1F3A 		vldr.32	s6, .L236+20
 3844 005c DFED1F2A 		vldr.32	s5, .L236+24
 3845 0060 9FED1F2A 		vldr.32	s4, .L236+28
 3846 0064 F0EE411A 		vmov.f32	s3, s2
 3847 0068 DFED1E0A 		vldr.32	s1, .L236+32
 3848 006c 9FED1E0A 		vldr.32	s0, .L236+36
 3849              	.LVL243:
 3850 0070 FFF7FEFF 		bl	Turn
 3851              	.LVL244:
 810:Src/motion.c  ****         break;
 3852              		.loc 1 810 0
 3853 0074 CFE7     		b	.L224
 3854              	.LVL245:
 3855              	.L233:
 812:Src/motion.c  ****         Turn(25.0f, 57.0f, 800.0f, v_end, 136.0f, 600.0f, 8000.0f, -1, 2);
 3856              		.loc 1 812 0
 3857 0076 0221     		movs	r1, #2
 3858 0078 FF20     		movs	r0, #255
ARM GAS  C:\Users\kotaro\AppData\Local\Temp\cc2MmsOy.s 			page 83


 3859              	.LVL246:
 3860 007a 9FED173A 		vldr.32	s6, .L236+20
 3861 007e DFED172A 		vldr.32	s5, .L236+24
 3862 0082 9FED172A 		vldr.32	s4, .L236+28
 3863 0086 F0EE401A 		vmov.f32	s3, s0
 3864 008a 9FED111A 		vldr.32	s2, .L236+12
 3865 008e DFED170A 		vldr.32	s1, .L236+40
 3866 0092 B3EE090A 		vmov.f32	s0, #2.5e+1
 3867              	.LVL247:
 3868 0096 FFF7FEFF 		bl	Turn
 3869              	.LVL248:
 813:Src/motion.c  ****         break;
 3870              		.loc 1 813 0
 3871 009a BCE7     		b	.L224
 3872              	.LVL249:
 3873              	.L234:
 815:Src/motion.c  ****         Turn(35.0f, 60.0f, 800.0f, 800.0f, 91.0f, 800.0f, 20000.0f, -1, 3);
 3874              		.loc 1 815 0
 3875 009c 9FED0C1A 		vldr.32	s2, .L236+12
 3876 00a0 0321     		movs	r1, #3
 3877 00a2 FF20     		movs	r0, #255
 3878              	.LVL250:
 3879 00a4 9FED123A 		vldr.32	s6, .L236+44
 3880 00a8 F0EE412A 		vmov.f32	s5, s2
 3881 00ac 9FED112A 		vldr.32	s4, .L236+48
 3882 00b0 F0EE411A 		vmov.f32	s3, s2
 3883 00b4 DFED100A 		vldr.32	s1, .L236+52
 3884 00b8 9FED100A 		vldr.32	s0, .L236+56
 3885              	.LVL251:
 3886 00bc FFF7FEFF 		bl	Turn
 3887              	.LVL252:
 3888              		.loc 1 819 0
 3889 00c0 A9E7     		b	.L224
 3890              	.L237:
 3891 00c2 00BF     		.align	2
 3892              	.L236:
 3893 00c4 00409C45 		.word	1167867904
 3894 00c8 00800444 		.word	1141145600
 3895 00cc 00003543 		.word	1127546880
 3896 00d0 00004844 		.word	1145569280
 3897 00d4 00004842 		.word	1112014848
 3898 00d8 0000FA45 		.word	1174011904
 3899 00dc 00001644 		.word	1142292480
 3900 00e0 00000843 		.word	1124597760
 3901 00e4 00002042 		.word	1109393408
 3902 00e8 00002442 		.word	1109655552
 3903 00ec 00006442 		.word	1113849856
 3904 00f0 00409C46 		.word	1184645120
 3905 00f4 0000B642 		.word	1119223808
 3906 00f8 00007042 		.word	1114636288
 3907 00fc 00000C42 		.word	1108082688
 3908              		.cfi_endproc
 3909              	.LFE188:
 3911              		.global	prefront_flag
 3912              		.global	diagonal_step
 3913              		.global	gain_velo
 3914              		.comm	motion_end_flag,1,1
ARM GAS  C:\Users\kotaro\AppData\Local\Temp\cc2MmsOy.s 			page 84


 3915              		.section	.bss.diagonal_step,"aw",%nobits
 3916              		.align	2
 3917              		.set	.LANCHOR2,. + 0
 3920              	diagonal_step:
 3921 0000 00000000 		.space	4
 3922              		.section	.bss.gain_velo,"aw",%nobits
 3923              		.align	2
 3924              		.set	.LANCHOR0,. + 0
 3927              	gain_velo:
 3928 0000 00000000 		.space	4
 3929              		.section	.bss.prefront_flag,"aw",%nobits
 3930              		.align	1
 3931              		.set	.LANCHOR1,. + 0
 3934              	prefront_flag:
 3935 0000 0000     		.space	2
 3936              		.text
 3937              	.Letext0:
 3938              		.file 2 "c:\\program files (x86)\\gnu tools arm embedded\\7 2017-q4-major\\arm-none-eabi\\include\
 3939              		.file 3 "c:\\program files (x86)\\gnu tools arm embedded\\7 2017-q4-major\\arm-none-eabi\\include\
 3940              		.file 4 "Inc/control.h"
 3941              		.file 5 "Drivers/CMSIS/Include/core_cm4.h"
 3942              		.file 6 "Drivers/CMSIS/Device/ST/STM32F4xx/Include/system_stm32f4xx.h"
 3943              		.file 7 "Drivers/CMSIS/Device/ST/STM32F4xx/Include/stm32f405xx.h"
 3944              		.file 8 "c:\\program files (x86)\\gnu tools arm embedded\\7 2017-q4-major\\arm-none-eabi\\include\
 3945              		.file 9 "c:\\program files (x86)\\gnu tools arm embedded\\7 2017-q4-major\\arm-none-eabi\\include\
 3946              		.file 10 "c:\\program files (x86)\\gnu tools arm embedded\\7 2017-q4-major\\lib\\gcc\\arm-none-eab
 3947              		.file 11 "c:\\program files (x86)\\gnu tools arm embedded\\7 2017-q4-major\\arm-none-eabi\\include
 3948              		.file 12 "Drivers/STM32F4xx_HAL_Driver/Inc/stm32f4xx_hal_def.h"
 3949              		.file 13 "Drivers/STM32F4xx_HAL_Driver/Inc/stm32f4xx_hal_dma.h"
 3950              		.file 14 "Drivers/STM32F4xx_HAL_Driver/Inc/stm32f4xx_hal_adc.h"
 3951              		.file 15 "Drivers/STM32F4xx_HAL_Driver/Inc/stm32f4xx_hal_spi.h"
 3952              		.file 16 "Drivers/STM32F4xx_HAL_Driver/Inc/stm32f4xx_hal_tim.h"
 3953              		.file 17 "Inc/tim.h"
 3954              		.file 18 "Inc/spi.h"
 3955              		.file 19 "c:\\program files (x86)\\gnu tools arm embedded\\7 2017-q4-major\\arm-none-eabi\\include
 3956              		.file 20 "Inc/adc.h"
 3957              		.file 21 "Drivers/STM32F4xx_HAL_Driver/Inc/stm32f4xx_hal.h"
ARM GAS  C:\Users\kotaro\AppData\Local\Temp\cc2MmsOy.s 			page 85


DEFINED SYMBOLS
                            *ABS*:00000000 motion.c
C:\Users\kotaro\AppData\Local\Temp\cc2MmsOy.s:18     .text.Motion_MaxVeloSet:00000000 $t
C:\Users\kotaro\AppData\Local\Temp\cc2MmsOy.s:25     .text.Motion_MaxVeloSet:00000000 Motion_MaxVeloSet
C:\Users\kotaro\AppData\Local\Temp\cc2MmsOy.s:42     .text.Motion_MaxVeloSet:00000008 $d
C:\Users\kotaro\AppData\Local\Temp\cc2MmsOy.s:47     .text.Motion_enkai:00000000 $t
C:\Users\kotaro\AppData\Local\Temp\cc2MmsOy.s:54     .text.Motion_enkai:00000000 Motion_enkai
C:\Users\kotaro\AppData\Local\Temp\cc2MmsOy.s:93     .text.Motion_enkai:00000044 $d
C:\Users\kotaro\AppData\Local\Temp\cc2MmsOy.s:98     .text.Motion_TestTurn:00000000 $t
C:\Users\kotaro\AppData\Local\Temp\cc2MmsOy.s:105    .text.Motion_TestTurn:00000000 Motion_TestTurn
C:\Users\kotaro\AppData\Local\Temp\cc2MmsOy.s:180    .text.Motion_TestTurn:00000074 $d
                            *COM*:00000001 motion_end_flag
C:\Users\kotaro\AppData\Local\Temp\cc2MmsOy.s:193    .text.Motion_Start:00000000 $t
C:\Users\kotaro\AppData\Local\Temp\cc2MmsOy.s:200    .text.Motion_Start:00000000 Motion_Start
C:\Users\kotaro\AppData\Local\Temp\cc2MmsOy.s:266    .text.Motion_Start:00000068 $d
C:\Users\kotaro\AppData\Local\Temp\cc2MmsOy.s:277    .text.Motion_Restart:00000000 $t
C:\Users\kotaro\AppData\Local\Temp\cc2MmsOy.s:284    .text.Motion_Restart:00000000 Motion_Restart
C:\Users\kotaro\AppData\Local\Temp\cc2MmsOy.s:515    .text.Motion_Restart:000001cc $d
C:\Users\kotaro\AppData\Local\Temp\cc2MmsOy.s:537    .text.Motion_End:00000000 $t
C:\Users\kotaro\AppData\Local\Temp\cc2MmsOy.s:544    .text.Motion_End:00000000 Motion_End
C:\Users\kotaro\AppData\Local\Temp\cc2MmsOy.s:618    .text.Motion_End:00000078 $d
C:\Users\kotaro\AppData\Local\Temp\cc2MmsOy.s:632    .text.Motion_Straight:00000000 $t
C:\Users\kotaro\AppData\Local\Temp\cc2MmsOy.s:639    .text.Motion_Straight:00000000 Motion_Straight
C:\Users\kotaro\AppData\Local\Temp\cc2MmsOy.s:801    .text.Motion_Straight:00000140 $d
C:\Users\kotaro\AppData\Local\Temp\cc2MmsOy.s:813    .text.Motion_SpinTurn:00000000 $t
C:\Users\kotaro\AppData\Local\Temp\cc2MmsOy.s:820    .text.Motion_SpinTurn:00000000 Motion_SpinTurn
C:\Users\kotaro\AppData\Local\Temp\cc2MmsOy.s:976    .text.Motion_SpinTurn:00000140 $d
C:\Users\kotaro\AppData\Local\Temp\cc2MmsOy.s:993    .text.Motion_WallSpinTurn:00000000 $t
C:\Users\kotaro\AppData\Local\Temp\cc2MmsOy.s:1000   .text.Motion_WallSpinTurn:00000000 Motion_WallSpinTurn
C:\Users\kotaro\AppData\Local\Temp\cc2MmsOy.s:1229   .text.Motion_WallSpinTurn:000001d4 $d
C:\Users\kotaro\AppData\Local\Temp\cc2MmsOy.s:1251   .text.Motion_LeftTurn:00000000 $t
C:\Users\kotaro\AppData\Local\Temp\cc2MmsOy.s:1258   .text.Motion_LeftTurn:00000000 Motion_LeftTurn
C:\Users\kotaro\AppData\Local\Temp\cc2MmsOy.s:1383   .text.Motion_LeftTurn:00000100 $d
C:\Users\kotaro\AppData\Local\Temp\cc2MmsOy.s:1399   .text.Motion_RightTurn:00000000 $t
C:\Users\kotaro\AppData\Local\Temp\cc2MmsOy.s:1406   .text.Motion_RightTurn:00000000 Motion_RightTurn
C:\Users\kotaro\AppData\Local\Temp\cc2MmsOy.s:1531   .text.Motion_RightTurn:00000100 $d
C:\Users\kotaro\AppData\Local\Temp\cc2MmsOy.s:1547   .text.Motion_Switch:00000000 $t
C:\Users\kotaro\AppData\Local\Temp\cc2MmsOy.s:1554   .text.Motion_Switch:00000000 Motion_Switch
C:\Users\kotaro\AppData\Local\Temp\cc2MmsOy.s:1572   .text.Motion_Switch:0000000e $d
C:\Users\kotaro\AppData\Local\Temp\cc2MmsOy.s:1626   .text.Motion_Switch:0000003c $d
C:\Users\kotaro\AppData\Local\Temp\cc2MmsOy.s:1631   .text.Motion_FastStart:00000000 $t
C:\Users\kotaro\AppData\Local\Temp\cc2MmsOy.s:1638   .text.Motion_FastStart:00000000 Motion_FastStart
C:\Users\kotaro\AppData\Local\Temp\cc2MmsOy.s:1730   .text.Motion_FastStart:000000ac $d
C:\Users\kotaro\AppData\Local\Temp\cc2MmsOy.s:1745   .text.Motion_FastStraight:00000000 $t
C:\Users\kotaro\AppData\Local\Temp\cc2MmsOy.s:1752   .text.Motion_FastStraight:00000000 Motion_FastStraight
C:\Users\kotaro\AppData\Local\Temp\cc2MmsOy.s:1824   .text.Motion_FastStraight:00000088 $d
C:\Users\kotaro\AppData\Local\Temp\cc2MmsOy.s:1836   .text.Motion_Adjust:00000000 $t
C:\Users\kotaro\AppData\Local\Temp\cc2MmsOy.s:1843   .text.Motion_Adjust:00000000 Motion_Adjust
C:\Users\kotaro\AppData\Local\Temp\cc2MmsOy.s:1947   .text.Motion_Adjust:000000bc $d
C:\Users\kotaro\AppData\Local\Temp\cc2MmsOy.s:1959   .text.Motion_FastGoal:00000000 $t
C:\Users\kotaro\AppData\Local\Temp\cc2MmsOy.s:1966   .text.Motion_FastGoal:00000000 Motion_FastGoal
C:\Users\kotaro\AppData\Local\Temp\cc2MmsOy.s:2059   .text.Motion_FastGoal:000000ac $d
C:\Users\kotaro\AppData\Local\Temp\cc2MmsOy.s:2073   .text.Motion_Diagonal:00000000 $t
C:\Users\kotaro\AppData\Local\Temp\cc2MmsOy.s:2080   .text.Motion_Diagonal:00000000 Motion_Diagonal
C:\Users\kotaro\AppData\Local\Temp\cc2MmsOy.s:2136   .text.Motion_Diagonal:00000068 $d
C:\Users\kotaro\AppData\Local\Temp\cc2MmsOy.s:2146   .text.Motion_DiagonalLeft:00000000 $t
C:\Users\kotaro\AppData\Local\Temp\cc2MmsOy.s:2153   .text.Motion_DiagonalLeft:00000000 Motion_DiagonalLeft
ARM GAS  C:\Users\kotaro\AppData\Local\Temp\cc2MmsOy.s 			page 86


C:\Users\kotaro\AppData\Local\Temp\cc2MmsOy.s:2265   .text.Motion_DiagonalLeft:000000dc $d
C:\Users\kotaro\AppData\Local\Temp\cc2MmsOy.s:2277   .text.Motion_DiagonalRight:00000000 $t
C:\Users\kotaro\AppData\Local\Temp\cc2MmsOy.s:2284   .text.Motion_DiagonalRight:00000000 Motion_DiagonalRight
C:\Users\kotaro\AppData\Local\Temp\cc2MmsOy.s:2399   .text.Motion_DiagonalRight:000000e4 $d
C:\Users\kotaro\AppData\Local\Temp\cc2MmsOy.s:2413   .text.Motion_DiagonalStart:00000000 $t
C:\Users\kotaro\AppData\Local\Temp\cc2MmsOy.s:2420   .text.Motion_DiagonalStart:00000000 Motion_DiagonalStart
C:\Users\kotaro\AppData\Local\Temp\cc2MmsOy.s:2486   .text.Motion_DiagonalStart:00000068 $d
C:\Users\kotaro\AppData\Local\Temp\cc2MmsOy.s:2498   .text.Motion_DiagonalStop:00000000 $t
C:\Users\kotaro\AppData\Local\Temp\cc2MmsOy.s:2505   .text.Motion_DiagonalStop:00000000 Motion_DiagonalStop
C:\Users\kotaro\AppData\Local\Temp\cc2MmsOy.s:2582   .text.Motion_DiagonalStop:00000080 $d
C:\Users\kotaro\AppData\Local\Temp\cc2MmsOy.s:2596   .text.Motion_InLeft45Turn:00000000 $t
C:\Users\kotaro\AppData\Local\Temp\cc2MmsOy.s:2603   .text.Motion_InLeft45Turn:00000000 Motion_InLeft45Turn
C:\Users\kotaro\AppData\Local\Temp\cc2MmsOy.s:2714   .text.Motion_InLeft45Turn:000000ec $d
C:\Users\kotaro\AppData\Local\Temp\cc2MmsOy.s:2729   .text.Motion_InRight45Turn:00000000 $t
C:\Users\kotaro\AppData\Local\Temp\cc2MmsOy.s:2736   .text.Motion_InRight45Turn:00000000 Motion_InRight45Turn
C:\Users\kotaro\AppData\Local\Temp\cc2MmsOy.s:2847   .text.Motion_InRight45Turn:000000ec $d
C:\Users\kotaro\AppData\Local\Temp\cc2MmsOy.s:2862   .text.Motion_OutLeft45Turn:00000000 $t
C:\Users\kotaro\AppData\Local\Temp\cc2MmsOy.s:2869   .text.Motion_OutLeft45Turn:00000000 Motion_OutLeft45Turn
C:\Users\kotaro\AppData\Local\Temp\cc2MmsOy.s:2994   .text.Motion_OutLeft45Turn:000000f8 $d
C:\Users\kotaro\AppData\Local\Temp\cc2MmsOy.s:3009   .text.Motion_OutRight45Turn:00000000 $t
C:\Users\kotaro\AppData\Local\Temp\cc2MmsOy.s:3016   .text.Motion_OutRight45Turn:00000000 Motion_OutRight45Turn
C:\Users\kotaro\AppData\Local\Temp\cc2MmsOy.s:3141   .text.Motion_OutRight45Turn:000000f8 $d
C:\Users\kotaro\AppData\Local\Temp\cc2MmsOy.s:3156   .text.Motion_Left90Turn:00000000 $t
C:\Users\kotaro\AppData\Local\Temp\cc2MmsOy.s:3163   .text.Motion_Left90Turn:00000000 Motion_Left90Turn
C:\Users\kotaro\AppData\Local\Temp\cc2MmsOy.s:3284   .text.Motion_Left90Turn:000000f4 $d
C:\Users\kotaro\AppData\Local\Temp\cc2MmsOy.s:3298   .text.Motion_Right90Turn:00000000 $t
C:\Users\kotaro\AppData\Local\Temp\cc2MmsOy.s:3305   .text.Motion_Right90Turn:00000000 Motion_Right90Turn
C:\Users\kotaro\AppData\Local\Temp\cc2MmsOy.s:3426   .text.Motion_Right90Turn:000000f4 $d
C:\Users\kotaro\AppData\Local\Temp\cc2MmsOy.s:3440   .text.Turn:00000000 $t
C:\Users\kotaro\AppData\Local\Temp\cc2MmsOy.s:3447   .text.Turn:00000000 Turn
C:\Users\kotaro\AppData\Local\Temp\cc2MmsOy.s:3592   .text.Turn:00000108 $d
C:\Users\kotaro\AppData\Local\Temp\cc2MmsOy.s:3602   .text.Motion_FastLeftTurn:00000000 $t
C:\Users\kotaro\AppData\Local\Temp\cc2MmsOy.s:3609   .text.Motion_FastLeftTurn:00000000 Motion_FastLeftTurn
C:\Users\kotaro\AppData\Local\Temp\cc2MmsOy.s:3626   .text.Motion_FastLeftTurn:0000000a $d
C:\Users\kotaro\AppData\Local\Temp\cc2MmsOy.s:3634   .text.Motion_FastLeftTurn:00000012 $t
C:\Users\kotaro\AppData\Local\Temp\cc2MmsOy.s:3738   .text.Motion_FastLeftTurn:000000c4 $d
C:\Users\kotaro\AppData\Local\Temp\cc2MmsOy.s:3757   .text.Motion_FastRightTurn:00000000 $t
C:\Users\kotaro\AppData\Local\Temp\cc2MmsOy.s:3764   .text.Motion_FastRightTurn:00000000 Motion_FastRightTurn
C:\Users\kotaro\AppData\Local\Temp\cc2MmsOy.s:3781   .text.Motion_FastRightTurn:0000000a $d
C:\Users\kotaro\AppData\Local\Temp\cc2MmsOy.s:3789   .text.Motion_FastRightTurn:00000012 $t
C:\Users\kotaro\AppData\Local\Temp\cc2MmsOy.s:3893   .text.Motion_FastRightTurn:000000c4 $d
C:\Users\kotaro\AppData\Local\Temp\cc2MmsOy.s:3934   .bss.prefront_flag:00000000 prefront_flag
C:\Users\kotaro\AppData\Local\Temp\cc2MmsOy.s:3920   .bss.diagonal_step:00000000 diagonal_step
C:\Users\kotaro\AppData\Local\Temp\cc2MmsOy.s:3927   .bss.gain_velo:00000000 gain_velo
C:\Users\kotaro\AppData\Local\Temp\cc2MmsOy.s:3916   .bss.diagonal_step:00000000 $d
C:\Users\kotaro\AppData\Local\Temp\cc2MmsOy.s:3923   .bss.gain_velo:00000000 $d
C:\Users\kotaro\AppData\Local\Temp\cc2MmsOy.s:3930   .bss.prefront_flag:00000000 $d
C:\Users\kotaro\AppData\Local\Temp\cc2MmsOy.s:1577   .text.Motion_Switch:00000013 $d
C:\Users\kotaro\AppData\Local\Temp\cc2MmsOy.s:1577   .text.Motion_Switch:00000014 $t

UNDEFINED SYMBOLS
Control_ResetVelo
Control_StrCalculator
Control_AngCalculator
HAL_Delay
straight
angle
ARM GAS  C:\Users\kotaro\AppData\Local\Temp\cc2MmsOy.s 			page 87


error_ang_sum
error_ang_old
enc
front_wall_flag
Control_EdgeSet
sen_front
motor_flag
sen_r
control_wall_flag
