ARM GAS  C:\Users\kotaro\AppData\Local\Temp\ccDugPzv.s 			page 1


   1              		.cpu cortex-m4
   2              		.eabi_attribute 27, 1
   3              		.eabi_attribute 28, 1
   4              		.eabi_attribute 20, 1
   5              		.eabi_attribute 21, 1
   6              		.eabi_attribute 23, 3
   7              		.eabi_attribute 24, 1
   8              		.eabi_attribute 25, 1
   9              		.eabi_attribute 26, 1
  10              		.eabi_attribute 30, 1
  11              		.eabi_attribute 34, 1
  12              		.eabi_attribute 18, 4
  13              		.file	"motion.c"
  14              		.text
  15              	.Ltext0:
  16              		.cfi_sections	.debug_frame
  17              		.section	.text.Motion_enkai,"ax",%progbits
  18              		.align	1
  19              		.global	Motion_enkai
  20              		.syntax unified
  21              		.thumb
  22              		.thumb_func
  23              		.fpu fpv4-sp-d16
  25              	Motion_enkai:
  26              	.LFB126:
  27              		.file 1 "Src/motion.c"
   1:Src/motion.c  **** #include "motion.h"
   2:Src/motion.c  **** #include "stdint.h"
   3:Src/motion.c  **** #include "control.h"
   4:Src/motion.c  **** #include "tim.h"
   5:Src/motion.c  **** #include "spi.h"
   6:Src/motion.c  **** #include "MazeCon.h"
   7:Src/motion.c  **** 
   8:Src/motion.c  **** #define TRUE 1
   9:Src/motion.c  **** #define FALSE 0
  10:Src/motion.c  **** 
  11:Src/motion.c  **** #define VELO_S 400.0f
  12:Src/motion.c  **** #define ACCEL_S 4000.0f
  13:Src/motion.c  **** #define VELO_ANG_S 400.0f
  14:Src/motion.c  **** #define ACCEL_ANG_S 8000.0f
  15:Src/motion.c  **** #define VELO_ANG_S_SLALOM 600.0f
  16:Src/motion.c  **** #define ACCEL_ANG_S_SLALOM 10000.0f
  17:Src/motion.c  **** 
  18:Src/motion.c  **** #define OFFSET_IN 31.0f
  19:Src/motion.c  **** #define OFFSET_OUT 47.0f
  20:Src/motion.c  **** 
  21:Src/motion.c  **** extern enc_t enc;
  22:Src/motion.c  **** extern volatile uint8_t motor_flag;
  23:Src/motion.c  **** extern target_t straight, angle;
  24:Src/motion.c  **** extern volatile accel_t accel;
  25:Src/motion.c  **** 
  26:Src/motion.c  **** volatile uint8_t motion_end_flag;
  27:Src/motion.c  **** float gain_velo = 150;
  28:Src/motion.c  **** 
  29:Src/motion.c  **** void Motion_enkai(void)
  30:Src/motion.c  **** {
  28              		.loc 1 30 0
ARM GAS  C:\Users\kotaro\AppData\Local\Temp\ccDugPzv.s 			page 2


  29              		.cfi_startproc
  30              		@ Volatile: function does not return.
  31              		@ args = 0, pretend = 0, frame = 0
  32              		@ frame_needed = 0, uses_anonymous_args = 0
  33 0000 08B5     		push	{r3, lr}
  34              	.LCFI0:
  35              		.cfi_def_cfa_offset 8
  36              		.cfi_offset 3, -8
  37              		.cfi_offset 14, -4
  31:Src/motion.c  ****     Control_ResetVelo();
  38              		.loc 1 31 0
  39 0002 FFF7FEFF 		bl	Control_ResetVelo
  40              	.LVL0:
  32:Src/motion.c  ****     Control_StrCalculator(0, 0, 0, 0, 1, 0);
  41              		.loc 1 32 0
  42 0006 9FED0F8A 		vldr.32	s16, .L4
  43 000a F0EE482A 		vmov.f32	s5, s16
  44 000e B7EE002A 		vmov.f32	s4, #1.0e+0
  45 0012 F0EE481A 		vmov.f32	s3, s16
  46 0016 B0EE481A 		vmov.f32	s2, s16
  47 001a F0EE480A 		vmov.f32	s1, s16
  48 001e B0EE480A 		vmov.f32	s0, s16
  49 0022 FFF7FEFF 		bl	Control_StrCalculator
  50              	.LVL1:
  33:Src/motion.c  ****     Control_AngCalculator(0, 0, 0, 0, 1, 0);
  51              		.loc 1 33 0
  52 0026 F0EE482A 		vmov.f32	s5, s16
  53 002a B7EE002A 		vmov.f32	s4, #1.0e+0
  54 002e F0EE481A 		vmov.f32	s3, s16
  55 0032 B0EE481A 		vmov.f32	s2, s16
  56 0036 F0EE480A 		vmov.f32	s1, s16
  57 003a B0EE480A 		vmov.f32	s0, s16
  58 003e FFF7FEFF 		bl	Control_AngCalculator
  59              	.LVL2:
  60              	.L2:
  61 0042 FEE7     		b	.L2
  62              	.L5:
  63              		.align	2
  64              	.L4:
  65 0044 00000000 		.word	0
  66              		.cfi_endproc
  67              	.LFE126:
  69              		.section	.text.Motion_Start,"ax",%progbits
  70              		.align	1
  71              		.global	Motion_Start
  72              		.syntax unified
  73              		.thumb
  74              		.thumb_func
  75              		.fpu fpv4-sp-d16
  77              	Motion_Start:
  78              	.LFB127:
  34:Src/motion.c  ****     while (1)
  35:Src/motion.c  ****     {
  36:Src/motion.c  ****     }
  37:Src/motion.c  **** }
  38:Src/motion.c  **** void Motion_Start(void)
  39:Src/motion.c  **** {
ARM GAS  C:\Users\kotaro\AppData\Local\Temp\ccDugPzv.s 			page 3


  79              		.loc 1 39 0
  80              		.cfi_startproc
  81              		@ args = 0, pretend = 0, frame = 0
  82              		@ frame_needed = 0, uses_anonymous_args = 0
  83 0000 08B5     		push	{r3, lr}
  84              	.LCFI1:
  85              		.cfi_def_cfa_offset 8
  86              		.cfi_offset 3, -8
  87              		.cfi_offset 14, -4
  88 0002 2DED028B 		vpush.64	{d8}
  89              	.LCFI2:
  90              		.cfi_def_cfa_offset 16
  91              		.cfi_offset 80, -16
  92              		.cfi_offset 81, -12
  40:Src/motion.c  ****     Control_ResetVelo();
  93              		.loc 1 40 0
  94 0006 FFF7FEFF 		bl	Control_ResetVelo
  95              	.LVL3:
  41:Src/motion.c  ****     Control_StrCalculator(130.0f, 0.0f, VELO_S, VELO_S, ACCEL_S, 1);
  96              		.loc 1 41 0
  97 000a 9FED151A 		vldr.32	s2, .L9
  98 000e 9FED158A 		vldr.32	s16, .L9+4
  99 0012 F7EE002A 		vmov.f32	s5, #1.0e+0
 100 0016 9FED142A 		vldr.32	s4, .L9+8
 101 001a F0EE411A 		vmov.f32	s3, s2
 102 001e F0EE480A 		vmov.f32	s1, s16
 103 0022 9FED120A 		vldr.32	s0, .L9+12
 104 0026 FFF7FEFF 		bl	Control_StrCalculator
 105              	.LVL4:
  42:Src/motion.c  ****     Control_AngCalculator(0, 0, 0, 0, 1, 0);
 106              		.loc 1 42 0
 107 002a F0EE482A 		vmov.f32	s5, s16
 108 002e B7EE002A 		vmov.f32	s4, #1.0e+0
 109 0032 F0EE481A 		vmov.f32	s3, s16
 110 0036 B0EE481A 		vmov.f32	s2, s16
 111 003a F0EE480A 		vmov.f32	s1, s16
 112 003e B0EE480A 		vmov.f32	s0, s16
 113 0042 FFF7FEFF 		bl	Control_AngCalculator
 114              	.LVL5:
  43:Src/motion.c  ****     motion_end_flag = FALSE;
 115              		.loc 1 43 0
 116 0046 0A4B     		ldr	r3, .L9+16
 117 0048 0022     		movs	r2, #0
 118 004a 1A70     		strb	r2, [r3]
 119              	.L7:
  44:Src/motion.c  ****     while (motion_end_flag == FALSE)
 120              		.loc 1 44 0 discriminator 1
 121 004c 084B     		ldr	r3, .L9+16
 122 004e 1B78     		ldrb	r3, [r3]	@ zero_extendqisi2
 123 0050 002B     		cmp	r3, #0
 124 0052 FBD0     		beq	.L7
  45:Src/motion.c  ****     {
  46:Src/motion.c  ****     }
  47:Src/motion.c  ****     enc.offset = 0.0f;
 125              		.loc 1 47 0
 126 0054 074B     		ldr	r3, .L9+20
 127 0056 0022     		movs	r2, #0
ARM GAS  C:\Users\kotaro\AppData\Local\Temp\ccDugPzv.s 			page 4


 128 0058 9A60     		str	r2, [r3, #8]	@ float
  48:Src/motion.c  **** }
 129              		.loc 1 48 0
 130 005a BDEC028B 		vldm	sp!, {d8}
 131              	.LCFI3:
 132              		.cfi_restore 80
 133              		.cfi_restore 81
 134              		.cfi_def_cfa_offset 8
 135 005e 08BD     		pop	{r3, pc}
 136              	.L10:
 137              		.align	2
 138              	.L9:
 139 0060 0000C843 		.word	1137180672
 140 0064 00000000 		.word	0
 141 0068 00007A45 		.word	1165623296
 142 006c 00000243 		.word	1124204544
 143 0070 00000000 		.word	motion_end_flag
 144 0074 00000000 		.word	enc
 145              		.cfi_endproc
 146              	.LFE127:
 148              		.section	.text.Motion_Restart,"ax",%progbits
 149              		.align	1
 150              		.global	Motion_Restart
 151              		.syntax unified
 152              		.thumb
 153              		.thumb_func
 154              		.fpu fpv4-sp-d16
 156              	Motion_Restart:
 157              	.LFB128:
  49:Src/motion.c  **** 
  50:Src/motion.c  **** void Motion_Restart(uint8_t wall_is)
  51:Src/motion.c  **** {
 158              		.loc 1 51 0
 159              		.cfi_startproc
 160              		@ args = 0, pretend = 0, frame = 0
 161              		@ frame_needed = 0, uses_anonymous_args = 0
 162              	.LVL6:
 163 0000 08B5     		push	{r3, lr}
 164              	.LCFI4:
 165              		.cfi_def_cfa_offset 8
 166              		.cfi_offset 3, -8
 167              		.cfi_offset 14, -4
 168 0002 2DED028B 		vpush.64	{d8}
 169              	.LCFI5:
 170              		.cfi_def_cfa_offset 16
 171              		.cfi_offset 80, -16
 172              		.cfi_offset 81, -12
  52:Src/motion.c  ****     if (wall_is == FALSE)
 173              		.loc 1 52 0
 174 0006 80BB     		cbnz	r0, .L12
  53:Src/motion.c  ****     {
  54:Src/motion.c  ****         Control_StrCalculator(90.0f, 0.0f, VELO_S, VELO_S, ACCEL_S, 1);
 175              		.loc 1 54 0
 176 0008 9FED5B1A 		vldr.32	s2, .L19
 177 000c 9FED5B8A 		vldr.32	s16, .L19+4
 178 0010 F7EE002A 		vmov.f32	s5, #1.0e+0
 179 0014 9FED5A2A 		vldr.32	s4, .L19+8
ARM GAS  C:\Users\kotaro\AppData\Local\Temp\ccDugPzv.s 			page 5


 180 0018 F0EE411A 		vmov.f32	s3, s2
 181 001c F0EE480A 		vmov.f32	s1, s16
 182 0020 9FED580A 		vldr.32	s0, .L19+12
 183 0024 FFF7FEFF 		bl	Control_StrCalculator
 184              	.LVL7:
  55:Src/motion.c  ****         Control_AngCalculator(0, 0, 0, 0, 1, 0);
 185              		.loc 1 55 0
 186 0028 F0EE482A 		vmov.f32	s5, s16
 187 002c B7EE002A 		vmov.f32	s4, #1.0e+0
 188 0030 F0EE481A 		vmov.f32	s3, s16
 189 0034 B0EE481A 		vmov.f32	s2, s16
 190 0038 F0EE480A 		vmov.f32	s1, s16
 191 003c B0EE480A 		vmov.f32	s0, s16
 192 0040 FFF7FEFF 		bl	Control_AngCalculator
 193              	.LVL8:
  56:Src/motion.c  ****         motion_end_flag = FALSE;
 194              		.loc 1 56 0
 195 0044 504B     		ldr	r3, .L19+16
 196 0046 0022     		movs	r2, #0
 197 0048 1A70     		strb	r2, [r3]
 198              	.L13:
  57:Src/motion.c  ****         while (motion_end_flag == FALSE)
 199              		.loc 1 57 0 discriminator 1
 200 004a 4F4B     		ldr	r3, .L19+16
 201 004c 1B78     		ldrb	r3, [r3]	@ zero_extendqisi2
 202 004e 002B     		cmp	r3, #0
 203 0050 FBD0     		beq	.L13
  58:Src/motion.c  ****         {
  59:Src/motion.c  ****         }
  60:Src/motion.c  ****         enc.offset -= 90.0f;
 204              		.loc 1 60 0
 205 0052 4E4B     		ldr	r3, .L19+20
 206 0054 D3ED027A 		vldr.32	s15, [r3, #8]
 207 0058 9FED4A7A 		vldr.32	s14, .L19+12
 208 005c 77EEC77A 		vsub.f32	s15, s15, s14
 209 0060 C3ED027A 		vstr.32	s15, [r3, #8]
 210              	.L11:
  61:Src/motion.c  ****     }
  62:Src/motion.c  ****     else
  63:Src/motion.c  ****     {
  64:Src/motion.c  ****         Control_StrCalculator(0, 0, 0, 0, 1, 0);
  65:Src/motion.c  ****         Control_AngCalculator(185.0f, 0.0f, VELO_ANG_S, 0.0f, ACCEL_ANG_S, 1);
  66:Src/motion.c  ****         motion_end_flag = FALSE;
  67:Src/motion.c  ****         while (motion_end_flag == FALSE)
  68:Src/motion.c  ****         {
  69:Src/motion.c  ****         }
  70:Src/motion.c  ****         straight.v_now = 0;
  71:Src/motion.c  ****         angle.v_now = 0;
  72:Src/motion.c  ****         HAL_Delay(800);
  73:Src/motion.c  **** 
  74:Src/motion.c  ****         Control_StrCalculator(100.0f, 0, 200, 0, 1000, -1);
  75:Src/motion.c  ****         Control_AngCalculator(0, 0, 0, 0, 1, 0);
  76:Src/motion.c  ****         motion_end_flag = FALSE;
  77:Src/motion.c  ****         while (motion_end_flag == FALSE)
  78:Src/motion.c  ****         {
  79:Src/motion.c  ****         }
  80:Src/motion.c  ****         straight.v_now = 0;
ARM GAS  C:\Users\kotaro\AppData\Local\Temp\ccDugPzv.s 			page 6


  81:Src/motion.c  ****         angle.v_now = 0;
  82:Src/motion.c  ****         HAL_Delay(800);
  83:Src/motion.c  **** 
  84:Src/motion.c  ****         Control_StrCalculator(130.0f, 0, VELO_S, VELO_S, ACCEL_S, 1);
  85:Src/motion.c  ****         Control_AngCalculator(0, 0, 0, 0, 1, 0);
  86:Src/motion.c  ****         motion_end_flag = FALSE;
  87:Src/motion.c  ****         while (motion_end_flag == FALSE)
  88:Src/motion.c  ****         {
  89:Src/motion.c  ****         }
  90:Src/motion.c  **** 
  91:Src/motion.c  ****         enc.offset = 0;
  92:Src/motion.c  ****     }
  93:Src/motion.c  **** }
 211              		.loc 1 93 0
 212 0064 BDEC028B 		vldm	sp!, {d8}
 213              	.LCFI6:
 214              		.cfi_remember_state
 215              		.cfi_restore 80
 216              		.cfi_restore 81
 217              		.cfi_def_cfa_offset 8
 218 0068 08BD     		pop	{r3, pc}
 219              	.LVL9:
 220              	.L12:
 221              	.LCFI7:
 222              		.cfi_restore_state
  64:Src/motion.c  ****         Control_AngCalculator(185.0f, 0.0f, VELO_ANG_S, 0.0f, ACCEL_ANG_S, 1);
 223              		.loc 1 64 0
 224 006a 9FED448A 		vldr.32	s16, .L19+4
 225 006e F0EE482A 		vmov.f32	s5, s16
 226 0072 B7EE002A 		vmov.f32	s4, #1.0e+0
 227 0076 F0EE481A 		vmov.f32	s3, s16
 228 007a B0EE481A 		vmov.f32	s2, s16
 229 007e F0EE480A 		vmov.f32	s1, s16
 230 0082 B0EE480A 		vmov.f32	s0, s16
 231 0086 FFF7FEFF 		bl	Control_StrCalculator
 232              	.LVL10:
  65:Src/motion.c  ****         motion_end_flag = FALSE;
 233              		.loc 1 65 0
 234 008a F7EE002A 		vmov.f32	s5, #1.0e+0
 235 008e 9FED402A 		vldr.32	s4, .L19+24
 236 0092 F0EE481A 		vmov.f32	s3, s16
 237 0096 9FED381A 		vldr.32	s2, .L19
 238 009a F0EE480A 		vmov.f32	s1, s16
 239 009e 9FED3D0A 		vldr.32	s0, .L19+28
 240 00a2 FFF7FEFF 		bl	Control_AngCalculator
 241              	.LVL11:
  66:Src/motion.c  ****         while (motion_end_flag == FALSE)
 242              		.loc 1 66 0
 243 00a6 384B     		ldr	r3, .L19+16
 244 00a8 0022     		movs	r2, #0
 245 00aa 1A70     		strb	r2, [r3]
 246              	.L15:
  67:Src/motion.c  ****         {
 247              		.loc 1 67 0 discriminator 1
 248 00ac 364B     		ldr	r3, .L19+16
 249 00ae 1B78     		ldrb	r3, [r3]	@ zero_extendqisi2
 250 00b0 002B     		cmp	r3, #0
ARM GAS  C:\Users\kotaro\AppData\Local\Temp\ccDugPzv.s 			page 7


 251 00b2 FBD0     		beq	.L15
  70:Src/motion.c  ****         angle.v_now = 0;
 252              		.loc 1 70 0
 253 00b4 9FED318A 		vldr.32	s16, .L19+4
 254 00b8 374B     		ldr	r3, .L19+32
 255 00ba 83ED038A 		vstr.32	s16, [r3, #12]
  71:Src/motion.c  ****         HAL_Delay(800);
 256              		.loc 1 71 0
 257 00be 374B     		ldr	r3, .L19+36
 258 00c0 83ED038A 		vstr.32	s16, [r3, #12]
  72:Src/motion.c  **** 
 259              		.loc 1 72 0
 260 00c4 4FF44870 		mov	r0, #800
 261 00c8 FFF7FEFF 		bl	HAL_Delay
 262              	.LVL12:
  74:Src/motion.c  ****         Control_AngCalculator(0, 0, 0, 0, 1, 0);
 263              		.loc 1 74 0
 264 00cc FFEE002A 		vmov.f32	s5, #-1.0e+0
 265 00d0 9FED332A 		vldr.32	s4, .L19+40
 266 00d4 F0EE481A 		vmov.f32	s3, s16
 267 00d8 9FED321A 		vldr.32	s2, .L19+44
 268 00dc F0EE480A 		vmov.f32	s1, s16
 269 00e0 9FED310A 		vldr.32	s0, .L19+48
 270 00e4 FFF7FEFF 		bl	Control_StrCalculator
 271              	.LVL13:
  75:Src/motion.c  ****         motion_end_flag = FALSE;
 272              		.loc 1 75 0
 273 00e8 F0EE482A 		vmov.f32	s5, s16
 274 00ec B7EE002A 		vmov.f32	s4, #1.0e+0
 275 00f0 F0EE481A 		vmov.f32	s3, s16
 276 00f4 B0EE481A 		vmov.f32	s2, s16
 277 00f8 F0EE480A 		vmov.f32	s1, s16
 278 00fc B0EE480A 		vmov.f32	s0, s16
 279 0100 FFF7FEFF 		bl	Control_AngCalculator
 280              	.LVL14:
  76:Src/motion.c  ****         while (motion_end_flag == FALSE)
 281              		.loc 1 76 0
 282 0104 204B     		ldr	r3, .L19+16
 283 0106 0022     		movs	r2, #0
 284 0108 1A70     		strb	r2, [r3]
 285              	.L16:
  77:Src/motion.c  ****         {
 286              		.loc 1 77 0 discriminator 1
 287 010a 1F4B     		ldr	r3, .L19+16
 288 010c 1B78     		ldrb	r3, [r3]	@ zero_extendqisi2
 289 010e 002B     		cmp	r3, #0
 290 0110 FBD0     		beq	.L16
  80:Src/motion.c  ****         angle.v_now = 0;
 291              		.loc 1 80 0
 292 0112 9FED1A8A 		vldr.32	s16, .L19+4
 293 0116 204B     		ldr	r3, .L19+32
 294 0118 83ED038A 		vstr.32	s16, [r3, #12]
  81:Src/motion.c  ****         HAL_Delay(800);
 295              		.loc 1 81 0
 296 011c 1F4B     		ldr	r3, .L19+36
 297 011e 83ED038A 		vstr.32	s16, [r3, #12]
  82:Src/motion.c  **** 
ARM GAS  C:\Users\kotaro\AppData\Local\Temp\ccDugPzv.s 			page 8


 298              		.loc 1 82 0
 299 0122 4FF44870 		mov	r0, #800
 300 0126 FFF7FEFF 		bl	HAL_Delay
 301              	.LVL15:
  84:Src/motion.c  ****         Control_AngCalculator(0, 0, 0, 0, 1, 0);
 302              		.loc 1 84 0
 303 012a 9FED131A 		vldr.32	s2, .L19
 304 012e F7EE002A 		vmov.f32	s5, #1.0e+0
 305 0132 9FED132A 		vldr.32	s4, .L19+8
 306 0136 F0EE411A 		vmov.f32	s3, s2
 307 013a F0EE480A 		vmov.f32	s1, s16
 308 013e 9FED1B0A 		vldr.32	s0, .L19+52
 309 0142 FFF7FEFF 		bl	Control_StrCalculator
 310              	.LVL16:
  85:Src/motion.c  ****         motion_end_flag = FALSE;
 311              		.loc 1 85 0
 312 0146 F0EE482A 		vmov.f32	s5, s16
 313 014a B7EE002A 		vmov.f32	s4, #1.0e+0
 314 014e F0EE481A 		vmov.f32	s3, s16
 315 0152 B0EE481A 		vmov.f32	s2, s16
 316 0156 F0EE480A 		vmov.f32	s1, s16
 317 015a B0EE480A 		vmov.f32	s0, s16
 318 015e FFF7FEFF 		bl	Control_AngCalculator
 319              	.LVL17:
  86:Src/motion.c  ****         while (motion_end_flag == FALSE)
 320              		.loc 1 86 0
 321 0162 094B     		ldr	r3, .L19+16
 322 0164 0022     		movs	r2, #0
 323 0166 1A70     		strb	r2, [r3]
 324              	.L17:
  87:Src/motion.c  ****         {
 325              		.loc 1 87 0 discriminator 1
 326 0168 074B     		ldr	r3, .L19+16
 327 016a 1B78     		ldrb	r3, [r3]	@ zero_extendqisi2
 328 016c 002B     		cmp	r3, #0
 329 016e FBD0     		beq	.L17
  91:Src/motion.c  ****     }
 330              		.loc 1 91 0
 331 0170 064B     		ldr	r3, .L19+20
 332 0172 0022     		movs	r2, #0
 333 0174 9A60     		str	r2, [r3, #8]	@ float
 334              		.loc 1 93 0
 335 0176 75E7     		b	.L11
 336              	.L20:
 337              		.align	2
 338              	.L19:
 339 0178 0000C843 		.word	1137180672
 340 017c 00000000 		.word	0
 341 0180 00007A45 		.word	1165623296
 342 0184 0000B442 		.word	1119092736
 343 0188 00000000 		.word	motion_end_flag
 344 018c 00000000 		.word	enc
 345 0190 0000FA45 		.word	1174011904
 346 0194 00003943 		.word	1127809024
 347 0198 00000000 		.word	straight
 348 019c 00000000 		.word	angle
 349 01a0 00007A44 		.word	1148846080
ARM GAS  C:\Users\kotaro\AppData\Local\Temp\ccDugPzv.s 			page 9


 350 01a4 00004843 		.word	1128792064
 351 01a8 0000C842 		.word	1120403456
 352 01ac 00000243 		.word	1124204544
 353              		.cfi_endproc
 354              	.LFE128:
 356              		.section	.text.Motion_End,"ax",%progbits
 357              		.align	1
 358              		.global	Motion_End
 359              		.syntax unified
 360              		.thumb
 361              		.thumb_func
 362              		.fpu fpv4-sp-d16
 364              	Motion_End:
 365              	.LFB129:
  94:Src/motion.c  **** 
  95:Src/motion.c  **** void Motion_End(void)
  96:Src/motion.c  **** {
 366              		.loc 1 96 0
 367              		.cfi_startproc
 368              		@ args = 0, pretend = 0, frame = 0
 369              		@ frame_needed = 0, uses_anonymous_args = 0
 370 0000 08B5     		push	{r3, lr}
 371              	.LCFI8:
 372              		.cfi_def_cfa_offset 8
 373              		.cfi_offset 3, -8
 374              		.cfi_offset 14, -4
 375 0002 2DED028B 		vpush.64	{d8}
 376              	.LCFI9:
 377              		.cfi_def_cfa_offset 16
 378              		.cfi_offset 80, -16
 379              		.cfi_offset 81, -12
  97:Src/motion.c  ****     Control_StrCalculator(90.0f - enc.offset, VELO_S, VELO_S, 0.0f, ACCEL_S, 1);
 380              		.loc 1 97 0
 381 0006 1C4B     		ldr	r3, .L24
 382 0008 D3ED027A 		vldr.32	s15, [r3, #8]
 383 000c 9FED1B8A 		vldr.32	s16, .L24+4
 384 0010 DFED1B0A 		vldr.32	s1, .L24+8
 385 0014 F7EE002A 		vmov.f32	s5, #1.0e+0
 386 0018 9FED1A2A 		vldr.32	s4, .L24+12
 387 001c F0EE481A 		vmov.f32	s3, s16
 388 0020 B0EE601A 		vmov.f32	s2, s1
 389 0024 9FED180A 		vldr.32	s0, .L24+16
 390 0028 30EE670A 		vsub.f32	s0, s0, s15
 391 002c FFF7FEFF 		bl	Control_StrCalculator
 392              	.LVL18:
  98:Src/motion.c  ****     Control_AngCalculator(0, 0, 0, 0, 1, 0);
 393              		.loc 1 98 0
 394 0030 F0EE482A 		vmov.f32	s5, s16
 395 0034 B7EE002A 		vmov.f32	s4, #1.0e+0
 396 0038 F0EE481A 		vmov.f32	s3, s16
 397 003c B0EE481A 		vmov.f32	s2, s16
 398 0040 F0EE480A 		vmov.f32	s1, s16
 399 0044 B0EE480A 		vmov.f32	s0, s16
 400 0048 FFF7FEFF 		bl	Control_AngCalculator
 401              	.LVL19:
  99:Src/motion.c  ****     motion_end_flag = FALSE;
 402              		.loc 1 99 0
ARM GAS  C:\Users\kotaro\AppData\Local\Temp\ccDugPzv.s 			page 10


 403 004c 0F4B     		ldr	r3, .L24+20
 404 004e 0022     		movs	r2, #0
 405 0050 1A70     		strb	r2, [r3]
 406              	.L22:
 100:Src/motion.c  ****     while (motion_end_flag == FALSE)
 407              		.loc 1 100 0 discriminator 1
 408 0052 0E4B     		ldr	r3, .L24+20
 409 0054 1B78     		ldrb	r3, [r3]	@ zero_extendqisi2
 410 0056 002B     		cmp	r3, #0
 411 0058 FBD0     		beq	.L22
 101:Src/motion.c  ****     {
 102:Src/motion.c  ****     }
 103:Src/motion.c  ****     straight.v_now = 0;
 412              		.loc 1 103 0
 413 005a 0023     		movs	r3, #0
 414 005c 0C4A     		ldr	r2, .L24+24
 415 005e D360     		str	r3, [r2, #12]	@ float
 104:Src/motion.c  ****     angle.v_now = 0;
 416              		.loc 1 104 0
 417 0060 0C4A     		ldr	r2, .L24+28
 418 0062 D360     		str	r3, [r2, #12]	@ float
 105:Src/motion.c  ****     enc.offset = 0;
 419              		.loc 1 105 0
 420 0064 044A     		ldr	r2, .L24
 421 0066 9360     		str	r3, [r2, #8]	@ float
 106:Src/motion.c  ****     HAL_Delay(800);
 422              		.loc 1 106 0
 423 0068 4FF44870 		mov	r0, #800
 424 006c FFF7FEFF 		bl	HAL_Delay
 425              	.LVL20:
 107:Src/motion.c  **** }
 426              		.loc 1 107 0
 427 0070 BDEC028B 		vldm	sp!, {d8}
 428              	.LCFI10:
 429              		.cfi_restore 80
 430              		.cfi_restore 81
 431              		.cfi_def_cfa_offset 8
 432 0074 08BD     		pop	{r3, pc}
 433              	.L25:
 434 0076 00BF     		.align	2
 435              	.L24:
 436 0078 00000000 		.word	enc
 437 007c 00000000 		.word	0
 438 0080 0000C843 		.word	1137180672
 439 0084 00007A45 		.word	1165623296
 440 0088 0000B442 		.word	1119092736
 441 008c 00000000 		.word	motion_end_flag
 442 0090 00000000 		.word	straight
 443 0094 00000000 		.word	angle
 444              		.cfi_endproc
 445              	.LFE129:
 447              		.section	.text.Motion_Straight,"ax",%progbits
 448              		.align	1
 449              		.global	Motion_Straight
 450              		.syntax unified
 451              		.thumb
 452              		.thumb_func
ARM GAS  C:\Users\kotaro\AppData\Local\Temp\ccDugPzv.s 			page 11


 453              		.fpu fpv4-sp-d16
 455              	Motion_Straight:
 456              	.LFB130:
 108:Src/motion.c  **** 
 109:Src/motion.c  **** void Motion_Straight(void)
 110:Src/motion.c  **** {
 457              		.loc 1 110 0
 458              		.cfi_startproc
 459              		@ args = 0, pretend = 0, frame = 0
 460              		@ frame_needed = 0, uses_anonymous_args = 0
 461 0000 08B5     		push	{r3, lr}
 462              	.LCFI11:
 463              		.cfi_def_cfa_offset 8
 464              		.cfi_offset 3, -8
 465              		.cfi_offset 14, -4
 111:Src/motion.c  ****     //Control_ResetVelo();
 112:Src/motion.c  ****     Control_StrCalculator(180.0f - enc.offset, VELO_S, VELO_S, VELO_S, ACCEL_S, 1);
 466              		.loc 1 112 0
 467 0002 164B     		ldr	r3, .L29
 468 0004 D3ED027A 		vldr.32	s15, [r3, #8]
 469 0008 DFED150A 		vldr.32	s1, .L29+4
 470 000c F7EE002A 		vmov.f32	s5, #1.0e+0
 471 0010 9FED142A 		vldr.32	s4, .L29+8
 472 0014 F0EE601A 		vmov.f32	s3, s1
 473 0018 B0EE601A 		vmov.f32	s2, s1
 474 001c 9FED120A 		vldr.32	s0, .L29+12
 475 0020 30EE670A 		vsub.f32	s0, s0, s15
 476 0024 FFF7FEFF 		bl	Control_StrCalculator
 477              	.LVL21:
 113:Src/motion.c  ****     Control_AngCalculator(0, 0, 0, 0, 1, 0);
 478              		.loc 1 113 0
 479 0028 9FED100A 		vldr.32	s0, .L29+16
 480 002c F0EE402A 		vmov.f32	s5, s0
 481 0030 B7EE002A 		vmov.f32	s4, #1.0e+0
 482 0034 F0EE401A 		vmov.f32	s3, s0
 483 0038 B0EE401A 		vmov.f32	s2, s0
 484 003c F0EE400A 		vmov.f32	s1, s0
 485 0040 FFF7FEFF 		bl	Control_AngCalculator
 486              	.LVL22:
 114:Src/motion.c  ****     motion_end_flag = FALSE;
 487              		.loc 1 114 0
 488 0044 0A4B     		ldr	r3, .L29+20
 489 0046 0022     		movs	r2, #0
 490 0048 1A70     		strb	r2, [r3]
 491              	.L27:
 115:Src/motion.c  ****     while (motion_end_flag == FALSE)
 492              		.loc 1 115 0 discriminator 1
 493 004a 094B     		ldr	r3, .L29+20
 494 004c 1B78     		ldrb	r3, [r3]	@ zero_extendqisi2
 495 004e 002B     		cmp	r3, #0
 496 0050 FBD0     		beq	.L27
 116:Src/motion.c  ****     {
 117:Src/motion.c  ****     }
 118:Src/motion.c  ****     enc.offset = 0;
 497              		.loc 1 118 0
 498 0052 024B     		ldr	r3, .L29
 499 0054 0022     		movs	r2, #0
ARM GAS  C:\Users\kotaro\AppData\Local\Temp\ccDugPzv.s 			page 12


 500 0056 9A60     		str	r2, [r3, #8]	@ float
 119:Src/motion.c  **** }
 501              		.loc 1 119 0
 502 0058 08BD     		pop	{r3, pc}
 503              	.L30:
 504 005a 00BF     		.align	2
 505              	.L29:
 506 005c 00000000 		.word	enc
 507 0060 0000C843 		.word	1137180672
 508 0064 00007A45 		.word	1165623296
 509 0068 00003443 		.word	1127481344
 510 006c 00000000 		.word	0
 511 0070 00000000 		.word	motion_end_flag
 512              		.cfi_endproc
 513              	.LFE130:
 515              		.section	.text.Motion_TestTurn,"ax",%progbits
 516              		.align	1
 517              		.global	Motion_TestTurn
 518              		.syntax unified
 519              		.thumb
 520              		.thumb_func
 521              		.fpu fpv4-sp-d16
 523              	Motion_TestTurn:
 524              	.LFB131:
 120:Src/motion.c  **** 
 121:Src/motion.c  **** void Motion_TestTurn(void)
 122:Src/motion.c  **** {
 525              		.loc 1 122 0
 526              		.cfi_startproc
 527              		@ args = 0, pretend = 0, frame = 0
 528              		@ frame_needed = 0, uses_anonymous_args = 0
 529 0000 08B5     		push	{r3, lr}
 530              	.LCFI12:
 531              		.cfi_def_cfa_offset 8
 532              		.cfi_offset 3, -8
 533              		.cfi_offset 14, -4
 534 0002 2DED028B 		vpush.64	{d8}
 535              	.LCFI13:
 536              		.cfi_def_cfa_offset 16
 537              		.cfi_offset 80, -16
 538              		.cfi_offset 81, -12
 123:Src/motion.c  ****     Control_StrCalculator(0, 0, 0, 0, 1, 0);
 539              		.loc 1 123 0
 540 0006 9FED188A 		vldr.32	s16, .L34
 541 000a F0EE482A 		vmov.f32	s5, s16
 542 000e B7EE002A 		vmov.f32	s4, #1.0e+0
 543 0012 F0EE481A 		vmov.f32	s3, s16
 544 0016 B0EE481A 		vmov.f32	s2, s16
 545 001a F0EE480A 		vmov.f32	s1, s16
 546 001e B0EE480A 		vmov.f32	s0, s16
 547 0022 FFF7FEFF 		bl	Control_StrCalculator
 548              	.LVL23:
 124:Src/motion.c  ****     Control_AngCalculator(185.0f, 0.0f, VELO_ANG_S, 0.0f, ACCEL_ANG_S, 1);
 549              		.loc 1 124 0
 550 0026 F7EE002A 		vmov.f32	s5, #1.0e+0
 551 002a 9FED102A 		vldr.32	s4, .L34+4
 552 002e F0EE481A 		vmov.f32	s3, s16
ARM GAS  C:\Users\kotaro\AppData\Local\Temp\ccDugPzv.s 			page 13


 553 0032 9FED0F1A 		vldr.32	s2, .L34+8
 554 0036 F0EE480A 		vmov.f32	s1, s16
 555 003a 9FED0E0A 		vldr.32	s0, .L34+12
 556 003e FFF7FEFF 		bl	Control_AngCalculator
 557              	.LVL24:
 125:Src/motion.c  ****     motion_end_flag = FALSE;
 558              		.loc 1 125 0
 559 0042 0D4B     		ldr	r3, .L34+16
 560 0044 0022     		movs	r2, #0
 561 0046 1A70     		strb	r2, [r3]
 562              	.L32:
 126:Src/motion.c  ****     while (motion_end_flag == FALSE)
 563              		.loc 1 126 0 discriminator 1
 564 0048 0B4B     		ldr	r3, .L34+16
 565 004a 1B78     		ldrb	r3, [r3]	@ zero_extendqisi2
 566 004c 002B     		cmp	r3, #0
 567 004e FBD0     		beq	.L32
 127:Src/motion.c  ****     {
 128:Src/motion.c  ****     }
 129:Src/motion.c  ****     straight.v_now = 0;
 568              		.loc 1 129 0
 569 0050 0023     		movs	r3, #0
 570 0052 0A4A     		ldr	r2, .L34+20
 571 0054 D360     		str	r3, [r2, #12]	@ float
 130:Src/motion.c  ****     angle.v_now = 0;
 572              		.loc 1 130 0
 573 0056 0A4A     		ldr	r2, .L34+24
 574 0058 D360     		str	r3, [r2, #12]	@ float
 131:Src/motion.c  ****     //Tim_MotorPwm(0, 0);
 132:Src/motion.c  ****     HAL_Delay(800);
 575              		.loc 1 132 0
 576 005a 4FF44870 		mov	r0, #800
 577 005e FFF7FEFF 		bl	HAL_Delay
 578              	.LVL25:
 133:Src/motion.c  **** }
 579              		.loc 1 133 0
 580 0062 BDEC028B 		vldm	sp!, {d8}
 581              	.LCFI14:
 582              		.cfi_restore 80
 583              		.cfi_restore 81
 584              		.cfi_def_cfa_offset 8
 585 0066 08BD     		pop	{r3, pc}
 586              	.L35:
 587              		.align	2
 588              	.L34:
 589 0068 00000000 		.word	0
 590 006c 0000FA45 		.word	1174011904
 591 0070 0000C843 		.word	1137180672
 592 0074 00003943 		.word	1127809024
 593 0078 00000000 		.word	motion_end_flag
 594 007c 00000000 		.word	straight
 595 0080 00000000 		.word	angle
 596              		.cfi_endproc
 597              	.LFE131:
 599              		.section	.text.Motion_SpinTurn,"ax",%progbits
 600              		.align	1
 601              		.global	Motion_SpinTurn
ARM GAS  C:\Users\kotaro\AppData\Local\Temp\ccDugPzv.s 			page 14


 602              		.syntax unified
 603              		.thumb
 604              		.thumb_func
 605              		.fpu fpv4-sp-d16
 607              	Motion_SpinTurn:
 608              	.LFB132:
 134:Src/motion.c  **** 
 135:Src/motion.c  **** void Motion_SpinTurn(void)
 136:Src/motion.c  **** {
 609              		.loc 1 136 0
 610              		.cfi_startproc
 611              		@ args = 0, pretend = 0, frame = 0
 612              		@ frame_needed = 0, uses_anonymous_args = 0
 613 0000 08B5     		push	{r3, lr}
 614              	.LCFI15:
 615              		.cfi_def_cfa_offset 8
 616              		.cfi_offset 3, -8
 617              		.cfi_offset 14, -4
 618 0002 2DED028B 		vpush.64	{d8}
 619              	.LCFI16:
 620              		.cfi_def_cfa_offset 16
 621              		.cfi_offset 80, -16
 622              		.cfi_offset 81, -12
 137:Src/motion.c  ****     Control_StrCalculator(90.0f - enc.offset, VELO_S, VELO_S, 0, ACCEL_S, 1);
 623              		.loc 1 137 0
 624 0006 454B     		ldr	r3, .L41
 625 0008 D3ED027A 		vldr.32	s15, [r3, #8]
 626 000c 9FED448A 		vldr.32	s16, .L41+4
 627 0010 DFED440A 		vldr.32	s1, .L41+8
 628 0014 F7EE002A 		vmov.f32	s5, #1.0e+0
 629 0018 9FED432A 		vldr.32	s4, .L41+12
 630 001c F0EE481A 		vmov.f32	s3, s16
 631 0020 B0EE601A 		vmov.f32	s2, s1
 632 0024 9FED410A 		vldr.32	s0, .L41+16
 633 0028 30EE670A 		vsub.f32	s0, s0, s15
 634 002c FFF7FEFF 		bl	Control_StrCalculator
 635              	.LVL26:
 138:Src/motion.c  ****     Control_AngCalculator(0, 0, 0, 0, 1, 0);
 636              		.loc 1 138 0
 637 0030 F0EE482A 		vmov.f32	s5, s16
 638 0034 B7EE002A 		vmov.f32	s4, #1.0e+0
 639 0038 F0EE481A 		vmov.f32	s3, s16
 640 003c B0EE481A 		vmov.f32	s2, s16
 641 0040 F0EE480A 		vmov.f32	s1, s16
 642 0044 B0EE480A 		vmov.f32	s0, s16
 643 0048 FFF7FEFF 		bl	Control_AngCalculator
 644              	.LVL27:
 139:Src/motion.c  ****     motion_end_flag = FALSE;
 645              		.loc 1 139 0
 646 004c 384B     		ldr	r3, .L41+20
 647 004e 0022     		movs	r2, #0
 648 0050 1A70     		strb	r2, [r3]
 649              	.L37:
 140:Src/motion.c  ****     while (motion_end_flag == FALSE)
 650              		.loc 1 140 0 discriminator 1
 651 0052 374B     		ldr	r3, .L41+20
 652 0054 1B78     		ldrb	r3, [r3]	@ zero_extendqisi2
ARM GAS  C:\Users\kotaro\AppData\Local\Temp\ccDugPzv.s 			page 15


 653 0056 002B     		cmp	r3, #0
 654 0058 FBD0     		beq	.L37
 141:Src/motion.c  ****     {
 142:Src/motion.c  ****     }
 143:Src/motion.c  ****     Tim_MotorPwm(0, 0);
 655              		.loc 1 143 0
 656 005a 0021     		movs	r1, #0
 657 005c 0846     		mov	r0, r1
 658 005e FFF7FEFF 		bl	Tim_MotorPwm
 659              	.LVL28:
 144:Src/motion.c  ****     HAL_Delay(500);
 660              		.loc 1 144 0
 661 0062 4FF4FA70 		mov	r0, #500
 662 0066 FFF7FEFF 		bl	HAL_Delay
 663              	.LVL29:
 145:Src/motion.c  ****     Control_StrCalculator(0, 0, 0, 0, 1, 0);
 664              		.loc 1 145 0
 665 006a 9FED2D8A 		vldr.32	s16, .L41+4
 666 006e F0EE482A 		vmov.f32	s5, s16
 667 0072 B7EE002A 		vmov.f32	s4, #1.0e+0
 668 0076 F0EE481A 		vmov.f32	s3, s16
 669 007a B0EE481A 		vmov.f32	s2, s16
 670 007e F0EE480A 		vmov.f32	s1, s16
 671 0082 B0EE480A 		vmov.f32	s0, s16
 672 0086 FFF7FEFF 		bl	Control_StrCalculator
 673              	.LVL30:
 146:Src/motion.c  ****     Control_AngCalculator(185.0f, 0.0f, VELO_ANG_S, 0.0f, ACCEL_ANG_S, 1);
 674              		.loc 1 146 0
 675 008a F7EE002A 		vmov.f32	s5, #1.0e+0
 676 008e 9FED292A 		vldr.32	s4, .L41+24
 677 0092 F0EE481A 		vmov.f32	s3, s16
 678 0096 9FED231A 		vldr.32	s2, .L41+8
 679 009a F0EE480A 		vmov.f32	s1, s16
 680 009e 9FED260A 		vldr.32	s0, .L41+28
 681 00a2 FFF7FEFF 		bl	Control_AngCalculator
 682              	.LVL31:
 147:Src/motion.c  ****     motion_end_flag = FALSE;
 683              		.loc 1 147 0
 684 00a6 224B     		ldr	r3, .L41+20
 685 00a8 0022     		movs	r2, #0
 686 00aa 1A70     		strb	r2, [r3]
 687              	.L38:
 148:Src/motion.c  ****     while (motion_end_flag == FALSE)
 688              		.loc 1 148 0 discriminator 1
 689 00ac 204B     		ldr	r3, .L41+20
 690 00ae 1B78     		ldrb	r3, [r3]	@ zero_extendqisi2
 691 00b0 002B     		cmp	r3, #0
 692 00b2 FBD0     		beq	.L38
 149:Src/motion.c  ****     {
 150:Src/motion.c  ****     }
 151:Src/motion.c  ****     Tim_MotorPwm(0, 0);
 693              		.loc 1 151 0
 694 00b4 0021     		movs	r1, #0
 695 00b6 0846     		mov	r0, r1
 696 00b8 FFF7FEFF 		bl	Tim_MotorPwm
 697              	.LVL32:
 152:Src/motion.c  ****     HAL_Delay(500);
ARM GAS  C:\Users\kotaro\AppData\Local\Temp\ccDugPzv.s 			page 16


 698              		.loc 1 152 0
 699 00bc 4FF4FA70 		mov	r0, #500
 700 00c0 FFF7FEFF 		bl	HAL_Delay
 701              	.LVL33:
 153:Src/motion.c  ****     Control_StrCalculator(90.0f, 0, VELO_S, VELO_S, ACCEL_S, 1);
 702              		.loc 1 153 0
 703 00c4 9FED171A 		vldr.32	s2, .L41+8
 704 00c8 9FED158A 		vldr.32	s16, .L41+4
 705 00cc F7EE002A 		vmov.f32	s5, #1.0e+0
 706 00d0 9FED152A 		vldr.32	s4, .L41+12
 707 00d4 F0EE411A 		vmov.f32	s3, s2
 708 00d8 F0EE480A 		vmov.f32	s1, s16
 709 00dc 9FED130A 		vldr.32	s0, .L41+16
 710 00e0 FFF7FEFF 		bl	Control_StrCalculator
 711              	.LVL34:
 154:Src/motion.c  ****     Control_AngCalculator(0, 0, 0, 0, 1, 0);
 712              		.loc 1 154 0
 713 00e4 F0EE482A 		vmov.f32	s5, s16
 714 00e8 B7EE002A 		vmov.f32	s4, #1.0e+0
 715 00ec F0EE481A 		vmov.f32	s3, s16
 716 00f0 B0EE481A 		vmov.f32	s2, s16
 717 00f4 F0EE480A 		vmov.f32	s1, s16
 718 00f8 B0EE480A 		vmov.f32	s0, s16
 719 00fc FFF7FEFF 		bl	Control_AngCalculator
 720              	.LVL35:
 155:Src/motion.c  ****     motion_end_flag = FALSE;
 721              		.loc 1 155 0
 722 0100 0B4B     		ldr	r3, .L41+20
 723 0102 0022     		movs	r2, #0
 724 0104 1A70     		strb	r2, [r3]
 725              	.L39:
 156:Src/motion.c  ****     while (motion_end_flag == FALSE)
 726              		.loc 1 156 0 discriminator 1
 727 0106 0A4B     		ldr	r3, .L41+20
 728 0108 1B78     		ldrb	r3, [r3]	@ zero_extendqisi2
 729 010a 002B     		cmp	r3, #0
 730 010c FBD0     		beq	.L39
 157:Src/motion.c  ****     {
 158:Src/motion.c  ****     }
 159:Src/motion.c  ****     enc.offset = 0;
 731              		.loc 1 159 0
 732 010e 034B     		ldr	r3, .L41
 733 0110 0022     		movs	r2, #0
 734 0112 9A60     		str	r2, [r3, #8]	@ float
 160:Src/motion.c  **** }
 735              		.loc 1 160 0
 736 0114 BDEC028B 		vldm	sp!, {d8}
 737              	.LCFI17:
 738              		.cfi_restore 80
 739              		.cfi_restore 81
 740              		.cfi_def_cfa_offset 8
 741 0118 08BD     		pop	{r3, pc}
 742              	.L42:
 743 011a 00BF     		.align	2
 744              	.L41:
 745 011c 00000000 		.word	enc
 746 0120 00000000 		.word	0
ARM GAS  C:\Users\kotaro\AppData\Local\Temp\ccDugPzv.s 			page 17


 747 0124 0000C843 		.word	1137180672
 748 0128 00007A45 		.word	1165623296
 749 012c 0000B442 		.word	1119092736
 750 0130 00000000 		.word	motion_end_flag
 751 0134 0000FA45 		.word	1174011904
 752 0138 00003943 		.word	1127809024
 753              		.cfi_endproc
 754              	.LFE132:
 756              		.section	.text.Motion_WallSpinTurn,"ax",%progbits
 757              		.align	1
 758              		.global	Motion_WallSpinTurn
 759              		.syntax unified
 760              		.thumb
 761              		.thumb_func
 762              		.fpu fpv4-sp-d16
 764              	Motion_WallSpinTurn:
 765              	.LFB133:
 161:Src/motion.c  **** 
 162:Src/motion.c  **** void Motion_WallSpinTurn(void)
 163:Src/motion.c  **** {
 766              		.loc 1 163 0
 767              		.cfi_startproc
 768              		@ args = 0, pretend = 0, frame = 0
 769              		@ frame_needed = 0, uses_anonymous_args = 0
 770 0000 08B5     		push	{r3, lr}
 771              	.LCFI18:
 772              		.cfi_def_cfa_offset 8
 773              		.cfi_offset 3, -8
 774              		.cfi_offset 14, -4
 775 0002 2DED028B 		vpush.64	{d8}
 776              	.LCFI19:
 777              		.cfi_def_cfa_offset 16
 778              		.cfi_offset 80, -16
 779              		.cfi_offset 81, -12
 164:Src/motion.c  ****     float buff = enc.offset;
 780              		.loc 1 164 0
 781 0006 634B     		ldr	r3, .L49
 782 0008 D3ED027A 		vldr.32	s15, [r3, #8]
 783              	.LVL36:
 165:Src/motion.c  ****     Control_StrCalculator(90.0f - buff, VELO_S, VELO_S, 0, ACCEL_S, 1);
 784              		.loc 1 165 0
 785 000c 9FED628A 		vldr.32	s16, .L49+4
 786 0010 DFED620A 		vldr.32	s1, .L49+8
 787 0014 F7EE002A 		vmov.f32	s5, #1.0e+0
 788 0018 9FED612A 		vldr.32	s4, .L49+12
 789 001c F0EE481A 		vmov.f32	s3, s16
 790 0020 B0EE601A 		vmov.f32	s2, s1
 791 0024 9FED5F0A 		vldr.32	s0, .L49+16
 792 0028 30EE670A 		vsub.f32	s0, s0, s15
 793 002c FFF7FEFF 		bl	Control_StrCalculator
 794              	.LVL37:
 166:Src/motion.c  ****     Control_AngCalculator(0, 0, 0, 0, 1, 0);
 795              		.loc 1 166 0
 796 0030 F0EE482A 		vmov.f32	s5, s16
 797 0034 B7EE002A 		vmov.f32	s4, #1.0e+0
 798 0038 F0EE481A 		vmov.f32	s3, s16
 799 003c B0EE481A 		vmov.f32	s2, s16
ARM GAS  C:\Users\kotaro\AppData\Local\Temp\ccDugPzv.s 			page 18


 800 0040 F0EE480A 		vmov.f32	s1, s16
 801 0044 B0EE480A 		vmov.f32	s0, s16
 802 0048 FFF7FEFF 		bl	Control_AngCalculator
 803              	.LVL38:
 167:Src/motion.c  ****     motion_end_flag = FALSE;
 804              		.loc 1 167 0
 805 004c 564B     		ldr	r3, .L49+20
 806 004e 0022     		movs	r2, #0
 807 0050 1A70     		strb	r2, [r3]
 808              	.L44:
 168:Src/motion.c  ****     while (motion_end_flag == FALSE)
 809              		.loc 1 168 0 discriminator 1
 810 0052 554B     		ldr	r3, .L49+20
 811 0054 1B78     		ldrb	r3, [r3]	@ zero_extendqisi2
 812 0056 002B     		cmp	r3, #0
 813 0058 FBD0     		beq	.L44
 169:Src/motion.c  ****     {
 170:Src/motion.c  ****     }
 171:Src/motion.c  ****     straight.v_now = 0;
 814              		.loc 1 171 0
 815 005a 9FED4F8A 		vldr.32	s16, .L49+4
 816 005e 534B     		ldr	r3, .L49+24
 817 0060 83ED038A 		vstr.32	s16, [r3, #12]
 172:Src/motion.c  ****     angle.v_now = 0;
 818              		.loc 1 172 0
 819 0064 524B     		ldr	r3, .L49+28
 820 0066 83ED038A 		vstr.32	s16, [r3, #12]
 173:Src/motion.c  ****     HAL_Delay(800);
 821              		.loc 1 173 0
 822 006a 4FF44870 		mov	r0, #800
 823 006e FFF7FEFF 		bl	HAL_Delay
 824              	.LVL39:
 174:Src/motion.c  **** 
 175:Src/motion.c  ****     Control_StrCalculator(0, 0, 0, 0, 1, 0);
 825              		.loc 1 175 0
 826 0072 F0EE482A 		vmov.f32	s5, s16
 827 0076 B7EE002A 		vmov.f32	s4, #1.0e+0
 828 007a F0EE481A 		vmov.f32	s3, s16
 829 007e B0EE481A 		vmov.f32	s2, s16
 830 0082 F0EE480A 		vmov.f32	s1, s16
 831 0086 B0EE480A 		vmov.f32	s0, s16
 832 008a FFF7FEFF 		bl	Control_StrCalculator
 833              	.LVL40:
 176:Src/motion.c  ****     Control_AngCalculator(185.0f, 0.0f, VELO_ANG_S, 0.0f, ACCEL_ANG_S, 1);
 834              		.loc 1 176 0
 835 008e F7EE002A 		vmov.f32	s5, #1.0e+0
 836 0092 9FED482A 		vldr.32	s4, .L49+32
 837 0096 F0EE481A 		vmov.f32	s3, s16
 838 009a 9FED401A 		vldr.32	s2, .L49+8
 839 009e F0EE480A 		vmov.f32	s1, s16
 840 00a2 9FED450A 		vldr.32	s0, .L49+36
 841 00a6 FFF7FEFF 		bl	Control_AngCalculator
 842              	.LVL41:
 177:Src/motion.c  ****     motion_end_flag = FALSE;
 843              		.loc 1 177 0
 844 00aa 3F4B     		ldr	r3, .L49+20
 845 00ac 0022     		movs	r2, #0
ARM GAS  C:\Users\kotaro\AppData\Local\Temp\ccDugPzv.s 			page 19


 846 00ae 1A70     		strb	r2, [r3]
 847              	.L45:
 178:Src/motion.c  ****     while (motion_end_flag == FALSE)
 848              		.loc 1 178 0 discriminator 1
 849 00b0 3D4B     		ldr	r3, .L49+20
 850 00b2 1B78     		ldrb	r3, [r3]	@ zero_extendqisi2
 851 00b4 002B     		cmp	r3, #0
 852 00b6 FBD0     		beq	.L45
 179:Src/motion.c  ****     {
 180:Src/motion.c  ****     }
 181:Src/motion.c  ****     straight.v_now = 0;
 853              		.loc 1 181 0
 854 00b8 9FED378A 		vldr.32	s16, .L49+4
 855 00bc 3B4B     		ldr	r3, .L49+24
 856 00be 83ED038A 		vstr.32	s16, [r3, #12]
 182:Src/motion.c  ****     angle.v_now = 0;
 857              		.loc 1 182 0
 858 00c2 3B4B     		ldr	r3, .L49+28
 859 00c4 83ED038A 		vstr.32	s16, [r3, #12]
 183:Src/motion.c  ****     HAL_Delay(800);
 860              		.loc 1 183 0
 861 00c8 4FF44870 		mov	r0, #800
 862 00cc FFF7FEFF 		bl	HAL_Delay
 863              	.LVL42:
 184:Src/motion.c  **** 
 185:Src/motion.c  ****     Control_StrCalculator(100.0f, 0, 200, 0, 1000, -1);
 864              		.loc 1 185 0
 865 00d0 FFEE002A 		vmov.f32	s5, #-1.0e+0
 866 00d4 9FED392A 		vldr.32	s4, .L49+40
 867 00d8 F0EE481A 		vmov.f32	s3, s16
 868 00dc 9FED381A 		vldr.32	s2, .L49+44
 869 00e0 F0EE480A 		vmov.f32	s1, s16
 870 00e4 9FED370A 		vldr.32	s0, .L49+48
 871 00e8 FFF7FEFF 		bl	Control_StrCalculator
 872              	.LVL43:
 186:Src/motion.c  ****     Control_AngCalculator(0, 0, 0, 0, 1, 0);
 873              		.loc 1 186 0
 874 00ec F0EE482A 		vmov.f32	s5, s16
 875 00f0 B7EE002A 		vmov.f32	s4, #1.0e+0
 876 00f4 F0EE481A 		vmov.f32	s3, s16
 877 00f8 B0EE481A 		vmov.f32	s2, s16
 878 00fc F0EE480A 		vmov.f32	s1, s16
 879 0100 B0EE480A 		vmov.f32	s0, s16
 880 0104 FFF7FEFF 		bl	Control_AngCalculator
 881              	.LVL44:
 187:Src/motion.c  ****     motion_end_flag = FALSE;
 882              		.loc 1 187 0
 883 0108 274B     		ldr	r3, .L49+20
 884 010a 0022     		movs	r2, #0
 885 010c 1A70     		strb	r2, [r3]
 886              	.L46:
 188:Src/motion.c  ****     while (motion_end_flag == FALSE)
 887              		.loc 1 188 0 discriminator 1
 888 010e 264B     		ldr	r3, .L49+20
 889 0110 1B78     		ldrb	r3, [r3]	@ zero_extendqisi2
 890 0112 002B     		cmp	r3, #0
 891 0114 FBD0     		beq	.L46
ARM GAS  C:\Users\kotaro\AppData\Local\Temp\ccDugPzv.s 			page 20


 189:Src/motion.c  ****     {
 190:Src/motion.c  ****     }
 191:Src/motion.c  ****     straight.v_now = 0;
 892              		.loc 1 191 0
 893 0116 9FED208A 		vldr.32	s16, .L49+4
 894 011a 244B     		ldr	r3, .L49+24
 895 011c 83ED038A 		vstr.32	s16, [r3, #12]
 192:Src/motion.c  ****     angle.v_now = 0;
 896              		.loc 1 192 0
 897 0120 234B     		ldr	r3, .L49+28
 898 0122 83ED038A 		vstr.32	s16, [r3, #12]
 193:Src/motion.c  ****     enc.offset = 0;
 899              		.loc 1 193 0
 900 0126 1B4B     		ldr	r3, .L49
 901 0128 83ED028A 		vstr.32	s16, [r3, #8]
 194:Src/motion.c  ****     HAL_Delay(800);
 902              		.loc 1 194 0
 903 012c 4FF44870 		mov	r0, #800
 904 0130 FFF7FEFF 		bl	HAL_Delay
 905              	.LVL45:
 195:Src/motion.c  **** 
 196:Src/motion.c  ****     Control_StrCalculator(130.0f, 0, VELO_S, VELO_S, ACCEL_S, 1);
 906              		.loc 1 196 0
 907 0134 9FED191A 		vldr.32	s2, .L49+8
 908 0138 F7EE002A 		vmov.f32	s5, #1.0e+0
 909 013c 9FED182A 		vldr.32	s4, .L49+12
 910 0140 F0EE411A 		vmov.f32	s3, s2
 911 0144 F0EE480A 		vmov.f32	s1, s16
 912 0148 9FED1F0A 		vldr.32	s0, .L49+52
 913 014c FFF7FEFF 		bl	Control_StrCalculator
 914              	.LVL46:
 197:Src/motion.c  ****     Control_AngCalculator(0, 0, 0, 0, 1, 0);
 915              		.loc 1 197 0
 916 0150 F0EE482A 		vmov.f32	s5, s16
 917 0154 B7EE002A 		vmov.f32	s4, #1.0e+0
 918 0158 F0EE481A 		vmov.f32	s3, s16
 919 015c B0EE481A 		vmov.f32	s2, s16
 920 0160 F0EE480A 		vmov.f32	s1, s16
 921 0164 B0EE480A 		vmov.f32	s0, s16
 922 0168 FFF7FEFF 		bl	Control_AngCalculator
 923              	.LVL47:
 198:Src/motion.c  ****     motion_end_flag = FALSE;
 924              		.loc 1 198 0
 925 016c 0E4B     		ldr	r3, .L49+20
 926 016e 0022     		movs	r2, #0
 927 0170 1A70     		strb	r2, [r3]
 928              	.L47:
 199:Src/motion.c  ****     while (motion_end_flag == FALSE)
 929              		.loc 1 199 0 discriminator 1
 930 0172 0D4B     		ldr	r3, .L49+20
 931 0174 1B78     		ldrb	r3, [r3]	@ zero_extendqisi2
 932 0176 002B     		cmp	r3, #0
 933 0178 FBD0     		beq	.L47
 200:Src/motion.c  ****     {
 201:Src/motion.c  ****     }
 202:Src/motion.c  **** 
 203:Src/motion.c  ****     enc.offset -= 130.0f;
ARM GAS  C:\Users\kotaro\AppData\Local\Temp\ccDugPzv.s 			page 21


 934              		.loc 1 203 0
 935 017a 064B     		ldr	r3, .L49
 936 017c D3ED027A 		vldr.32	s15, [r3, #8]
 937 0180 9FED117A 		vldr.32	s14, .L49+52
 938 0184 77EEC77A 		vsub.f32	s15, s15, s14
 939 0188 C3ED027A 		vstr.32	s15, [r3, #8]
 204:Src/motion.c  **** }
 940              		.loc 1 204 0
 941 018c BDEC028B 		vldm	sp!, {d8}
 942              	.LCFI20:
 943              		.cfi_restore 80
 944              		.cfi_restore 81
 945              		.cfi_def_cfa_offset 8
 946 0190 08BD     		pop	{r3, pc}
 947              	.L50:
 948 0192 00BF     		.align	2
 949              	.L49:
 950 0194 00000000 		.word	enc
 951 0198 00000000 		.word	0
 952 019c 0000C843 		.word	1137180672
 953 01a0 00007A45 		.word	1165623296
 954 01a4 0000B442 		.word	1119092736
 955 01a8 00000000 		.word	motion_end_flag
 956 01ac 00000000 		.word	straight
 957 01b0 00000000 		.word	angle
 958 01b4 0000FA45 		.word	1174011904
 959 01b8 00003943 		.word	1127809024
 960 01bc 00007A44 		.word	1148846080
 961 01c0 00004843 		.word	1128792064
 962 01c4 0000C842 		.word	1120403456
 963 01c8 00000243 		.word	1124204544
 964              		.cfi_endproc
 965              	.LFE133:
 967              		.section	.text.Motion_LeftSpinTurn,"ax",%progbits
 968              		.align	1
 969              		.global	Motion_LeftSpinTurn
 970              		.syntax unified
 971              		.thumb
 972              		.thumb_func
 973              		.fpu fpv4-sp-d16
 975              	Motion_LeftSpinTurn:
 976              	.LFB134:
 205:Src/motion.c  **** 
 206:Src/motion.c  **** void Motion_LeftSpinTurn(void)
 207:Src/motion.c  **** {
 977              		.loc 1 207 0
 978              		.cfi_startproc
 979              		@ args = 0, pretend = 0, frame = 0
 980              		@ frame_needed = 0, uses_anonymous_args = 0
 981 0000 08B5     		push	{r3, lr}
 982              	.LCFI21:
 983              		.cfi_def_cfa_offset 8
 984              		.cfi_offset 3, -8
 985              		.cfi_offset 14, -4
 986 0002 2DED028B 		vpush.64	{d8}
 987              	.LCFI22:
 988              		.cfi_def_cfa_offset 16
ARM GAS  C:\Users\kotaro\AppData\Local\Temp\ccDugPzv.s 			page 22


 989              		.cfi_offset 80, -16
 990              		.cfi_offset 81, -12
 208:Src/motion.c  ****     Control_StrCalculator(90.0f - enc.offset, VELO_S, VELO_S, 0.0f, ACCEL_S, 1);
 991              		.loc 1 208 0
 992 0006 454B     		ldr	r3, .L56
 993 0008 D3ED027A 		vldr.32	s15, [r3, #8]
 994 000c 9FED448A 		vldr.32	s16, .L56+4
 995 0010 DFED440A 		vldr.32	s1, .L56+8
 996 0014 F7EE002A 		vmov.f32	s5, #1.0e+0
 997 0018 9FED432A 		vldr.32	s4, .L56+12
 998 001c F0EE481A 		vmov.f32	s3, s16
 999 0020 B0EE601A 		vmov.f32	s2, s1
 1000 0024 9FED410A 		vldr.32	s0, .L56+16
 1001 0028 30EE670A 		vsub.f32	s0, s0, s15
 1002 002c FFF7FEFF 		bl	Control_StrCalculator
 1003              	.LVL48:
 209:Src/motion.c  ****     Control_AngCalculator(0, 0, 0, 0, 1, 0);
 1004              		.loc 1 209 0
 1005 0030 F0EE482A 		vmov.f32	s5, s16
 1006 0034 B7EE002A 		vmov.f32	s4, #1.0e+0
 1007 0038 F0EE481A 		vmov.f32	s3, s16
 1008 003c B0EE481A 		vmov.f32	s2, s16
 1009 0040 F0EE480A 		vmov.f32	s1, s16
 1010 0044 B0EE480A 		vmov.f32	s0, s16
 1011 0048 FFF7FEFF 		bl	Control_AngCalculator
 1012              	.LVL49:
 210:Src/motion.c  ****     motion_end_flag = FALSE;
 1013              		.loc 1 210 0
 1014 004c 384B     		ldr	r3, .L56+20
 1015 004e 0022     		movs	r2, #0
 1016 0050 1A70     		strb	r2, [r3]
 1017              	.L52:
 211:Src/motion.c  ****     while (motion_end_flag == FALSE)
 1018              		.loc 1 211 0 discriminator 1
 1019 0052 374B     		ldr	r3, .L56+20
 1020 0054 1B78     		ldrb	r3, [r3]	@ zero_extendqisi2
 1021 0056 002B     		cmp	r3, #0
 1022 0058 FBD0     		beq	.L52
 212:Src/motion.c  ****     {
 213:Src/motion.c  ****     }
 214:Src/motion.c  **** 
 215:Src/motion.c  ****     Tim_MotorPwm(0, 0);
 1023              		.loc 1 215 0
 1024 005a 0021     		movs	r1, #0
 1025 005c 0846     		mov	r0, r1
 1026 005e FFF7FEFF 		bl	Tim_MotorPwm
 1027              	.LVL50:
 216:Src/motion.c  ****     HAL_Delay(500);
 1028              		.loc 1 216 0
 1029 0062 4FF4FA70 		mov	r0, #500
 1030 0066 FFF7FEFF 		bl	HAL_Delay
 1031              	.LVL51:
 217:Src/motion.c  ****     Control_StrCalculator(0, 0, 0, 0, 0, 1);
 1032              		.loc 1 217 0
 1033 006a 9FED2D8A 		vldr.32	s16, .L56+4
 1034 006e F7EE002A 		vmov.f32	s5, #1.0e+0
 1035 0072 B0EE482A 		vmov.f32	s4, s16
ARM GAS  C:\Users\kotaro\AppData\Local\Temp\ccDugPzv.s 			page 23


 1036 0076 F0EE481A 		vmov.f32	s3, s16
 1037 007a B0EE481A 		vmov.f32	s2, s16
 1038 007e F0EE480A 		vmov.f32	s1, s16
 1039 0082 B0EE480A 		vmov.f32	s0, s16
 1040 0086 FFF7FEFF 		bl	Control_StrCalculator
 1041              	.LVL52:
 218:Src/motion.c  ****     Control_AngCalculator(90.0f, 0, VELO_ANG_S, 0, ACCEL_ANG_S, 1);
 1042              		.loc 1 218 0
 1043 008a F7EE002A 		vmov.f32	s5, #1.0e+0
 1044 008e 9FED292A 		vldr.32	s4, .L56+24
 1045 0092 F0EE481A 		vmov.f32	s3, s16
 1046 0096 9FED231A 		vldr.32	s2, .L56+8
 1047 009a F0EE480A 		vmov.f32	s1, s16
 1048 009e 9FED230A 		vldr.32	s0, .L56+16
 1049 00a2 FFF7FEFF 		bl	Control_AngCalculator
 1050              	.LVL53:
 219:Src/motion.c  ****     motion_end_flag = FALSE;
 1051              		.loc 1 219 0
 1052 00a6 224B     		ldr	r3, .L56+20
 1053 00a8 0022     		movs	r2, #0
 1054 00aa 1A70     		strb	r2, [r3]
 1055              	.L53:
 220:Src/motion.c  ****     while (motion_end_flag == FALSE)
 1056              		.loc 1 220 0 discriminator 1
 1057 00ac 204B     		ldr	r3, .L56+20
 1058 00ae 1B78     		ldrb	r3, [r3]	@ zero_extendqisi2
 1059 00b0 002B     		cmp	r3, #0
 1060 00b2 FBD0     		beq	.L53
 221:Src/motion.c  ****     {
 222:Src/motion.c  ****     }
 223:Src/motion.c  **** 
 224:Src/motion.c  ****     Tim_MotorPwm(0, 0);
 1061              		.loc 1 224 0
 1062 00b4 0021     		movs	r1, #0
 1063 00b6 0846     		mov	r0, r1
 1064 00b8 FFF7FEFF 		bl	Tim_MotorPwm
 1065              	.LVL54:
 225:Src/motion.c  ****     HAL_Delay(500);
 1066              		.loc 1 225 0
 1067 00bc 4FF4FA70 		mov	r0, #500
 1068 00c0 FFF7FEFF 		bl	HAL_Delay
 1069              	.LVL55:
 226:Src/motion.c  ****     Control_StrCalculator(90.0f, 0.0f, VELO_S, VELO_S, ACCEL_S, 1);
 1070              		.loc 1 226 0
 1071 00c4 9FED171A 		vldr.32	s2, .L56+8
 1072 00c8 9FED158A 		vldr.32	s16, .L56+4
 1073 00cc F7EE002A 		vmov.f32	s5, #1.0e+0
 1074 00d0 9FED152A 		vldr.32	s4, .L56+12
 1075 00d4 F0EE411A 		vmov.f32	s3, s2
 1076 00d8 F0EE480A 		vmov.f32	s1, s16
 1077 00dc 9FED130A 		vldr.32	s0, .L56+16
 1078 00e0 FFF7FEFF 		bl	Control_StrCalculator
 1079              	.LVL56:
 227:Src/motion.c  ****     Control_AngCalculator(0, 0, 0, 0, 1, 0);
 1080              		.loc 1 227 0
 1081 00e4 F0EE482A 		vmov.f32	s5, s16
 1082 00e8 B7EE002A 		vmov.f32	s4, #1.0e+0
ARM GAS  C:\Users\kotaro\AppData\Local\Temp\ccDugPzv.s 			page 24


 1083 00ec F0EE481A 		vmov.f32	s3, s16
 1084 00f0 B0EE481A 		vmov.f32	s2, s16
 1085 00f4 F0EE480A 		vmov.f32	s1, s16
 1086 00f8 B0EE480A 		vmov.f32	s0, s16
 1087 00fc FFF7FEFF 		bl	Control_AngCalculator
 1088              	.LVL57:
 228:Src/motion.c  ****     motion_end_flag = FALSE;
 1089              		.loc 1 228 0
 1090 0100 0B4B     		ldr	r3, .L56+20
 1091 0102 0022     		movs	r2, #0
 1092 0104 1A70     		strb	r2, [r3]
 1093              	.L54:
 229:Src/motion.c  ****     while (motion_end_flag == FALSE)
 1094              		.loc 1 229 0 discriminator 1
 1095 0106 0A4B     		ldr	r3, .L56+20
 1096 0108 1B78     		ldrb	r3, [r3]	@ zero_extendqisi2
 1097 010a 002B     		cmp	r3, #0
 1098 010c FBD0     		beq	.L54
 230:Src/motion.c  ****     {
 231:Src/motion.c  ****     }
 232:Src/motion.c  ****     enc.offset = 0;
 1099              		.loc 1 232 0
 1100 010e 034B     		ldr	r3, .L56
 1101 0110 0022     		movs	r2, #0
 1102 0112 9A60     		str	r2, [r3, #8]	@ float
 233:Src/motion.c  **** }
 1103              		.loc 1 233 0
 1104 0114 BDEC028B 		vldm	sp!, {d8}
 1105              	.LCFI23:
 1106              		.cfi_restore 80
 1107              		.cfi_restore 81
 1108              		.cfi_def_cfa_offset 8
 1109 0118 08BD     		pop	{r3, pc}
 1110              	.L57:
 1111 011a 00BF     		.align	2
 1112              	.L56:
 1113 011c 00000000 		.word	enc
 1114 0120 00000000 		.word	0
 1115 0124 0000C843 		.word	1137180672
 1116 0128 00007A45 		.word	1165623296
 1117 012c 0000B442 		.word	1119092736
 1118 0130 00000000 		.word	motion_end_flag
 1119 0134 0000FA45 		.word	1174011904
 1120              		.cfi_endproc
 1121              	.LFE134:
 1123              		.section	.text.Motion_RightSpinTurn,"ax",%progbits
 1124              		.align	1
 1125              		.global	Motion_RightSpinTurn
 1126              		.syntax unified
 1127              		.thumb
 1128              		.thumb_func
 1129              		.fpu fpv4-sp-d16
 1131              	Motion_RightSpinTurn:
 1132              	.LFB135:
 234:Src/motion.c  **** 
 235:Src/motion.c  **** void Motion_RightSpinTurn(void)
 236:Src/motion.c  **** {
ARM GAS  C:\Users\kotaro\AppData\Local\Temp\ccDugPzv.s 			page 25


 1133              		.loc 1 236 0
 1134              		.cfi_startproc
 1135              		@ args = 0, pretend = 0, frame = 8
 1136              		@ frame_needed = 0, uses_anonymous_args = 0
 1137 0000 10B5     		push	{r4, lr}
 1138              	.LCFI24:
 1139              		.cfi_def_cfa_offset 8
 1140              		.cfi_offset 4, -8
 1141              		.cfi_offset 14, -4
 1142 0002 2DED028B 		vpush.64	{d8}
 1143              	.LCFI25:
 1144              		.cfi_def_cfa_offset 16
 1145              		.cfi_offset 80, -16
 1146              		.cfi_offset 81, -12
 1147 0006 82B0     		sub	sp, sp, #8
 1148              	.LCFI26:
 1149              		.cfi_def_cfa_offset 24
 237:Src/motion.c  ****     volatile unsigned int i = 0;
 1150              		.loc 1 237 0
 1151 0008 0024     		movs	r4, #0
 1152 000a 0194     		str	r4, [sp, #4]
 238:Src/motion.c  ****     Control_StrCalculator(90.0f - enc.offset, VELO_S, VELO_S, 0.0f, ACCEL_S, 1);
 1153              		.loc 1 238 0
 1154 000c 514B     		ldr	r3, .L67
 1155 000e D3ED027A 		vldr.32	s15, [r3, #8]
 1156 0012 9FED518A 		vldr.32	s16, .L67+4
 1157 0016 DFED510A 		vldr.32	s1, .L67+8
 1158 001a F7EE002A 		vmov.f32	s5, #1.0e+0
 1159 001e 9FED502A 		vldr.32	s4, .L67+12
 1160 0022 F0EE481A 		vmov.f32	s3, s16
 1161 0026 B0EE601A 		vmov.f32	s2, s1
 1162 002a 9FED4E0A 		vldr.32	s0, .L67+16
 1163 002e 30EE670A 		vsub.f32	s0, s0, s15
 1164 0032 FFF7FEFF 		bl	Control_StrCalculator
 1165              	.LVL58:
 239:Src/motion.c  ****     Control_AngCalculator(0, 0, 0, 0, 1, 0);
 1166              		.loc 1 239 0
 1167 0036 F0EE482A 		vmov.f32	s5, s16
 1168 003a B7EE002A 		vmov.f32	s4, #1.0e+0
 1169 003e F0EE481A 		vmov.f32	s3, s16
 1170 0042 B0EE481A 		vmov.f32	s2, s16
 1171 0046 F0EE480A 		vmov.f32	s1, s16
 1172 004a B0EE480A 		vmov.f32	s0, s16
 1173 004e FFF7FEFF 		bl	Control_AngCalculator
 1174              	.LVL59:
 240:Src/motion.c  ****     motion_end_flag = FALSE;
 1175              		.loc 1 240 0
 1176 0052 454B     		ldr	r3, .L67+20
 1177 0054 1C70     		strb	r4, [r3]
 1178              	.L59:
 241:Src/motion.c  ****     while (motion_end_flag == FALSE)
 1179              		.loc 1 241 0 discriminator 1
 1180 0056 444B     		ldr	r3, .L67+20
 1181 0058 1B78     		ldrb	r3, [r3]	@ zero_extendqisi2
 1182 005a 002B     		cmp	r3, #0
 1183 005c FBD0     		beq	.L59
 242:Src/motion.c  ****     {
ARM GAS  C:\Users\kotaro\AppData\Local\Temp\ccDugPzv.s 			page 26


 243:Src/motion.c  ****     }
 244:Src/motion.c  **** 
 245:Src/motion.c  ****     motor_flag = FALSE;
 1184              		.loc 1 245 0
 1185 005e 0023     		movs	r3, #0
 1186 0060 424A     		ldr	r2, .L67+24
 1187 0062 1370     		strb	r3, [r2]
 246:Src/motion.c  ****     for (i = 0; i < 5000; i++)
 1188              		.loc 1 246 0
 1189 0064 0193     		str	r3, [sp, #4]
 1190 0066 02E0     		b	.L60
 1191              	.L61:
 1192              		.loc 1 246 0 is_stmt 0 discriminator 3
 1193 0068 019B     		ldr	r3, [sp, #4]
 1194 006a 0133     		adds	r3, r3, #1
 1195 006c 0193     		str	r3, [sp, #4]
 1196              	.L60:
 1197              		.loc 1 246 0 discriminator 1
 1198 006e 019A     		ldr	r2, [sp, #4]
 1199 0070 41F28733 		movw	r3, #4999
 1200 0074 9A42     		cmp	r2, r3
 1201 0076 F7D9     		bls	.L61
 247:Src/motion.c  ****     {
 248:Src/motion.c  ****     }
 249:Src/motion.c  ****     motor_flag = TRUE;
 1202              		.loc 1 249 0 is_stmt 1
 1203 0078 3C4B     		ldr	r3, .L67+24
 1204 007a 0122     		movs	r2, #1
 1205 007c 1A70     		strb	r2, [r3]
 250:Src/motion.c  ****     Control_StrCalculator(0, 0, 0, 0, 1, 0);
 1206              		.loc 1 250 0
 1207 007e 9FED368A 		vldr.32	s16, .L67+4
 1208 0082 F0EE482A 		vmov.f32	s5, s16
 1209 0086 B7EE002A 		vmov.f32	s4, #1.0e+0
 1210 008a F0EE481A 		vmov.f32	s3, s16
 1211 008e B0EE481A 		vmov.f32	s2, s16
 1212 0092 F0EE480A 		vmov.f32	s1, s16
 1213 0096 B0EE480A 		vmov.f32	s0, s16
 1214 009a FFF7FEFF 		bl	Control_StrCalculator
 1215              	.LVL60:
 251:Src/motion.c  ****     Control_AngCalculator(90.0f, 0, VELO_ANG_S, 0, ACCEL_ANG_S, -1);
 1216              		.loc 1 251 0
 1217 009e FFEE002A 		vmov.f32	s5, #-1.0e+0
 1218 00a2 9FED332A 		vldr.32	s4, .L67+28
 1219 00a6 F0EE481A 		vmov.f32	s3, s16
 1220 00aa 9FED2C1A 		vldr.32	s2, .L67+8
 1221 00ae F0EE480A 		vmov.f32	s1, s16
 1222 00b2 9FED2C0A 		vldr.32	s0, .L67+16
 1223 00b6 FFF7FEFF 		bl	Control_AngCalculator
 1224              	.LVL61:
 252:Src/motion.c  ****     motion_end_flag = FALSE;
 1225              		.loc 1 252 0
 1226 00ba 2B4B     		ldr	r3, .L67+20
 1227 00bc 0022     		movs	r2, #0
 1228 00be 1A70     		strb	r2, [r3]
 1229              	.L62:
 253:Src/motion.c  ****     while (motion_end_flag == FALSE)
ARM GAS  C:\Users\kotaro\AppData\Local\Temp\ccDugPzv.s 			page 27


 1230              		.loc 1 253 0 discriminator 1
 1231 00c0 294B     		ldr	r3, .L67+20
 1232 00c2 1B78     		ldrb	r3, [r3]	@ zero_extendqisi2
 1233 00c4 002B     		cmp	r3, #0
 1234 00c6 FBD0     		beq	.L62
 254:Src/motion.c  ****     {
 255:Src/motion.c  ****     }
 256:Src/motion.c  ****     motor_flag = FALSE;
 1235              		.loc 1 256 0
 1236 00c8 0023     		movs	r3, #0
 1237 00ca 284A     		ldr	r2, .L67+24
 1238 00cc 1370     		strb	r3, [r2]
 257:Src/motion.c  ****     enc.offset = 0;
 1239              		.loc 1 257 0
 1240 00ce 214A     		ldr	r2, .L67
 1241 00d0 0021     		movs	r1, #0
 1242 00d2 9160     		str	r1, [r2, #8]	@ float
 258:Src/motion.c  ****     for (i = 0; i < 5000; i++)
 1243              		.loc 1 258 0
 1244 00d4 0193     		str	r3, [sp, #4]
 1245 00d6 02E0     		b	.L63
 1246              	.L64:
 1247              		.loc 1 258 0 is_stmt 0 discriminator 3
 1248 00d8 019B     		ldr	r3, [sp, #4]
 1249 00da 0133     		adds	r3, r3, #1
 1250 00dc 0193     		str	r3, [sp, #4]
 1251              	.L63:
 1252              		.loc 1 258 0 discriminator 1
 1253 00de 019A     		ldr	r2, [sp, #4]
 1254 00e0 41F28733 		movw	r3, #4999
 1255 00e4 9A42     		cmp	r2, r3
 1256 00e6 F7D9     		bls	.L64
 259:Src/motion.c  ****     {
 260:Src/motion.c  ****     }
 261:Src/motion.c  ****     motor_flag = TRUE;
 1257              		.loc 1 261 0 is_stmt 1
 1258 00e8 204B     		ldr	r3, .L67+24
 1259 00ea 0122     		movs	r2, #1
 1260 00ec 1A70     		strb	r2, [r3]
 262:Src/motion.c  ****     Control_StrCalculator(90.0f, 0.0f, VELO_S, VELO_S, ACCEL_S, 1);
 1261              		.loc 1 262 0
 1262 00ee 9FED1B1A 		vldr.32	s2, .L67+8
 1263 00f2 9FED198A 		vldr.32	s16, .L67+4
 1264 00f6 F7EE002A 		vmov.f32	s5, #1.0e+0
 1265 00fa 9FED192A 		vldr.32	s4, .L67+12
 1266 00fe F0EE411A 		vmov.f32	s3, s2
 1267 0102 F0EE480A 		vmov.f32	s1, s16
 1268 0106 9FED170A 		vldr.32	s0, .L67+16
 1269 010a FFF7FEFF 		bl	Control_StrCalculator
 1270              	.LVL62:
 263:Src/motion.c  ****     Control_AngCalculator(0, 0, 0, 0, 1, 0);
 1271              		.loc 1 263 0
 1272 010e F0EE482A 		vmov.f32	s5, s16
 1273 0112 B7EE002A 		vmov.f32	s4, #1.0e+0
 1274 0116 F0EE481A 		vmov.f32	s3, s16
 1275 011a B0EE481A 		vmov.f32	s2, s16
 1276 011e F0EE480A 		vmov.f32	s1, s16
ARM GAS  C:\Users\kotaro\AppData\Local\Temp\ccDugPzv.s 			page 28


 1277 0122 B0EE480A 		vmov.f32	s0, s16
 1278 0126 FFF7FEFF 		bl	Control_AngCalculator
 1279              	.LVL63:
 264:Src/motion.c  ****     motion_end_flag = FALSE;
 1280              		.loc 1 264 0
 1281 012a 0F4B     		ldr	r3, .L67+20
 1282 012c 0022     		movs	r2, #0
 1283 012e 1A70     		strb	r2, [r3]
 1284              	.L65:
 265:Src/motion.c  ****     while (motion_end_flag == FALSE)
 1285              		.loc 1 265 0 discriminator 1
 1286 0130 0D4B     		ldr	r3, .L67+20
 1287 0132 1B78     		ldrb	r3, [r3]	@ zero_extendqisi2
 1288 0134 002B     		cmp	r3, #0
 1289 0136 FBD0     		beq	.L65
 266:Src/motion.c  ****     {
 267:Src/motion.c  ****     }
 268:Src/motion.c  ****     enc.offset -= 90.0f;
 1290              		.loc 1 268 0
 1291 0138 064B     		ldr	r3, .L67
 1292 013a D3ED027A 		vldr.32	s15, [r3, #8]
 1293 013e 9FED097A 		vldr.32	s14, .L67+16
 1294 0142 77EEC77A 		vsub.f32	s15, s15, s14
 1295 0146 C3ED027A 		vstr.32	s15, [r3, #8]
 269:Src/motion.c  **** }
 1296              		.loc 1 269 0
 1297 014a 02B0     		add	sp, sp, #8
 1298              	.LCFI27:
 1299              		.cfi_def_cfa_offset 16
 1300              		@ sp needed
 1301 014c BDEC028B 		vldm	sp!, {d8}
 1302              	.LCFI28:
 1303              		.cfi_restore 80
 1304              		.cfi_restore 81
 1305              		.cfi_def_cfa_offset 8
 1306 0150 10BD     		pop	{r4, pc}
 1307              	.L68:
 1308 0152 00BF     		.align	2
 1309              	.L67:
 1310 0154 00000000 		.word	enc
 1311 0158 00000000 		.word	0
 1312 015c 0000C843 		.word	1137180672
 1313 0160 00007A45 		.word	1165623296
 1314 0164 0000B442 		.word	1119092736
 1315 0168 00000000 		.word	motion_end_flag
 1316 016c 00000000 		.word	motor_flag
 1317 0170 0000FA45 		.word	1174011904
 1318              		.cfi_endproc
 1319              	.LFE135:
 1321              		.section	.text.Motion_LeftTurn,"ax",%progbits
 1322              		.align	1
 1323              		.global	Motion_LeftTurn
 1324              		.syntax unified
 1325              		.thumb
 1326              		.thumb_func
 1327              		.fpu fpv4-sp-d16
 1329              	Motion_LeftTurn:
ARM GAS  C:\Users\kotaro\AppData\Local\Temp\ccDugPzv.s 			page 29


 1330              	.LFB136:
 270:Src/motion.c  **** 
 271:Src/motion.c  **** void Motion_LeftTurn(void)
 272:Src/motion.c  **** {
 1331              		.loc 1 272 0
 1332              		.cfi_startproc
 1333              		@ args = 0, pretend = 0, frame = 0
 1334              		@ frame_needed = 0, uses_anonymous_args = 0
 1335 0000 08B5     		push	{r3, lr}
 1336              	.LCFI29:
 1337              		.cfi_def_cfa_offset 8
 1338              		.cfi_offset 3, -8
 1339              		.cfi_offset 14, -4
 273:Src/motion.c  ****     //control_wall_flag = FALSE;
 274:Src/motion.c  ****     //offset in
 275:Src/motion.c  ****     Control_StrCalculator(OFFSET_IN - enc.offset, VELO_S, VELO_S, VELO_S, 1, 1);
 1340              		.loc 1 275 0
 1341 0002 394B     		ldr	r3, .L74
 1342 0004 D3ED027A 		vldr.32	s15, [r3, #8]
 1343 0008 DFED380A 		vldr.32	s1, .L74+4
 1344 000c F7EE002A 		vmov.f32	s5, #1.0e+0
 1345 0010 B0EE622A 		vmov.f32	s4, s5
 1346 0014 F0EE601A 		vmov.f32	s3, s1
 1347 0018 B0EE601A 		vmov.f32	s2, s1
 1348 001c B3EE0F0A 		vmov.f32	s0, #3.1e+1
 1349 0020 30EE670A 		vsub.f32	s0, s0, s15
 1350 0024 FFF7FEFF 		bl	Control_StrCalculator
 1351              	.LVL64:
 276:Src/motion.c  ****     Control_AngCalculator(0, 0, 0, 0, 1, 0);
 1352              		.loc 1 276 0
 1353 0028 9FED310A 		vldr.32	s0, .L74+8
 1354 002c F0EE402A 		vmov.f32	s5, s0
 1355 0030 B7EE002A 		vmov.f32	s4, #1.0e+0
 1356 0034 F0EE401A 		vmov.f32	s3, s0
 1357 0038 B0EE401A 		vmov.f32	s2, s0
 1358 003c F0EE400A 		vmov.f32	s1, s0
 1359 0040 FFF7FEFF 		bl	Control_AngCalculator
 1360              	.LVL65:
 277:Src/motion.c  ****     motion_end_flag = FALSE;
 1361              		.loc 1 277 0
 1362 0044 2B4B     		ldr	r3, .L74+12
 1363 0046 0022     		movs	r2, #0
 1364 0048 1A70     		strb	r2, [r3]
 1365              	.L70:
 278:Src/motion.c  ****     while (motion_end_flag == FALSE)
 1366              		.loc 1 278 0 discriminator 1
 1367 004a 2A4B     		ldr	r3, .L74+12
 1368 004c 1B78     		ldrb	r3, [r3]	@ zero_extendqisi2
 1369 004e 002B     		cmp	r3, #0
 1370 0050 FBD0     		beq	.L70
 279:Src/motion.c  ****     {
 280:Src/motion.c  ****     }
 281:Src/motion.c  ****     //turn
 282:Src/motion.c  ****     Control_StrCalculator(200.0f, VELO_S, VELO_S, VELO_S, 1, 1);
 1371              		.loc 1 282 0
 1372 0052 DFED260A 		vldr.32	s1, .L74+4
 1373 0056 F7EE002A 		vmov.f32	s5, #1.0e+0
ARM GAS  C:\Users\kotaro\AppData\Local\Temp\ccDugPzv.s 			page 30


 1374 005a B0EE622A 		vmov.f32	s4, s5
 1375 005e F0EE601A 		vmov.f32	s3, s1
 1376 0062 B0EE601A 		vmov.f32	s2, s1
 1377 0066 9FED240A 		vldr.32	s0, .L74+16
 1378 006a FFF7FEFF 		bl	Control_StrCalculator
 1379              	.LVL66:
 283:Src/motion.c  ****     Control_AngCalculator(90.88f, 0, VELO_ANG_S_SLALOM, 0, ACCEL_ANG_S_SLALOM, 1);
 1380              		.loc 1 283 0
 1381 006e DFED200A 		vldr.32	s1, .L74+8
 1382 0072 F7EE002A 		vmov.f32	s5, #1.0e+0
 1383 0076 9FED212A 		vldr.32	s4, .L74+20
 1384 007a F0EE601A 		vmov.f32	s3, s1
 1385 007e 9FED201A 		vldr.32	s2, .L74+24
 1386 0082 9FED200A 		vldr.32	s0, .L74+28
 1387 0086 FFF7FEFF 		bl	Control_AngCalculator
 1388              	.LVL67:
 284:Src/motion.c  ****     motion_end_flag = FALSE;
 1389              		.loc 1 284 0
 1390 008a 1A4B     		ldr	r3, .L74+12
 1391 008c 0022     		movs	r2, #0
 1392 008e 1A70     		strb	r2, [r3]
 1393              	.L71:
 285:Src/motion.c  ****     while (motion_end_flag == FALSE)
 1394              		.loc 1 285 0 discriminator 1
 1395 0090 184B     		ldr	r3, .L74+12
 1396 0092 1B78     		ldrb	r3, [r3]	@ zero_extendqisi2
 1397 0094 002B     		cmp	r3, #0
 1398 0096 FBD0     		beq	.L71
 286:Src/motion.c  ****     {
 287:Src/motion.c  ****     }
 288:Src/motion.c  ****     //offset out
 289:Src/motion.c  ****     Control_StrCalculator(OFFSET_OUT, VELO_S, VELO_S, VELO_S, 1, 1);
 1399              		.loc 1 289 0
 1400 0098 DFED140A 		vldr.32	s1, .L74+4
 1401 009c F7EE002A 		vmov.f32	s5, #1.0e+0
 1402 00a0 B0EE622A 		vmov.f32	s4, s5
 1403 00a4 F0EE601A 		vmov.f32	s3, s1
 1404 00a8 B0EE601A 		vmov.f32	s2, s1
 1405 00ac 9FED160A 		vldr.32	s0, .L74+32
 1406 00b0 FFF7FEFF 		bl	Control_StrCalculator
 1407              	.LVL68:
 290:Src/motion.c  ****     Control_AngCalculator(0, 0, 0, 0, 1, 0);
 1408              		.loc 1 290 0
 1409 00b4 9FED0E0A 		vldr.32	s0, .L74+8
 1410 00b8 F0EE402A 		vmov.f32	s5, s0
 1411 00bc B7EE002A 		vmov.f32	s4, #1.0e+0
 1412 00c0 F0EE401A 		vmov.f32	s3, s0
 1413 00c4 B0EE401A 		vmov.f32	s2, s0
 1414 00c8 F0EE400A 		vmov.f32	s1, s0
 1415 00cc FFF7FEFF 		bl	Control_AngCalculator
 1416              	.LVL69:
 291:Src/motion.c  ****     motion_end_flag = FALSE;
 1417              		.loc 1 291 0
 1418 00d0 084B     		ldr	r3, .L74+12
 1419 00d2 0022     		movs	r2, #0
 1420 00d4 1A70     		strb	r2, [r3]
 1421              	.L72:
ARM GAS  C:\Users\kotaro\AppData\Local\Temp\ccDugPzv.s 			page 31


 292:Src/motion.c  ****     while (motion_end_flag == FALSE)
 1422              		.loc 1 292 0 discriminator 1
 1423 00d6 074B     		ldr	r3, .L74+12
 1424 00d8 1B78     		ldrb	r3, [r3]	@ zero_extendqisi2
 1425 00da 002B     		cmp	r3, #0
 1426 00dc FBD0     		beq	.L72
 293:Src/motion.c  ****     {
 294:Src/motion.c  ****     }
 295:Src/motion.c  ****     enc.offset = 0;
 1427              		.loc 1 295 0
 1428 00de 024B     		ldr	r3, .L74
 1429 00e0 0022     		movs	r2, #0
 1430 00e2 9A60     		str	r2, [r3, #8]	@ float
 296:Src/motion.c  **** }
 1431              		.loc 1 296 0
 1432 00e4 08BD     		pop	{r3, pc}
 1433              	.L75:
 1434 00e6 00BF     		.align	2
 1435              	.L74:
 1436 00e8 00000000 		.word	enc
 1437 00ec 0000C843 		.word	1137180672
 1438 00f0 00000000 		.word	0
 1439 00f4 00000000 		.word	motion_end_flag
 1440 00f8 00004843 		.word	1128792064
 1441 00fc 00401C46 		.word	1176256512
 1442 0100 00001644 		.word	1142292480
 1443 0104 8FC2B542 		.word	1119208079
 1444 0108 00003C42 		.word	1111228416
 1445              		.cfi_endproc
 1446              	.LFE136:
 1448              		.section	.text.Motion_RightTurn,"ax",%progbits
 1449              		.align	1
 1450              		.global	Motion_RightTurn
 1451              		.syntax unified
 1452              		.thumb
 1453              		.thumb_func
 1454              		.fpu fpv4-sp-d16
 1456              	Motion_RightTurn:
 1457              	.LFB137:
 297:Src/motion.c  **** 
 298:Src/motion.c  **** void Motion_RightTurn(void)
 299:Src/motion.c  **** {
 1458              		.loc 1 299 0
 1459              		.cfi_startproc
 1460              		@ args = 0, pretend = 0, frame = 0
 1461              		@ frame_needed = 0, uses_anonymous_args = 0
 1462 0000 08B5     		push	{r3, lr}
 1463              	.LCFI30:
 1464              		.cfi_def_cfa_offset 8
 1465              		.cfi_offset 3, -8
 1466              		.cfi_offset 14, -4
 300:Src/motion.c  ****     //control_wall_flag = FALSE;
 301:Src/motion.c  ****     //offset in
 302:Src/motion.c  ****     Control_StrCalculator(OFFSET_IN + 2.0f - enc.offset, VELO_S, VELO_S, VELO_S, 1, 1);
 1467              		.loc 1 302 0
 1468 0002 394B     		ldr	r3, .L81
 1469 0004 D3ED027A 		vldr.32	s15, [r3, #8]
ARM GAS  C:\Users\kotaro\AppData\Local\Temp\ccDugPzv.s 			page 32


 1470 0008 DFED380A 		vldr.32	s1, .L81+4
 1471 000c F7EE002A 		vmov.f32	s5, #1.0e+0
 1472 0010 B0EE622A 		vmov.f32	s4, s5
 1473 0014 F0EE601A 		vmov.f32	s3, s1
 1474 0018 B0EE601A 		vmov.f32	s2, s1
 1475 001c 9FED340A 		vldr.32	s0, .L81+8
 1476 0020 30EE670A 		vsub.f32	s0, s0, s15
 1477 0024 FFF7FEFF 		bl	Control_StrCalculator
 1478              	.LVL70:
 303:Src/motion.c  ****     Control_AngCalculator(0, 0, 0, 0, 1, 0);
 1479              		.loc 1 303 0
 1480 0028 9FED320A 		vldr.32	s0, .L81+12
 1481 002c F0EE402A 		vmov.f32	s5, s0
 1482 0030 B7EE002A 		vmov.f32	s4, #1.0e+0
 1483 0034 F0EE401A 		vmov.f32	s3, s0
 1484 0038 B0EE401A 		vmov.f32	s2, s0
 1485 003c F0EE400A 		vmov.f32	s1, s0
 1486 0040 FFF7FEFF 		bl	Control_AngCalculator
 1487              	.LVL71:
 304:Src/motion.c  ****     motion_end_flag = FALSE;
 1488              		.loc 1 304 0
 1489 0044 2C4B     		ldr	r3, .L81+16
 1490 0046 0022     		movs	r2, #0
 1491 0048 1A70     		strb	r2, [r3]
 1492              	.L77:
 305:Src/motion.c  ****     while (motion_end_flag == FALSE)
 1493              		.loc 1 305 0 discriminator 1
 1494 004a 2B4B     		ldr	r3, .L81+16
 1495 004c 1B78     		ldrb	r3, [r3]	@ zero_extendqisi2
 1496 004e 002B     		cmp	r3, #0
 1497 0050 FBD0     		beq	.L77
 306:Src/motion.c  ****     {
 307:Src/motion.c  ****     }
 308:Src/motion.c  ****     //turn
 309:Src/motion.c  ****     Control_StrCalculator(180.0f, VELO_S, VELO_S, VELO_S, 1, 1);
 1498              		.loc 1 309 0
 1499 0052 DFED260A 		vldr.32	s1, .L81+4
 1500 0056 F7EE002A 		vmov.f32	s5, #1.0e+0
 1501 005a B0EE622A 		vmov.f32	s4, s5
 1502 005e F0EE601A 		vmov.f32	s3, s1
 1503 0062 B0EE601A 		vmov.f32	s2, s1
 1504 0066 9FED250A 		vldr.32	s0, .L81+20
 1505 006a FFF7FEFF 		bl	Control_StrCalculator
 1506              	.LVL72:
 310:Src/motion.c  ****     Control_AngCalculator(90.80f, 0, VELO_ANG_S_SLALOM, 0, ACCEL_ANG_S_SLALOM, -1);
 1507              		.loc 1 310 0
 1508 006e DFED210A 		vldr.32	s1, .L81+12
 1509 0072 FFEE002A 		vmov.f32	s5, #-1.0e+0
 1510 0076 9FED222A 		vldr.32	s4, .L81+24
 1511 007a F0EE601A 		vmov.f32	s3, s1
 1512 007e 9FED211A 		vldr.32	s2, .L81+28
 1513 0082 9FED210A 		vldr.32	s0, .L81+32
 1514 0086 FFF7FEFF 		bl	Control_AngCalculator
 1515              	.LVL73:
 311:Src/motion.c  ****     motion_end_flag = FALSE;
 1516              		.loc 1 311 0
 1517 008a 1B4B     		ldr	r3, .L81+16
ARM GAS  C:\Users\kotaro\AppData\Local\Temp\ccDugPzv.s 			page 33


 1518 008c 0022     		movs	r2, #0
 1519 008e 1A70     		strb	r2, [r3]
 1520              	.L78:
 312:Src/motion.c  ****     while (motion_end_flag == FALSE)
 1521              		.loc 1 312 0 discriminator 1
 1522 0090 194B     		ldr	r3, .L81+16
 1523 0092 1B78     		ldrb	r3, [r3]	@ zero_extendqisi2
 1524 0094 002B     		cmp	r3, #0
 1525 0096 FBD0     		beq	.L78
 313:Src/motion.c  ****     {
 314:Src/motion.c  ****     }
 315:Src/motion.c  ****     //offset out
 316:Src/motion.c  ****     Control_StrCalculator(OFFSET_OUT - 4.0f, VELO_S, VELO_S, VELO_S, 1, 1);
 1526              		.loc 1 316 0
 1527 0098 DFED140A 		vldr.32	s1, .L81+4
 1528 009c F7EE002A 		vmov.f32	s5, #1.0e+0
 1529 00a0 B0EE622A 		vmov.f32	s4, s5
 1530 00a4 F0EE601A 		vmov.f32	s3, s1
 1531 00a8 B0EE601A 		vmov.f32	s2, s1
 1532 00ac 9FED170A 		vldr.32	s0, .L81+36
 1533 00b0 FFF7FEFF 		bl	Control_StrCalculator
 1534              	.LVL74:
 317:Src/motion.c  ****     Control_AngCalculator(0, 0, 0, 0, 1, 0);
 1535              		.loc 1 317 0
 1536 00b4 9FED0F0A 		vldr.32	s0, .L81+12
 1537 00b8 F0EE402A 		vmov.f32	s5, s0
 1538 00bc B7EE002A 		vmov.f32	s4, #1.0e+0
 1539 00c0 F0EE401A 		vmov.f32	s3, s0
 1540 00c4 B0EE401A 		vmov.f32	s2, s0
 1541 00c8 F0EE400A 		vmov.f32	s1, s0
 1542 00cc FFF7FEFF 		bl	Control_AngCalculator
 1543              	.LVL75:
 318:Src/motion.c  ****     motion_end_flag = FALSE;
 1544              		.loc 1 318 0
 1545 00d0 094B     		ldr	r3, .L81+16
 1546 00d2 0022     		movs	r2, #0
 1547 00d4 1A70     		strb	r2, [r3]
 1548              	.L79:
 319:Src/motion.c  ****     while (motion_end_flag == FALSE)
 1549              		.loc 1 319 0 discriminator 1
 1550 00d6 084B     		ldr	r3, .L81+16
 1551 00d8 1B78     		ldrb	r3, [r3]	@ zero_extendqisi2
 1552 00da 002B     		cmp	r3, #0
 1553 00dc FBD0     		beq	.L79
 320:Src/motion.c  ****     {
 321:Src/motion.c  ****     }
 322:Src/motion.c  ****     enc.offset = 0;
 1554              		.loc 1 322 0
 1555 00de 024B     		ldr	r3, .L81
 1556 00e0 0022     		movs	r2, #0
 1557 00e2 9A60     		str	r2, [r3, #8]	@ float
 323:Src/motion.c  **** }
 1558              		.loc 1 323 0
 1559 00e4 08BD     		pop	{r3, pc}
 1560              	.L82:
 1561 00e6 00BF     		.align	2
 1562              	.L81:
ARM GAS  C:\Users\kotaro\AppData\Local\Temp\ccDugPzv.s 			page 34


 1563 00e8 00000000 		.word	enc
 1564 00ec 0000C843 		.word	1137180672
 1565 00f0 00000442 		.word	1107558400
 1566 00f4 00000000 		.word	0
 1567 00f8 00000000 		.word	motion_end_flag
 1568 00fc 00003443 		.word	1127481344
 1569 0100 00401C46 		.word	1176256512
 1570 0104 00001644 		.word	1142292480
 1571 0108 9A99B542 		.word	1119197594
 1572 010c 00002C42 		.word	1110179840
 1573              		.cfi_endproc
 1574              	.LFE137:
 1576              		.section	.text.Motion_FastStart,"ax",%progbits
 1577              		.align	1
 1578              		.global	Motion_FastStart
 1579              		.syntax unified
 1580              		.thumb
 1581              		.thumb_func
 1582              		.fpu fpv4-sp-d16
 1584              	Motion_FastStart:
 1585              	.LFB138:
 324:Src/motion.c  **** 
 325:Src/motion.c  **** void Motion_FastStart(uint8_t step){
 1586              		.loc 1 325 0
 1587              		.cfi_startproc
 1588              		@ args = 0, pretend = 0, frame = 0
 1589              		@ frame_needed = 0, uses_anonymous_args = 0
 1590              	.LVL76:
 1591 0000 10B5     		push	{r4, lr}
 1592              	.LCFI31:
 1593              		.cfi_def_cfa_offset 8
 1594              		.cfi_offset 4, -8
 1595              		.cfi_offset 14, -4
 1596 0002 2DED028B 		vpush.64	{d8}
 1597              	.LCFI32:
 1598              		.cfi_def_cfa_offset 16
 1599              		.cfi_offset 80, -16
 1600              		.cfi_offset 81, -12
 1601 0006 0446     		mov	r4, r0
 326:Src/motion.c  ****     Control_ResetVelo();
 1602              		.loc 1 326 0
 1603 0008 FFF7FEFF 		bl	Control_ResetVelo
 1604              	.LVL77:
 327:Src/motion.c  ****     float velo = VELO_S + gain_velo * step;
 1605              		.loc 1 327 0
 1606 000c 07EE904A 		vmov	s15, r4	@ int
 1607 0010 B8EEE71A 		vcvt.f32.s32	s2, s15
 1608 0014 204B     		ldr	r3, .L88
 1609 0016 D3ED007A 		vldr.32	s15, [r3]
 1610 001a 21EE271A 		vmul.f32	s2, s2, s15
 1611 001e DFED1F7A 		vldr.32	s15, .L88+4
 1612 0022 31EE271A 		vadd.f32	s2, s2, s15
 1613              	.LVL78:
 328:Src/motion.c  ****     if(velo>2500){
 1614              		.loc 1 328 0
 1615 0026 DFED1E7A 		vldr.32	s15, .L88+8
 1616 002a B4EEE71A 		vcmpe.f32	s2, s15
ARM GAS  C:\Users\kotaro\AppData\Local\Temp\ccDugPzv.s 			page 35


 1617 002e F1EE10FA 		vmrs	APSR_nzcv, FPSCR
 1618 0032 01DD     		ble	.L84
 329:Src/motion.c  ****         velo=2500;
 1619              		.loc 1 329 0
 1620 0034 B0EE671A 		vmov.f32	s2, s15
 1621              	.LVL79:
 1622              	.L84:
 330:Src/motion.c  ****     }
 331:Src/motion.c  ****     Control_StrCalculator(130 + 180 * step, 0, velo, VELO_S, ACCEL_S,1);
 1623              		.loc 1 331 0
 1624 0038 B420     		movs	r0, #180
 1625 003a 00FB04F0 		mul	r0, r0, r4
 1626 003e 00F18203 		add	r3, r0, #130
 1627 0042 00EE103A 		vmov	s0, r3	@ int
 1628 0046 9FED178A 		vldr.32	s16, .L88+12
 1629 004a F7EE002A 		vmov.f32	s5, #1.0e+0
 1630 004e 9FED162A 		vldr.32	s4, .L88+16
 1631 0052 DFED121A 		vldr.32	s3, .L88+4
 1632 0056 F0EE480A 		vmov.f32	s1, s16
 1633 005a B8EEC00A 		vcvt.f32.s32	s0, s0
 1634 005e FFF7FEFF 		bl	Control_StrCalculator
 1635              	.LVL80:
 332:Src/motion.c  ****     Control_AngCalculator(0, 0, 0, 0, 1, 0);
 1636              		.loc 1 332 0
 1637 0062 F0EE482A 		vmov.f32	s5, s16
 1638 0066 B7EE002A 		vmov.f32	s4, #1.0e+0
 1639 006a F0EE481A 		vmov.f32	s3, s16
 1640 006e B0EE481A 		vmov.f32	s2, s16
 1641 0072 F0EE480A 		vmov.f32	s1, s16
 1642 0076 B0EE480A 		vmov.f32	s0, s16
 1643 007a FFF7FEFF 		bl	Control_AngCalculator
 1644              	.LVL81:
 333:Src/motion.c  ****     motion_end_flag = FALSE;
 1645              		.loc 1 333 0
 1646 007e 0B4B     		ldr	r3, .L88+20
 1647 0080 0022     		movs	r2, #0
 1648 0082 1A70     		strb	r2, [r3]
 1649              	.L85:
 334:Src/motion.c  ****     while (motion_end_flag == FALSE)
 1650              		.loc 1 334 0 discriminator 1
 1651 0084 094B     		ldr	r3, .L88+20
 1652 0086 1B78     		ldrb	r3, [r3]	@ zero_extendqisi2
 1653 0088 002B     		cmp	r3, #0
 1654 008a FBD0     		beq	.L85
 335:Src/motion.c  ****     {
 336:Src/motion.c  ****     }
 337:Src/motion.c  ****     enc.offset = 0;
 1655              		.loc 1 337 0
 1656 008c 084B     		ldr	r3, .L88+24
 1657 008e 0022     		movs	r2, #0
 1658 0090 9A60     		str	r2, [r3, #8]	@ float
 338:Src/motion.c  **** }
 1659              		.loc 1 338 0
 1660 0092 BDEC028B 		vldm	sp!, {d8}
 1661              	.LCFI33:
 1662              		.cfi_restore 80
 1663              		.cfi_restore 81
ARM GAS  C:\Users\kotaro\AppData\Local\Temp\ccDugPzv.s 			page 36


 1664              		.cfi_def_cfa_offset 8
 1665 0096 10BD     		pop	{r4, pc}
 1666              	.L89:
 1667              		.align	2
 1668              	.L88:
 1669 0098 00000000 		.word	.LANCHOR0
 1670 009c 0000C843 		.word	1137180672
 1671 00a0 00401C45 		.word	1159479296
 1672 00a4 00000000 		.word	0
 1673 00a8 00007A45 		.word	1165623296
 1674 00ac 00000000 		.word	motion_end_flag
 1675 00b0 00000000 		.word	enc
 1676              		.cfi_endproc
 1677              	.LFE138:
 1679              		.section	.text.Motion_FastStraight,"ax",%progbits
 1680              		.align	1
 1681              		.global	Motion_FastStraight
 1682              		.syntax unified
 1683              		.thumb
 1684              		.thumb_func
 1685              		.fpu fpv4-sp-d16
 1687              	Motion_FastStraight:
 1688              	.LFB139:
 339:Src/motion.c  **** 
 340:Src/motion.c  **** void Motion_FastStraight(uint8_t step)
 341:Src/motion.c  **** {
 1689              		.loc 1 341 0
 1690              		.cfi_startproc
 1691              		@ args = 0, pretend = 0, frame = 0
 1692              		@ frame_needed = 0, uses_anonymous_args = 0
 1693              	.LVL82:
 1694 0000 08B5     		push	{r3, lr}
 1695              	.LCFI34:
 1696              		.cfi_def_cfa_offset 8
 1697              		.cfi_offset 3, -8
 1698              		.cfi_offset 14, -4
 342:Src/motion.c  ****     float velo = VELO_S + gain_velo * step;
 1699              		.loc 1 342 0
 1700 0002 07EE900A 		vmov	s15, r0	@ int
 1701 0006 B8EEE71A 		vcvt.f32.s32	s2, s15
 1702 000a 1B4B     		ldr	r3, .L93
 1703 000c D3ED007A 		vldr.32	s15, [r3]
 1704 0010 21EE271A 		vmul.f32	s2, s2, s15
 1705 0014 DFED190A 		vldr.32	s1, .L93+4
 1706              	.LVL83:
 343:Src/motion.c  ****     Control_StrCalculator(180 * step - enc.offset, VELO_S, velo, VELO_S, ACCEL_S, 1);
 1707              		.loc 1 343 0
 1708 0018 B423     		movs	r3, #180
 1709 001a 03FB00F3 		mul	r3, r3, r0
 1710 001e 184A     		ldr	r2, .L93+8
 1711 0020 92ED020A 		vldr.32	s0, [r2, #8]
 1712 0024 07EE903A 		vmov	s15, r3	@ int
 1713 0028 F8EEE77A 		vcvt.f32.s32	s15, s15
 1714 002c F7EE002A 		vmov.f32	s5, #1.0e+0
 1715 0030 9FED142A 		vldr.32	s4, .L93+12
 1716 0034 F0EE601A 		vmov.f32	s3, s1
 1717 0038 31EE201A 		vadd.f32	s2, s2, s1
ARM GAS  C:\Users\kotaro\AppData\Local\Temp\ccDugPzv.s 			page 37


 1718              	.LVL84:
 1719 003c 37EEC00A 		vsub.f32	s0, s15, s0
 1720 0040 FFF7FEFF 		bl	Control_StrCalculator
 1721              	.LVL85:
 344:Src/motion.c  ****     Control_AngCalculator(0, 0, 0, 0, 1, 0);
 1722              		.loc 1 344 0
 1723 0044 9FED100A 		vldr.32	s0, .L93+16
 1724 0048 F0EE402A 		vmov.f32	s5, s0
 1725 004c B7EE002A 		vmov.f32	s4, #1.0e+0
 1726 0050 F0EE401A 		vmov.f32	s3, s0
 1727 0054 B0EE401A 		vmov.f32	s2, s0
 1728 0058 F0EE400A 		vmov.f32	s1, s0
 1729 005c FFF7FEFF 		bl	Control_AngCalculator
 1730              	.LVL86:
 345:Src/motion.c  ****     motion_end_flag = FALSE;
 1731              		.loc 1 345 0
 1732 0060 0A4B     		ldr	r3, .L93+20
 1733 0062 0022     		movs	r2, #0
 1734 0064 1A70     		strb	r2, [r3]
 1735              	.L91:
 346:Src/motion.c  ****     while (motion_end_flag == FALSE)
 1736              		.loc 1 346 0 discriminator 1
 1737 0066 094B     		ldr	r3, .L93+20
 1738 0068 1B78     		ldrb	r3, [r3]	@ zero_extendqisi2
 1739 006a 002B     		cmp	r3, #0
 1740 006c FBD0     		beq	.L91
 347:Src/motion.c  ****     {
 348:Src/motion.c  ****     }
 349:Src/motion.c  ****     enc.offset = 0;
 1741              		.loc 1 349 0
 1742 006e 044B     		ldr	r3, .L93+8
 1743 0070 0022     		movs	r2, #0
 1744 0072 9A60     		str	r2, [r3, #8]	@ float
 350:Src/motion.c  **** }
 1745              		.loc 1 350 0
 1746 0074 08BD     		pop	{r3, pc}
 1747              	.L94:
 1748 0076 00BF     		.align	2
 1749              	.L93:
 1750 0078 00000000 		.word	.LANCHOR0
 1751 007c 0000C843 		.word	1137180672
 1752 0080 00000000 		.word	enc
 1753 0084 00007A45 		.word	1165623296
 1754 0088 00000000 		.word	0
 1755 008c 00000000 		.word	motion_end_flag
 1756              		.cfi_endproc
 1757              	.LFE139:
 1759              		.section	.text.Motion_FastGoal,"ax",%progbits
 1760              		.align	1
 1761              		.global	Motion_FastGoal
 1762              		.syntax unified
 1763              		.thumb
 1764              		.thumb_func
 1765              		.fpu fpv4-sp-d16
 1767              	Motion_FastGoal:
 1768              	.LFB140:
 351:Src/motion.c  **** 
ARM GAS  C:\Users\kotaro\AppData\Local\Temp\ccDugPzv.s 			page 38


 352:Src/motion.c  **** void Motion_FastGoal(uint8_t step)
 353:Src/motion.c  **** {
 1769              		.loc 1 353 0
 1770              		.cfi_startproc
 1771              		@ args = 0, pretend = 0, frame = 0
 1772              		@ frame_needed = 0, uses_anonymous_args = 0
 1773              	.LVL87:
 1774 0000 08B5     		push	{r3, lr}
 1775              	.LCFI35:
 1776              		.cfi_def_cfa_offset 8
 1777              		.cfi_offset 3, -8
 1778              		.cfi_offset 14, -4
 1779 0002 2DED028B 		vpush.64	{d8}
 1780              	.LCFI36:
 1781              		.cfi_def_cfa_offset 16
 1782              		.cfi_offset 80, -16
 1783              		.cfi_offset 81, -12
 354:Src/motion.c  ****     float velo = VELO_S + gain_velo * step;
 1784              		.loc 1 354 0
 1785 0006 07EE900A 		vmov	s15, r0	@ int
 1786 000a B8EEE71A 		vcvt.f32.s32	s2, s15
 1787 000e 274B     		ldr	r3, .L100
 1788 0010 D3ED007A 		vldr.32	s15, [r3]
 1789 0014 21EE271A 		vmul.f32	s2, s2, s15
 1790 0018 DFED257A 		vldr.32	s15, .L100+4
 1791 001c 31EE271A 		vadd.f32	s2, s2, s15
 1792              	.LVL88:
 355:Src/motion.c  ****     if(velo>2500){
 1793              		.loc 1 355 0
 1794 0020 DFED247A 		vldr.32	s15, .L100+8
 1795 0024 B4EEE71A 		vcmpe.f32	s2, s15
 1796 0028 F1EE10FA 		vmrs	APSR_nzcv, FPSCR
 1797 002c 01DD     		ble	.L96
 356:Src/motion.c  ****         velo=2500;
 1798              		.loc 1 356 0
 1799 002e B0EE671A 		vmov.f32	s2, s15
 1800              	.LVL89:
 1801              	.L96:
 357:Src/motion.c  ****     }
 358:Src/motion.c  ****     Control_StrCalculator(90 + 180 * step - enc.offset, VELO_S, velo, 0, ACCEL_S, 1);
 1802              		.loc 1 358 0
 1803 0032 B423     		movs	r3, #180
 1804 0034 03FB00F0 		mul	r0, r3, r0
 1805              	.LVL90:
 1806 0038 5A30     		adds	r0, r0, #90
 1807 003a 1F4B     		ldr	r3, .L100+12
 1808 003c 93ED020A 		vldr.32	s0, [r3, #8]
 1809 0040 9FED1E8A 		vldr.32	s16, .L100+16
 1810 0044 07EE900A 		vmov	s15, r0	@ int
 1811 0048 F8EEE77A 		vcvt.f32.s32	s15, s15
 1812 004c F7EE002A 		vmov.f32	s5, #1.0e+0
 1813 0050 9FED1B2A 		vldr.32	s4, .L100+20
 1814 0054 F0EE481A 		vmov.f32	s3, s16
 1815 0058 DFED150A 		vldr.32	s1, .L100+4
 1816 005c 37EEC00A 		vsub.f32	s0, s15, s0
 1817 0060 FFF7FEFF 		bl	Control_StrCalculator
 1818              	.LVL91:
ARM GAS  C:\Users\kotaro\AppData\Local\Temp\ccDugPzv.s 			page 39


 359:Src/motion.c  ****     Control_AngCalculator(0, 0, 0, 0, 1 ,0);
 1819              		.loc 1 359 0
 1820 0064 F0EE482A 		vmov.f32	s5, s16
 1821 0068 B7EE002A 		vmov.f32	s4, #1.0e+0
 1822 006c F0EE481A 		vmov.f32	s3, s16
 1823 0070 B0EE481A 		vmov.f32	s2, s16
 1824 0074 F0EE480A 		vmov.f32	s1, s16
 1825 0078 B0EE480A 		vmov.f32	s0, s16
 1826 007c FFF7FEFF 		bl	Control_AngCalculator
 1827              	.LVL92:
 360:Src/motion.c  ****     motion_end_flag = FALSE;
 1828              		.loc 1 360 0
 1829 0080 104B     		ldr	r3, .L100+24
 1830 0082 0022     		movs	r2, #0
 1831 0084 1A70     		strb	r2, [r3]
 1832              	.L97:
 361:Src/motion.c  ****     while (motion_end_flag == FALSE)
 1833              		.loc 1 361 0 discriminator 1
 1834 0086 0F4B     		ldr	r3, .L100+24
 1835 0088 1B78     		ldrb	r3, [r3]	@ zero_extendqisi2
 1836 008a 002B     		cmp	r3, #0
 1837 008c FBD0     		beq	.L97
 362:Src/motion.c  ****     {
 363:Src/motion.c  ****     }
 364:Src/motion.c  ****     straight.v_now = 0;
 1838              		.loc 1 364 0
 1839 008e 0023     		movs	r3, #0
 1840 0090 0D4A     		ldr	r2, .L100+28
 1841 0092 D360     		str	r3, [r2, #12]	@ float
 365:Src/motion.c  ****     angle.v_now = 0;
 1842              		.loc 1 365 0
 1843 0094 0D4A     		ldr	r2, .L100+32
 1844 0096 D360     		str	r3, [r2, #12]	@ float
 366:Src/motion.c  ****     enc.offset = 0;
 1845              		.loc 1 366 0
 1846 0098 074A     		ldr	r2, .L100+12
 1847 009a 9360     		str	r3, [r2, #8]	@ float
 367:Src/motion.c  ****     HAL_Delay(800);
 1848              		.loc 1 367 0
 1849 009c 4FF44870 		mov	r0, #800
 1850 00a0 FFF7FEFF 		bl	HAL_Delay
 1851              	.LVL93:
 368:Src/motion.c  **** }
 1852              		.loc 1 368 0
 1853 00a4 BDEC028B 		vldm	sp!, {d8}
 1854              	.LCFI37:
 1855              		.cfi_restore 80
 1856              		.cfi_restore 81
 1857              		.cfi_def_cfa_offset 8
 1858 00a8 08BD     		pop	{r3, pc}
 1859              	.L101:
 1860 00aa 00BF     		.align	2
 1861              	.L100:
 1862 00ac 00000000 		.word	.LANCHOR0
 1863 00b0 0000C843 		.word	1137180672
 1864 00b4 00401C45 		.word	1159479296
 1865 00b8 00000000 		.word	enc
ARM GAS  C:\Users\kotaro\AppData\Local\Temp\ccDugPzv.s 			page 40


 1866 00bc 00000000 		.word	0
 1867 00c0 00007A45 		.word	1165623296
 1868 00c4 00000000 		.word	motion_end_flag
 1869 00c8 00000000 		.word	straight
 1870 00cc 00000000 		.word	angle
 1871              		.cfi_endproc
 1872              	.LFE140:
 1874              		.section	.text.Motion_Switch,"ax",%progbits
 1875              		.align	1
 1876              		.global	Motion_Switch
 1877              		.syntax unified
 1878              		.thumb
 1879              		.thumb_func
 1880              		.fpu fpv4-sp-d16
 1882              	Motion_Switch:
 1883              	.LFB141:
 369:Src/motion.c  **** 
 370:Src/motion.c  **** 
 371:Src/motion.c  **** 
 372:Src/motion.c  **** void Motion_Switch(uint8_t motion)
 373:Src/motion.c  **** {
 1884              		.loc 1 373 0
 1885              		.cfi_startproc
 1886              		@ args = 0, pretend = 0, frame = 0
 1887              		@ frame_needed = 0, uses_anonymous_args = 0
 1888              	.LVL94:
 1889 0000 08B5     		push	{r3, lr}
 1890              	.LCFI38:
 1891              		.cfi_def_cfa_offset 8
 1892              		.cfi_offset 3, -8
 1893              		.cfi_offset 14, -4
 374:Src/motion.c  ****     switch (motion)
 1894              		.loc 1 374 0
 1895 0002 0428     		cmp	r0, #4
 1896 0004 13D8     		bhi	.L103
 1897 0006 DFE800F0 		tbb	[pc, r0]
 1898              	.L105:
 1899 000a 03       		.byte	(.L104-.L105)/2
 1900 000b 09       		.byte	(.L106-.L105)/2
 1901 000c 06       		.byte	(.L107-.L105)/2
 1902 000d 0C       		.byte	(.L108-.L105)/2
 1903 000e 0F       		.byte	(.L109-.L105)/2
 1904 000f 00       		.p2align 1
 1905              	.L104:
 375:Src/motion.c  ****     {
 376:Src/motion.c  ****     case FRONT:
 377:Src/motion.c  ****         Motion_Straight();
 1906              		.loc 1 377 0
 1907 0010 FFF7FEFF 		bl	Motion_Straight
 1908              	.LVL95:
 1909              	.L102:
 378:Src/motion.c  ****         break;
 379:Src/motion.c  ****     case RIGHT:
 380:Src/motion.c  ****         Motion_RightTurn();
 381:Src/motion.c  ****         break;
 382:Src/motion.c  ****     case LEFT:
 383:Src/motion.c  ****         Motion_LeftTurn();
ARM GAS  C:\Users\kotaro\AppData\Local\Temp\ccDugPzv.s 			page 41


 384:Src/motion.c  ****         break;
 385:Src/motion.c  ****     case REAR:
 386:Src/motion.c  ****         Motion_SpinTurn();
 387:Src/motion.c  ****         break;
 388:Src/motion.c  ****     case PIVO_REAR:
 389:Src/motion.c  ****         Motion_WallSpinTurn();
 390:Src/motion.c  ****         break;
 391:Src/motion.c  ****     default:
 392:Src/motion.c  ****         motor_flag = FALSE;
 393:Src/motion.c  ****         break;
 394:Src/motion.c  ****     }
 395:Src/motion.c  **** }
 1910              		.loc 1 395 0
 1911 0014 08BD     		pop	{r3, pc}
 1912              	.LVL96:
 1913              	.L107:
 380:Src/motion.c  ****         break;
 1914              		.loc 1 380 0
 1915 0016 FFF7FEFF 		bl	Motion_RightTurn
 1916              	.LVL97:
 381:Src/motion.c  ****     case LEFT:
 1917              		.loc 1 381 0
 1918 001a FBE7     		b	.L102
 1919              	.LVL98:
 1920              	.L106:
 383:Src/motion.c  ****         break;
 1921              		.loc 1 383 0
 1922 001c FFF7FEFF 		bl	Motion_LeftTurn
 1923              	.LVL99:
 384:Src/motion.c  ****     case REAR:
 1924              		.loc 1 384 0
 1925 0020 F8E7     		b	.L102
 1926              	.LVL100:
 1927              	.L108:
 386:Src/motion.c  ****         break;
 1928              		.loc 1 386 0
 1929 0022 FFF7FEFF 		bl	Motion_SpinTurn
 1930              	.LVL101:
 387:Src/motion.c  ****     case PIVO_REAR:
 1931              		.loc 1 387 0
 1932 0026 F5E7     		b	.L102
 1933              	.LVL102:
 1934              	.L109:
 389:Src/motion.c  ****         break;
 1935              		.loc 1 389 0
 1936 0028 FFF7FEFF 		bl	Motion_WallSpinTurn
 1937              	.LVL103:
 390:Src/motion.c  ****     default:
 1938              		.loc 1 390 0
 1939 002c F2E7     		b	.L102
 1940              	.LVL104:
 1941              	.L103:
 392:Src/motion.c  ****         break;
 1942              		.loc 1 392 0
 1943 002e 024B     		ldr	r3, .L112
 1944 0030 0022     		movs	r2, #0
 1945 0032 1A70     		strb	r2, [r3]
ARM GAS  C:\Users\kotaro\AppData\Local\Temp\ccDugPzv.s 			page 42


 1946              		.loc 1 395 0
 1947 0034 EEE7     		b	.L102
 1948              	.L113:
 1949 0036 00BF     		.align	2
 1950              	.L112:
 1951 0038 00000000 		.word	motor_flag
 1952              		.cfi_endproc
 1953              	.LFE141:
 1955              		.global	gain_velo
 1956              		.comm	motion_end_flag,1,1
 1957              		.section	.data.gain_velo,"aw",%progbits
 1958              		.align	2
 1959              		.set	.LANCHOR0,. + 0
 1962              	gain_velo:
 1963 0000 00001643 		.word	1125515264
 1964              		.text
 1965              	.Letext0:
 1966              		.file 2 "c:\\program files (x86)\\gnu tools arm embedded\\7 2017-q4-major\\arm-none-eabi\\include\
 1967              		.file 3 "c:\\program files (x86)\\gnu tools arm embedded\\7 2017-q4-major\\arm-none-eabi\\include\
 1968              		.file 4 "Inc/control.h"
 1969              		.file 5 "Drivers/CMSIS/Include/core_cm4.h"
 1970              		.file 6 "Drivers/CMSIS/Device/ST/STM32F4xx/Include/system_stm32f4xx.h"
 1971              		.file 7 "Drivers/CMSIS/Device/ST/STM32F4xx/Include/stm32f405xx.h"
 1972              		.file 8 "c:\\program files (x86)\\gnu tools arm embedded\\7 2017-q4-major\\arm-none-eabi\\include\
 1973              		.file 9 "c:\\program files (x86)\\gnu tools arm embedded\\7 2017-q4-major\\arm-none-eabi\\include\
 1974              		.file 10 "c:\\program files (x86)\\gnu tools arm embedded\\7 2017-q4-major\\lib\\gcc\\arm-none-eab
 1975              		.file 11 "c:\\program files (x86)\\gnu tools arm embedded\\7 2017-q4-major\\arm-none-eabi\\include
 1976              		.file 12 "Drivers/STM32F4xx_HAL_Driver/Inc/stm32f4xx_hal_def.h"
 1977              		.file 13 "Drivers/STM32F4xx_HAL_Driver/Inc/stm32f4xx_hal_dma.h"
 1978              		.file 14 "Drivers/STM32F4xx_HAL_Driver/Inc/stm32f4xx_hal_spi.h"
 1979              		.file 15 "Drivers/STM32F4xx_HAL_Driver/Inc/stm32f4xx_hal_tim.h"
 1980              		.file 16 "Inc/tim.h"
 1981              		.file 17 "Inc/spi.h"
 1982              		.file 18 "Drivers/STM32F4xx_HAL_Driver/Inc/stm32f4xx_hal.h"
ARM GAS  C:\Users\kotaro\AppData\Local\Temp\ccDugPzv.s 			page 43


DEFINED SYMBOLS
                            *ABS*:00000000 motion.c
C:\Users\kotaro\AppData\Local\Temp\ccDugPzv.s:18     .text.Motion_enkai:00000000 $t
C:\Users\kotaro\AppData\Local\Temp\ccDugPzv.s:25     .text.Motion_enkai:00000000 Motion_enkai
C:\Users\kotaro\AppData\Local\Temp\ccDugPzv.s:65     .text.Motion_enkai:00000044 $d
C:\Users\kotaro\AppData\Local\Temp\ccDugPzv.s:70     .text.Motion_Start:00000000 $t
C:\Users\kotaro\AppData\Local\Temp\ccDugPzv.s:77     .text.Motion_Start:00000000 Motion_Start
C:\Users\kotaro\AppData\Local\Temp\ccDugPzv.s:139    .text.Motion_Start:00000060 $d
                            *COM*:00000001 motion_end_flag
C:\Users\kotaro\AppData\Local\Temp\ccDugPzv.s:149    .text.Motion_Restart:00000000 $t
C:\Users\kotaro\AppData\Local\Temp\ccDugPzv.s:156    .text.Motion_Restart:00000000 Motion_Restart
C:\Users\kotaro\AppData\Local\Temp\ccDugPzv.s:339    .text.Motion_Restart:00000178 $d
C:\Users\kotaro\AppData\Local\Temp\ccDugPzv.s:357    .text.Motion_End:00000000 $t
C:\Users\kotaro\AppData\Local\Temp\ccDugPzv.s:364    .text.Motion_End:00000000 Motion_End
C:\Users\kotaro\AppData\Local\Temp\ccDugPzv.s:436    .text.Motion_End:00000078 $d
C:\Users\kotaro\AppData\Local\Temp\ccDugPzv.s:448    .text.Motion_Straight:00000000 $t
C:\Users\kotaro\AppData\Local\Temp\ccDugPzv.s:455    .text.Motion_Straight:00000000 Motion_Straight
C:\Users\kotaro\AppData\Local\Temp\ccDugPzv.s:506    .text.Motion_Straight:0000005c $d
C:\Users\kotaro\AppData\Local\Temp\ccDugPzv.s:516    .text.Motion_TestTurn:00000000 $t
C:\Users\kotaro\AppData\Local\Temp\ccDugPzv.s:523    .text.Motion_TestTurn:00000000 Motion_TestTurn
C:\Users\kotaro\AppData\Local\Temp\ccDugPzv.s:589    .text.Motion_TestTurn:00000068 $d
C:\Users\kotaro\AppData\Local\Temp\ccDugPzv.s:600    .text.Motion_SpinTurn:00000000 $t
C:\Users\kotaro\AppData\Local\Temp\ccDugPzv.s:607    .text.Motion_SpinTurn:00000000 Motion_SpinTurn
C:\Users\kotaro\AppData\Local\Temp\ccDugPzv.s:745    .text.Motion_SpinTurn:0000011c $d
C:\Users\kotaro\AppData\Local\Temp\ccDugPzv.s:757    .text.Motion_WallSpinTurn:00000000 $t
C:\Users\kotaro\AppData\Local\Temp\ccDugPzv.s:764    .text.Motion_WallSpinTurn:00000000 Motion_WallSpinTurn
C:\Users\kotaro\AppData\Local\Temp\ccDugPzv.s:950    .text.Motion_WallSpinTurn:00000194 $d
C:\Users\kotaro\AppData\Local\Temp\ccDugPzv.s:968    .text.Motion_LeftSpinTurn:00000000 $t
C:\Users\kotaro\AppData\Local\Temp\ccDugPzv.s:975    .text.Motion_LeftSpinTurn:00000000 Motion_LeftSpinTurn
C:\Users\kotaro\AppData\Local\Temp\ccDugPzv.s:1113   .text.Motion_LeftSpinTurn:0000011c $d
C:\Users\kotaro\AppData\Local\Temp\ccDugPzv.s:1124   .text.Motion_RightSpinTurn:00000000 $t
C:\Users\kotaro\AppData\Local\Temp\ccDugPzv.s:1131   .text.Motion_RightSpinTurn:00000000 Motion_RightSpinTurn
C:\Users\kotaro\AppData\Local\Temp\ccDugPzv.s:1310   .text.Motion_RightSpinTurn:00000154 $d
C:\Users\kotaro\AppData\Local\Temp\ccDugPzv.s:1322   .text.Motion_LeftTurn:00000000 $t
C:\Users\kotaro\AppData\Local\Temp\ccDugPzv.s:1329   .text.Motion_LeftTurn:00000000 Motion_LeftTurn
C:\Users\kotaro\AppData\Local\Temp\ccDugPzv.s:1436   .text.Motion_LeftTurn:000000e8 $d
C:\Users\kotaro\AppData\Local\Temp\ccDugPzv.s:1449   .text.Motion_RightTurn:00000000 $t
C:\Users\kotaro\AppData\Local\Temp\ccDugPzv.s:1456   .text.Motion_RightTurn:00000000 Motion_RightTurn
C:\Users\kotaro\AppData\Local\Temp\ccDugPzv.s:1563   .text.Motion_RightTurn:000000e8 $d
C:\Users\kotaro\AppData\Local\Temp\ccDugPzv.s:1577   .text.Motion_FastStart:00000000 $t
C:\Users\kotaro\AppData\Local\Temp\ccDugPzv.s:1584   .text.Motion_FastStart:00000000 Motion_FastStart
C:\Users\kotaro\AppData\Local\Temp\ccDugPzv.s:1669   .text.Motion_FastStart:00000098 $d
C:\Users\kotaro\AppData\Local\Temp\ccDugPzv.s:1680   .text.Motion_FastStraight:00000000 $t
C:\Users\kotaro\AppData\Local\Temp\ccDugPzv.s:1687   .text.Motion_FastStraight:00000000 Motion_FastStraight
C:\Users\kotaro\AppData\Local\Temp\ccDugPzv.s:1750   .text.Motion_FastStraight:00000078 $d
C:\Users\kotaro\AppData\Local\Temp\ccDugPzv.s:1760   .text.Motion_FastGoal:00000000 $t
C:\Users\kotaro\AppData\Local\Temp\ccDugPzv.s:1767   .text.Motion_FastGoal:00000000 Motion_FastGoal
C:\Users\kotaro\AppData\Local\Temp\ccDugPzv.s:1862   .text.Motion_FastGoal:000000ac $d
C:\Users\kotaro\AppData\Local\Temp\ccDugPzv.s:1875   .text.Motion_Switch:00000000 $t
C:\Users\kotaro\AppData\Local\Temp\ccDugPzv.s:1882   .text.Motion_Switch:00000000 Motion_Switch
C:\Users\kotaro\AppData\Local\Temp\ccDugPzv.s:1899   .text.Motion_Switch:0000000a $d
C:\Users\kotaro\AppData\Local\Temp\ccDugPzv.s:1951   .text.Motion_Switch:00000038 $d
C:\Users\kotaro\AppData\Local\Temp\ccDugPzv.s:1962   .data.gain_velo:00000000 gain_velo
C:\Users\kotaro\AppData\Local\Temp\ccDugPzv.s:1958   .data.gain_velo:00000000 $d
C:\Users\kotaro\AppData\Local\Temp\ccDugPzv.s:1904   .text.Motion_Switch:0000000f $d
C:\Users\kotaro\AppData\Local\Temp\ccDugPzv.s:1904   .text.Motion_Switch:00000010 $t

ARM GAS  C:\Users\kotaro\AppData\Local\Temp\ccDugPzv.s 			page 44


UNDEFINED SYMBOLS
Control_ResetVelo
Control_StrCalculator
Control_AngCalculator
enc
HAL_Delay
straight
angle
Tim_MotorPwm
motor_flag
