ARM GAS  C:\Users\kotaro\AppData\Local\Temp\ccSv5CWQ.s 			page 1


   1              		.cpu cortex-m4
   2              		.eabi_attribute 27, 1
   3              		.eabi_attribute 28, 1
   4              		.eabi_attribute 20, 1
   5              		.eabi_attribute 21, 1
   6              		.eabi_attribute 23, 3
   7              		.eabi_attribute 24, 1
   8              		.eabi_attribute 25, 1
   9              		.eabi_attribute 26, 1
  10              		.eabi_attribute 30, 1
  11              		.eabi_attribute 34, 1
  12              		.eabi_attribute 18, 4
  13              		.file	"motion.c"
  14              		.text
  15              	.Ltext0:
  16              		.cfi_sections	.debug_frame
  17              		.section	.text.Motion_MaxVeloSet,"ax",%progbits
  18              		.align	1
  19              		.global	Motion_MaxVeloSet
  20              		.syntax unified
  21              		.thumb
  22              		.thumb_func
  23              		.fpu fpv4-sp-d16
  25              	Motion_MaxVeloSet:
  26              	.LFB159:
  27              		.file 1 "Src/motion.c"
   1:Src/motion.c  **** #include "motion.h"
   2:Src/motion.c  **** #include "stdint.h"
   3:Src/motion.c  **** #include "control.h"
   4:Src/motion.c  **** #include "tim.h"
   5:Src/motion.c  **** #include "spi.h"
   6:Src/motion.c  **** #include "MazeCon.h"
   7:Src/motion.c  **** #include "arm_math.h"
   8:Src/motion.c  **** #include "adc.h"
   9:Src/motion.c  **** 
  10:Src/motion.c  **** #define TRUE 1
  11:Src/motion.c  **** #define FALSE 0
  12:Src/motion.c  **** 
  13:Src/motion.c  **** #define VELO_ANG_B 380.0f
  14:Src/motion.c  **** #define ACCEL_ANG_B 4000.0f
  15:Src/motion.c  **** 
  16:Src/motion.c  **** #define OFFSET_IN 31.0f
  17:Src/motion.c  **** #define OFFSET_OUT 47.0f
  18:Src/motion.c  **** 
  19:Src/motion.c  **** #define OFFSET_SEN 135
  20:Src/motion.c  **** 
  21:Src/motion.c  **** extern enc_t enc;
  22:Src/motion.c  **** extern volatile uint8_t motor_flag;
  23:Src/motion.c  **** extern target_t straight, angle;
  24:Src/motion.c  **** extern volatile accel_t accel;
  25:Src/motion.c  **** extern sensor_t sen_front;
  26:Src/motion.c  **** extern sensor_t sen_l;
  27:Src/motion.c  **** extern sensor_t sen_r;
  28:Src/motion.c  **** extern int16_t sen_front_reference_f;
  29:Src/motion.c  **** 
  30:Src/motion.c  **** extern float error_sum;
  31:Src/motion.c  **** extern float error_old;
ARM GAS  C:\Users\kotaro\AppData\Local\Temp\ccSv5CWQ.s 			page 2


  32:Src/motion.c  **** 
  33:Src/motion.c  **** extern float error_ang_sum;
  34:Src/motion.c  **** extern float error_ang_old;
  35:Src/motion.c  **** 
  36:Src/motion.c  **** extern volatile uint8_t control_wall_flag;
  37:Src/motion.c  **** 
  38:Src/motion.c  **** extern volatile uint8_t front_wall_flag;
  39:Src/motion.c  **** 
  40:Src/motion.c  **** volatile uint8_t motion_end_flag;
  41:Src/motion.c  **** float gain_velo = 0;
  42:Src/motion.c  **** float diagonal_step = 0;
  43:Src/motion.c  **** uint16_t prefront_flag = 0;
  44:Src/motion.c  **** 
  45:Src/motion.c  **** void Motion_MaxVeloSet(float gain)
  46:Src/motion.c  **** {
  28              		.loc 1 46 0
  29              		.cfi_startproc
  30              		@ args = 0, pretend = 0, frame = 0
  31              		@ frame_needed = 0, uses_anonymous_args = 0
  32              		@ link register save eliminated.
  33              	.LVL0:
  47:Src/motion.c  ****     //0~160
  48:Src/motion.c  ****     gain_velo = gain;
  34              		.loc 1 48 0
  35 0000 014B     		ldr	r3, .L2
  36 0002 83ED000A 		vstr.32	s0, [r3]
  49:Src/motion.c  **** }
  37              		.loc 1 49 0
  38 0006 7047     		bx	lr
  39              	.L3:
  40              		.align	2
  41              	.L2:
  42 0008 00000000 		.word	.LANCHOR0
  43              		.cfi_endproc
  44              	.LFE159:
  46              		.section	.text.Motion_enkai,"ax",%progbits
  47              		.align	1
  48              		.global	Motion_enkai
  49              		.syntax unified
  50              		.thumb
  51              		.thumb_func
  52              		.fpu fpv4-sp-d16
  54              	Motion_enkai:
  55              	.LFB160:
  50:Src/motion.c  **** 
  51:Src/motion.c  **** void Motion_enkai(void)
  52:Src/motion.c  **** {
  56              		.loc 1 52 0
  57              		.cfi_startproc
  58              		@ Volatile: function does not return.
  59              		@ args = 0, pretend = 0, frame = 0
  60              		@ frame_needed = 0, uses_anonymous_args = 0
  61 0000 08B5     		push	{r3, lr}
  62              	.LCFI0:
  63              		.cfi_def_cfa_offset 8
  64              		.cfi_offset 3, -8
  65              		.cfi_offset 14, -4
ARM GAS  C:\Users\kotaro\AppData\Local\Temp\ccSv5CWQ.s 			page 3


  53:Src/motion.c  ****     Control_ResetVelo();
  66              		.loc 1 53 0
  67 0002 FFF7FEFF 		bl	Control_ResetVelo
  68              	.LVL1:
  54:Src/motion.c  ****     Control_StrCalculator(0, 0, 0, 0, 1, 0);
  69              		.loc 1 54 0
  70 0006 9FED0F8A 		vldr.32	s16, .L7
  71 000a F0EE482A 		vmov.f32	s5, s16
  72 000e B7EE002A 		vmov.f32	s4, #1.0e+0
  73 0012 F0EE481A 		vmov.f32	s3, s16
  74 0016 B0EE481A 		vmov.f32	s2, s16
  75 001a F0EE480A 		vmov.f32	s1, s16
  76 001e B0EE480A 		vmov.f32	s0, s16
  77 0022 FFF7FEFF 		bl	Control_StrCalculator
  78              	.LVL2:
  55:Src/motion.c  ****     Control_AngCalculator(0, 0, 0, 0, 1, 0);
  79              		.loc 1 55 0
  80 0026 F0EE482A 		vmov.f32	s5, s16
  81 002a B7EE002A 		vmov.f32	s4, #1.0e+0
  82 002e F0EE481A 		vmov.f32	s3, s16
  83 0032 B0EE481A 		vmov.f32	s2, s16
  84 0036 F0EE480A 		vmov.f32	s1, s16
  85 003a B0EE480A 		vmov.f32	s0, s16
  86 003e FFF7FEFF 		bl	Control_AngCalculator
  87              	.LVL3:
  88              	.L5:
  89 0042 FEE7     		b	.L5
  90              	.L8:
  91              		.align	2
  92              	.L7:
  93 0044 00000000 		.word	0
  94              		.cfi_endproc
  95              	.LFE160:
  97              		.section	.text.Motion_TestTurn,"ax",%progbits
  98              		.align	1
  99              		.global	Motion_TestTurn
 100              		.syntax unified
 101              		.thumb
 102              		.thumb_func
 103              		.fpu fpv4-sp-d16
 105              	Motion_TestTurn:
 106              	.LFB161:
  56:Src/motion.c  ****     while (1)
  57:Src/motion.c  ****     {
  58:Src/motion.c  ****     }
  59:Src/motion.c  **** }
  60:Src/motion.c  **** 
  61:Src/motion.c  **** void Motion_TestTurn(void)
  62:Src/motion.c  **** {
 107              		.loc 1 62 0
 108              		.cfi_startproc
 109              		@ args = 0, pretend = 0, frame = 0
 110              		@ frame_needed = 0, uses_anonymous_args = 0
 111 0000 08B5     		push	{r3, lr}
 112              	.LCFI1:
 113              		.cfi_def_cfa_offset 8
 114              		.cfi_offset 3, -8
ARM GAS  C:\Users\kotaro\AppData\Local\Temp\ccSv5CWQ.s 			page 4


 115              		.cfi_offset 14, -4
 116 0002 2DED028B 		vpush.64	{d8}
 117              	.LCFI2:
 118              		.cfi_def_cfa_offset 16
 119              		.cfi_offset 80, -16
 120              		.cfi_offset 81, -12
  63:Src/motion.c  ****     Control_ResetVelo();
 121              		.loc 1 63 0
 122 0006 FFF7FEFF 		bl	Control_ResetVelo
 123              	.LVL4:
  64:Src/motion.c  ****     Control_StrCalculator(0, 0, 0, 0, 1, 0);
 124              		.loc 1 64 0
 125 000a 9FED1A8A 		vldr.32	s16, .L12
 126 000e F0EE482A 		vmov.f32	s5, s16
 127 0012 B7EE002A 		vmov.f32	s4, #1.0e+0
 128 0016 F0EE481A 		vmov.f32	s3, s16
 129 001a B0EE481A 		vmov.f32	s2, s16
 130 001e F0EE480A 		vmov.f32	s1, s16
 131 0022 B0EE480A 		vmov.f32	s0, s16
 132 0026 FFF7FEFF 		bl	Control_StrCalculator
 133              	.LVL5:
  65:Src/motion.c  ****     Control_AngCalculator(187.0f, 0.0f, VELO_ANG_S, 0.0f, ACCEL_ANG_S, 1);
 134              		.loc 1 65 0
 135 002a F7EE002A 		vmov.f32	s5, #1.0e+0
 136 002e 9FED122A 		vldr.32	s4, .L12+4
 137 0032 F0EE481A 		vmov.f32	s3, s16
 138 0036 9FED111A 		vldr.32	s2, .L12+8
 139 003a F0EE480A 		vmov.f32	s1, s16
 140 003e 9FED100A 		vldr.32	s0, .L12+12
 141 0042 FFF7FEFF 		bl	Control_AngCalculator
 142              	.LVL6:
  66:Src/motion.c  ****     motion_end_flag = FALSE;
 143              		.loc 1 66 0
 144 0046 0F4B     		ldr	r3, .L12+16
 145 0048 0022     		movs	r2, #0
 146 004a 1A70     		strb	r2, [r3]
 147              	.L10:
  67:Src/motion.c  ****     while (motion_end_flag == FALSE)
 148              		.loc 1 67 0 discriminator 1
 149 004c 0D4B     		ldr	r3, .L12+16
 150 004e 1B78     		ldrb	r3, [r3]	@ zero_extendqisi2
 151 0050 002B     		cmp	r3, #0
 152 0052 FBD0     		beq	.L10
  68:Src/motion.c  ****     {
  69:Src/motion.c  ****     }
  70:Src/motion.c  ****     straight.v_now = 0;
 153              		.loc 1 70 0
 154 0054 0023     		movs	r3, #0
 155 0056 0C4A     		ldr	r2, .L12+20
 156 0058 D360     		str	r3, [r2, #12]	@ float
  71:Src/motion.c  ****     angle.v_now = 0;
 157              		.loc 1 71 0
 158 005a 0C4A     		ldr	r2, .L12+24
 159 005c D360     		str	r3, [r2, #12]	@ float
  72:Src/motion.c  ****     error_ang_sum = 0.0f;
 160              		.loc 1 72 0
 161 005e 0C4A     		ldr	r2, .L12+28
ARM GAS  C:\Users\kotaro\AppData\Local\Temp\ccSv5CWQ.s 			page 5


 162 0060 1360     		str	r3, [r2]	@ float
  73:Src/motion.c  ****     error_ang_old = 0.0f;
 163              		.loc 1 73 0
 164 0062 0C4A     		ldr	r2, .L12+32
 165 0064 1360     		str	r3, [r2]	@ float
  74:Src/motion.c  ****     //Tim_MotorPwm(0, 0);
  75:Src/motion.c  ****     HAL_Delay(800);
 166              		.loc 1 75 0
 167 0066 4FF44870 		mov	r0, #800
 168 006a FFF7FEFF 		bl	HAL_Delay
 169              	.LVL7:
  76:Src/motion.c  **** }
 170              		.loc 1 76 0
 171 006e BDEC028B 		vldm	sp!, {d8}
 172              	.LCFI3:
 173              		.cfi_restore 80
 174              		.cfi_restore 81
 175              		.cfi_def_cfa_offset 8
 176 0072 08BD     		pop	{r3, pc}
 177              	.L13:
 178              		.align	2
 179              	.L12:
 180 0074 00000000 		.word	0
 181 0078 0000FA45 		.word	1174011904
 182 007c 0000C843 		.word	1137180672
 183 0080 00003B43 		.word	1127940096
 184 0084 00000000 		.word	motion_end_flag
 185 0088 00000000 		.word	straight
 186 008c 00000000 		.word	angle
 187 0090 00000000 		.word	error_ang_sum
 188 0094 00000000 		.word	error_ang_old
 189              		.cfi_endproc
 190              	.LFE161:
 192              		.section	.text.Motion_Start,"ax",%progbits
 193              		.align	1
 194              		.global	Motion_Start
 195              		.syntax unified
 196              		.thumb
 197              		.thumb_func
 198              		.fpu fpv4-sp-d16
 200              	Motion_Start:
 201              	.LFB162:
  77:Src/motion.c  **** 
  78:Src/motion.c  **** void Motion_Start(void)
  79:Src/motion.c  **** {
 202              		.loc 1 79 0
 203              		.cfi_startproc
 204              		@ args = 0, pretend = 0, frame = 0
 205              		@ frame_needed = 0, uses_anonymous_args = 0
 206 0000 08B5     		push	{r3, lr}
 207              	.LCFI4:
 208              		.cfi_def_cfa_offset 8
 209              		.cfi_offset 3, -8
 210              		.cfi_offset 14, -4
 211 0002 2DED028B 		vpush.64	{d8}
 212              	.LCFI5:
 213              		.cfi_def_cfa_offset 16
ARM GAS  C:\Users\kotaro\AppData\Local\Temp\ccSv5CWQ.s 			page 6


 214              		.cfi_offset 80, -16
 215              		.cfi_offset 81, -12
  80:Src/motion.c  ****     Control_ResetVelo();
 216              		.loc 1 80 0
 217 0006 FFF7FEFF 		bl	Control_ResetVelo
 218              	.LVL8:
  81:Src/motion.c  ****     Control_StrCalculator(130.0f, 0.0f, VELO_S, VELO_S, ACCEL_S, 1);
 219              		.loc 1 81 0
 220 000a 9FED171A 		vldr.32	s2, .L17
 221 000e 9FED178A 		vldr.32	s16, .L17+4
 222 0012 F7EE002A 		vmov.f32	s5, #1.0e+0
 223 0016 9FED162A 		vldr.32	s4, .L17+8
 224 001a F0EE411A 		vmov.f32	s3, s2
 225 001e F0EE480A 		vmov.f32	s1, s16
 226 0022 9FED140A 		vldr.32	s0, .L17+12
 227 0026 FFF7FEFF 		bl	Control_StrCalculator
 228              	.LVL9:
  82:Src/motion.c  ****     Control_AngCalculator(0, 0, 0, 0, 1, 0);
 229              		.loc 1 82 0
 230 002a F0EE482A 		vmov.f32	s5, s16
 231 002e B7EE002A 		vmov.f32	s4, #1.0e+0
 232 0032 F0EE481A 		vmov.f32	s3, s16
 233 0036 B0EE481A 		vmov.f32	s2, s16
 234 003a F0EE480A 		vmov.f32	s1, s16
 235 003e B0EE480A 		vmov.f32	s0, s16
 236 0042 FFF7FEFF 		bl	Control_AngCalculator
 237              	.LVL10:
  83:Src/motion.c  ****     motion_end_flag = FALSE;
 238              		.loc 1 83 0
 239 0046 0C4B     		ldr	r3, .L17+16
 240 0048 0022     		movs	r2, #0
 241 004a 1A70     		strb	r2, [r3]
 242              	.L15:
  84:Src/motion.c  ****     while (motion_end_flag == FALSE)
 243              		.loc 1 84 0 discriminator 1
 244 004c 0A4B     		ldr	r3, .L17+16
 245 004e 1B78     		ldrb	r3, [r3]	@ zero_extendqisi2
 246 0050 002B     		cmp	r3, #0
 247 0052 FBD0     		beq	.L15
  85:Src/motion.c  ****     {
  86:Src/motion.c  ****     }
  87:Src/motion.c  ****     enc.offset = 0.0f;
 248              		.loc 1 87 0
 249 0054 094B     		ldr	r3, .L17+20
 250 0056 0022     		movs	r2, #0
 251 0058 9A60     		str	r2, [r3, #8]	@ float
  88:Src/motion.c  ****     prefront_flag = TRUE;
 252              		.loc 1 88 0
 253 005a 094B     		ldr	r3, .L17+24
 254 005c 0122     		movs	r2, #1
 255 005e 1A80     		strh	r2, [r3]	@ movhi
  89:Src/motion.c  **** }
 256              		.loc 1 89 0
 257 0060 BDEC028B 		vldm	sp!, {d8}
 258              	.LCFI6:
 259              		.cfi_restore 80
 260              		.cfi_restore 81
ARM GAS  C:\Users\kotaro\AppData\Local\Temp\ccSv5CWQ.s 			page 7


 261              		.cfi_def_cfa_offset 8
 262 0064 08BD     		pop	{r3, pc}
 263              	.L18:
 264 0066 00BF     		.align	2
 265              	.L17:
 266 0068 0000C843 		.word	1137180672
 267 006c 00000000 		.word	0
 268 0070 00007A45 		.word	1165623296
 269 0074 00000243 		.word	1124204544
 270 0078 00000000 		.word	motion_end_flag
 271 007c 00000000 		.word	enc
 272 0080 00000000 		.word	.LANCHOR1
 273              		.cfi_endproc
 274              	.LFE162:
 276              		.section	.text.Motion_Restart,"ax",%progbits
 277              		.align	1
 278              		.global	Motion_Restart
 279              		.syntax unified
 280              		.thumb
 281              		.thumb_func
 282              		.fpu fpv4-sp-d16
 284              	Motion_Restart:
 285              	.LFB163:
  90:Src/motion.c  **** 
  91:Src/motion.c  **** void Motion_Restart(uint8_t wall_is)
  92:Src/motion.c  **** {
 286              		.loc 1 92 0
 287              		.cfi_startproc
 288              		@ args = 0, pretend = 0, frame = 0
 289              		@ frame_needed = 0, uses_anonymous_args = 0
 290              	.LVL11:
 291 0000 10B5     		push	{r4, lr}
 292              	.LCFI7:
 293              		.cfi_def_cfa_offset 8
 294              		.cfi_offset 4, -8
 295              		.cfi_offset 14, -4
 296 0002 2DED028B 		vpush.64	{d8}
 297              	.LCFI8:
 298              		.cfi_def_cfa_offset 16
 299              		.cfi_offset 80, -16
 300              		.cfi_offset 81, -12
 301 0006 0446     		mov	r4, r0
  93:Src/motion.c  ****     Control_ResetVelo();
 302              		.loc 1 93 0
 303 0008 FFF7FEFF 		bl	Control_ResetVelo
 304              	.LVL12:
  94:Src/motion.c  ****     if (wall_is == FALSE)
 305              		.loc 1 94 0
 306 000c 002C     		cmp	r4, #0
 307 000e 00F0B080 		beq	.L28
  95:Src/motion.c  ****     {
  96:Src/motion.c  ****         Control_StrCalculator(90.0f, 0.0f, VELO_S, VELO_S, ACCEL_S, 1);
  97:Src/motion.c  ****         Control_AngCalculator(0, 0, 0, 0, 1, 0);
  98:Src/motion.c  ****         motion_end_flag = FALSE;
  99:Src/motion.c  ****         while (motion_end_flag == FALSE)
 100:Src/motion.c  ****         {
 101:Src/motion.c  ****         }
ARM GAS  C:\Users\kotaro\AppData\Local\Temp\ccSv5CWQ.s 			page 8


 102:Src/motion.c  ****         enc.offset = 0;
 103:Src/motion.c  ****         prefront_flag = TRUE;
 104:Src/motion.c  ****     }
 105:Src/motion.c  ****     else
 106:Src/motion.c  ****     {
 107:Src/motion.c  ****         front_wall_flag = TRUE;
 308              		.loc 1 107 0
 309 0012 6E4B     		ldr	r3, .L29
 310 0014 0122     		movs	r2, #1
 311 0016 1A70     		strb	r2, [r3]
 312              	.L23:
 108:Src/motion.c  ****         while (front_wall_flag == TRUE)
 313              		.loc 1 108 0 discriminator 1
 314 0018 6C4B     		ldr	r3, .L29
 315 001a 1B78     		ldrb	r3, [r3]	@ zero_extendqisi2
 316 001c DBB2     		uxtb	r3, r3
 317 001e 012B     		cmp	r3, #1
 318 0020 FAD0     		beq	.L23
 109:Src/motion.c  ****         {
 110:Src/motion.c  ****         }
 111:Src/motion.c  ****         straight.v_now = 0;
 319              		.loc 1 111 0
 320 0022 9FED6B8A 		vldr.32	s16, .L29+4
 321 0026 6B4B     		ldr	r3, .L29+8
 322 0028 83ED038A 		vstr.32	s16, [r3, #12]
 112:Src/motion.c  ****         angle.v_now = 0;
 323              		.loc 1 112 0
 324 002c 6A4B     		ldr	r3, .L29+12
 325 002e 83ED038A 		vstr.32	s16, [r3, #12]
 113:Src/motion.c  ****         error_ang_sum = 0.0f;
 326              		.loc 1 113 0
 327 0032 6A4B     		ldr	r3, .L29+16
 328 0034 83ED008A 		vstr.32	s16, [r3]
 114:Src/motion.c  ****         error_ang_old = 0.0f;
 329              		.loc 1 114 0
 330 0038 694B     		ldr	r3, .L29+20
 331 003a 83ED008A 		vstr.32	s16, [r3]
 115:Src/motion.c  ****         HAL_Delay(500);
 332              		.loc 1 115 0
 333 003e 4FF4FA70 		mov	r0, #500
 334 0042 FFF7FEFF 		bl	HAL_Delay
 335              	.LVL13:
 116:Src/motion.c  **** 
 117:Src/motion.c  ****         Control_StrCalculator(0, 0, 0, 0, 1, 0);
 336              		.loc 1 117 0
 337 0046 F0EE482A 		vmov.f32	s5, s16
 338 004a B7EE002A 		vmov.f32	s4, #1.0e+0
 339 004e F0EE481A 		vmov.f32	s3, s16
 340 0052 B0EE481A 		vmov.f32	s2, s16
 341 0056 F0EE480A 		vmov.f32	s1, s16
 342 005a B0EE480A 		vmov.f32	s0, s16
 343 005e FFF7FEFF 		bl	Control_StrCalculator
 344              	.LVL14:
 118:Src/motion.c  ****         Control_AngCalculator(185.0f, 0.0f, VELO_ANG_S, 0.0f, ACCEL_ANG_S, 1);
 345              		.loc 1 118 0
 346 0062 F7EE002A 		vmov.f32	s5, #1.0e+0
 347 0066 9FED5F2A 		vldr.32	s4, .L29+24
ARM GAS  C:\Users\kotaro\AppData\Local\Temp\ccSv5CWQ.s 			page 9


 348 006a F0EE481A 		vmov.f32	s3, s16
 349 006e 9FED5E1A 		vldr.32	s2, .L29+28
 350 0072 F0EE480A 		vmov.f32	s1, s16
 351 0076 9FED5D0A 		vldr.32	s0, .L29+32
 352 007a FFF7FEFF 		bl	Control_AngCalculator
 353              	.LVL15:
 119:Src/motion.c  ****         motion_end_flag = FALSE;
 354              		.loc 1 119 0
 355 007e 5C4B     		ldr	r3, .L29+36
 356 0080 0022     		movs	r2, #0
 357 0082 1A70     		strb	r2, [r3]
 358              	.L24:
 120:Src/motion.c  ****         while (motion_end_flag == FALSE)
 359              		.loc 1 120 0 discriminator 1
 360 0084 5A4B     		ldr	r3, .L29+36
 361 0086 1B78     		ldrb	r3, [r3]	@ zero_extendqisi2
 362 0088 002B     		cmp	r3, #0
 363 008a FBD0     		beq	.L24
 121:Src/motion.c  ****         {
 122:Src/motion.c  ****         }
 123:Src/motion.c  ****         straight.v_now = 0;
 364              		.loc 1 123 0
 365 008c 9FED508A 		vldr.32	s16, .L29+4
 366 0090 504B     		ldr	r3, .L29+8
 367 0092 83ED038A 		vstr.32	s16, [r3, #12]
 124:Src/motion.c  ****         angle.v_now = 0;
 368              		.loc 1 124 0
 369 0096 504B     		ldr	r3, .L29+12
 370 0098 83ED038A 		vstr.32	s16, [r3, #12]
 125:Src/motion.c  ****         error_ang_sum = 0.0f;
 371              		.loc 1 125 0
 372 009c 4F4B     		ldr	r3, .L29+16
 373 009e 83ED008A 		vstr.32	s16, [r3]
 126:Src/motion.c  ****         error_ang_old = 0.0f;
 374              		.loc 1 126 0
 375 00a2 4F4B     		ldr	r3, .L29+20
 376 00a4 83ED008A 		vstr.32	s16, [r3]
 127:Src/motion.c  ****         HAL_Delay(500);
 377              		.loc 1 127 0
 378 00a8 4FF4FA70 		mov	r0, #500
 379 00ac FFF7FEFF 		bl	HAL_Delay
 380              	.LVL16:
 128:Src/motion.c  **** 
 129:Src/motion.c  ****         Control_StrCalculator(55.0f, 0, 200.0f, 0, 1000.0f, -1);
 381              		.loc 1 129 0
 382 00b0 FFEE002A 		vmov.f32	s5, #-1.0e+0
 383 00b4 9FED4F2A 		vldr.32	s4, .L29+40
 384 00b8 F0EE481A 		vmov.f32	s3, s16
 385 00bc 9FED4E1A 		vldr.32	s2, .L29+44
 386 00c0 F0EE480A 		vmov.f32	s1, s16
 387 00c4 9FED4D0A 		vldr.32	s0, .L29+48
 388 00c8 FFF7FEFF 		bl	Control_StrCalculator
 389              	.LVL17:
 130:Src/motion.c  ****         Control_AngCalculator(0, 0, 0, 0, 1, 0);
 390              		.loc 1 130 0
 391 00cc F0EE482A 		vmov.f32	s5, s16
 392 00d0 B7EE002A 		vmov.f32	s4, #1.0e+0
ARM GAS  C:\Users\kotaro\AppData\Local\Temp\ccSv5CWQ.s 			page 10


 393 00d4 F0EE481A 		vmov.f32	s3, s16
 394 00d8 B0EE481A 		vmov.f32	s2, s16
 395 00dc F0EE480A 		vmov.f32	s1, s16
 396 00e0 B0EE480A 		vmov.f32	s0, s16
 397 00e4 FFF7FEFF 		bl	Control_AngCalculator
 398              	.LVL18:
 131:Src/motion.c  ****         motion_end_flag = FALSE;
 399              		.loc 1 131 0
 400 00e8 414B     		ldr	r3, .L29+36
 401 00ea 0022     		movs	r2, #0
 402 00ec 1A70     		strb	r2, [r3]
 403              	.L25:
 132:Src/motion.c  ****         while (motion_end_flag == FALSE)
 404              		.loc 1 132 0 discriminator 1
 405 00ee 404B     		ldr	r3, .L29+36
 406 00f0 1B78     		ldrb	r3, [r3]	@ zero_extendqisi2
 407 00f2 002B     		cmp	r3, #0
 408 00f4 FBD0     		beq	.L25
 133:Src/motion.c  ****         {
 134:Src/motion.c  ****         }
 135:Src/motion.c  ****         straight.v_now = 0;
 409              		.loc 1 135 0
 410 00f6 9FED368A 		vldr.32	s16, .L29+4
 411 00fa 364B     		ldr	r3, .L29+8
 412 00fc 83ED038A 		vstr.32	s16, [r3, #12]
 136:Src/motion.c  ****         angle.v_now = 0;
 413              		.loc 1 136 0
 414 0100 354B     		ldr	r3, .L29+12
 415 0102 83ED038A 		vstr.32	s16, [r3, #12]
 137:Src/motion.c  ****         error_ang_sum = 0.0f;
 416              		.loc 1 137 0
 417 0106 354B     		ldr	r3, .L29+16
 418 0108 83ED008A 		vstr.32	s16, [r3]
 138:Src/motion.c  ****         error_ang_old = 0.0f;
 419              		.loc 1 138 0
 420 010c 344B     		ldr	r3, .L29+20
 421 010e 83ED008A 		vstr.32	s16, [r3]
 139:Src/motion.c  ****         HAL_Delay(500);
 422              		.loc 1 139 0
 423 0112 4FF4FA70 		mov	r0, #500
 424 0116 FFF7FEFF 		bl	HAL_Delay
 425              	.LVL19:
 140:Src/motion.c  **** 
 141:Src/motion.c  ****         Control_StrCalculator(130.0f, 0, VELO_S, VELO_S, ACCEL_S, 1);
 426              		.loc 1 141 0
 427 011a 9FED331A 		vldr.32	s2, .L29+28
 428 011e F7EE002A 		vmov.f32	s5, #1.0e+0
 429 0122 9FED372A 		vldr.32	s4, .L29+52
 430 0126 F0EE411A 		vmov.f32	s3, s2
 431 012a F0EE480A 		vmov.f32	s1, s16
 432 012e 9FED350A 		vldr.32	s0, .L29+56
 433 0132 FFF7FEFF 		bl	Control_StrCalculator
 434              	.LVL20:
 142:Src/motion.c  ****         Control_AngCalculator(0, 0, 0, 0, 1, 0);
 435              		.loc 1 142 0
 436 0136 F0EE482A 		vmov.f32	s5, s16
 437 013a B7EE002A 		vmov.f32	s4, #1.0e+0
ARM GAS  C:\Users\kotaro\AppData\Local\Temp\ccSv5CWQ.s 			page 11


 438 013e F0EE481A 		vmov.f32	s3, s16
 439 0142 B0EE481A 		vmov.f32	s2, s16
 440 0146 F0EE480A 		vmov.f32	s1, s16
 441 014a B0EE480A 		vmov.f32	s0, s16
 442 014e FFF7FEFF 		bl	Control_AngCalculator
 443              	.LVL21:
 143:Src/motion.c  ****         motion_end_flag = FALSE;
 444              		.loc 1 143 0
 445 0152 274B     		ldr	r3, .L29+36
 446 0154 0022     		movs	r2, #0
 447 0156 1A70     		strb	r2, [r3]
 448              	.L26:
 144:Src/motion.c  ****         while (motion_end_flag == FALSE)
 449              		.loc 1 144 0 discriminator 1
 450 0158 254B     		ldr	r3, .L29+36
 451 015a 1B78     		ldrb	r3, [r3]	@ zero_extendqisi2
 452 015c 002B     		cmp	r3, #0
 453 015e FBD0     		beq	.L26
 145:Src/motion.c  ****         {
 146:Src/motion.c  ****         }
 147:Src/motion.c  ****         enc.offset = 0;
 454              		.loc 1 147 0
 455 0160 294B     		ldr	r3, .L29+60
 456 0162 0022     		movs	r2, #0
 457 0164 9A60     		str	r2, [r3, #8]	@ float
 148:Src/motion.c  ****         prefront_flag = TRUE;
 458              		.loc 1 148 0
 459 0166 294B     		ldr	r3, .L29+64
 460 0168 0122     		movs	r2, #1
 461 016a 1A80     		strh	r2, [r3]	@ movhi
 462              	.L19:
 149:Src/motion.c  ****     }
 150:Src/motion.c  **** }
 463              		.loc 1 150 0
 464 016c BDEC028B 		vldm	sp!, {d8}
 465              	.LCFI9:
 466              		.cfi_remember_state
 467              		.cfi_restore 80
 468              		.cfi_restore 81
 469              		.cfi_def_cfa_offset 8
 470 0170 10BD     		pop	{r4, pc}
 471              	.L28:
 472              	.LCFI10:
 473              		.cfi_restore_state
  96:Src/motion.c  ****         Control_AngCalculator(0, 0, 0, 0, 1, 0);
 474              		.loc 1 96 0
 475 0172 9FED1D1A 		vldr.32	s2, .L29+28
 476 0176 9FED168A 		vldr.32	s16, .L29+4
 477 017a F7EE002A 		vmov.f32	s5, #1.0e+0
 478 017e 9FED202A 		vldr.32	s4, .L29+52
 479 0182 F0EE411A 		vmov.f32	s3, s2
 480 0186 F0EE480A 		vmov.f32	s1, s16
 481 018a 9FED210A 		vldr.32	s0, .L29+68
 482 018e FFF7FEFF 		bl	Control_StrCalculator
 483              	.LVL22:
  97:Src/motion.c  ****         motion_end_flag = FALSE;
 484              		.loc 1 97 0
ARM GAS  C:\Users\kotaro\AppData\Local\Temp\ccSv5CWQ.s 			page 12


 485 0192 F0EE482A 		vmov.f32	s5, s16
 486 0196 B7EE002A 		vmov.f32	s4, #1.0e+0
 487 019a F0EE481A 		vmov.f32	s3, s16
 488 019e B0EE481A 		vmov.f32	s2, s16
 489 01a2 F0EE480A 		vmov.f32	s1, s16
 490 01a6 B0EE480A 		vmov.f32	s0, s16
 491 01aa FFF7FEFF 		bl	Control_AngCalculator
 492              	.LVL23:
  98:Src/motion.c  ****         while (motion_end_flag == FALSE)
 493              		.loc 1 98 0
 494 01ae 104B     		ldr	r3, .L29+36
 495 01b0 0022     		movs	r2, #0
 496 01b2 1A70     		strb	r2, [r3]
 497              	.L21:
  99:Src/motion.c  ****         {
 498              		.loc 1 99 0 discriminator 1
 499 01b4 0E4B     		ldr	r3, .L29+36
 500 01b6 1B78     		ldrb	r3, [r3]	@ zero_extendqisi2
 501 01b8 002B     		cmp	r3, #0
 502 01ba FBD0     		beq	.L21
 102:Src/motion.c  ****         prefront_flag = TRUE;
 503              		.loc 1 102 0
 504 01bc 124B     		ldr	r3, .L29+60
 505 01be 0022     		movs	r2, #0
 506 01c0 9A60     		str	r2, [r3, #8]	@ float
 103:Src/motion.c  ****     }
 507              		.loc 1 103 0
 508 01c2 124B     		ldr	r3, .L29+64
 509 01c4 0122     		movs	r2, #1
 510 01c6 1A80     		strh	r2, [r3]	@ movhi
 511 01c8 D0E7     		b	.L19
 512              	.L30:
 513 01ca 00BF     		.align	2
 514              	.L29:
 515 01cc 00000000 		.word	front_wall_flag
 516 01d0 00000000 		.word	0
 517 01d4 00000000 		.word	straight
 518 01d8 00000000 		.word	angle
 519 01dc 00000000 		.word	error_ang_sum
 520 01e0 00000000 		.word	error_ang_old
 521 01e4 0000FA45 		.word	1174011904
 522 01e8 0000C843 		.word	1137180672
 523 01ec 00003943 		.word	1127809024
 524 01f0 00000000 		.word	motion_end_flag
 525 01f4 00007A44 		.word	1148846080
 526 01f8 00004843 		.word	1128792064
 527 01fc 00005C42 		.word	1113325568
 528 0200 00007A45 		.word	1165623296
 529 0204 00000243 		.word	1124204544
 530 0208 00000000 		.word	enc
 531 020c 00000000 		.word	.LANCHOR1
 532 0210 0000B442 		.word	1119092736
 533              		.cfi_endproc
 534              	.LFE163:
 536              		.section	.text.Motion_End,"ax",%progbits
 537              		.align	1
 538              		.global	Motion_End
ARM GAS  C:\Users\kotaro\AppData\Local\Temp\ccSv5CWQ.s 			page 13


 539              		.syntax unified
 540              		.thumb
 541              		.thumb_func
 542              		.fpu fpv4-sp-d16
 544              	Motion_End:
 545              	.LFB164:
 151:Src/motion.c  **** 
 152:Src/motion.c  **** void Motion_End(void)
 153:Src/motion.c  **** {
 546              		.loc 1 153 0
 547              		.cfi_startproc
 548              		@ args = 0, pretend = 0, frame = 0
 549              		@ frame_needed = 0, uses_anonymous_args = 0
 550 0000 08B5     		push	{r3, lr}
 551              	.LCFI11:
 552              		.cfi_def_cfa_offset 8
 553              		.cfi_offset 3, -8
 554              		.cfi_offset 14, -4
 555 0002 2DED028B 		vpush.64	{d8}
 556              	.LCFI12:
 557              		.cfi_def_cfa_offset 16
 558              		.cfi_offset 80, -16
 559              		.cfi_offset 81, -12
 154:Src/motion.c  ****     Control_StrCalculator(90.0f - enc.offset, VELO_S, VELO_S, 0.0f, ACCEL_S, 1);
 560              		.loc 1 154 0
 561 0006 1C4B     		ldr	r3, .L34
 562 0008 D3ED027A 		vldr.32	s15, [r3, #8]
 563 000c 9FED1B8A 		vldr.32	s16, .L34+4
 564 0010 DFED1B0A 		vldr.32	s1, .L34+8
 565 0014 F7EE002A 		vmov.f32	s5, #1.0e+0
 566 0018 9FED1A2A 		vldr.32	s4, .L34+12
 567 001c F0EE481A 		vmov.f32	s3, s16
 568 0020 B0EE601A 		vmov.f32	s2, s1
 569 0024 9FED180A 		vldr.32	s0, .L34+16
 570 0028 30EE670A 		vsub.f32	s0, s0, s15
 571 002c FFF7FEFF 		bl	Control_StrCalculator
 572              	.LVL24:
 155:Src/motion.c  ****     Control_AngCalculator(0, 0, 0, 0, 1, 0);
 573              		.loc 1 155 0
 574 0030 F0EE482A 		vmov.f32	s5, s16
 575 0034 B7EE002A 		vmov.f32	s4, #1.0e+0
 576 0038 F0EE481A 		vmov.f32	s3, s16
 577 003c B0EE481A 		vmov.f32	s2, s16
 578 0040 F0EE480A 		vmov.f32	s1, s16
 579 0044 B0EE480A 		vmov.f32	s0, s16
 580 0048 FFF7FEFF 		bl	Control_AngCalculator
 581              	.LVL25:
 156:Src/motion.c  ****     motion_end_flag = FALSE;
 582              		.loc 1 156 0
 583 004c 0F4B     		ldr	r3, .L34+20
 584 004e 0022     		movs	r2, #0
 585 0050 1A70     		strb	r2, [r3]
 586              	.L32:
 157:Src/motion.c  ****     while (motion_end_flag == FALSE)
 587              		.loc 1 157 0 discriminator 1
 588 0052 0E4B     		ldr	r3, .L34+20
 589 0054 1B78     		ldrb	r3, [r3]	@ zero_extendqisi2
ARM GAS  C:\Users\kotaro\AppData\Local\Temp\ccSv5CWQ.s 			page 14


 590 0056 002B     		cmp	r3, #0
 591 0058 FBD0     		beq	.L32
 158:Src/motion.c  ****     {
 159:Src/motion.c  ****     }
 160:Src/motion.c  ****     enc.offset = 0;
 592              		.loc 1 160 0
 593 005a 0023     		movs	r3, #0
 594 005c 064A     		ldr	r2, .L34
 595 005e 9360     		str	r3, [r2, #8]	@ float
 161:Src/motion.c  ****     error_ang_sum = 0.0f;
 596              		.loc 1 161 0
 597 0060 0B4A     		ldr	r2, .L34+24
 598 0062 1360     		str	r3, [r2]	@ float
 162:Src/motion.c  ****     error_ang_old = 0.0f;
 599              		.loc 1 162 0
 600 0064 0B4A     		ldr	r2, .L34+28
 601 0066 1360     		str	r3, [r2]	@ float
 163:Src/motion.c  ****     straight.v_now = 0;
 602              		.loc 1 163 0
 603 0068 0B4A     		ldr	r2, .L34+32
 604 006a D360     		str	r3, [r2, #12]	@ float
 164:Src/motion.c  ****     angle.v_now = 0;
 605              		.loc 1 164 0
 606 006c 0B4A     		ldr	r2, .L34+36
 607 006e D360     		str	r3, [r2, #12]	@ float
 165:Src/motion.c  **** }
 608              		.loc 1 165 0
 609 0070 BDEC028B 		vldm	sp!, {d8}
 610              	.LCFI13:
 611              		.cfi_restore 80
 612              		.cfi_restore 81
 613              		.cfi_def_cfa_offset 8
 614 0074 08BD     		pop	{r3, pc}
 615              	.L35:
 616 0076 00BF     		.align	2
 617              	.L34:
 618 0078 00000000 		.word	enc
 619 007c 00000000 		.word	0
 620 0080 0000C843 		.word	1137180672
 621 0084 00007A45 		.word	1165623296
 622 0088 0000B442 		.word	1119092736
 623 008c 00000000 		.word	motion_end_flag
 624 0090 00000000 		.word	error_ang_sum
 625 0094 00000000 		.word	error_ang_old
 626 0098 00000000 		.word	straight
 627 009c 00000000 		.word	angle
 628              		.cfi_endproc
 629              	.LFE164:
 631              		.section	.text.Motion_Straight,"ax",%progbits
 632              		.align	1
 633              		.global	Motion_Straight
 634              		.syntax unified
 635              		.thumb
 636              		.thumb_func
 637              		.fpu fpv4-sp-d16
 639              	Motion_Straight:
 640              	.LFB165:
ARM GAS  C:\Users\kotaro\AppData\Local\Temp\ccSv5CWQ.s 			page 15


 166:Src/motion.c  **** 
 167:Src/motion.c  **** void Motion_Straight(void)
 168:Src/motion.c  **** {
 641              		.loc 1 168 0
 642              		.cfi_startproc
 643              		@ args = 0, pretend = 0, frame = 0
 644              		@ frame_needed = 0, uses_anonymous_args = 0
 645 0000 08B5     		push	{r3, lr}
 646              	.LCFI14:
 647              		.cfi_def_cfa_offset 8
 648              		.cfi_offset 3, -8
 649              		.cfi_offset 14, -4
 169:Src/motion.c  ****     if (prefront_flag)
 650              		.loc 1 169 0
 651 0002 1B4B     		ldr	r3, .L41
 652 0004 1B88     		ldrh	r3, [r3]
 653 0006 73BB     		cbnz	r3, .L40
 654              	.L37:
 170:Src/motion.c  ****     {
 171:Src/motion.c  ****         Control_EdgeSet(0);
 172:Src/motion.c  ****     }
 173:Src/motion.c  ****     Control_StrCalculator(180.0f - enc.offset, VELO_S, VELO_S, VELO_S, ACCEL_S, 1);
 655              		.loc 1 173 0
 656 0008 1A4B     		ldr	r3, .L41+4
 657 000a D3ED027A 		vldr.32	s15, [r3, #8]
 658 000e DFED1A0A 		vldr.32	s1, .L41+8
 659 0012 F7EE002A 		vmov.f32	s5, #1.0e+0
 660 0016 9FED192A 		vldr.32	s4, .L41+12
 661 001a F0EE601A 		vmov.f32	s3, s1
 662 001e B0EE601A 		vmov.f32	s2, s1
 663 0022 9FED170A 		vldr.32	s0, .L41+16
 664 0026 30EE670A 		vsub.f32	s0, s0, s15
 665 002a FFF7FEFF 		bl	Control_StrCalculator
 666              	.LVL26:
 174:Src/motion.c  ****     Control_AngCalculator(0, 0, 0, 0, 1, 0);
 667              		.loc 1 174 0
 668 002e 9FED150A 		vldr.32	s0, .L41+20
 669 0032 F0EE402A 		vmov.f32	s5, s0
 670 0036 B7EE002A 		vmov.f32	s4, #1.0e+0
 671 003a F0EE401A 		vmov.f32	s3, s0
 672 003e B0EE401A 		vmov.f32	s2, s0
 673 0042 F0EE400A 		vmov.f32	s1, s0
 674 0046 FFF7FEFF 		bl	Control_AngCalculator
 675              	.LVL27:
 175:Src/motion.c  ****     motion_end_flag = FALSE;
 676              		.loc 1 175 0
 677 004a 0F4B     		ldr	r3, .L41+24
 678 004c 0022     		movs	r2, #0
 679 004e 1A70     		strb	r2, [r3]
 680              	.L38:
 176:Src/motion.c  ****     while (motion_end_flag == FALSE)
 681              		.loc 1 176 0 discriminator 1
 682 0050 0D4B     		ldr	r3, .L41+24
 683 0052 1B78     		ldrb	r3, [r3]	@ zero_extendqisi2
 684 0054 002B     		cmp	r3, #0
 685 0056 FBD0     		beq	.L38
 177:Src/motion.c  ****     {
ARM GAS  C:\Users\kotaro\AppData\Local\Temp\ccSv5CWQ.s 			page 16


 178:Src/motion.c  ****     }
 179:Src/motion.c  ****     enc.offset = 0;
 686              		.loc 1 179 0
 687 0058 064B     		ldr	r3, .L41+4
 688 005a 0022     		movs	r2, #0
 689 005c 9A60     		str	r2, [r3, #8]	@ float
 180:Src/motion.c  ****     prefront_flag = TRUE;
 690              		.loc 1 180 0
 691 005e 044B     		ldr	r3, .L41
 692 0060 0122     		movs	r2, #1
 693 0062 1A80     		strh	r2, [r3]	@ movhi
 181:Src/motion.c  **** }
 694              		.loc 1 181 0
 695 0064 08BD     		pop	{r3, pc}
 696              	.L40:
 171:Src/motion.c  ****     }
 697              		.loc 1 171 0
 698 0066 0020     		movs	r0, #0
 699 0068 FFF7FEFF 		bl	Control_EdgeSet
 700              	.LVL28:
 701 006c CCE7     		b	.L37
 702              	.L42:
 703 006e 00BF     		.align	2
 704              	.L41:
 705 0070 00000000 		.word	.LANCHOR1
 706 0074 00000000 		.word	enc
 707 0078 0000C843 		.word	1137180672
 708 007c 00007A45 		.word	1165623296
 709 0080 00003443 		.word	1127481344
 710 0084 00000000 		.word	0
 711 0088 00000000 		.word	motion_end_flag
 712              		.cfi_endproc
 713              	.LFE165:
 715              		.section	.text.Motion_SpinTurn,"ax",%progbits
 716              		.align	1
 717              		.global	Motion_SpinTurn
 718              		.syntax unified
 719              		.thumb
 720              		.thumb_func
 721              		.fpu fpv4-sp-d16
 723              	Motion_SpinTurn:
 724              	.LFB166:
 182:Src/motion.c  **** 
 183:Src/motion.c  **** void Motion_SpinTurn(void)
 184:Src/motion.c  **** {
 725              		.loc 1 184 0
 726              		.cfi_startproc
 727              		@ args = 0, pretend = 0, frame = 0
 728              		@ frame_needed = 0, uses_anonymous_args = 0
 729 0000 08B5     		push	{r3, lr}
 730              	.LCFI15:
 731              		.cfi_def_cfa_offset 8
 732              		.cfi_offset 3, -8
 733              		.cfi_offset 14, -4
 734 0002 2DED028B 		vpush.64	{d8}
 735              	.LCFI16:
 736              		.cfi_def_cfa_offset 16
ARM GAS  C:\Users\kotaro\AppData\Local\Temp\ccSv5CWQ.s 			page 17


 737              		.cfi_offset 80, -16
 738              		.cfi_offset 81, -12
 185:Src/motion.c  ****     Control_StrCalculator(90.0f - enc.offset, VELO_S, VELO_S, 0, ACCEL_S, 1);
 739              		.loc 1 185 0
 740 0006 4E4B     		ldr	r3, .L48
 741 0008 D3ED027A 		vldr.32	s15, [r3, #8]
 742 000c 9FED4D8A 		vldr.32	s16, .L48+4
 743 0010 DFED4D0A 		vldr.32	s1, .L48+8
 744 0014 F7EE002A 		vmov.f32	s5, #1.0e+0
 745 0018 9FED4C2A 		vldr.32	s4, .L48+12
 746 001c F0EE481A 		vmov.f32	s3, s16
 747 0020 B0EE601A 		vmov.f32	s2, s1
 748 0024 9FED4A0A 		vldr.32	s0, .L48+16
 749 0028 30EE670A 		vsub.f32	s0, s0, s15
 750 002c FFF7FEFF 		bl	Control_StrCalculator
 751              	.LVL29:
 186:Src/motion.c  ****     Control_AngCalculator(0, 0, 0, 0, 1, 0);
 752              		.loc 1 186 0
 753 0030 F0EE482A 		vmov.f32	s5, s16
 754 0034 B7EE002A 		vmov.f32	s4, #1.0e+0
 755 0038 F0EE481A 		vmov.f32	s3, s16
 756 003c B0EE481A 		vmov.f32	s2, s16
 757 0040 F0EE480A 		vmov.f32	s1, s16
 758 0044 B0EE480A 		vmov.f32	s0, s16
 759 0048 FFF7FEFF 		bl	Control_AngCalculator
 760              	.LVL30:
 187:Src/motion.c  ****     motion_end_flag = FALSE;
 761              		.loc 1 187 0
 762 004c 414B     		ldr	r3, .L48+20
 763 004e 0022     		movs	r2, #0
 764 0050 1A70     		strb	r2, [r3]
 765              	.L44:
 188:Src/motion.c  ****     while (motion_end_flag == FALSE)
 766              		.loc 1 188 0 discriminator 1
 767 0052 404B     		ldr	r3, .L48+20
 768 0054 1B78     		ldrb	r3, [r3]	@ zero_extendqisi2
 769 0056 002B     		cmp	r3, #0
 770 0058 FBD0     		beq	.L44
 189:Src/motion.c  ****     {
 190:Src/motion.c  ****     }
 191:Src/motion.c  ****     straight.v_now = 0.0f;
 771              		.loc 1 191 0
 772 005a 9FED3A8A 		vldr.32	s16, .L48+4
 773 005e 3E4B     		ldr	r3, .L48+24
 774 0060 83ED038A 		vstr.32	s16, [r3, #12]
 192:Src/motion.c  ****     angle.v_now = 0.0f;
 775              		.loc 1 192 0
 776 0064 3D4B     		ldr	r3, .L48+28
 777 0066 83ED038A 		vstr.32	s16, [r3, #12]
 193:Src/motion.c  ****     error_ang_sum = 0.0f;
 778              		.loc 1 193 0
 779 006a 3D4B     		ldr	r3, .L48+32
 780 006c 83ED008A 		vstr.32	s16, [r3]
 194:Src/motion.c  ****     error_ang_old = 0.0f;
 781              		.loc 1 194 0
 782 0070 3C4B     		ldr	r3, .L48+36
 783 0072 83ED008A 		vstr.32	s16, [r3]
ARM GAS  C:\Users\kotaro\AppData\Local\Temp\ccSv5CWQ.s 			page 18


 195:Src/motion.c  ****     HAL_Delay(500);
 784              		.loc 1 195 0
 785 0076 4FF4FA70 		mov	r0, #500
 786 007a FFF7FEFF 		bl	HAL_Delay
 787              	.LVL31:
 196:Src/motion.c  ****     Control_StrCalculator(0, 0, 0, 0, 1, 0);
 788              		.loc 1 196 0
 789 007e F0EE482A 		vmov.f32	s5, s16
 790 0082 B7EE002A 		vmov.f32	s4, #1.0e+0
 791 0086 F0EE481A 		vmov.f32	s3, s16
 792 008a B0EE481A 		vmov.f32	s2, s16
 793 008e F0EE480A 		vmov.f32	s1, s16
 794 0092 B0EE480A 		vmov.f32	s0, s16
 795 0096 FFF7FEFF 		bl	Control_StrCalculator
 796              	.LVL32:
 197:Src/motion.c  ****     Control_AngCalculator(185.0f, 0.0f, VELO_ANG_S, 0.0f, ACCEL_ANG_S, 1);
 797              		.loc 1 197 0
 798 009a F7EE002A 		vmov.f32	s5, #1.0e+0
 799 009e 9FED322A 		vldr.32	s4, .L48+40
 800 00a2 F0EE481A 		vmov.f32	s3, s16
 801 00a6 9FED281A 		vldr.32	s2, .L48+8
 802 00aa F0EE480A 		vmov.f32	s1, s16
 803 00ae 9FED2F0A 		vldr.32	s0, .L48+44
 804 00b2 FFF7FEFF 		bl	Control_AngCalculator
 805              	.LVL33:
 198:Src/motion.c  ****     motion_end_flag = FALSE;
 806              		.loc 1 198 0
 807 00b6 274B     		ldr	r3, .L48+20
 808 00b8 0022     		movs	r2, #0
 809 00ba 1A70     		strb	r2, [r3]
 810              	.L45:
 199:Src/motion.c  ****     while (motion_end_flag == FALSE)
 811              		.loc 1 199 0 discriminator 1
 812 00bc 254B     		ldr	r3, .L48+20
 813 00be 1B78     		ldrb	r3, [r3]	@ zero_extendqisi2
 814 00c0 002B     		cmp	r3, #0
 815 00c2 FBD0     		beq	.L45
 200:Src/motion.c  ****     {
 201:Src/motion.c  ****     }
 202:Src/motion.c  ****     straight.v_now = 0.0f;
 816              		.loc 1 202 0
 817 00c4 9FED1F8A 		vldr.32	s16, .L48+4
 818 00c8 234B     		ldr	r3, .L48+24
 819 00ca 83ED038A 		vstr.32	s16, [r3, #12]
 203:Src/motion.c  ****     angle.v_now = 0.0f;
 820              		.loc 1 203 0
 821 00ce 234B     		ldr	r3, .L48+28
 822 00d0 83ED038A 		vstr.32	s16, [r3, #12]
 204:Src/motion.c  ****     error_ang_sum = 0.0f;
 823              		.loc 1 204 0
 824 00d4 224B     		ldr	r3, .L48+32
 825 00d6 83ED008A 		vstr.32	s16, [r3]
 205:Src/motion.c  ****     error_ang_old = 0.0f;
 826              		.loc 1 205 0
 827 00da 224B     		ldr	r3, .L48+36
 828 00dc 83ED008A 		vstr.32	s16, [r3]
 206:Src/motion.c  ****     HAL_Delay(800);
ARM GAS  C:\Users\kotaro\AppData\Local\Temp\ccSv5CWQ.s 			page 19


 829              		.loc 1 206 0
 830 00e0 4FF44870 		mov	r0, #800
 831 00e4 FFF7FEFF 		bl	HAL_Delay
 832              	.LVL34:
 207:Src/motion.c  ****     Control_StrCalculator(90.0f, 0, VELO_S, VELO_S, ACCEL_S, 1);
 833              		.loc 1 207 0
 834 00e8 9FED171A 		vldr.32	s2, .L48+8
 835 00ec F7EE002A 		vmov.f32	s5, #1.0e+0
 836 00f0 9FED162A 		vldr.32	s4, .L48+12
 837 00f4 F0EE411A 		vmov.f32	s3, s2
 838 00f8 F0EE480A 		vmov.f32	s1, s16
 839 00fc 9FED140A 		vldr.32	s0, .L48+16
 840 0100 FFF7FEFF 		bl	Control_StrCalculator
 841              	.LVL35:
 208:Src/motion.c  ****     Control_AngCalculator(0, 0, 0, 0, 1, 0);
 842              		.loc 1 208 0
 843 0104 F0EE482A 		vmov.f32	s5, s16
 844 0108 B7EE002A 		vmov.f32	s4, #1.0e+0
 845 010c F0EE481A 		vmov.f32	s3, s16
 846 0110 B0EE481A 		vmov.f32	s2, s16
 847 0114 F0EE480A 		vmov.f32	s1, s16
 848 0118 B0EE480A 		vmov.f32	s0, s16
 849 011c FFF7FEFF 		bl	Control_AngCalculator
 850              	.LVL36:
 209:Src/motion.c  ****     motion_end_flag = FALSE;
 851              		.loc 1 209 0
 852 0120 0C4B     		ldr	r3, .L48+20
 853 0122 0022     		movs	r2, #0
 854 0124 1A70     		strb	r2, [r3]
 855              	.L46:
 210:Src/motion.c  ****     while (motion_end_flag == FALSE)
 856              		.loc 1 210 0 discriminator 1
 857 0126 0B4B     		ldr	r3, .L48+20
 858 0128 1B78     		ldrb	r3, [r3]	@ zero_extendqisi2
 859 012a 002B     		cmp	r3, #0
 860 012c FBD0     		beq	.L46
 211:Src/motion.c  ****     {
 212:Src/motion.c  ****     }
 213:Src/motion.c  ****     enc.offset = 0;
 861              		.loc 1 213 0
 862 012e 044B     		ldr	r3, .L48
 863 0130 0022     		movs	r2, #0
 864 0132 9A60     		str	r2, [r3, #8]	@ float
 214:Src/motion.c  ****     prefront_flag = TRUE;
 865              		.loc 1 214 0
 866 0134 0E4B     		ldr	r3, .L48+48
 867 0136 0122     		movs	r2, #1
 868 0138 1A80     		strh	r2, [r3]	@ movhi
 215:Src/motion.c  **** }
 869              		.loc 1 215 0
 870 013a BDEC028B 		vldm	sp!, {d8}
 871              	.LCFI17:
 872              		.cfi_restore 80
 873              		.cfi_restore 81
 874              		.cfi_def_cfa_offset 8
 875 013e 08BD     		pop	{r3, pc}
 876              	.L49:
ARM GAS  C:\Users\kotaro\AppData\Local\Temp\ccSv5CWQ.s 			page 20


 877              		.align	2
 878              	.L48:
 879 0140 00000000 		.word	enc
 880 0144 00000000 		.word	0
 881 0148 0000C843 		.word	1137180672
 882 014c 00007A45 		.word	1165623296
 883 0150 0000B442 		.word	1119092736
 884 0154 00000000 		.word	motion_end_flag
 885 0158 00000000 		.word	straight
 886 015c 00000000 		.word	angle
 887 0160 00000000 		.word	error_ang_sum
 888 0164 00000000 		.word	error_ang_old
 889 0168 0000FA45 		.word	1174011904
 890 016c 00003943 		.word	1127809024
 891 0170 00000000 		.word	.LANCHOR1
 892              		.cfi_endproc
 893              	.LFE166:
 895              		.section	.text.Motion_WallSpinTurn,"ax",%progbits
 896              		.align	1
 897              		.global	Motion_WallSpinTurn
 898              		.syntax unified
 899              		.thumb
 900              		.thumb_func
 901              		.fpu fpv4-sp-d16
 903              	Motion_WallSpinTurn:
 904              	.LFB167:
 216:Src/motion.c  **** 
 217:Src/motion.c  **** void Motion_WallSpinTurn(void)
 218:Src/motion.c  **** {
 905              		.loc 1 218 0
 906              		.cfi_startproc
 907              		@ args = 0, pretend = 0, frame = 0
 908              		@ frame_needed = 0, uses_anonymous_args = 0
 909 0000 08B5     		push	{r3, lr}
 910              	.LCFI18:
 911              		.cfi_def_cfa_offset 8
 912              		.cfi_offset 3, -8
 913              		.cfi_offset 14, -4
 914 0002 2DED028B 		vpush.64	{d8}
 915              	.LCFI19:
 916              		.cfi_def_cfa_offset 16
 917              		.cfi_offset 80, -16
 918              		.cfi_offset 81, -12
 219:Src/motion.c  ****     Control_StrCalculator(90.0f - enc.offset, VELO_S, VELO_S, 0, ACCEL_S, 1);
 919              		.loc 1 219 0
 920 0006 734B     		ldr	r3, .L57
 921 0008 D3ED027A 		vldr.32	s15, [r3, #8]
 922 000c 9FED728A 		vldr.32	s16, .L57+4
 923 0010 DFED720A 		vldr.32	s1, .L57+8
 924 0014 F7EE002A 		vmov.f32	s5, #1.0e+0
 925 0018 9FED712A 		vldr.32	s4, .L57+12
 926 001c F0EE481A 		vmov.f32	s3, s16
 927 0020 B0EE601A 		vmov.f32	s2, s1
 928 0024 9FED6F0A 		vldr.32	s0, .L57+16
 929 0028 30EE670A 		vsub.f32	s0, s0, s15
 930 002c FFF7FEFF 		bl	Control_StrCalculator
 931              	.LVL37:
ARM GAS  C:\Users\kotaro\AppData\Local\Temp\ccSv5CWQ.s 			page 21


 220:Src/motion.c  ****     Control_AngCalculator(0, 0, 0, 0, 1, 0);
 932              		.loc 1 220 0
 933 0030 F0EE482A 		vmov.f32	s5, s16
 934 0034 B7EE002A 		vmov.f32	s4, #1.0e+0
 935 0038 F0EE481A 		vmov.f32	s3, s16
 936 003c B0EE481A 		vmov.f32	s2, s16
 937 0040 F0EE480A 		vmov.f32	s1, s16
 938 0044 B0EE480A 		vmov.f32	s0, s16
 939 0048 FFF7FEFF 		bl	Control_AngCalculator
 940              	.LVL38:
 221:Src/motion.c  ****     motion_end_flag = FALSE;
 941              		.loc 1 221 0
 942 004c 664B     		ldr	r3, .L57+20
 943 004e 0022     		movs	r2, #0
 944 0050 1A70     		strb	r2, [r3]
 945              	.L51:
 222:Src/motion.c  ****     while (motion_end_flag == FALSE)
 946              		.loc 1 222 0 discriminator 1
 947 0052 654B     		ldr	r3, .L57+20
 948 0054 1B78     		ldrb	r3, [r3]	@ zero_extendqisi2
 949 0056 002B     		cmp	r3, #0
 950 0058 FBD0     		beq	.L51
 223:Src/motion.c  ****     {
 224:Src/motion.c  ****     }
 225:Src/motion.c  **** 
 226:Src/motion.c  ****     straight.v_now = 0;
 951              		.loc 1 226 0
 952 005a 0023     		movs	r3, #0
 953 005c 634A     		ldr	r2, .L57+24
 954 005e D360     		str	r3, [r2, #12]	@ float
 227:Src/motion.c  ****     angle.v_now = 0;
 955              		.loc 1 227 0
 956 0060 634A     		ldr	r2, .L57+28
 957 0062 D360     		str	r3, [r2, #12]	@ float
 228:Src/motion.c  ****     error_ang_sum = 0.0f;
 958              		.loc 1 228 0
 959 0064 634A     		ldr	r2, .L57+32
 960 0066 1360     		str	r3, [r2]	@ float
 229:Src/motion.c  ****     error_ang_old = 0.0f;
 961              		.loc 1 229 0
 962 0068 634A     		ldr	r2, .L57+36
 963 006a 1360     		str	r3, [r2]	@ float
 230:Src/motion.c  ****     HAL_Delay(500);
 964              		.loc 1 230 0
 965 006c 4FF4FA70 		mov	r0, #500
 966 0070 FFF7FEFF 		bl	HAL_Delay
 967              	.LVL39:
 231:Src/motion.c  **** 
 232:Src/motion.c  ****     front_wall_flag = TRUE;
 968              		.loc 1 232 0
 969 0074 614B     		ldr	r3, .L57+40
 970 0076 0122     		movs	r2, #1
 971 0078 1A70     		strb	r2, [r3]
 972              	.L52:
 233:Src/motion.c  ****     while (front_wall_flag == TRUE)
 973              		.loc 1 233 0 discriminator 1
 974 007a 604B     		ldr	r3, .L57+40
ARM GAS  C:\Users\kotaro\AppData\Local\Temp\ccSv5CWQ.s 			page 22


 975 007c 1B78     		ldrb	r3, [r3]	@ zero_extendqisi2
 976 007e DBB2     		uxtb	r3, r3
 977 0080 012B     		cmp	r3, #1
 978 0082 FAD0     		beq	.L52
 234:Src/motion.c  ****     {
 235:Src/motion.c  ****     }
 236:Src/motion.c  **** 
 237:Src/motion.c  ****     straight.v_now = 0;
 979              		.loc 1 237 0
 980 0084 9FED548A 		vldr.32	s16, .L57+4
 981 0088 584B     		ldr	r3, .L57+24
 982 008a 83ED038A 		vstr.32	s16, [r3, #12]
 238:Src/motion.c  ****     angle.v_now = 0;
 983              		.loc 1 238 0
 984 008e 584B     		ldr	r3, .L57+28
 985 0090 83ED038A 		vstr.32	s16, [r3, #12]
 239:Src/motion.c  ****     error_ang_sum = 0.0f;
 986              		.loc 1 239 0
 987 0094 574B     		ldr	r3, .L57+32
 988 0096 83ED008A 		vstr.32	s16, [r3]
 240:Src/motion.c  ****     error_ang_old = 0.0f;
 989              		.loc 1 240 0
 990 009a 574B     		ldr	r3, .L57+36
 991 009c 83ED008A 		vstr.32	s16, [r3]
 241:Src/motion.c  ****     HAL_Delay(500);
 992              		.loc 1 241 0
 993 00a0 4FF4FA70 		mov	r0, #500
 994 00a4 FFF7FEFF 		bl	HAL_Delay
 995              	.LVL40:
 242:Src/motion.c  **** 
 243:Src/motion.c  ****     Control_StrCalculator(0, 0, 0, 0, 1, 0);
 996              		.loc 1 243 0
 997 00a8 F0EE482A 		vmov.f32	s5, s16
 998 00ac B7EE002A 		vmov.f32	s4, #1.0e+0
 999 00b0 F0EE481A 		vmov.f32	s3, s16
 1000 00b4 B0EE481A 		vmov.f32	s2, s16
 1001 00b8 F0EE480A 		vmov.f32	s1, s16
 1002 00bc B0EE480A 		vmov.f32	s0, s16
 1003 00c0 FFF7FEFF 		bl	Control_StrCalculator
 1004              	.LVL41:
 244:Src/motion.c  ****     Control_AngCalculator(185.0f, 0.0f, VELO_ANG_S, 0.0f, ACCEL_ANG_S, 1);
 1005              		.loc 1 244 0
 1006 00c4 F7EE002A 		vmov.f32	s5, #1.0e+0
 1007 00c8 9FED4D2A 		vldr.32	s4, .L57+44
 1008 00cc F0EE481A 		vmov.f32	s3, s16
 1009 00d0 9FED421A 		vldr.32	s2, .L57+8
 1010 00d4 F0EE480A 		vmov.f32	s1, s16
 1011 00d8 9FED4A0A 		vldr.32	s0, .L57+48
 1012 00dc FFF7FEFF 		bl	Control_AngCalculator
 1013              	.LVL42:
 245:Src/motion.c  ****     motion_end_flag = FALSE;
 1014              		.loc 1 245 0
 1015 00e0 414B     		ldr	r3, .L57+20
 1016 00e2 0022     		movs	r2, #0
 1017 00e4 1A70     		strb	r2, [r3]
 1018              	.L53:
 246:Src/motion.c  ****     while (motion_end_flag == FALSE)
ARM GAS  C:\Users\kotaro\AppData\Local\Temp\ccSv5CWQ.s 			page 23


 1019              		.loc 1 246 0 discriminator 1
 1020 00e6 404B     		ldr	r3, .L57+20
 1021 00e8 1B78     		ldrb	r3, [r3]	@ zero_extendqisi2
 1022 00ea 002B     		cmp	r3, #0
 1023 00ec FBD0     		beq	.L53
 247:Src/motion.c  ****     {
 248:Src/motion.c  ****     }
 249:Src/motion.c  ****     straight.v_now = 0;
 1024              		.loc 1 249 0
 1025 00ee 9FED3A8A 		vldr.32	s16, .L57+4
 1026 00f2 3E4B     		ldr	r3, .L57+24
 1027 00f4 83ED038A 		vstr.32	s16, [r3, #12]
 250:Src/motion.c  ****     angle.v_now = 0;
 1028              		.loc 1 250 0
 1029 00f8 3D4B     		ldr	r3, .L57+28
 1030 00fa 83ED038A 		vstr.32	s16, [r3, #12]
 251:Src/motion.c  ****     error_ang_sum = 0.0f;
 1031              		.loc 1 251 0
 1032 00fe 3D4B     		ldr	r3, .L57+32
 1033 0100 83ED008A 		vstr.32	s16, [r3]
 252:Src/motion.c  ****     error_ang_old = 0.0f;
 1034              		.loc 1 252 0
 1035 0104 3C4B     		ldr	r3, .L57+36
 1036 0106 83ED008A 		vstr.32	s16, [r3]
 253:Src/motion.c  ****     HAL_Delay(800);
 1037              		.loc 1 253 0
 1038 010a 4FF44870 		mov	r0, #800
 1039 010e FFF7FEFF 		bl	HAL_Delay
 1040              	.LVL43:
 254:Src/motion.c  **** 
 255:Src/motion.c  ****     Control_StrCalculator(55.0f, 0, 100, 0, 1000, -1);
 1041              		.loc 1 255 0
 1042 0112 FFEE002A 		vmov.f32	s5, #-1.0e+0
 1043 0116 9FED3C2A 		vldr.32	s4, .L57+52
 1044 011a F0EE481A 		vmov.f32	s3, s16
 1045 011e 9FED3B1A 		vldr.32	s2, .L57+56
 1046 0122 F0EE480A 		vmov.f32	s1, s16
 1047 0126 9FED3A0A 		vldr.32	s0, .L57+60
 1048 012a FFF7FEFF 		bl	Control_StrCalculator
 1049              	.LVL44:
 256:Src/motion.c  ****     Control_AngCalculator(0, 0, 0, 0, 1, 0);
 1050              		.loc 1 256 0
 1051 012e F0EE482A 		vmov.f32	s5, s16
 1052 0132 B7EE002A 		vmov.f32	s4, #1.0e+0
 1053 0136 F0EE481A 		vmov.f32	s3, s16
 1054 013a B0EE481A 		vmov.f32	s2, s16
 1055 013e F0EE480A 		vmov.f32	s1, s16
 1056 0142 B0EE480A 		vmov.f32	s0, s16
 1057 0146 FFF7FEFF 		bl	Control_AngCalculator
 1058              	.LVL45:
 257:Src/motion.c  ****     motion_end_flag = FALSE;
 1059              		.loc 1 257 0
 1060 014a 274B     		ldr	r3, .L57+20
 1061 014c 0022     		movs	r2, #0
 1062 014e 1A70     		strb	r2, [r3]
 1063              	.L54:
 258:Src/motion.c  ****     while (motion_end_flag == FALSE)
ARM GAS  C:\Users\kotaro\AppData\Local\Temp\ccSv5CWQ.s 			page 24


 1064              		.loc 1 258 0 discriminator 1
 1065 0150 254B     		ldr	r3, .L57+20
 1066 0152 1B78     		ldrb	r3, [r3]	@ zero_extendqisi2
 1067 0154 002B     		cmp	r3, #0
 1068 0156 FBD0     		beq	.L54
 259:Src/motion.c  ****     {
 260:Src/motion.c  ****     }
 261:Src/motion.c  ****     straight.v_now = 0;
 1069              		.loc 1 261 0
 1070 0158 9FED1F8A 		vldr.32	s16, .L57+4
 1071 015c 234B     		ldr	r3, .L57+24
 1072 015e 83ED038A 		vstr.32	s16, [r3, #12]
 262:Src/motion.c  ****     angle.v_now = 0;
 1073              		.loc 1 262 0
 1074 0162 234B     		ldr	r3, .L57+28
 1075 0164 83ED038A 		vstr.32	s16, [r3, #12]
 263:Src/motion.c  ****     error_ang_sum = 0.0f;
 1076              		.loc 1 263 0
 1077 0168 224B     		ldr	r3, .L57+32
 1078 016a 83ED008A 		vstr.32	s16, [r3]
 264:Src/motion.c  ****     error_ang_old = 0.0f;
 1079              		.loc 1 264 0
 1080 016e 224B     		ldr	r3, .L57+36
 1081 0170 83ED008A 		vstr.32	s16, [r3]
 265:Src/motion.c  ****     HAL_Delay(500);
 1082              		.loc 1 265 0
 1083 0174 4FF4FA70 		mov	r0, #500
 1084 0178 FFF7FEFF 		bl	HAL_Delay
 1085              	.LVL46:
 266:Src/motion.c  **** 
 267:Src/motion.c  ****     Control_StrCalculator(130.0f, 0, VELO_S, VELO_S, ACCEL_S, 1);
 1086              		.loc 1 267 0
 1087 017c 9FED171A 		vldr.32	s2, .L57+8
 1088 0180 F7EE002A 		vmov.f32	s5, #1.0e+0
 1089 0184 9FED162A 		vldr.32	s4, .L57+12
 1090 0188 F0EE411A 		vmov.f32	s3, s2
 1091 018c F0EE480A 		vmov.f32	s1, s16
 1092 0190 9FED200A 		vldr.32	s0, .L57+64
 1093 0194 FFF7FEFF 		bl	Control_StrCalculator
 1094              	.LVL47:
 268:Src/motion.c  ****     Control_AngCalculator(0, 0, 0, 0, 1, 0);
 1095              		.loc 1 268 0
 1096 0198 F0EE482A 		vmov.f32	s5, s16
 1097 019c B7EE002A 		vmov.f32	s4, #1.0e+0
 1098 01a0 F0EE481A 		vmov.f32	s3, s16
 1099 01a4 B0EE481A 		vmov.f32	s2, s16
 1100 01a8 F0EE480A 		vmov.f32	s1, s16
 1101 01ac B0EE480A 		vmov.f32	s0, s16
 1102 01b0 FFF7FEFF 		bl	Control_AngCalculator
 1103              	.LVL48:
 269:Src/motion.c  ****     motion_end_flag = FALSE;
 1104              		.loc 1 269 0
 1105 01b4 0C4B     		ldr	r3, .L57+20
 1106 01b6 0022     		movs	r2, #0
 1107 01b8 1A70     		strb	r2, [r3]
 1108              	.L55:
 270:Src/motion.c  ****     while (motion_end_flag == FALSE)
ARM GAS  C:\Users\kotaro\AppData\Local\Temp\ccSv5CWQ.s 			page 25


 1109              		.loc 1 270 0 discriminator 1
 1110 01ba 0B4B     		ldr	r3, .L57+20
 1111 01bc 1B78     		ldrb	r3, [r3]	@ zero_extendqisi2
 1112 01be 002B     		cmp	r3, #0
 1113 01c0 FBD0     		beq	.L55
 271:Src/motion.c  ****     {
 272:Src/motion.c  ****     }
 273:Src/motion.c  ****     enc.offset = 0.0f;
 1114              		.loc 1 273 0
 1115 01c2 044B     		ldr	r3, .L57
 1116 01c4 0022     		movs	r2, #0
 1117 01c6 9A60     		str	r2, [r3, #8]	@ float
 274:Src/motion.c  ****     prefront_flag = TRUE;
 1118              		.loc 1 274 0
 1119 01c8 134B     		ldr	r3, .L57+68
 1120 01ca 0122     		movs	r2, #1
 1121 01cc 1A80     		strh	r2, [r3]	@ movhi
 275:Src/motion.c  **** }
 1122              		.loc 1 275 0
 1123 01ce BDEC028B 		vldm	sp!, {d8}
 1124              	.LCFI20:
 1125              		.cfi_restore 80
 1126              		.cfi_restore 81
 1127              		.cfi_def_cfa_offset 8
 1128 01d2 08BD     		pop	{r3, pc}
 1129              	.L58:
 1130              		.align	2
 1131              	.L57:
 1132 01d4 00000000 		.word	enc
 1133 01d8 00000000 		.word	0
 1134 01dc 0000C843 		.word	1137180672
 1135 01e0 00007A45 		.word	1165623296
 1136 01e4 0000B442 		.word	1119092736
 1137 01e8 00000000 		.word	motion_end_flag
 1138 01ec 00000000 		.word	straight
 1139 01f0 00000000 		.word	angle
 1140 01f4 00000000 		.word	error_ang_sum
 1141 01f8 00000000 		.word	error_ang_old
 1142 01fc 00000000 		.word	front_wall_flag
 1143 0200 0000FA45 		.word	1174011904
 1144 0204 00003943 		.word	1127809024
 1145 0208 00007A44 		.word	1148846080
 1146 020c 0000C842 		.word	1120403456
 1147 0210 00005C42 		.word	1113325568
 1148 0214 00000243 		.word	1124204544
 1149 0218 00000000 		.word	.LANCHOR1
 1150              		.cfi_endproc
 1151              	.LFE167:
 1153              		.section	.text.Motion_LeftTurn,"ax",%progbits
 1154              		.align	1
 1155              		.global	Motion_LeftTurn
 1156              		.syntax unified
 1157              		.thumb
 1158              		.thumb_func
 1159              		.fpu fpv4-sp-d16
 1161              	Motion_LeftTurn:
 1162              	.LFB168:
ARM GAS  C:\Users\kotaro\AppData\Local\Temp\ccSv5CWQ.s 			page 26


 276:Src/motion.c  **** 
 277:Src/motion.c  **** void Motion_LeftTurn(void)
 278:Src/motion.c  **** {
 1163              		.loc 1 278 0
 1164              		.cfi_startproc
 1165              		@ args = 0, pretend = 0, frame = 0
 1166              		@ frame_needed = 0, uses_anonymous_args = 0
 1167 0000 08B5     		push	{r3, lr}
 1168              	.LCFI21:
 1169              		.cfi_def_cfa_offset 8
 1170              		.cfi_offset 3, -8
 1171              		.cfi_offset 14, -4
 279:Src/motion.c  ****     //offset in
 280:Src/motion.c  ****     if (sen_front.is_wall == TRUE)
 1172              		.loc 1 280 0
 1173 0002 3F4B     		ldr	r3, .L67
 1174 0004 1B7F     		ldrb	r3, [r3, #28]	@ zero_extendqisi2
 1175 0006 012B     		cmp	r3, #1
 1176 0008 51D1     		bne	.L60
 1177              	.L61:
 281:Src/motion.c  ****     {
 282:Src/motion.c  ****         while (sen_front.now < OFFSET_SEN)
 1178              		.loc 1 282 0 discriminator 1
 1179 000a 3D4B     		ldr	r3, .L67
 1180 000c B3F90030 		ldrsh	r3, [r3]
 1181 0010 862B     		cmp	r3, #134
 1182 0012 FADD     		ble	.L61
 1183              	.L62:
 283:Src/motion.c  ****             ;
 284:Src/motion.c  ****     }
 285:Src/motion.c  ****     else
 286:Src/motion.c  ****     {
 287:Src/motion.c  ****         Control_StrCalculator(36.0f - enc.offset, VELO_S, VELO_S, VELO_S, 1, 1);
 288:Src/motion.c  ****         Control_AngCalculator(0, 0, 0, 0, 1, 0);
 289:Src/motion.c  ****         motion_end_flag = FALSE;
 290:Src/motion.c  ****         while (motion_end_flag == FALSE)
 291:Src/motion.c  ****         {
 292:Src/motion.c  ****         }
 293:Src/motion.c  ****     }
 294:Src/motion.c  ****     //turn
 295:Src/motion.c  ****     Control_StrCalculator(180.0f, VELO_S, VELO_S, VELO_S, 1, 1);
 1184              		.loc 1 295 0
 1185 0014 DFED3B0A 		vldr.32	s1, .L67+4
 1186 0018 F7EE002A 		vmov.f32	s5, #1.0e+0
 1187 001c B0EE622A 		vmov.f32	s4, s5
 1188 0020 F0EE601A 		vmov.f32	s3, s1
 1189 0024 B0EE601A 		vmov.f32	s2, s1
 1190 0028 9FED370A 		vldr.32	s0, .L67+8
 1191 002c FFF7FEFF 		bl	Control_StrCalculator
 1192              	.LVL49:
 296:Src/motion.c  ****     Control_AngCalculator(90.88f, 0, VELO_ANG_S_SLALOM, 0, ACCEL_ANG_S_SLALOM, 1); //90.88f
 1193              		.loc 1 296 0
 1194 0030 DFED360A 		vldr.32	s1, .L67+12
 1195 0034 F7EE002A 		vmov.f32	s5, #1.0e+0
 1196 0038 9FED352A 		vldr.32	s4, .L67+16
 1197 003c F0EE601A 		vmov.f32	s3, s1
 1198 0040 9FED341A 		vldr.32	s2, .L67+20
ARM GAS  C:\Users\kotaro\AppData\Local\Temp\ccSv5CWQ.s 			page 27


 1199 0044 9FED340A 		vldr.32	s0, .L67+24
 1200 0048 FFF7FEFF 		bl	Control_AngCalculator
 1201              	.LVL50:
 297:Src/motion.c  ****     motion_end_flag = FALSE;
 1202              		.loc 1 297 0
 1203 004c 334B     		ldr	r3, .L67+28
 1204 004e 0022     		movs	r2, #0
 1205 0050 1A70     		strb	r2, [r3]
 1206              	.L64:
 298:Src/motion.c  ****     while (motion_end_flag == FALSE)
 1207              		.loc 1 298 0 discriminator 1
 1208 0052 324B     		ldr	r3, .L67+28
 1209 0054 1B78     		ldrb	r3, [r3]	@ zero_extendqisi2
 1210 0056 002B     		cmp	r3, #0
 1211 0058 FBD0     		beq	.L64
 299:Src/motion.c  ****     {
 300:Src/motion.c  ****     }
 301:Src/motion.c  ****     //offset out
 302:Src/motion.c  ****     Control_StrCalculator(42.0f, VELO_S, VELO_S, VELO_S, 1, 1);
 1212              		.loc 1 302 0
 1213 005a DFED2A0A 		vldr.32	s1, .L67+4
 1214 005e F7EE002A 		vmov.f32	s5, #1.0e+0
 1215 0062 B0EE622A 		vmov.f32	s4, s5
 1216 0066 F0EE601A 		vmov.f32	s3, s1
 1217 006a B0EE601A 		vmov.f32	s2, s1
 1218 006e 9FED2C0A 		vldr.32	s0, .L67+32
 1219 0072 FFF7FEFF 		bl	Control_StrCalculator
 1220              	.LVL51:
 303:Src/motion.c  ****     Control_AngCalculator(0, 0, 0, 0, 1, 0);
 1221              		.loc 1 303 0
 1222 0076 9FED250A 		vldr.32	s0, .L67+12
 1223 007a F0EE402A 		vmov.f32	s5, s0
 1224 007e B7EE002A 		vmov.f32	s4, #1.0e+0
 1225 0082 F0EE401A 		vmov.f32	s3, s0
 1226 0086 B0EE401A 		vmov.f32	s2, s0
 1227 008a F0EE400A 		vmov.f32	s1, s0
 1228 008e FFF7FEFF 		bl	Control_AngCalculator
 1229              	.LVL52:
 304:Src/motion.c  ****     motion_end_flag = FALSE;
 1230              		.loc 1 304 0
 1231 0092 224B     		ldr	r3, .L67+28
 1232 0094 0022     		movs	r2, #0
 1233 0096 1A70     		strb	r2, [r3]
 1234              	.L65:
 305:Src/motion.c  ****     while (motion_end_flag == FALSE)
 1235              		.loc 1 305 0 discriminator 1
 1236 0098 204B     		ldr	r3, .L67+28
 1237 009a 1B78     		ldrb	r3, [r3]	@ zero_extendqisi2
 1238 009c 002B     		cmp	r3, #0
 1239 009e FBD0     		beq	.L65
 306:Src/motion.c  ****     {
 307:Src/motion.c  ****     }
 308:Src/motion.c  ****     enc.offset = 0.0f;
 1240              		.loc 1 308 0
 1241 00a0 204B     		ldr	r3, .L67+36
 1242 00a2 0022     		movs	r2, #0
 1243 00a4 9A60     		str	r2, [r3, #8]	@ float
ARM GAS  C:\Users\kotaro\AppData\Local\Temp\ccSv5CWQ.s 			page 28


 309:Src/motion.c  ****     prefront_flag = FALSE;
 1244              		.loc 1 309 0
 1245 00a6 204B     		ldr	r3, .L67+40
 1246 00a8 0022     		movs	r2, #0
 1247 00aa 1A80     		strh	r2, [r3]	@ movhi
 310:Src/motion.c  **** }
 1248              		.loc 1 310 0
 1249 00ac 08BD     		pop	{r3, pc}
 1250              	.L60:
 287:Src/motion.c  ****         Control_AngCalculator(0, 0, 0, 0, 1, 0);
 1251              		.loc 1 287 0
 1252 00ae 1D4B     		ldr	r3, .L67+36
 1253 00b0 D3ED027A 		vldr.32	s15, [r3, #8]
 1254 00b4 DFED130A 		vldr.32	s1, .L67+4
 1255 00b8 F7EE002A 		vmov.f32	s5, #1.0e+0
 1256 00bc B0EE622A 		vmov.f32	s4, s5
 1257 00c0 F0EE601A 		vmov.f32	s3, s1
 1258 00c4 B0EE601A 		vmov.f32	s2, s1
 1259 00c8 9FED180A 		vldr.32	s0, .L67+44
 1260 00cc 30EE670A 		vsub.f32	s0, s0, s15
 1261 00d0 FFF7FEFF 		bl	Control_StrCalculator
 1262              	.LVL53:
 288:Src/motion.c  ****         motion_end_flag = FALSE;
 1263              		.loc 1 288 0
 1264 00d4 9FED0D0A 		vldr.32	s0, .L67+12
 1265 00d8 F0EE402A 		vmov.f32	s5, s0
 1266 00dc B7EE002A 		vmov.f32	s4, #1.0e+0
 1267 00e0 F0EE401A 		vmov.f32	s3, s0
 1268 00e4 B0EE401A 		vmov.f32	s2, s0
 1269 00e8 F0EE400A 		vmov.f32	s1, s0
 1270 00ec FFF7FEFF 		bl	Control_AngCalculator
 1271              	.LVL54:
 289:Src/motion.c  ****         while (motion_end_flag == FALSE)
 1272              		.loc 1 289 0
 1273 00f0 0A4B     		ldr	r3, .L67+28
 1274 00f2 0022     		movs	r2, #0
 1275 00f4 1A70     		strb	r2, [r3]
 1276              	.L63:
 290:Src/motion.c  ****         {
 1277              		.loc 1 290 0 discriminator 1
 1278 00f6 094B     		ldr	r3, .L67+28
 1279 00f8 1B78     		ldrb	r3, [r3]	@ zero_extendqisi2
 1280 00fa 002B     		cmp	r3, #0
 1281 00fc FBD0     		beq	.L63
 1282 00fe 89E7     		b	.L62
 1283              	.L68:
 1284              		.align	2
 1285              	.L67:
 1286 0100 00000000 		.word	sen_front
 1287 0104 0000C843 		.word	1137180672
 1288 0108 00003443 		.word	1127481344
 1289 010c 00000000 		.word	0
 1290 0110 00401C46 		.word	1176256512
 1291 0114 00001644 		.word	1142292480
 1292 0118 8FC2B542 		.word	1119208079
 1293 011c 00000000 		.word	motion_end_flag
 1294 0120 00002842 		.word	1109917696
ARM GAS  C:\Users\kotaro\AppData\Local\Temp\ccSv5CWQ.s 			page 29


 1295 0124 00000000 		.word	enc
 1296 0128 00000000 		.word	.LANCHOR1
 1297 012c 00001042 		.word	1108344832
 1298              		.cfi_endproc
 1299              	.LFE168:
 1301              		.section	.text.Motion_RightTurn,"ax",%progbits
 1302              		.align	1
 1303              		.global	Motion_RightTurn
 1304              		.syntax unified
 1305              		.thumb
 1306              		.thumb_func
 1307              		.fpu fpv4-sp-d16
 1309              	Motion_RightTurn:
 1310              	.LFB169:
 311:Src/motion.c  **** 
 312:Src/motion.c  **** void Motion_RightTurn(void)
 313:Src/motion.c  **** {
 1311              		.loc 1 313 0
 1312              		.cfi_startproc
 1313              		@ args = 0, pretend = 0, frame = 0
 1314              		@ frame_needed = 0, uses_anonymous_args = 0
 1315 0000 08B5     		push	{r3, lr}
 1316              	.LCFI22:
 1317              		.cfi_def_cfa_offset 8
 1318              		.cfi_offset 3, -8
 1319              		.cfi_offset 14, -4
 314:Src/motion.c  ****     //offset in
 315:Src/motion.c  ****     if (sen_front.is_wall == TRUE)
 1320              		.loc 1 315 0
 1321 0002 3F4B     		ldr	r3, .L77
 1322 0004 1B7F     		ldrb	r3, [r3, #28]	@ zero_extendqisi2
 1323 0006 012B     		cmp	r3, #1
 1324 0008 51D1     		bne	.L70
 1325              	.L71:
 316:Src/motion.c  ****     {
 317:Src/motion.c  ****         while (sen_front.now < OFFSET_SEN + 3)
 1326              		.loc 1 317 0 discriminator 1
 1327 000a 3D4B     		ldr	r3, .L77
 1328 000c B3F90030 		ldrsh	r3, [r3]
 1329 0010 892B     		cmp	r3, #137
 1330 0012 FADD     		ble	.L71
 1331              	.L72:
 318:Src/motion.c  ****             ;
 319:Src/motion.c  ****     }
 320:Src/motion.c  ****     else
 321:Src/motion.c  ****     {
 322:Src/motion.c  ****         Control_StrCalculator(38.0f - enc.offset, VELO_S, VELO_S, VELO_S, 1, 1);
 323:Src/motion.c  ****         Control_AngCalculator(0, 0, 0, 0, 1, 0);
 324:Src/motion.c  ****         motion_end_flag = FALSE;
 325:Src/motion.c  ****         while (motion_end_flag == FALSE)
 326:Src/motion.c  ****         {
 327:Src/motion.c  ****         }
 328:Src/motion.c  ****     }
 329:Src/motion.c  ****     //turn
 330:Src/motion.c  ****     Control_StrCalculator(180.0f, VELO_S, VELO_S, VELO_S, 1, 1);
 1332              		.loc 1 330 0
 1333 0014 DFED3B0A 		vldr.32	s1, .L77+4
ARM GAS  C:\Users\kotaro\AppData\Local\Temp\ccSv5CWQ.s 			page 30


 1334 0018 F7EE002A 		vmov.f32	s5, #1.0e+0
 1335 001c B0EE622A 		vmov.f32	s4, s5
 1336 0020 F0EE601A 		vmov.f32	s3, s1
 1337 0024 B0EE601A 		vmov.f32	s2, s1
 1338 0028 9FED370A 		vldr.32	s0, .L77+8
 1339 002c FFF7FEFF 		bl	Control_StrCalculator
 1340              	.LVL55:
 331:Src/motion.c  ****     Control_AngCalculator(91.0f, 0, VELO_ANG_S_SLALOM, 0, ACCEL_ANG_S_SLALOM, -1); //90.80f
 1341              		.loc 1 331 0
 1342 0030 DFED360A 		vldr.32	s1, .L77+12
 1343 0034 FFEE002A 		vmov.f32	s5, #-1.0e+0
 1344 0038 9FED352A 		vldr.32	s4, .L77+16
 1345 003c F0EE601A 		vmov.f32	s3, s1
 1346 0040 9FED341A 		vldr.32	s2, .L77+20
 1347 0044 9FED340A 		vldr.32	s0, .L77+24
 1348 0048 FFF7FEFF 		bl	Control_AngCalculator
 1349              	.LVL56:
 332:Src/motion.c  ****     motion_end_flag = FALSE;
 1350              		.loc 1 332 0
 1351 004c 334B     		ldr	r3, .L77+28
 1352 004e 0022     		movs	r2, #0
 1353 0050 1A70     		strb	r2, [r3]
 1354              	.L74:
 333:Src/motion.c  ****     while (motion_end_flag == FALSE)
 1355              		.loc 1 333 0 discriminator 1
 1356 0052 324B     		ldr	r3, .L77+28
 1357 0054 1B78     		ldrb	r3, [r3]	@ zero_extendqisi2
 1358 0056 002B     		cmp	r3, #0
 1359 0058 FBD0     		beq	.L74
 334:Src/motion.c  ****     {
 335:Src/motion.c  ****     }
 336:Src/motion.c  ****     //offset out
 337:Src/motion.c  ****     Control_StrCalculator(52.0f, VELO_S, VELO_S, VELO_S, 1, 1);
 1360              		.loc 1 337 0
 1361 005a DFED2A0A 		vldr.32	s1, .L77+4
 1362 005e F7EE002A 		vmov.f32	s5, #1.0e+0
 1363 0062 B0EE622A 		vmov.f32	s4, s5
 1364 0066 F0EE601A 		vmov.f32	s3, s1
 1365 006a B0EE601A 		vmov.f32	s2, s1
 1366 006e 9FED2C0A 		vldr.32	s0, .L77+32
 1367 0072 FFF7FEFF 		bl	Control_StrCalculator
 1368              	.LVL57:
 338:Src/motion.c  ****     Control_AngCalculator(0, 0, 0, 0, 1, 0);
 1369              		.loc 1 338 0
 1370 0076 9FED250A 		vldr.32	s0, .L77+12
 1371 007a F0EE402A 		vmov.f32	s5, s0
 1372 007e B7EE002A 		vmov.f32	s4, #1.0e+0
 1373 0082 F0EE401A 		vmov.f32	s3, s0
 1374 0086 B0EE401A 		vmov.f32	s2, s0
 1375 008a F0EE400A 		vmov.f32	s1, s0
 1376 008e FFF7FEFF 		bl	Control_AngCalculator
 1377              	.LVL58:
 339:Src/motion.c  ****     motion_end_flag = FALSE;
 1378              		.loc 1 339 0
 1379 0092 224B     		ldr	r3, .L77+28
 1380 0094 0022     		movs	r2, #0
 1381 0096 1A70     		strb	r2, [r3]
ARM GAS  C:\Users\kotaro\AppData\Local\Temp\ccSv5CWQ.s 			page 31


 1382              	.L75:
 340:Src/motion.c  ****     while (motion_end_flag == FALSE)
 1383              		.loc 1 340 0 discriminator 1
 1384 0098 204B     		ldr	r3, .L77+28
 1385 009a 1B78     		ldrb	r3, [r3]	@ zero_extendqisi2
 1386 009c 002B     		cmp	r3, #0
 1387 009e FBD0     		beq	.L75
 341:Src/motion.c  ****     {
 342:Src/motion.c  ****     }
 343:Src/motion.c  ****     enc.offset = 0.0f;
 1388              		.loc 1 343 0
 1389 00a0 204B     		ldr	r3, .L77+36
 1390 00a2 0022     		movs	r2, #0
 1391 00a4 9A60     		str	r2, [r3, #8]	@ float
 344:Src/motion.c  ****     prefront_flag = FALSE;
 1392              		.loc 1 344 0
 1393 00a6 204B     		ldr	r3, .L77+40
 1394 00a8 0022     		movs	r2, #0
 1395 00aa 1A80     		strh	r2, [r3]	@ movhi
 345:Src/motion.c  **** }
 1396              		.loc 1 345 0
 1397 00ac 08BD     		pop	{r3, pc}
 1398              	.L70:
 322:Src/motion.c  ****         Control_AngCalculator(0, 0, 0, 0, 1, 0);
 1399              		.loc 1 322 0
 1400 00ae 1D4B     		ldr	r3, .L77+36
 1401 00b0 D3ED027A 		vldr.32	s15, [r3, #8]
 1402 00b4 DFED130A 		vldr.32	s1, .L77+4
 1403 00b8 F7EE002A 		vmov.f32	s5, #1.0e+0
 1404 00bc B0EE622A 		vmov.f32	s4, s5
 1405 00c0 F0EE601A 		vmov.f32	s3, s1
 1406 00c4 B0EE601A 		vmov.f32	s2, s1
 1407 00c8 9FED180A 		vldr.32	s0, .L77+44
 1408 00cc 30EE670A 		vsub.f32	s0, s0, s15
 1409 00d0 FFF7FEFF 		bl	Control_StrCalculator
 1410              	.LVL59:
 323:Src/motion.c  ****         motion_end_flag = FALSE;
 1411              		.loc 1 323 0
 1412 00d4 9FED0D0A 		vldr.32	s0, .L77+12
 1413 00d8 F0EE402A 		vmov.f32	s5, s0
 1414 00dc B7EE002A 		vmov.f32	s4, #1.0e+0
 1415 00e0 F0EE401A 		vmov.f32	s3, s0
 1416 00e4 B0EE401A 		vmov.f32	s2, s0
 1417 00e8 F0EE400A 		vmov.f32	s1, s0
 1418 00ec FFF7FEFF 		bl	Control_AngCalculator
 1419              	.LVL60:
 324:Src/motion.c  ****         while (motion_end_flag == FALSE)
 1420              		.loc 1 324 0
 1421 00f0 0A4B     		ldr	r3, .L77+28
 1422 00f2 0022     		movs	r2, #0
 1423 00f4 1A70     		strb	r2, [r3]
 1424              	.L73:
 325:Src/motion.c  ****         {
 1425              		.loc 1 325 0 discriminator 1
 1426 00f6 094B     		ldr	r3, .L77+28
 1427 00f8 1B78     		ldrb	r3, [r3]	@ zero_extendqisi2
 1428 00fa 002B     		cmp	r3, #0
ARM GAS  C:\Users\kotaro\AppData\Local\Temp\ccSv5CWQ.s 			page 32


 1429 00fc FBD0     		beq	.L73
 1430 00fe 89E7     		b	.L72
 1431              	.L78:
 1432              		.align	2
 1433              	.L77:
 1434 0100 00000000 		.word	sen_front
 1435 0104 0000C843 		.word	1137180672
 1436 0108 00003443 		.word	1127481344
 1437 010c 00000000 		.word	0
 1438 0110 00401C46 		.word	1176256512
 1439 0114 00001644 		.word	1142292480
 1440 0118 0000B642 		.word	1119223808
 1441 011c 00000000 		.word	motion_end_flag
 1442 0120 00005042 		.word	1112539136
 1443 0124 00000000 		.word	enc
 1444 0128 00000000 		.word	.LANCHOR1
 1445 012c 00001842 		.word	1108869120
 1446              		.cfi_endproc
 1447              	.LFE169:
 1449              		.section	.text.Motion_Switch,"ax",%progbits
 1450              		.align	1
 1451              		.global	Motion_Switch
 1452              		.syntax unified
 1453              		.thumb
 1454              		.thumb_func
 1455              		.fpu fpv4-sp-d16
 1457              	Motion_Switch:
 1458              	.LFB170:
 346:Src/motion.c  **** 
 347:Src/motion.c  **** void Motion_Switch(uint8_t motion)
 348:Src/motion.c  **** {
 1459              		.loc 1 348 0
 1460              		.cfi_startproc
 1461              		@ args = 0, pretend = 0, frame = 0
 1462              		@ frame_needed = 0, uses_anonymous_args = 0
 1463              	.LVL61:
 1464 0000 08B5     		push	{r3, lr}
 1465              	.LCFI23:
 1466              		.cfi_def_cfa_offset 8
 1467              		.cfi_offset 3, -8
 1468              		.cfi_offset 14, -4
 349:Src/motion.c  ****     switch (motion)
 1469              		.loc 1 349 0
 1470 0002 0428     		cmp	r0, #4
 1471 0004 13D8     		bhi	.L80
 1472 0006 DFE800F0 		tbb	[pc, r0]
 1473              	.L82:
 1474 000a 03       		.byte	(.L81-.L82)/2
 1475 000b 09       		.byte	(.L83-.L82)/2
 1476 000c 06       		.byte	(.L84-.L82)/2
 1477 000d 0C       		.byte	(.L85-.L82)/2
 1478 000e 0F       		.byte	(.L86-.L82)/2
 1479 000f 00       		.p2align 1
 1480              	.L81:
 350:Src/motion.c  ****     {
 351:Src/motion.c  ****     case FRONT:
 352:Src/motion.c  ****         Motion_Straight();
ARM GAS  C:\Users\kotaro\AppData\Local\Temp\ccSv5CWQ.s 			page 33


 1481              		.loc 1 352 0
 1482 0010 FFF7FEFF 		bl	Motion_Straight
 1483              	.LVL62:
 1484              	.L79:
 353:Src/motion.c  ****         break;
 354:Src/motion.c  ****     case RIGHT:
 355:Src/motion.c  ****         Motion_RightTurn();
 356:Src/motion.c  ****         break;
 357:Src/motion.c  ****     case LEFT:
 358:Src/motion.c  ****         Motion_LeftTurn();
 359:Src/motion.c  ****         break;
 360:Src/motion.c  ****     case REAR:
 361:Src/motion.c  ****         Motion_SpinTurn();
 362:Src/motion.c  ****         break;
 363:Src/motion.c  ****     case PIVO_REAR:
 364:Src/motion.c  ****         Motion_WallSpinTurn();
 365:Src/motion.c  ****         break;
 366:Src/motion.c  ****     default:
 367:Src/motion.c  ****         motor_flag = FALSE;
 368:Src/motion.c  ****         break;
 369:Src/motion.c  ****     }
 370:Src/motion.c  **** }
 1485              		.loc 1 370 0
 1486 0014 08BD     		pop	{r3, pc}
 1487              	.LVL63:
 1488              	.L84:
 355:Src/motion.c  ****         break;
 1489              		.loc 1 355 0
 1490 0016 FFF7FEFF 		bl	Motion_RightTurn
 1491              	.LVL64:
 356:Src/motion.c  ****     case LEFT:
 1492              		.loc 1 356 0
 1493 001a FBE7     		b	.L79
 1494              	.LVL65:
 1495              	.L83:
 358:Src/motion.c  ****         break;
 1496              		.loc 1 358 0
 1497 001c FFF7FEFF 		bl	Motion_LeftTurn
 1498              	.LVL66:
 359:Src/motion.c  ****     case REAR:
 1499              		.loc 1 359 0
 1500 0020 F8E7     		b	.L79
 1501              	.LVL67:
 1502              	.L85:
 361:Src/motion.c  ****         break;
 1503              		.loc 1 361 0
 1504 0022 FFF7FEFF 		bl	Motion_SpinTurn
 1505              	.LVL68:
 362:Src/motion.c  ****     case PIVO_REAR:
 1506              		.loc 1 362 0
 1507 0026 F5E7     		b	.L79
 1508              	.LVL69:
 1509              	.L86:
 364:Src/motion.c  ****         break;
 1510              		.loc 1 364 0
 1511 0028 FFF7FEFF 		bl	Motion_WallSpinTurn
 1512              	.LVL70:
ARM GAS  C:\Users\kotaro\AppData\Local\Temp\ccSv5CWQ.s 			page 34


 365:Src/motion.c  ****     default:
 1513              		.loc 1 365 0
 1514 002c F2E7     		b	.L79
 1515              	.LVL71:
 1516              	.L80:
 367:Src/motion.c  ****         break;
 1517              		.loc 1 367 0
 1518 002e 024B     		ldr	r3, .L89
 1519 0030 0022     		movs	r2, #0
 1520 0032 1A70     		strb	r2, [r3]
 1521              		.loc 1 370 0
 1522 0034 EEE7     		b	.L79
 1523              	.L90:
 1524 0036 00BF     		.align	2
 1525              	.L89:
 1526 0038 00000000 		.word	motor_flag
 1527              		.cfi_endproc
 1528              	.LFE170:
 1530              		.section	.text.Motion_FastStart,"ax",%progbits
 1531              		.align	1
 1532              		.global	Motion_FastStart
 1533              		.syntax unified
 1534              		.thumb
 1535              		.thumb_func
 1536              		.fpu fpv4-sp-d16
 1538              	Motion_FastStart:
 1539              	.LFB171:
 371:Src/motion.c  **** 
 372:Src/motion.c  **** void Motion_FastStart(uint8_t step, float velo_end)
 373:Src/motion.c  **** {
 1540              		.loc 1 373 0
 1541              		.cfi_startproc
 1542              		@ args = 0, pretend = 0, frame = 0
 1543              		@ frame_needed = 0, uses_anonymous_args = 0
 1544              	.LVL72:
 1545 0000 10B5     		push	{r4, lr}
 1546              	.LCFI24:
 1547              		.cfi_def_cfa_offset 8
 1548              		.cfi_offset 4, -8
 1549              		.cfi_offset 14, -4
 1550 0002 2DED028B 		vpush.64	{d8}
 1551              	.LCFI25:
 1552              		.cfi_def_cfa_offset 16
 1553              		.cfi_offset 80, -16
 1554              		.cfi_offset 81, -12
 1555 0006 0446     		mov	r4, r0
 1556 0008 F0EE408A 		vmov.f32	s17, s0
 374:Src/motion.c  ****     diagonal_step = 90.0f * sqrt(2);
 1557              		.loc 1 374 0
 1558 000c 224B     		ldr	r3, .L94
 1559 000e 234A     		ldr	r2, .L94+4
 1560 0010 1A60     		str	r2, [r3]	@ float
 375:Src/motion.c  ****     Control_ResetVelo();
 1561              		.loc 1 375 0
 1562 0012 FFF7FEFF 		bl	Control_ResetVelo
 1563              	.LVL73:
 376:Src/motion.c  ****     float velo = VELO_F + gain_velo * (float)(step - 1);
ARM GAS  C:\Users\kotaro\AppData\Local\Temp\ccSv5CWQ.s 			page 35


 1564              		.loc 1 376 0
 1565 0016 631E     		subs	r3, r4, #1
 1566 0018 07EE103A 		vmov	s14, r3	@ int
 1567 001c B8EEC77A 		vcvt.f32.s32	s14, s14
 1568 0020 1F4B     		ldr	r3, .L94+8
 1569 0022 93ED001A 		vldr.32	s2, [r3]
 1570 0026 27EE017A 		vmul.f32	s14, s14, s2
 1571              	.LVL74:
 377:Src/motion.c  ****     Control_StrCalculator(40.0f + 90.0f * (float)step, 0.0f, velo, velo_end, ACCEL_F, 1);
 1572              		.loc 1 377 0
 1573 002a 07EE904A 		vmov	s15, r4	@ int
 1574 002e F8EE677A 		vcvt.f32.u32	s15, s15
 1575 0032 9FED1C0A 		vldr.32	s0, .L94+12
 1576 0036 67EE807A 		vmul.f32	s15, s15, s0
 1577 003a 9FED1B8A 		vldr.32	s16, .L94+16
 1578 003e F7EE002A 		vmov.f32	s5, #1.0e+0
 1579 0042 9FED1A2A 		vldr.32	s4, .L94+20
 1580 0046 F0EE681A 		vmov.f32	s3, s17
 1581 004a 9FED191A 		vldr.32	s2, .L94+24
 1582 004e 37EE011A 		vadd.f32	s2, s14, s2
 1583              	.LVL75:
 1584 0052 F0EE480A 		vmov.f32	s1, s16
 1585 0056 9FED170A 		vldr.32	s0, .L94+28
 1586 005a 37EE800A 		vadd.f32	s0, s15, s0
 1587 005e FFF7FEFF 		bl	Control_StrCalculator
 1588              	.LVL76:
 378:Src/motion.c  ****     Control_AngCalculator(0, 0, 0, 0, 1, 0);
 1589              		.loc 1 378 0
 1590 0062 F0EE482A 		vmov.f32	s5, s16
 1591 0066 B7EE002A 		vmov.f32	s4, #1.0e+0
 1592 006a F0EE481A 		vmov.f32	s3, s16
 1593 006e B0EE481A 		vmov.f32	s2, s16
 1594 0072 F0EE480A 		vmov.f32	s1, s16
 1595 0076 B0EE480A 		vmov.f32	s0, s16
 1596 007a FFF7FEFF 		bl	Control_AngCalculator
 1597              	.LVL77:
 379:Src/motion.c  ****     motion_end_flag = FALSE;
 1598              		.loc 1 379 0
 1599 007e 0E4B     		ldr	r3, .L94+32
 1600 0080 0022     		movs	r2, #0
 1601 0082 1A70     		strb	r2, [r3]
 1602              	.L92:
 380:Src/motion.c  ****     while (motion_end_flag == FALSE)
 1603              		.loc 1 380 0 discriminator 1
 1604 0084 0C4B     		ldr	r3, .L94+32
 1605 0086 1B78     		ldrb	r3, [r3]	@ zero_extendqisi2
 1606 0088 002B     		cmp	r3, #0
 1607 008a FBD0     		beq	.L92
 381:Src/motion.c  ****     {
 382:Src/motion.c  ****     }
 383:Src/motion.c  ****     enc.offset = 0.0f;
 1608              		.loc 1 383 0
 1609 008c 0B4B     		ldr	r3, .L94+36
 1610 008e 0022     		movs	r2, #0
 1611 0090 9A60     		str	r2, [r3, #8]	@ float
 384:Src/motion.c  **** }
 1612              		.loc 1 384 0
ARM GAS  C:\Users\kotaro\AppData\Local\Temp\ccSv5CWQ.s 			page 36


 1613 0092 BDEC028B 		vldm	sp!, {d8}
 1614              	.LCFI26:
 1615              		.cfi_restore 80
 1616              		.cfi_restore 81
 1617              		.cfi_def_cfa_offset 8
 1618 0096 10BD     		pop	{r4, pc}
 1619              	.L95:
 1620              		.align	2
 1621              	.L94:
 1622 0098 00000000 		.word	.LANCHOR2
 1623 009c F68EFE42 		.word	1123978998
 1624 00a0 00000000 		.word	.LANCHOR0
 1625 00a4 0000B442 		.word	1119092736
 1626 00a8 00000000 		.word	0
 1627 00ac 0000FA45 		.word	1174011904
 1628 00b0 00004844 		.word	1145569280
 1629 00b4 00002042 		.word	1109393408
 1630 00b8 00000000 		.word	motion_end_flag
 1631 00bc 00000000 		.word	enc
 1632              		.cfi_endproc
 1633              	.LFE171:
 1635              		.section	.text.Motion_FastStraight,"ax",%progbits
 1636              		.align	1
 1637              		.global	Motion_FastStraight
 1638              		.syntax unified
 1639              		.thumb
 1640              		.thumb_func
 1641              		.fpu fpv4-sp-d16
 1643              	Motion_FastStraight:
 1644              	.LFB172:
 385:Src/motion.c  **** 
 386:Src/motion.c  **** void Motion_FastStraight(uint8_t step, float v_start, float v_end)
 387:Src/motion.c  **** {
 1645              		.loc 1 387 0
 1646              		.cfi_startproc
 1647              		@ args = 0, pretend = 0, frame = 0
 1648              		@ frame_needed = 0, uses_anonymous_args = 0
 1649              	.LVL78:
 1650 0000 08B5     		push	{r3, lr}
 1651              	.LCFI27:
 1652              		.cfi_def_cfa_offset 8
 1653              		.cfi_offset 3, -8
 1654              		.cfi_offset 14, -4
 388:Src/motion.c  ****     float velo = VELO_F + gain_velo * (float)step;
 1655              		.loc 1 388 0
 1656 0002 07EE900A 		vmov	s15, r0	@ int
 1657 0006 F8EE677A 		vcvt.f32.u32	s15, s15
 1658 000a 1A4B     		ldr	r3, .L99
 1659 000c 93ED007A 		vldr.32	s14, [r3]
 1660 0010 27EE877A 		vmul.f32	s14, s15, s14
 1661              	.LVL79:
 389:Src/motion.c  ****     Control_StrCalculator(90.0f * (float)step - enc.offset, v_start, velo, v_end, ACCEL_F, 1);
 1662              		.loc 1 389 0
 1663 0014 DFED186A 		vldr.32	s13, .L99+4
 1664 0018 67EEA67A 		vmul.f32	s15, s15, s13
 1665 001c 174B     		ldr	r3, .L99+8
 1666 001e D3ED026A 		vldr.32	s13, [r3, #8]
ARM GAS  C:\Users\kotaro\AppData\Local\Temp\ccSv5CWQ.s 			page 37


 1667 0022 F7EE002A 		vmov.f32	s5, #1.0e+0
 1668 0026 9FED162A 		vldr.32	s4, .L99+12
 1669 002a F0EE601A 		vmov.f32	s3, s1
 1670 002e 9FED151A 		vldr.32	s2, .L99+16
 1671 0032 37EE011A 		vadd.f32	s2, s14, s2
 1672              	.LVL80:
 1673 0036 F0EE400A 		vmov.f32	s1, s0
 1674              	.LVL81:
 1675 003a 37EEE60A 		vsub.f32	s0, s15, s13
 1676              	.LVL82:
 1677 003e FFF7FEFF 		bl	Control_StrCalculator
 1678              	.LVL83:
 390:Src/motion.c  ****     Control_AngCalculator(0, 0, 0, 0, 1, 0);
 1679              		.loc 1 390 0
 1680 0042 9FED110A 		vldr.32	s0, .L99+20
 1681 0046 F0EE402A 		vmov.f32	s5, s0
 1682 004a B7EE002A 		vmov.f32	s4, #1.0e+0
 1683 004e F0EE401A 		vmov.f32	s3, s0
 1684 0052 B0EE401A 		vmov.f32	s2, s0
 1685 0056 F0EE400A 		vmov.f32	s1, s0
 1686 005a FFF7FEFF 		bl	Control_AngCalculator
 1687              	.LVL84:
 391:Src/motion.c  ****     motion_end_flag = FALSE;
 1688              		.loc 1 391 0
 1689 005e 0B4B     		ldr	r3, .L99+24
 1690 0060 0022     		movs	r2, #0
 1691 0062 1A70     		strb	r2, [r3]
 1692              	.L97:
 392:Src/motion.c  ****     while (motion_end_flag == FALSE)
 1693              		.loc 1 392 0 discriminator 1
 1694 0064 094B     		ldr	r3, .L99+24
 1695 0066 1B78     		ldrb	r3, [r3]	@ zero_extendqisi2
 1696 0068 002B     		cmp	r3, #0
 1697 006a FBD0     		beq	.L97
 393:Src/motion.c  ****     {
 394:Src/motion.c  ****     }
 395:Src/motion.c  ****     enc.offset = 0.0f;
 1698              		.loc 1 395 0
 1699 006c 034B     		ldr	r3, .L99+8
 1700 006e 0022     		movs	r2, #0
 1701 0070 9A60     		str	r2, [r3, #8]	@ float
 396:Src/motion.c  **** }
 1702              		.loc 1 396 0
 1703 0072 08BD     		pop	{r3, pc}
 1704              	.L100:
 1705              		.align	2
 1706              	.L99:
 1707 0074 00000000 		.word	.LANCHOR0
 1708 0078 0000B442 		.word	1119092736
 1709 007c 00000000 		.word	enc
 1710 0080 0000FA45 		.word	1174011904
 1711 0084 00004844 		.word	1145569280
 1712 0088 00000000 		.word	0
 1713 008c 00000000 		.word	motion_end_flag
 1714              		.cfi_endproc
 1715              	.LFE172:
 1717              		.section	.text.Motion_Adjust,"ax",%progbits
ARM GAS  C:\Users\kotaro\AppData\Local\Temp\ccSv5CWQ.s 			page 38


 1718              		.align	1
 1719              		.global	Motion_Adjust
 1720              		.syntax unified
 1721              		.thumb
 1722              		.thumb_func
 1723              		.fpu fpv4-sp-d16
 1725              	Motion_Adjust:
 1726              	.LFB173:
 397:Src/motion.c  **** 
 398:Src/motion.c  **** void Motion_Adjust(uint16_t step, float velo_s)
 399:Src/motion.c  **** {
 1727              		.loc 1 399 0
 1728              		.cfi_startproc
 1729              		@ args = 0, pretend = 0, frame = 0
 1730              		@ frame_needed = 0, uses_anonymous_args = 0
 1731              	.LVL85:
 1732 0000 08B5     		push	{r3, lr}
 1733              	.LCFI28:
 1734              		.cfi_def_cfa_offset 8
 1735              		.cfi_offset 3, -8
 1736              		.cfi_offset 14, -4
 1737 0002 2DED028B 		vpush.64	{d8}
 1738              	.LCFI29:
 1739              		.cfi_def_cfa_offset 16
 1740              		.cfi_offset 80, -16
 1741              		.cfi_offset 81, -12
 400:Src/motion.c  ****     if (step == 1)
 1742              		.loc 1 400 0
 1743 0006 0128     		cmp	r0, #1
 1744 0008 30D0     		beq	.L106
 401:Src/motion.c  ****     {
 402:Src/motion.c  ****         Control_EdgeSet(20);
 403:Src/motion.c  ****         Control_StrCalculator(110.0f - enc.offset, velo_s, VELO_F, VELO_F, ACCEL_F, 1);
 404:Src/motion.c  ****         Control_AngCalculator(0, 0, 0, 0, 1, 0);
 405:Src/motion.c  ****     }
 406:Src/motion.c  ****     else
 407:Src/motion.c  ****     {
 408:Src/motion.c  ****         Control_EdgeSet(0);
 1745              		.loc 1 408 0
 1746 000a 0020     		movs	r0, #0
 1747              	.LVL86:
 1748 000c FFF7FEFF 		bl	Control_EdgeSet
 1749              	.LVL87:
 409:Src/motion.c  ****         Control_StrCalculator(180.0f - enc.offset, VELO_S, VELO_S, VELO_S, 1, 1);
 1750              		.loc 1 409 0
 1751 0010 2A4B     		ldr	r3, .L107
 1752 0012 D3ED027A 		vldr.32	s15, [r3, #8]
 1753 0016 DFED2A0A 		vldr.32	s1, .L107+4
 1754 001a F7EE002A 		vmov.f32	s5, #1.0e+0
 1755 001e B0EE622A 		vmov.f32	s4, s5
 1756 0022 F0EE601A 		vmov.f32	s3, s1
 1757 0026 B0EE601A 		vmov.f32	s2, s1
 1758 002a 9FED260A 		vldr.32	s0, .L107+8
 1759 002e 30EE670A 		vsub.f32	s0, s0, s15
 1760 0032 FFF7FEFF 		bl	Control_StrCalculator
 1761              	.LVL88:
 410:Src/motion.c  ****         Control_AngCalculator(0, 0, 0, 0, 1, 0);
ARM GAS  C:\Users\kotaro\AppData\Local\Temp\ccSv5CWQ.s 			page 39


 1762              		.loc 1 410 0
 1763 0036 9FED240A 		vldr.32	s0, .L107+12
 1764 003a F0EE402A 		vmov.f32	s5, s0
 1765 003e B7EE002A 		vmov.f32	s4, #1.0e+0
 1766 0042 F0EE401A 		vmov.f32	s3, s0
 1767 0046 B0EE401A 		vmov.f32	s2, s0
 1768 004a F0EE400A 		vmov.f32	s1, s0
 1769 004e FFF7FEFF 		bl	Control_AngCalculator
 1770              	.LVL89:
 1771              	.L103:
 411:Src/motion.c  ****     }
 412:Src/motion.c  ****     motion_end_flag = FALSE;
 1772              		.loc 1 412 0
 1773 0052 1E4B     		ldr	r3, .L107+16
 1774 0054 0022     		movs	r2, #0
 1775 0056 1A70     		strb	r2, [r3]
 1776              	.L104:
 413:Src/motion.c  ****     while (motion_end_flag == FALSE)
 1777              		.loc 1 413 0 discriminator 1
 1778 0058 1C4B     		ldr	r3, .L107+16
 1779 005a 1B78     		ldrb	r3, [r3]	@ zero_extendqisi2
 1780 005c 002B     		cmp	r3, #0
 1781 005e FBD0     		beq	.L104
 414:Src/motion.c  ****     {
 415:Src/motion.c  ****     }
 416:Src/motion.c  ****     enc.offset = 0.0f;
 1782              		.loc 1 416 0
 1783 0060 164B     		ldr	r3, .L107
 1784 0062 0022     		movs	r2, #0
 1785 0064 9A60     		str	r2, [r3, #8]	@ float
 417:Src/motion.c  **** }
 1786              		.loc 1 417 0
 1787 0066 BDEC028B 		vldm	sp!, {d8}
 1788              	.LCFI30:
 1789              		.cfi_remember_state
 1790              		.cfi_restore 80
 1791              		.cfi_restore 81
 1792              		.cfi_def_cfa_offset 8
 1793 006a 08BD     		pop	{r3, pc}
 1794              	.LVL90:
 1795              	.L106:
 1796              	.LCFI31:
 1797              		.cfi_restore_state
 1798 006c B0EE408A 		vmov.f32	s16, s0
 402:Src/motion.c  ****         Control_StrCalculator(110.0f - enc.offset, velo_s, VELO_F, VELO_F, ACCEL_F, 1);
 1799              		.loc 1 402 0
 1800 0070 1420     		movs	r0, #20
 1801              	.LVL91:
 1802 0072 FFF7FEFF 		bl	Control_EdgeSet
 1803              	.LVL92:
 403:Src/motion.c  ****         Control_AngCalculator(0, 0, 0, 0, 1, 0);
 1804              		.loc 1 403 0
 1805 0076 114B     		ldr	r3, .L107
 1806 0078 D3ED027A 		vldr.32	s15, [r3, #8]
 1807 007c 9FED141A 		vldr.32	s2, .L107+20
 1808 0080 F7EE002A 		vmov.f32	s5, #1.0e+0
 1809 0084 9FED132A 		vldr.32	s4, .L107+24
ARM GAS  C:\Users\kotaro\AppData\Local\Temp\ccSv5CWQ.s 			page 40


 1810 0088 F0EE411A 		vmov.f32	s3, s2
 1811 008c F0EE480A 		vmov.f32	s1, s16
 1812 0090 9FED110A 		vldr.32	s0, .L107+28
 1813 0094 30EE670A 		vsub.f32	s0, s0, s15
 1814 0098 FFF7FEFF 		bl	Control_StrCalculator
 1815              	.LVL93:
 404:Src/motion.c  ****     }
 1816              		.loc 1 404 0
 1817 009c 9FED0A0A 		vldr.32	s0, .L107+12
 1818 00a0 F0EE402A 		vmov.f32	s5, s0
 1819 00a4 B7EE002A 		vmov.f32	s4, #1.0e+0
 1820 00a8 F0EE401A 		vmov.f32	s3, s0
 1821 00ac B0EE401A 		vmov.f32	s2, s0
 1822 00b0 F0EE400A 		vmov.f32	s1, s0
 1823 00b4 FFF7FEFF 		bl	Control_AngCalculator
 1824              	.LVL94:
 1825 00b8 CBE7     		b	.L103
 1826              	.L108:
 1827 00ba 00BF     		.align	2
 1828              	.L107:
 1829 00bc 00000000 		.word	enc
 1830 00c0 0000C843 		.word	1137180672
 1831 00c4 00003443 		.word	1127481344
 1832 00c8 00000000 		.word	0
 1833 00cc 00000000 		.word	motion_end_flag
 1834 00d0 00004844 		.word	1145569280
 1835 00d4 0000FA45 		.word	1174011904
 1836 00d8 0000DC42 		.word	1121714176
 1837              		.cfi_endproc
 1838              	.LFE173:
 1840              		.section	.text.Motion_FastGoal,"ax",%progbits
 1841              		.align	1
 1842              		.global	Motion_FastGoal
 1843              		.syntax unified
 1844              		.thumb
 1845              		.thumb_func
 1846              		.fpu fpv4-sp-d16
 1848              	Motion_FastGoal:
 1849              	.LFB174:
 418:Src/motion.c  **** 
 419:Src/motion.c  **** void Motion_FastGoal(uint8_t step, float v_start)
 420:Src/motion.c  **** {
 1850              		.loc 1 420 0
 1851              		.cfi_startproc
 1852              		@ args = 0, pretend = 0, frame = 0
 1853              		@ frame_needed = 0, uses_anonymous_args = 0
 1854              	.LVL95:
 1855 0000 08B5     		push	{r3, lr}
 1856              	.LCFI32:
 1857              		.cfi_def_cfa_offset 8
 1858              		.cfi_offset 3, -8
 1859              		.cfi_offset 14, -4
 1860 0002 2DED028B 		vpush.64	{d8}
 1861              	.LCFI33:
 1862              		.cfi_def_cfa_offset 16
 1863              		.cfi_offset 80, -16
 1864              		.cfi_offset 81, -12
ARM GAS  C:\Users\kotaro\AppData\Local\Temp\ccSv5CWQ.s 			page 41


 421:Src/motion.c  ****     float velo = VELO_F + gain_velo * (step - 1);
 1865              		.loc 1 421 0
 1866 0006 431E     		subs	r3, r0, #1
 1867 0008 07EE103A 		vmov	s14, r3	@ int
 1868 000c B8EEC77A 		vcvt.f32.s32	s14, s14
 1869 0010 224B     		ldr	r3, .L112
 1870 0012 93ED001A 		vldr.32	s2, [r3]
 1871 0016 27EE017A 		vmul.f32	s14, s14, s2
 1872              	.LVL96:
 422:Src/motion.c  ****     Control_StrCalculator(90.0f + 90.0f * (float)step - enc.offset, v_start, velo, 0, ACCEL_F, 1);
 1873              		.loc 1 422 0
 1874 001a 07EE900A 		vmov	s15, r0	@ int
 1875 001e F8EE677A 		vcvt.f32.u32	s15, s15
 1876 0022 DFED1F6A 		vldr.32	s13, .L112+4
 1877 0026 67EEA67A 		vmul.f32	s15, s15, s13
 1878 002a 77EEA67A 		vadd.f32	s15, s15, s13
 1879 002e 1D4B     		ldr	r3, .L112+8
 1880 0030 D3ED026A 		vldr.32	s13, [r3, #8]
 1881 0034 9FED1C8A 		vldr.32	s16, .L112+12
 1882 0038 F7EE002A 		vmov.f32	s5, #1.0e+0
 1883 003c 9FED1B2A 		vldr.32	s4, .L112+16
 1884 0040 F0EE481A 		vmov.f32	s3, s16
 1885 0044 9FED1A1A 		vldr.32	s2, .L112+20
 1886 0048 37EE011A 		vadd.f32	s2, s14, s2
 1887              	.LVL97:
 1888 004c F0EE400A 		vmov.f32	s1, s0
 1889 0050 37EEE60A 		vsub.f32	s0, s15, s13
 1890              	.LVL98:
 1891 0054 FFF7FEFF 		bl	Control_StrCalculator
 1892              	.LVL99:
 423:Src/motion.c  ****     Control_AngCalculator(0, 0, 0, 0, 1, 0);
 1893              		.loc 1 423 0
 1894 0058 F0EE482A 		vmov.f32	s5, s16
 1895 005c B7EE002A 		vmov.f32	s4, #1.0e+0
 1896 0060 F0EE481A 		vmov.f32	s3, s16
 1897 0064 B0EE481A 		vmov.f32	s2, s16
 1898 0068 F0EE480A 		vmov.f32	s1, s16
 1899 006c B0EE480A 		vmov.f32	s0, s16
 1900 0070 FFF7FEFF 		bl	Control_AngCalculator
 1901              	.LVL100:
 424:Src/motion.c  ****     motion_end_flag = FALSE;
 1902              		.loc 1 424 0
 1903 0074 0F4B     		ldr	r3, .L112+24
 1904 0076 0022     		movs	r2, #0
 1905 0078 1A70     		strb	r2, [r3]
 1906              	.L110:
 425:Src/motion.c  ****     while (motion_end_flag == FALSE)
 1907              		.loc 1 425 0 discriminator 1
 1908 007a 0E4B     		ldr	r3, .L112+24
 1909 007c 1B78     		ldrb	r3, [r3]	@ zero_extendqisi2
 1910 007e 002B     		cmp	r3, #0
 1911 0080 FBD0     		beq	.L110
 426:Src/motion.c  ****     {
 427:Src/motion.c  ****     }
 428:Src/motion.c  ****     straight.v_now = 0;
 1912              		.loc 1 428 0
 1913 0082 0023     		movs	r3, #0
ARM GAS  C:\Users\kotaro\AppData\Local\Temp\ccSv5CWQ.s 			page 42


 1914 0084 0C4A     		ldr	r2, .L112+28
 1915 0086 D360     		str	r3, [r2, #12]	@ float
 429:Src/motion.c  ****     angle.v_now = 0;
 1916              		.loc 1 429 0
 1917 0088 0C4A     		ldr	r2, .L112+32
 1918 008a D360     		str	r3, [r2, #12]	@ float
 430:Src/motion.c  ****     HAL_Delay(800);
 1919              		.loc 1 430 0
 1920 008c 4FF44870 		mov	r0, #800
 1921 0090 FFF7FEFF 		bl	HAL_Delay
 1922              	.LVL101:
 431:Src/motion.c  **** }
 1923              		.loc 1 431 0
 1924 0094 BDEC028B 		vldm	sp!, {d8}
 1925              	.LCFI34:
 1926              		.cfi_restore 80
 1927              		.cfi_restore 81
 1928              		.cfi_def_cfa_offset 8
 1929 0098 08BD     		pop	{r3, pc}
 1930              	.L113:
 1931 009a 00BF     		.align	2
 1932              	.L112:
 1933 009c 00000000 		.word	.LANCHOR0
 1934 00a0 0000B442 		.word	1119092736
 1935 00a4 00000000 		.word	enc
 1936 00a8 00000000 		.word	0
 1937 00ac 0000FA45 		.word	1174011904
 1938 00b0 00004844 		.word	1145569280
 1939 00b4 00000000 		.word	motion_end_flag
 1940 00b8 00000000 		.word	straight
 1941 00bc 00000000 		.word	angle
 1942              		.cfi_endproc
 1943              	.LFE174:
 1945              		.section	.text.Motion_Diagonal,"ax",%progbits
 1946              		.align	1
 1947              		.global	Motion_Diagonal
 1948              		.syntax unified
 1949              		.thumb
 1950              		.thumb_func
 1951              		.fpu fpv4-sp-d16
 1953              	Motion_Diagonal:
 1954              	.LFB175:
 432:Src/motion.c  **** 
 433:Src/motion.c  **** void Motion_Diagonal(uint8_t step)
 434:Src/motion.c  **** {
 1955              		.loc 1 434 0
 1956              		.cfi_startproc
 1957              		@ args = 0, pretend = 0, frame = 0
 1958              		@ frame_needed = 0, uses_anonymous_args = 0
 1959              	.LVL102:
 1960 0000 08B5     		push	{r3, lr}
 1961              	.LCFI35:
 1962              		.cfi_def_cfa_offset 8
 1963              		.cfi_offset 3, -8
 1964              		.cfi_offset 14, -4
 435:Src/motion.c  ****     Control_StrCalculator(diagonal_step * (float)step - enc.offset, VELO_F, VELO_F, VELO_F, ACCEL_F
 1965              		.loc 1 435 0
ARM GAS  C:\Users\kotaro\AppData\Local\Temp\ccSv5CWQ.s 			page 43


 1966 0002 07EE900A 		vmov	s15, r0	@ int
 1967 0006 F8EE677A 		vcvt.f32.u32	s15, s15
 1968 000a 174B     		ldr	r3, .L117
 1969 000c 93ED000A 		vldr.32	s0, [r3]
 1970 0010 67EE807A 		vmul.f32	s15, s15, s0
 1971 0014 154B     		ldr	r3, .L117+4
 1972 0016 93ED020A 		vldr.32	s0, [r3, #8]
 1973 001a DFED150A 		vldr.32	s1, .L117+8
 1974 001e F7EE002A 		vmov.f32	s5, #1.0e+0
 1975 0022 9FED142A 		vldr.32	s4, .L117+12
 1976 0026 F0EE601A 		vmov.f32	s3, s1
 1977 002a B0EE601A 		vmov.f32	s2, s1
 1978 002e 37EEC00A 		vsub.f32	s0, s15, s0
 1979 0032 FFF7FEFF 		bl	Control_StrCalculator
 1980              	.LVL103:
 436:Src/motion.c  ****     Control_AngCalculator(0, 0, 0, 0, 1, 0);
 1981              		.loc 1 436 0
 1982 0036 9FED100A 		vldr.32	s0, .L117+16
 1983 003a F0EE402A 		vmov.f32	s5, s0
 1984 003e B7EE002A 		vmov.f32	s4, #1.0e+0
 1985 0042 F0EE401A 		vmov.f32	s3, s0
 1986 0046 B0EE401A 		vmov.f32	s2, s0
 1987 004a F0EE400A 		vmov.f32	s1, s0
 1988 004e FFF7FEFF 		bl	Control_AngCalculator
 1989              	.LVL104:
 437:Src/motion.c  ****     motion_end_flag = FALSE;
 1990              		.loc 1 437 0
 1991 0052 0A4B     		ldr	r3, .L117+20
 1992 0054 0022     		movs	r2, #0
 1993 0056 1A70     		strb	r2, [r3]
 1994              	.L115:
 438:Src/motion.c  ****     while (motion_end_flag == FALSE)
 1995              		.loc 1 438 0 discriminator 1
 1996 0058 084B     		ldr	r3, .L117+20
 1997 005a 1B78     		ldrb	r3, [r3]	@ zero_extendqisi2
 1998 005c 002B     		cmp	r3, #0
 1999 005e FBD0     		beq	.L115
 439:Src/motion.c  ****     {
 440:Src/motion.c  ****     }
 441:Src/motion.c  ****     enc.offset = 0.0f;
 2000              		.loc 1 441 0
 2001 0060 024B     		ldr	r3, .L117+4
 2002 0062 0022     		movs	r2, #0
 2003 0064 9A60     		str	r2, [r3, #8]	@ float
 442:Src/motion.c  **** }
 2004              		.loc 1 442 0
 2005 0066 08BD     		pop	{r3, pc}
 2006              	.L118:
 2007              		.align	2
 2008              	.L117:
 2009 0068 00000000 		.word	.LANCHOR2
 2010 006c 00000000 		.word	enc
 2011 0070 00004844 		.word	1145569280
 2012 0074 0000FA45 		.word	1174011904
 2013 0078 00000000 		.word	0
 2014 007c 00000000 		.word	motion_end_flag
 2015              		.cfi_endproc
ARM GAS  C:\Users\kotaro\AppData\Local\Temp\ccSv5CWQ.s 			page 44


 2016              	.LFE175:
 2018              		.section	.text.Motion_DiagonalLeft,"ax",%progbits
 2019              		.align	1
 2020              		.global	Motion_DiagonalLeft
 2021              		.syntax unified
 2022              		.thumb
 2023              		.thumb_func
 2024              		.fpu fpv4-sp-d16
 2026              	Motion_DiagonalLeft:
 2027              	.LFB176:
 443:Src/motion.c  **** 
 444:Src/motion.c  **** void Motion_DiagonalLeft(uint8_t step)
 445:Src/motion.c  **** {
 2028              		.loc 1 445 0
 2029              		.cfi_startproc
 2030              		@ args = 0, pretend = 0, frame = 0
 2031              		@ frame_needed = 0, uses_anonymous_args = 0
 2032              	.LVL105:
 2033 0000 08B5     		push	{r3, lr}
 2034              	.LCFI36:
 2035              		.cfi_def_cfa_offset 8
 2036              		.cfi_offset 3, -8
 2037              		.cfi_offset 14, -4
 446:Src/motion.c  ****     control_wall_flag = 3;
 2038              		.loc 1 446 0
 2039 0002 354B     		ldr	r3, .L126
 2040 0004 0322     		movs	r2, #3
 2041 0006 1A70     		strb	r2, [r3]
 447:Src/motion.c  ****     if (step > 1)
 2042              		.loc 1 447 0
 2043 0008 0128     		cmp	r0, #1
 2044 000a 2FD8     		bhi	.L125
 2045              	.LVL106:
 2046              	.L122:
 448:Src/motion.c  ****     {
 449:Src/motion.c  ****         float velo = VELO_F + gain_velo * (step - 1);
 450:Src/motion.c  ****         Control_StrCalculator(diagonal_step * (float)(step - 1) - enc.offset, VELO_F, velo, VELO_F,
 451:Src/motion.c  ****         Control_AngCalculator(0, 0, 0, 0, 1, 0);
 452:Src/motion.c  ****         motion_end_flag = FALSE;
 453:Src/motion.c  ****         while (motion_end_flag == FALSE)
 454:Src/motion.c  ****         {
 455:Src/motion.c  ****         }
 456:Src/motion.c  ****     }
 457:Src/motion.c  ****     while (sen_l.diff > -40)
 2047              		.loc 1 457 0 discriminator 1
 2048 000c 334B     		ldr	r3, .L126+4
 2049 000e B3F91A30 		ldrsh	r3, [r3, #26]
 2050 0012 13F1270F 		cmn	r3, #39
 2051 0016 F9DA     		bge	.L122
 458:Src/motion.c  ****         ;
 459:Src/motion.c  ****     Control_StrCalculator(15.25f, VELO_F, VELO_F, VELO_F, ACCEL_F, 1);
 2052              		.loc 1 459 0
 2053 0018 DFED310A 		vldr.32	s1, .L126+8
 2054 001c F7EE002A 		vmov.f32	s5, #1.0e+0
 2055 0020 9FED302A 		vldr.32	s4, .L126+12
 2056 0024 F0EE601A 		vmov.f32	s3, s1
 2057 0028 B0EE601A 		vmov.f32	s2, s1
ARM GAS  C:\Users\kotaro\AppData\Local\Temp\ccSv5CWQ.s 			page 45


 2058 002c 9FED2E0A 		vldr.32	s0, .L126+16
 2059 0030 FFF7FEFF 		bl	Control_StrCalculator
 2060              	.LVL107:
 460:Src/motion.c  ****     Control_AngCalculator(0, 0, 0, 0, 1, 0);
 2061              		.loc 1 460 0
 2062 0034 9FED2D0A 		vldr.32	s0, .L126+20
 2063 0038 F0EE402A 		vmov.f32	s5, s0
 2064 003c B7EE002A 		vmov.f32	s4, #1.0e+0
 2065 0040 F0EE401A 		vmov.f32	s3, s0
 2066 0044 B0EE401A 		vmov.f32	s2, s0
 2067 0048 F0EE400A 		vmov.f32	s1, s0
 2068 004c FFF7FEFF 		bl	Control_AngCalculator
 2069              	.LVL108:
 461:Src/motion.c  ****     motion_end_flag = FALSE;
 2070              		.loc 1 461 0
 2071 0050 274B     		ldr	r3, .L126+24
 2072 0052 0022     		movs	r2, #0
 2073 0054 1A70     		strb	r2, [r3]
 2074              	.L123:
 462:Src/motion.c  ****     while (motion_end_flag == FALSE)
 2075              		.loc 1 462 0 discriminator 1
 2076 0056 264B     		ldr	r3, .L126+24
 2077 0058 1B78     		ldrb	r3, [r3]	@ zero_extendqisi2
 2078 005a 002B     		cmp	r3, #0
 2079 005c FBD0     		beq	.L123
 463:Src/motion.c  ****     {
 464:Src/motion.c  ****     }
 465:Src/motion.c  ****     enc.offset = 0.0f;
 2080              		.loc 1 465 0
 2081 005e 254B     		ldr	r3, .L126+28
 2082 0060 0022     		movs	r2, #0
 2083 0062 9A60     		str	r2, [r3, #8]	@ float
 466:Src/motion.c  ****     control_wall_flag = 0;
 2084              		.loc 1 466 0
 2085 0064 1C4B     		ldr	r3, .L126
 2086 0066 0022     		movs	r2, #0
 2087 0068 1A70     		strb	r2, [r3]
 467:Src/motion.c  **** }
 2088              		.loc 1 467 0
 2089 006a 08BD     		pop	{r3, pc}
 2090              	.LVL109:
 2091              	.L125:
 2092              	.LBB2:
 449:Src/motion.c  ****         Control_StrCalculator(diagonal_step * (float)(step - 1) - enc.offset, VELO_F, velo, VELO_F,
 2093              		.loc 1 449 0
 2094 006c 431E     		subs	r3, r0, #1
 2095 006e 00EE103A 		vmov	s0, r3	@ int
 2096 0072 B8EEC00A 		vcvt.f32.s32	s0, s0
 2097 0076 204B     		ldr	r3, .L126+32
 2098 0078 93ED001A 		vldr.32	s2, [r3]
 2099 007c 20EE011A 		vmul.f32	s2, s0, s2
 2100 0080 DFED170A 		vldr.32	s1, .L126+8
 2101              	.LVL110:
 450:Src/motion.c  ****         Control_AngCalculator(0, 0, 0, 0, 1, 0);
 2102              		.loc 1 450 0
 2103 0084 1D4B     		ldr	r3, .L126+36
 2104 0086 D3ED007A 		vldr.32	s15, [r3]
ARM GAS  C:\Users\kotaro\AppData\Local\Temp\ccSv5CWQ.s 			page 46


 2105 008a 20EE270A 		vmul.f32	s0, s0, s15
 2106 008e 194B     		ldr	r3, .L126+28
 2107 0090 D3ED027A 		vldr.32	s15, [r3, #8]
 2108 0094 F7EE002A 		vmov.f32	s5, #1.0e+0
 2109 0098 9FED122A 		vldr.32	s4, .L126+12
 2110 009c F0EE601A 		vmov.f32	s3, s1
 2111 00a0 31EE201A 		vadd.f32	s2, s2, s1
 2112              	.LVL111:
 2113 00a4 30EE670A 		vsub.f32	s0, s0, s15
 2114 00a8 FFF7FEFF 		bl	Control_StrCalculator
 2115              	.LVL112:
 451:Src/motion.c  ****         motion_end_flag = FALSE;
 2116              		.loc 1 451 0
 2117 00ac 9FED0F0A 		vldr.32	s0, .L126+20
 2118 00b0 F0EE402A 		vmov.f32	s5, s0
 2119 00b4 B7EE002A 		vmov.f32	s4, #1.0e+0
 2120 00b8 F0EE401A 		vmov.f32	s3, s0
 2121 00bc B0EE401A 		vmov.f32	s2, s0
 2122 00c0 F0EE400A 		vmov.f32	s1, s0
 2123 00c4 FFF7FEFF 		bl	Control_AngCalculator
 2124              	.LVL113:
 452:Src/motion.c  ****         while (motion_end_flag == FALSE)
 2125              		.loc 1 452 0
 2126 00c8 094B     		ldr	r3, .L126+24
 2127 00ca 0022     		movs	r2, #0
 2128 00cc 1A70     		strb	r2, [r3]
 2129              	.L121:
 453:Src/motion.c  ****         {
 2130              		.loc 1 453 0 discriminator 1
 2131 00ce 084B     		ldr	r3, .L126+24
 2132 00d0 1B78     		ldrb	r3, [r3]	@ zero_extendqisi2
 2133 00d2 002B     		cmp	r3, #0
 2134 00d4 FBD0     		beq	.L121
 2135 00d6 99E7     		b	.L122
 2136              	.L127:
 2137              		.align	2
 2138              	.L126:
 2139 00d8 00000000 		.word	control_wall_flag
 2140 00dc 00000000 		.word	sen_l
 2141 00e0 00004844 		.word	1145569280
 2142 00e4 0000FA45 		.word	1174011904
 2143 00e8 00007441 		.word	1098121216
 2144 00ec 00000000 		.word	0
 2145 00f0 00000000 		.word	motion_end_flag
 2146 00f4 00000000 		.word	enc
 2147 00f8 00000000 		.word	.LANCHOR0
 2148 00fc 00000000 		.word	.LANCHOR2
 2149              	.LBE2:
 2150              		.cfi_endproc
 2151              	.LFE176:
 2153              		.section	.text.Motion_DiagonalRight,"ax",%progbits
 2154              		.align	1
 2155              		.global	Motion_DiagonalRight
 2156              		.syntax unified
 2157              		.thumb
 2158              		.thumb_func
 2159              		.fpu fpv4-sp-d16
ARM GAS  C:\Users\kotaro\AppData\Local\Temp\ccSv5CWQ.s 			page 47


 2161              	Motion_DiagonalRight:
 2162              	.LFB177:
 468:Src/motion.c  **** 
 469:Src/motion.c  **** void Motion_DiagonalRight(uint8_t step)
 470:Src/motion.c  **** {
 2163              		.loc 1 470 0
 2164              		.cfi_startproc
 2165              		@ args = 0, pretend = 0, frame = 0
 2166              		@ frame_needed = 0, uses_anonymous_args = 0
 2167              	.LVL114:
 2168 0000 08B5     		push	{r3, lr}
 2169              	.LCFI37:
 2170              		.cfi_def_cfa_offset 8
 2171              		.cfi_offset 3, -8
 2172              		.cfi_offset 14, -4
 471:Src/motion.c  ****     control_wall_flag = 3;
 2173              		.loc 1 471 0
 2174 0002 354B     		ldr	r3, .L135
 2175 0004 0322     		movs	r2, #3
 2176 0006 1A70     		strb	r2, [r3]
 472:Src/motion.c  ****     if (step > 1)
 2177              		.loc 1 472 0
 2178 0008 0128     		cmp	r0, #1
 2179 000a 2FD8     		bhi	.L134
 2180              	.LVL115:
 2181              	.L131:
 473:Src/motion.c  ****     {
 474:Src/motion.c  ****         float velo = VELO_F + gain_velo * (step - 1);
 475:Src/motion.c  ****         Control_StrCalculator(diagonal_step * (float)(step - 1) - enc.offset, VELO_F, velo, VELO_F,
 476:Src/motion.c  ****         Control_AngCalculator(0, 0, 0, 0, 1, 0);
 477:Src/motion.c  ****         motion_end_flag = FALSE;
 478:Src/motion.c  ****         while (motion_end_flag == FALSE)
 479:Src/motion.c  ****         {
 480:Src/motion.c  ****         }
 481:Src/motion.c  ****     }
 482:Src/motion.c  ****     while (sen_r.diff > -30)
 2182              		.loc 1 482 0 discriminator 1
 2183 000c 334B     		ldr	r3, .L135+4
 2184 000e B3F91A30 		ldrsh	r3, [r3, #26]
 2185 0012 13F11D0F 		cmn	r3, #29
 2186 0016 F9DA     		bge	.L131
 483:Src/motion.c  ****         ;
 484:Src/motion.c  ****     Control_StrCalculator(16.5f, VELO_F, VELO_F, VELO_F, ACCEL_F, 1);
 2187              		.loc 1 484 0
 2188 0018 DFED310A 		vldr.32	s1, .L135+8
 2189 001c F7EE002A 		vmov.f32	s5, #1.0e+0
 2190 0020 9FED302A 		vldr.32	s4, .L135+12
 2191 0024 F0EE601A 		vmov.f32	s3, s1
 2192 0028 B0EE601A 		vmov.f32	s2, s1
 2193 002c 9FED2E0A 		vldr.32	s0, .L135+16
 2194 0030 FFF7FEFF 		bl	Control_StrCalculator
 2195              	.LVL116:
 485:Src/motion.c  ****     Control_AngCalculator(0, 0, 0, 0, 1, 0);
 2196              		.loc 1 485 0
 2197 0034 9FED2D0A 		vldr.32	s0, .L135+20
 2198 0038 F0EE402A 		vmov.f32	s5, s0
 2199 003c B7EE002A 		vmov.f32	s4, #1.0e+0
ARM GAS  C:\Users\kotaro\AppData\Local\Temp\ccSv5CWQ.s 			page 48


 2200 0040 F0EE401A 		vmov.f32	s3, s0
 2201 0044 B0EE401A 		vmov.f32	s2, s0
 2202 0048 F0EE400A 		vmov.f32	s1, s0
 2203 004c FFF7FEFF 		bl	Control_AngCalculator
 2204              	.LVL117:
 486:Src/motion.c  ****     motion_end_flag = FALSE;
 2205              		.loc 1 486 0
 2206 0050 274B     		ldr	r3, .L135+24
 2207 0052 0022     		movs	r2, #0
 2208 0054 1A70     		strb	r2, [r3]
 2209              	.L132:
 487:Src/motion.c  ****     while (motion_end_flag == FALSE)
 2210              		.loc 1 487 0 discriminator 1
 2211 0056 264B     		ldr	r3, .L135+24
 2212 0058 1B78     		ldrb	r3, [r3]	@ zero_extendqisi2
 2213 005a 002B     		cmp	r3, #0
 2214 005c FBD0     		beq	.L132
 488:Src/motion.c  ****     {
 489:Src/motion.c  ****     }
 490:Src/motion.c  ****     enc.offset = 0.0f;
 2215              		.loc 1 490 0
 2216 005e 254B     		ldr	r3, .L135+28
 2217 0060 0022     		movs	r2, #0
 2218 0062 9A60     		str	r2, [r3, #8]	@ float
 491:Src/motion.c  ****     control_wall_flag = 0;
 2219              		.loc 1 491 0
 2220 0064 1C4B     		ldr	r3, .L135
 2221 0066 0022     		movs	r2, #0
 2222 0068 1A70     		strb	r2, [r3]
 492:Src/motion.c  **** }
 2223              		.loc 1 492 0
 2224 006a 08BD     		pop	{r3, pc}
 2225              	.LVL118:
 2226              	.L134:
 2227              	.LBB3:
 474:Src/motion.c  ****         Control_StrCalculator(diagonal_step * (float)(step - 1) - enc.offset, VELO_F, velo, VELO_F,
 2228              		.loc 1 474 0
 2229 006c 431E     		subs	r3, r0, #1
 2230 006e 00EE103A 		vmov	s0, r3	@ int
 2231 0072 B8EEC00A 		vcvt.f32.s32	s0, s0
 2232 0076 204B     		ldr	r3, .L135+32
 2233 0078 93ED001A 		vldr.32	s2, [r3]
 2234 007c 20EE011A 		vmul.f32	s2, s0, s2
 2235 0080 DFED170A 		vldr.32	s1, .L135+8
 2236              	.LVL119:
 475:Src/motion.c  ****         Control_AngCalculator(0, 0, 0, 0, 1, 0);
 2237              		.loc 1 475 0
 2238 0084 1D4B     		ldr	r3, .L135+36
 2239 0086 D3ED007A 		vldr.32	s15, [r3]
 2240 008a 20EE270A 		vmul.f32	s0, s0, s15
 2241 008e 194B     		ldr	r3, .L135+28
 2242 0090 D3ED027A 		vldr.32	s15, [r3, #8]
 2243 0094 F7EE002A 		vmov.f32	s5, #1.0e+0
 2244 0098 9FED122A 		vldr.32	s4, .L135+12
 2245 009c F0EE601A 		vmov.f32	s3, s1
 2246 00a0 31EE201A 		vadd.f32	s2, s2, s1
 2247              	.LVL120:
ARM GAS  C:\Users\kotaro\AppData\Local\Temp\ccSv5CWQ.s 			page 49


 2248 00a4 30EE670A 		vsub.f32	s0, s0, s15
 2249 00a8 FFF7FEFF 		bl	Control_StrCalculator
 2250              	.LVL121:
 476:Src/motion.c  ****         motion_end_flag = FALSE;
 2251              		.loc 1 476 0
 2252 00ac 9FED0F0A 		vldr.32	s0, .L135+20
 2253 00b0 F0EE402A 		vmov.f32	s5, s0
 2254 00b4 B7EE002A 		vmov.f32	s4, #1.0e+0
 2255 00b8 F0EE401A 		vmov.f32	s3, s0
 2256 00bc B0EE401A 		vmov.f32	s2, s0
 2257 00c0 F0EE400A 		vmov.f32	s1, s0
 2258 00c4 FFF7FEFF 		bl	Control_AngCalculator
 2259              	.LVL122:
 477:Src/motion.c  ****         while (motion_end_flag == FALSE)
 2260              		.loc 1 477 0
 2261 00c8 094B     		ldr	r3, .L135+24
 2262 00ca 0022     		movs	r2, #0
 2263 00cc 1A70     		strb	r2, [r3]
 2264              	.L130:
 478:Src/motion.c  ****         {
 2265              		.loc 1 478 0 discriminator 1
 2266 00ce 084B     		ldr	r3, .L135+24
 2267 00d0 1B78     		ldrb	r3, [r3]	@ zero_extendqisi2
 2268 00d2 002B     		cmp	r3, #0
 2269 00d4 FBD0     		beq	.L130
 2270 00d6 99E7     		b	.L131
 2271              	.L136:
 2272              		.align	2
 2273              	.L135:
 2274 00d8 00000000 		.word	control_wall_flag
 2275 00dc 00000000 		.word	sen_r
 2276 00e0 00004844 		.word	1145569280
 2277 00e4 0000FA45 		.word	1174011904
 2278 00e8 00008441 		.word	1099169792
 2279 00ec 00000000 		.word	0
 2280 00f0 00000000 		.word	motion_end_flag
 2281 00f4 00000000 		.word	enc
 2282 00f8 00000000 		.word	.LANCHOR0
 2283 00fc 00000000 		.word	.LANCHOR2
 2284              	.LBE3:
 2285              		.cfi_endproc
 2286              	.LFE177:
 2288              		.section	.text.Motion_DiagonalStart,"ax",%progbits
 2289              		.align	1
 2290              		.global	Motion_DiagonalStart
 2291              		.syntax unified
 2292              		.thumb
 2293              		.thumb_func
 2294              		.fpu fpv4-sp-d16
 2296              	Motion_DiagonalStart:
 2297              	.LFB178:
 493:Src/motion.c  **** 
 494:Src/motion.c  **** void Motion_DiagonalStart(void)
 495:Src/motion.c  **** {
 2298              		.loc 1 495 0
 2299              		.cfi_startproc
 2300              		@ args = 0, pretend = 0, frame = 0
ARM GAS  C:\Users\kotaro\AppData\Local\Temp\ccSv5CWQ.s 			page 50


 2301              		@ frame_needed = 0, uses_anonymous_args = 0
 2302 0000 08B5     		push	{r3, lr}
 2303              	.LCFI38:
 2304              		.cfi_def_cfa_offset 8
 2305              		.cfi_offset 3, -8
 2306              		.cfi_offset 14, -4
 2307 0002 2DED028B 		vpush.64	{d8}
 2308              	.LCFI39:
 2309              		.cfi_def_cfa_offset 16
 2310              		.cfi_offset 80, -16
 2311              		.cfi_offset 81, -12
 496:Src/motion.c  ****     Control_ResetVelo();
 2312              		.loc 1 496 0
 2313 0006 FFF7FEFF 		bl	Control_ResetVelo
 2314              	.LVL123:
 497:Src/motion.c  ****     diagonal_step = 90.0f * sqrt(2);
 2315              		.loc 1 497 0
 2316 000a 174B     		ldr	r3, .L140
 2317 000c 174A     		ldr	r2, .L140+4
 2318 000e 1A60     		str	r2, [r3]	@ float
 498:Src/motion.c  ****     Control_StrCalculator(diagonal_step * 2.0f, 0, VELO_F, VELO_F, ACCEL_F, 1);
 2319              		.loc 1 498 0
 2320 0010 9FED171A 		vldr.32	s2, .L140+8
 2321 0014 9FED178A 		vldr.32	s16, .L140+12
 2322 0018 F7EE002A 		vmov.f32	s5, #1.0e+0
 2323 001c 9FED162A 		vldr.32	s4, .L140+16
 2324 0020 F0EE411A 		vmov.f32	s3, s2
 2325 0024 F0EE480A 		vmov.f32	s1, s16
 2326 0028 9FED140A 		vldr.32	s0, .L140+20
 2327 002c FFF7FEFF 		bl	Control_StrCalculator
 2328              	.LVL124:
 499:Src/motion.c  ****     Control_AngCalculator(0, 0, 0, 0, 1, 0);
 2329              		.loc 1 499 0
 2330 0030 F0EE482A 		vmov.f32	s5, s16
 2331 0034 B7EE002A 		vmov.f32	s4, #1.0e+0
 2332 0038 F0EE481A 		vmov.f32	s3, s16
 2333 003c B0EE481A 		vmov.f32	s2, s16
 2334 0040 F0EE480A 		vmov.f32	s1, s16
 2335 0044 B0EE480A 		vmov.f32	s0, s16
 2336 0048 FFF7FEFF 		bl	Control_AngCalculator
 2337              	.LVL125:
 500:Src/motion.c  ****     motion_end_flag = FALSE;
 2338              		.loc 1 500 0
 2339 004c 0C4B     		ldr	r3, .L140+24
 2340 004e 0022     		movs	r2, #0
 2341 0050 1A70     		strb	r2, [r3]
 2342              	.L138:
 501:Src/motion.c  ****     while (motion_end_flag == FALSE)
 2343              		.loc 1 501 0 discriminator 1
 2344 0052 0B4B     		ldr	r3, .L140+24
 2345 0054 1B78     		ldrb	r3, [r3]	@ zero_extendqisi2
 2346 0056 002B     		cmp	r3, #0
 2347 0058 FBD0     		beq	.L138
 502:Src/motion.c  ****     {
 503:Src/motion.c  ****     }
 504:Src/motion.c  ****     enc.offset = 0;
 2348              		.loc 1 504 0
ARM GAS  C:\Users\kotaro\AppData\Local\Temp\ccSv5CWQ.s 			page 51


 2349 005a 0A4B     		ldr	r3, .L140+28
 2350 005c 0022     		movs	r2, #0
 2351 005e 9A60     		str	r2, [r3, #8]	@ float
 505:Src/motion.c  **** }
 2352              		.loc 1 505 0
 2353 0060 BDEC028B 		vldm	sp!, {d8}
 2354              	.LCFI40:
 2355              		.cfi_restore 80
 2356              		.cfi_restore 81
 2357              		.cfi_def_cfa_offset 8
 2358 0064 08BD     		pop	{r3, pc}
 2359              	.L141:
 2360 0066 00BF     		.align	2
 2361              	.L140:
 2362 0068 00000000 		.word	.LANCHOR2
 2363 006c F68EFE42 		.word	1123978998
 2364 0070 00004844 		.word	1145569280
 2365 0074 00000000 		.word	0
 2366 0078 0000FA45 		.word	1174011904
 2367 007c F68E7E43 		.word	1132367606
 2368 0080 00000000 		.word	motion_end_flag
 2369 0084 00000000 		.word	enc
 2370              		.cfi_endproc
 2371              	.LFE178:
 2373              		.section	.text.Motion_DiagonalStop,"ax",%progbits
 2374              		.align	1
 2375              		.global	Motion_DiagonalStop
 2376              		.syntax unified
 2377              		.thumb
 2378              		.thumb_func
 2379              		.fpu fpv4-sp-d16
 2381              	Motion_DiagonalStop:
 2382              	.LFB179:
 506:Src/motion.c  **** 
 507:Src/motion.c  **** void Motion_DiagonalStop(void)
 508:Src/motion.c  **** {
 2383              		.loc 1 508 0
 2384              		.cfi_startproc
 2385              		@ args = 0, pretend = 0, frame = 0
 2386              		@ frame_needed = 0, uses_anonymous_args = 0
 2387 0000 08B5     		push	{r3, lr}
 2388              	.LCFI41:
 2389              		.cfi_def_cfa_offset 8
 2390              		.cfi_offset 3, -8
 2391              		.cfi_offset 14, -4
 2392 0002 2DED028B 		vpush.64	{d8}
 2393              	.LCFI42:
 2394              		.cfi_def_cfa_offset 16
 2395              		.cfi_offset 80, -16
 2396              		.cfi_offset 81, -12
 509:Src/motion.c  ****     Control_StrCalculator(diagonal_step * 2.0f - enc.offset, VELO_F, VELO_F, 0, ACCEL_F, 1);
 2397              		.loc 1 509 0
 2398 0006 1E4B     		ldr	r3, .L145
 2399 0008 93ED000A 		vldr.32	s0, [r3]
 2400 000c 30EE000A 		vadd.f32	s0, s0, s0
 2401 0010 1C4B     		ldr	r3, .L145+4
 2402 0012 D3ED027A 		vldr.32	s15, [r3, #8]
ARM GAS  C:\Users\kotaro\AppData\Local\Temp\ccSv5CWQ.s 			page 52


 2403 0016 9FED1C8A 		vldr.32	s16, .L145+8
 2404 001a DFED1C0A 		vldr.32	s1, .L145+12
 2405 001e F7EE002A 		vmov.f32	s5, #1.0e+0
 2406 0022 9FED1B2A 		vldr.32	s4, .L145+16
 2407 0026 F0EE481A 		vmov.f32	s3, s16
 2408 002a B0EE601A 		vmov.f32	s2, s1
 2409 002e 30EE670A 		vsub.f32	s0, s0, s15
 2410 0032 FFF7FEFF 		bl	Control_StrCalculator
 2411              	.LVL126:
 510:Src/motion.c  ****     Control_AngCalculator(0, 0, 0, 0, 1, 0);
 2412              		.loc 1 510 0
 2413 0036 F0EE482A 		vmov.f32	s5, s16
 2414 003a B7EE002A 		vmov.f32	s4, #1.0e+0
 2415 003e F0EE481A 		vmov.f32	s3, s16
 2416 0042 B0EE481A 		vmov.f32	s2, s16
 2417 0046 F0EE480A 		vmov.f32	s1, s16
 2418 004a B0EE480A 		vmov.f32	s0, s16
 2419 004e FFF7FEFF 		bl	Control_AngCalculator
 2420              	.LVL127:
 511:Src/motion.c  ****     motion_end_flag = FALSE;
 2421              		.loc 1 511 0
 2422 0052 104B     		ldr	r3, .L145+20
 2423 0054 0022     		movs	r2, #0
 2424 0056 1A70     		strb	r2, [r3]
 2425              	.L143:
 512:Src/motion.c  ****     while (motion_end_flag == FALSE)
 2426              		.loc 1 512 0 discriminator 1
 2427 0058 0E4B     		ldr	r3, .L145+20
 2428 005a 1B78     		ldrb	r3, [r3]	@ zero_extendqisi2
 2429 005c 002B     		cmp	r3, #0
 2430 005e FBD0     		beq	.L143
 513:Src/motion.c  ****     {
 514:Src/motion.c  ****     }
 515:Src/motion.c  ****     straight.v_now = 0;
 2431              		.loc 1 515 0
 2432 0060 0023     		movs	r3, #0
 2433 0062 0D4A     		ldr	r2, .L145+24
 2434 0064 D360     		str	r3, [r2, #12]	@ float
 516:Src/motion.c  ****     angle.v_now = 0;
 2435              		.loc 1 516 0
 2436 0066 0D4A     		ldr	r2, .L145+28
 2437 0068 D360     		str	r3, [r2, #12]	@ float
 517:Src/motion.c  ****     error_ang_sum = 0.0f;
 2438              		.loc 1 517 0
 2439 006a 0D4A     		ldr	r2, .L145+32
 2440 006c 1360     		str	r3, [r2]	@ float
 518:Src/motion.c  ****     error_ang_old = 0.0f;
 2441              		.loc 1 518 0
 2442 006e 0D4A     		ldr	r2, .L145+36
 2443 0070 1360     		str	r3, [r2]	@ float
 519:Src/motion.c  ****     HAL_Delay(500);
 2444              		.loc 1 519 0
 2445 0072 4FF4FA70 		mov	r0, #500
 2446 0076 FFF7FEFF 		bl	HAL_Delay
 2447              	.LVL128:
 520:Src/motion.c  **** }
 2448              		.loc 1 520 0
ARM GAS  C:\Users\kotaro\AppData\Local\Temp\ccSv5CWQ.s 			page 53


 2449 007a BDEC028B 		vldm	sp!, {d8}
 2450              	.LCFI43:
 2451              		.cfi_restore 80
 2452              		.cfi_restore 81
 2453              		.cfi_def_cfa_offset 8
 2454 007e 08BD     		pop	{r3, pc}
 2455              	.L146:
 2456              		.align	2
 2457              	.L145:
 2458 0080 00000000 		.word	.LANCHOR2
 2459 0084 00000000 		.word	enc
 2460 0088 00000000 		.word	0
 2461 008c 00004844 		.word	1145569280
 2462 0090 0000FA45 		.word	1174011904
 2463 0094 00000000 		.word	motion_end_flag
 2464 0098 00000000 		.word	straight
 2465 009c 00000000 		.word	angle
 2466 00a0 00000000 		.word	error_ang_sum
 2467 00a4 00000000 		.word	error_ang_old
 2468              		.cfi_endproc
 2469              	.LFE179:
 2471              		.section	.text.Motion_InLeft45Turn,"ax",%progbits
 2472              		.align	1
 2473              		.global	Motion_InLeft45Turn
 2474              		.syntax unified
 2475              		.thumb
 2476              		.thumb_func
 2477              		.fpu fpv4-sp-d16
 2479              	Motion_InLeft45Turn:
 2480              	.LFB180:
 521:Src/motion.c  **** 
 522:Src/motion.c  **** void Motion_InLeft45Turn(void)
 523:Src/motion.c  **** {
 2481              		.loc 1 523 0
 2482              		.cfi_startproc
 2483              		@ args = 0, pretend = 0, frame = 0
 2484              		@ frame_needed = 0, uses_anonymous_args = 0
 2485 0000 08B5     		push	{r3, lr}
 2486              	.LCFI44:
 2487              		.cfi_def_cfa_offset 8
 2488              		.cfi_offset 3, -8
 2489              		.cfi_offset 14, -4
 524:Src/motion.c  ****     //offset in
 525:Src/motion.c  ****     Control_StrCalculator(43.0f - enc.offset, VELO_F, VELO_F, VELO_F, ACCEL_F, 1);
 2490              		.loc 1 525 0
 2491 0002 394B     		ldr	r3, .L152
 2492 0004 D3ED027A 		vldr.32	s15, [r3, #8]
 2493 0008 DFED380A 		vldr.32	s1, .L152+4
 2494 000c F7EE002A 		vmov.f32	s5, #1.0e+0
 2495 0010 9FED372A 		vldr.32	s4, .L152+8
 2496 0014 F0EE601A 		vmov.f32	s3, s1
 2497 0018 B0EE601A 		vmov.f32	s2, s1
 2498 001c 9FED350A 		vldr.32	s0, .L152+12
 2499 0020 30EE670A 		vsub.f32	s0, s0, s15
 2500 0024 FFF7FEFF 		bl	Control_StrCalculator
 2501              	.LVL129:
 526:Src/motion.c  ****     Control_AngCalculator(0, 0, 0, 0, 1, 0);
ARM GAS  C:\Users\kotaro\AppData\Local\Temp\ccSv5CWQ.s 			page 54


 2502              		.loc 1 526 0
 2503 0028 9FED330A 		vldr.32	s0, .L152+16
 2504 002c F0EE402A 		vmov.f32	s5, s0
 2505 0030 B7EE002A 		vmov.f32	s4, #1.0e+0
 2506 0034 F0EE401A 		vmov.f32	s3, s0
 2507 0038 B0EE401A 		vmov.f32	s2, s0
 2508 003c F0EE400A 		vmov.f32	s1, s0
 2509 0040 FFF7FEFF 		bl	Control_AngCalculator
 2510              	.LVL130:
 527:Src/motion.c  ****     motion_end_flag = FALSE;
 2511              		.loc 1 527 0
 2512 0044 2D4B     		ldr	r3, .L152+20
 2513 0046 0022     		movs	r2, #0
 2514 0048 1A70     		strb	r2, [r3]
 2515              	.L148:
 528:Src/motion.c  ****     while (motion_end_flag == FALSE)
 2516              		.loc 1 528 0 discriminator 1
 2517 004a 2C4B     		ldr	r3, .L152+20
 2518 004c 1B78     		ldrb	r3, [r3]	@ zero_extendqisi2
 2519 004e 002B     		cmp	r3, #0
 2520 0050 FBD0     		beq	.L148
 529:Src/motion.c  ****     {
 530:Src/motion.c  ****     }
 531:Src/motion.c  ****     //turn
 532:Src/motion.c  ****     Control_StrCalculator(800.0f, VELO_F, VELO_F, VELO_F, 1, 1);
 2521              		.loc 1 532 0
 2522 0052 9FED260A 		vldr.32	s0, .L152+4
 2523 0056 F7EE002A 		vmov.f32	s5, #1.0e+0
 2524 005a B0EE622A 		vmov.f32	s4, s5
 2525 005e F0EE401A 		vmov.f32	s3, s0
 2526 0062 B0EE401A 		vmov.f32	s2, s0
 2527 0066 F0EE400A 		vmov.f32	s1, s0
 2528 006a FFF7FEFF 		bl	Control_StrCalculator
 2529              	.LVL131:
 533:Src/motion.c  ****     Control_AngCalculator(45.0f, 0, 600.0f, 0, 20000.0f, 1);
 2530              		.loc 1 533 0
 2531 006e DFED220A 		vldr.32	s1, .L152+16
 2532 0072 F7EE002A 		vmov.f32	s5, #1.0e+0
 2533 0076 9FED222A 		vldr.32	s4, .L152+24
 2534 007a F0EE601A 		vmov.f32	s3, s1
 2535 007e 9FED211A 		vldr.32	s2, .L152+28
 2536 0082 9FED210A 		vldr.32	s0, .L152+32
 2537 0086 FFF7FEFF 		bl	Control_AngCalculator
 2538              	.LVL132:
 534:Src/motion.c  ****     motion_end_flag = FALSE;
 2539              		.loc 1 534 0
 2540 008a 1C4B     		ldr	r3, .L152+20
 2541 008c 0022     		movs	r2, #0
 2542 008e 1A70     		strb	r2, [r3]
 2543              	.L149:
 535:Src/motion.c  ****     while (motion_end_flag == FALSE)
 2544              		.loc 1 535 0 discriminator 1
 2545 0090 1A4B     		ldr	r3, .L152+20
 2546 0092 1B78     		ldrb	r3, [r3]	@ zero_extendqisi2
 2547 0094 002B     		cmp	r3, #0
 2548 0096 FBD0     		beq	.L149
 536:Src/motion.c  ****     {
ARM GAS  C:\Users\kotaro\AppData\Local\Temp\ccSv5CWQ.s 			page 55


 537:Src/motion.c  ****     }
 538:Src/motion.c  ****     //offset out
 539:Src/motion.c  ****     Control_StrCalculator(96.0f, VELO_F, VELO_F, VELO_F, 1, 1);
 2549              		.loc 1 539 0
 2550 0098 DFED140A 		vldr.32	s1, .L152+4
 2551 009c F7EE002A 		vmov.f32	s5, #1.0e+0
 2552 00a0 B0EE622A 		vmov.f32	s4, s5
 2553 00a4 F0EE601A 		vmov.f32	s3, s1
 2554 00a8 B0EE601A 		vmov.f32	s2, s1
 2555 00ac 9FED170A 		vldr.32	s0, .L152+36
 2556 00b0 FFF7FEFF 		bl	Control_StrCalculator
 2557              	.LVL133:
 540:Src/motion.c  ****     Control_AngCalculator(0, 0, 0, 0, 1, 0);
 2558              		.loc 1 540 0
 2559 00b4 9FED100A 		vldr.32	s0, .L152+16
 2560 00b8 F0EE402A 		vmov.f32	s5, s0
 2561 00bc B7EE002A 		vmov.f32	s4, #1.0e+0
 2562 00c0 F0EE401A 		vmov.f32	s3, s0
 2563 00c4 B0EE401A 		vmov.f32	s2, s0
 2564 00c8 F0EE400A 		vmov.f32	s1, s0
 2565 00cc FFF7FEFF 		bl	Control_AngCalculator
 2566              	.LVL134:
 541:Src/motion.c  ****     motion_end_flag = FALSE;
 2567              		.loc 1 541 0
 2568 00d0 0A4B     		ldr	r3, .L152+20
 2569 00d2 0022     		movs	r2, #0
 2570 00d4 1A70     		strb	r2, [r3]
 2571              	.L150:
 542:Src/motion.c  ****     while (motion_end_flag == FALSE)
 2572              		.loc 1 542 0 discriminator 1
 2573 00d6 094B     		ldr	r3, .L152+20
 2574 00d8 1B78     		ldrb	r3, [r3]	@ zero_extendqisi2
 2575 00da 002B     		cmp	r3, #0
 2576 00dc FBD0     		beq	.L150
 543:Src/motion.c  ****     {
 544:Src/motion.c  ****     }
 545:Src/motion.c  ****     enc.offset = 0.0f;
 2577              		.loc 1 545 0
 2578 00de 024B     		ldr	r3, .L152
 2579 00e0 0022     		movs	r2, #0
 2580 00e2 9A60     		str	r2, [r3, #8]	@ float
 546:Src/motion.c  **** }
 2581              		.loc 1 546 0
 2582 00e4 08BD     		pop	{r3, pc}
 2583              	.L153:
 2584 00e6 00BF     		.align	2
 2585              	.L152:
 2586 00e8 00000000 		.word	enc
 2587 00ec 00004844 		.word	1145569280
 2588 00f0 0000FA45 		.word	1174011904
 2589 00f4 00002C42 		.word	1110179840
 2590 00f8 00000000 		.word	0
 2591 00fc 00000000 		.word	motion_end_flag
 2592 0100 00409C46 		.word	1184645120
 2593 0104 00001644 		.word	1142292480
 2594 0108 00003442 		.word	1110704128
 2595 010c 0000C042 		.word	1119879168
ARM GAS  C:\Users\kotaro\AppData\Local\Temp\ccSv5CWQ.s 			page 56


 2596              		.cfi_endproc
 2597              	.LFE180:
 2599              		.section	.text.Motion_InRight45Turn,"ax",%progbits
 2600              		.align	1
 2601              		.global	Motion_InRight45Turn
 2602              		.syntax unified
 2603              		.thumb
 2604              		.thumb_func
 2605              		.fpu fpv4-sp-d16
 2607              	Motion_InRight45Turn:
 2608              	.LFB181:
 547:Src/motion.c  **** 
 548:Src/motion.c  **** void Motion_InRight45Turn(void)
 549:Src/motion.c  **** {
 2609              		.loc 1 549 0
 2610              		.cfi_startproc
 2611              		@ args = 0, pretend = 0, frame = 0
 2612              		@ frame_needed = 0, uses_anonymous_args = 0
 2613 0000 08B5     		push	{r3, lr}
 2614              	.LCFI45:
 2615              		.cfi_def_cfa_offset 8
 2616              		.cfi_offset 3, -8
 2617              		.cfi_offset 14, -4
 550:Src/motion.c  ****     //offset in
 551:Src/motion.c  ****     Control_StrCalculator(43.0f - enc.offset, VELO_F, VELO_F, VELO_F, ACCEL_F, 1);
 2618              		.loc 1 551 0
 2619 0002 394B     		ldr	r3, .L159
 2620 0004 D3ED027A 		vldr.32	s15, [r3, #8]
 2621 0008 DFED380A 		vldr.32	s1, .L159+4
 2622 000c F7EE002A 		vmov.f32	s5, #1.0e+0
 2623 0010 9FED372A 		vldr.32	s4, .L159+8
 2624 0014 F0EE601A 		vmov.f32	s3, s1
 2625 0018 B0EE601A 		vmov.f32	s2, s1
 2626 001c 9FED350A 		vldr.32	s0, .L159+12
 2627 0020 30EE670A 		vsub.f32	s0, s0, s15
 2628 0024 FFF7FEFF 		bl	Control_StrCalculator
 2629              	.LVL135:
 552:Src/motion.c  ****     Control_AngCalculator(0, 0, 0, 0, 1, 0);
 2630              		.loc 1 552 0
 2631 0028 9FED330A 		vldr.32	s0, .L159+16
 2632 002c F0EE402A 		vmov.f32	s5, s0
 2633 0030 B7EE002A 		vmov.f32	s4, #1.0e+0
 2634 0034 F0EE401A 		vmov.f32	s3, s0
 2635 0038 B0EE401A 		vmov.f32	s2, s0
 2636 003c F0EE400A 		vmov.f32	s1, s0
 2637 0040 FFF7FEFF 		bl	Control_AngCalculator
 2638              	.LVL136:
 553:Src/motion.c  ****     motion_end_flag = FALSE;
 2639              		.loc 1 553 0
 2640 0044 2D4B     		ldr	r3, .L159+20
 2641 0046 0022     		movs	r2, #0
 2642 0048 1A70     		strb	r2, [r3]
 2643              	.L155:
 554:Src/motion.c  ****     while (motion_end_flag == FALSE)
 2644              		.loc 1 554 0 discriminator 1
 2645 004a 2C4B     		ldr	r3, .L159+20
 2646 004c 1B78     		ldrb	r3, [r3]	@ zero_extendqisi2
ARM GAS  C:\Users\kotaro\AppData\Local\Temp\ccSv5CWQ.s 			page 57


 2647 004e 002B     		cmp	r3, #0
 2648 0050 FBD0     		beq	.L155
 555:Src/motion.c  ****     {
 556:Src/motion.c  ****     }
 557:Src/motion.c  ****     //turn
 558:Src/motion.c  ****     Control_StrCalculator(800.0f, VELO_F, VELO_F, VELO_F, 1, 1);
 2649              		.loc 1 558 0
 2650 0052 9FED260A 		vldr.32	s0, .L159+4
 2651 0056 F7EE002A 		vmov.f32	s5, #1.0e+0
 2652 005a B0EE622A 		vmov.f32	s4, s5
 2653 005e F0EE401A 		vmov.f32	s3, s0
 2654 0062 B0EE401A 		vmov.f32	s2, s0
 2655 0066 F0EE400A 		vmov.f32	s1, s0
 2656 006a FFF7FEFF 		bl	Control_StrCalculator
 2657              	.LVL137:
 559:Src/motion.c  ****     Control_AngCalculator(45.5f, 0, 600.0f, 0, 20000.0f, -1);
 2658              		.loc 1 559 0
 2659 006e DFED220A 		vldr.32	s1, .L159+16
 2660 0072 FFEE002A 		vmov.f32	s5, #-1.0e+0
 2661 0076 9FED222A 		vldr.32	s4, .L159+24
 2662 007a F0EE601A 		vmov.f32	s3, s1
 2663 007e 9FED211A 		vldr.32	s2, .L159+28
 2664 0082 9FED210A 		vldr.32	s0, .L159+32
 2665 0086 FFF7FEFF 		bl	Control_AngCalculator
 2666              	.LVL138:
 560:Src/motion.c  ****     motion_end_flag = FALSE;
 2667              		.loc 1 560 0
 2668 008a 1C4B     		ldr	r3, .L159+20
 2669 008c 0022     		movs	r2, #0
 2670 008e 1A70     		strb	r2, [r3]
 2671              	.L156:
 561:Src/motion.c  ****     while (motion_end_flag == FALSE)
 2672              		.loc 1 561 0 discriminator 1
 2673 0090 1A4B     		ldr	r3, .L159+20
 2674 0092 1B78     		ldrb	r3, [r3]	@ zero_extendqisi2
 2675 0094 002B     		cmp	r3, #0
 2676 0096 FBD0     		beq	.L156
 562:Src/motion.c  ****     {
 563:Src/motion.c  ****     }
 564:Src/motion.c  ****     //offset out
 565:Src/motion.c  ****     Control_StrCalculator(92.0f, VELO_F, VELO_F, VELO_F, 1, 1);
 2677              		.loc 1 565 0
 2678 0098 DFED140A 		vldr.32	s1, .L159+4
 2679 009c F7EE002A 		vmov.f32	s5, #1.0e+0
 2680 00a0 B0EE622A 		vmov.f32	s4, s5
 2681 00a4 F0EE601A 		vmov.f32	s3, s1
 2682 00a8 B0EE601A 		vmov.f32	s2, s1
 2683 00ac 9FED170A 		vldr.32	s0, .L159+36
 2684 00b0 FFF7FEFF 		bl	Control_StrCalculator
 2685              	.LVL139:
 566:Src/motion.c  ****     Control_AngCalculator(0, 0, 0, 0, 1, 0);
 2686              		.loc 1 566 0
 2687 00b4 9FED100A 		vldr.32	s0, .L159+16
 2688 00b8 F0EE402A 		vmov.f32	s5, s0
 2689 00bc B7EE002A 		vmov.f32	s4, #1.0e+0
 2690 00c0 F0EE401A 		vmov.f32	s3, s0
 2691 00c4 B0EE401A 		vmov.f32	s2, s0
ARM GAS  C:\Users\kotaro\AppData\Local\Temp\ccSv5CWQ.s 			page 58


 2692 00c8 F0EE400A 		vmov.f32	s1, s0
 2693 00cc FFF7FEFF 		bl	Control_AngCalculator
 2694              	.LVL140:
 567:Src/motion.c  ****     motion_end_flag = FALSE;
 2695              		.loc 1 567 0
 2696 00d0 0A4B     		ldr	r3, .L159+20
 2697 00d2 0022     		movs	r2, #0
 2698 00d4 1A70     		strb	r2, [r3]
 2699              	.L157:
 568:Src/motion.c  ****     while (motion_end_flag == FALSE)
 2700              		.loc 1 568 0 discriminator 1
 2701 00d6 094B     		ldr	r3, .L159+20
 2702 00d8 1B78     		ldrb	r3, [r3]	@ zero_extendqisi2
 2703 00da 002B     		cmp	r3, #0
 2704 00dc FBD0     		beq	.L157
 569:Src/motion.c  ****     {
 570:Src/motion.c  ****     }
 571:Src/motion.c  ****     enc.offset = 0.0f;
 2705              		.loc 1 571 0
 2706 00de 024B     		ldr	r3, .L159
 2707 00e0 0022     		movs	r2, #0
 2708 00e2 9A60     		str	r2, [r3, #8]	@ float
 572:Src/motion.c  **** }
 2709              		.loc 1 572 0
 2710 00e4 08BD     		pop	{r3, pc}
 2711              	.L160:
 2712 00e6 00BF     		.align	2
 2713              	.L159:
 2714 00e8 00000000 		.word	enc
 2715 00ec 00004844 		.word	1145569280
 2716 00f0 0000FA45 		.word	1174011904
 2717 00f4 00002C42 		.word	1110179840
 2718 00f8 00000000 		.word	0
 2719 00fc 00000000 		.word	motion_end_flag
 2720 0100 00409C46 		.word	1184645120
 2721 0104 00001644 		.word	1142292480
 2722 0108 00003642 		.word	1110835200
 2723 010c 0000B842 		.word	1119354880
 2724              		.cfi_endproc
 2725              	.LFE181:
 2727              		.section	.text.Motion_OutLeft45Turn,"ax",%progbits
 2728              		.align	1
 2729              		.global	Motion_OutLeft45Turn
 2730              		.syntax unified
 2731              		.thumb
 2732              		.thumb_func
 2733              		.fpu fpv4-sp-d16
 2735              	Motion_OutLeft45Turn:
 2736              	.LFB182:
 573:Src/motion.c  **** 
 574:Src/motion.c  **** void Motion_OutLeft45Turn(float v_end)
 575:Src/motion.c  **** {
 2737              		.loc 1 575 0
 2738              		.cfi_startproc
 2739              		@ args = 0, pretend = 0, frame = 0
 2740              		@ frame_needed = 0, uses_anonymous_args = 0
 2741              	.LVL141:
ARM GAS  C:\Users\kotaro\AppData\Local\Temp\ccSv5CWQ.s 			page 59


 2742 0000 08B5     		push	{r3, lr}
 2743              	.LCFI46:
 2744              		.cfi_def_cfa_offset 8
 2745              		.cfi_offset 3, -8
 2746              		.cfi_offset 14, -4
 2747 0002 2DED028B 		vpush.64	{d8}
 2748              	.LCFI47:
 2749              		.cfi_def_cfa_offset 16
 2750              		.cfi_offset 80, -16
 2751              		.cfi_offset 81, -12
 2752 0006 B0EE408A 		vmov.f32	s16, s0
 576:Src/motion.c  ****     //offset in
 577:Src/motion.c  ****     Control_StrCalculator(56.0f - enc.offset, VELO_F, VELO_F, VELO_F, 1, 1);
 2753              		.loc 1 577 0
 2754 000a 3A4B     		ldr	r3, .L166
 2755 000c D3ED027A 		vldr.32	s15, [r3, #8]
 2756 0010 DFED390A 		vldr.32	s1, .L166+4
 2757 0014 F7EE002A 		vmov.f32	s5, #1.0e+0
 2758 0018 B0EE622A 		vmov.f32	s4, s5
 2759 001c F0EE601A 		vmov.f32	s3, s1
 2760 0020 B0EE601A 		vmov.f32	s2, s1
 2761 0024 9FED350A 		vldr.32	s0, .L166+8
 2762              	.LVL142:
 2763 0028 30EE670A 		vsub.f32	s0, s0, s15
 2764 002c FFF7FEFF 		bl	Control_StrCalculator
 2765              	.LVL143:
 578:Src/motion.c  ****     Control_AngCalculator(0, 0, 0, 0, 1, 0);
 2766              		.loc 1 578 0
 2767 0030 9FED330A 		vldr.32	s0, .L166+12
 2768 0034 F0EE402A 		vmov.f32	s5, s0
 2769 0038 B7EE002A 		vmov.f32	s4, #1.0e+0
 2770 003c F0EE401A 		vmov.f32	s3, s0
 2771 0040 B0EE401A 		vmov.f32	s2, s0
 2772 0044 F0EE400A 		vmov.f32	s1, s0
 2773 0048 FFF7FEFF 		bl	Control_AngCalculator
 2774              	.LVL144:
 579:Src/motion.c  ****     motion_end_flag = FALSE;
 2775              		.loc 1 579 0
 2776 004c 2D4B     		ldr	r3, .L166+16
 2777 004e 0022     		movs	r2, #0
 2778 0050 1A70     		strb	r2, [r3]
 2779              	.L162:
 580:Src/motion.c  ****     while (motion_end_flag == FALSE)
 2780              		.loc 1 580 0 discriminator 1
 2781 0052 2C4B     		ldr	r3, .L166+16
 2782 0054 1B78     		ldrb	r3, [r3]	@ zero_extendqisi2
 2783 0056 002B     		cmp	r3, #0
 2784 0058 FBD0     		beq	.L162
 581:Src/motion.c  ****     {
 582:Src/motion.c  ****     }
 583:Src/motion.c  ****     //turn
 584:Src/motion.c  ****     Control_StrCalculator(800.0f, VELO_F, VELO_F, VELO_F, 1, 1);
 2785              		.loc 1 584 0
 2786 005a 9FED270A 		vldr.32	s0, .L166+4
 2787 005e F7EE002A 		vmov.f32	s5, #1.0e+0
 2788 0062 B0EE622A 		vmov.f32	s4, s5
 2789 0066 F0EE401A 		vmov.f32	s3, s0
ARM GAS  C:\Users\kotaro\AppData\Local\Temp\ccSv5CWQ.s 			page 60


 2790 006a B0EE401A 		vmov.f32	s2, s0
 2791 006e F0EE400A 		vmov.f32	s1, s0
 2792 0072 FFF7FEFF 		bl	Control_StrCalculator
 2793              	.LVL145:
 585:Src/motion.c  ****     Control_AngCalculator(45.5f, 0, 600.0f, 0, 20000.0f, 1);
 2794              		.loc 1 585 0
 2795 0076 DFED220A 		vldr.32	s1, .L166+12
 2796 007a F7EE002A 		vmov.f32	s5, #1.0e+0
 2797 007e 9FED222A 		vldr.32	s4, .L166+20
 2798 0082 F0EE601A 		vmov.f32	s3, s1
 2799 0086 9FED211A 		vldr.32	s2, .L166+24
 2800 008a 9FED210A 		vldr.32	s0, .L166+28
 2801 008e FFF7FEFF 		bl	Control_AngCalculator
 2802              	.LVL146:
 586:Src/motion.c  ****     motion_end_flag = FALSE;
 2803              		.loc 1 586 0
 2804 0092 1C4B     		ldr	r3, .L166+16
 2805 0094 0022     		movs	r2, #0
 2806 0096 1A70     		strb	r2, [r3]
 2807              	.L163:
 587:Src/motion.c  ****     while (motion_end_flag == FALSE)
 2808              		.loc 1 587 0 discriminator 1
 2809 0098 1A4B     		ldr	r3, .L166+16
 2810 009a 1B78     		ldrb	r3, [r3]	@ zero_extendqisi2
 2811 009c 002B     		cmp	r3, #0
 2812 009e FBD0     		beq	.L163
 588:Src/motion.c  ****     {
 589:Src/motion.c  ****     }
 590:Src/motion.c  ****     //offset out
 591:Src/motion.c  ****     Control_StrCalculator(75.0f, VELO_F, VELO_F, v_end, 16000.0f, 1);
 2813              		.loc 1 591 0
 2814 00a0 DFED150A 		vldr.32	s1, .L166+4
 2815 00a4 F7EE002A 		vmov.f32	s5, #1.0e+0
 2816 00a8 9FED1A2A 		vldr.32	s4, .L166+32
 2817 00ac F0EE481A 		vmov.f32	s3, s16
 2818 00b0 B0EE601A 		vmov.f32	s2, s1
 2819 00b4 9FED180A 		vldr.32	s0, .L166+36
 2820 00b8 FFF7FEFF 		bl	Control_StrCalculator
 2821              	.LVL147:
 592:Src/motion.c  ****     Control_AngCalculator(0, 0, 0, 0, 1, 0);
 2822              		.loc 1 592 0
 2823 00bc 9FED100A 		vldr.32	s0, .L166+12
 2824 00c0 F0EE402A 		vmov.f32	s5, s0
 2825 00c4 B7EE002A 		vmov.f32	s4, #1.0e+0
 2826 00c8 F0EE401A 		vmov.f32	s3, s0
 2827 00cc B0EE401A 		vmov.f32	s2, s0
 2828 00d0 F0EE400A 		vmov.f32	s1, s0
 2829 00d4 FFF7FEFF 		bl	Control_AngCalculator
 2830              	.LVL148:
 593:Src/motion.c  ****     motion_end_flag = FALSE;
 2831              		.loc 1 593 0
 2832 00d8 0A4B     		ldr	r3, .L166+16
 2833 00da 0022     		movs	r2, #0
 2834 00dc 1A70     		strb	r2, [r3]
 2835              	.L164:
 594:Src/motion.c  ****     while (motion_end_flag == FALSE)
 2836              		.loc 1 594 0 discriminator 1
ARM GAS  C:\Users\kotaro\AppData\Local\Temp\ccSv5CWQ.s 			page 61


 2837 00de 094B     		ldr	r3, .L166+16
 2838 00e0 1B78     		ldrb	r3, [r3]	@ zero_extendqisi2
 2839 00e2 002B     		cmp	r3, #0
 2840 00e4 FBD0     		beq	.L164
 595:Src/motion.c  ****     {
 596:Src/motion.c  ****     }
 597:Src/motion.c  ****     enc.offset = 0.0f;
 2841              		.loc 1 597 0
 2842 00e6 034B     		ldr	r3, .L166
 2843 00e8 0022     		movs	r2, #0
 2844 00ea 9A60     		str	r2, [r3, #8]	@ float
 598:Src/motion.c  **** }
 2845              		.loc 1 598 0
 2846 00ec BDEC028B 		vldm	sp!, {d8}
 2847              	.LCFI48:
 2848              		.cfi_restore 80
 2849              		.cfi_restore 81
 2850              		.cfi_def_cfa_offset 8
 2851              	.LVL149:
 2852 00f0 08BD     		pop	{r3, pc}
 2853              	.L167:
 2854 00f2 00BF     		.align	2
 2855              	.L166:
 2856 00f4 00000000 		.word	enc
 2857 00f8 00004844 		.word	1145569280
 2858 00fc 00006042 		.word	1113587712
 2859 0100 00000000 		.word	0
 2860 0104 00000000 		.word	motion_end_flag
 2861 0108 00409C46 		.word	1184645120
 2862 010c 00001644 		.word	1142292480
 2863 0110 00003642 		.word	1110835200
 2864 0114 00007A46 		.word	1182400512
 2865 0118 00009642 		.word	1117126656
 2866              		.cfi_endproc
 2867              	.LFE182:
 2869              		.section	.text.Motion_OutRight45Turn,"ax",%progbits
 2870              		.align	1
 2871              		.global	Motion_OutRight45Turn
 2872              		.syntax unified
 2873              		.thumb
 2874              		.thumb_func
 2875              		.fpu fpv4-sp-d16
 2877              	Motion_OutRight45Turn:
 2878              	.LFB183:
 599:Src/motion.c  **** 
 600:Src/motion.c  **** void Motion_OutRight45Turn(float v_end)
 601:Src/motion.c  **** {
 2879              		.loc 1 601 0
 2880              		.cfi_startproc
 2881              		@ args = 0, pretend = 0, frame = 0
 2882              		@ frame_needed = 0, uses_anonymous_args = 0
 2883              	.LVL150:
 2884 0000 08B5     		push	{r3, lr}
 2885              	.LCFI49:
 2886              		.cfi_def_cfa_offset 8
 2887              		.cfi_offset 3, -8
 2888              		.cfi_offset 14, -4
ARM GAS  C:\Users\kotaro\AppData\Local\Temp\ccSv5CWQ.s 			page 62


 2889 0002 2DED028B 		vpush.64	{d8}
 2890              	.LCFI50:
 2891              		.cfi_def_cfa_offset 16
 2892              		.cfi_offset 80, -16
 2893              		.cfi_offset 81, -12
 2894 0006 B0EE408A 		vmov.f32	s16, s0
 602:Src/motion.c  ****     //offset in
 603:Src/motion.c  ****     Control_StrCalculator(81.0f - enc.offset, VELO_F, VELO_F, VELO_F, 1, 1);
 2895              		.loc 1 603 0
 2896 000a 3A4B     		ldr	r3, .L173
 2897 000c D3ED027A 		vldr.32	s15, [r3, #8]
 2898 0010 DFED390A 		vldr.32	s1, .L173+4
 2899 0014 F7EE002A 		vmov.f32	s5, #1.0e+0
 2900 0018 B0EE622A 		vmov.f32	s4, s5
 2901 001c F0EE601A 		vmov.f32	s3, s1
 2902 0020 B0EE601A 		vmov.f32	s2, s1
 2903 0024 9FED350A 		vldr.32	s0, .L173+8
 2904              	.LVL151:
 2905 0028 30EE670A 		vsub.f32	s0, s0, s15
 2906 002c FFF7FEFF 		bl	Control_StrCalculator
 2907              	.LVL152:
 604:Src/motion.c  ****     Control_AngCalculator(0, 0, 0, 0, 1, 0);
 2908              		.loc 1 604 0
 2909 0030 9FED330A 		vldr.32	s0, .L173+12
 2910 0034 F0EE402A 		vmov.f32	s5, s0
 2911 0038 B7EE002A 		vmov.f32	s4, #1.0e+0
 2912 003c F0EE401A 		vmov.f32	s3, s0
 2913 0040 B0EE401A 		vmov.f32	s2, s0
 2914 0044 F0EE400A 		vmov.f32	s1, s0
 2915 0048 FFF7FEFF 		bl	Control_AngCalculator
 2916              	.LVL153:
 605:Src/motion.c  ****     motion_end_flag = FALSE;
 2917              		.loc 1 605 0
 2918 004c 2D4B     		ldr	r3, .L173+16
 2919 004e 0022     		movs	r2, #0
 2920 0050 1A70     		strb	r2, [r3]
 2921              	.L169:
 606:Src/motion.c  ****     while (motion_end_flag == FALSE)
 2922              		.loc 1 606 0 discriminator 1
 2923 0052 2C4B     		ldr	r3, .L173+16
 2924 0054 1B78     		ldrb	r3, [r3]	@ zero_extendqisi2
 2925 0056 002B     		cmp	r3, #0
 2926 0058 FBD0     		beq	.L169
 607:Src/motion.c  ****     {
 608:Src/motion.c  ****     }
 609:Src/motion.c  ****     //turn
 610:Src/motion.c  ****     Control_StrCalculator(800.0f, VELO_F, VELO_F, VELO_F, 1, 1);
 2927              		.loc 1 610 0
 2928 005a 9FED270A 		vldr.32	s0, .L173+4
 2929 005e F7EE002A 		vmov.f32	s5, #1.0e+0
 2930 0062 B0EE622A 		vmov.f32	s4, s5
 2931 0066 F0EE401A 		vmov.f32	s3, s0
 2932 006a B0EE401A 		vmov.f32	s2, s0
 2933 006e F0EE400A 		vmov.f32	s1, s0
 2934 0072 FFF7FEFF 		bl	Control_StrCalculator
 2935              	.LVL154:
 611:Src/motion.c  ****     Control_AngCalculator(45.5f, 0, 600.0f, 0, 20000.0f, -1);
ARM GAS  C:\Users\kotaro\AppData\Local\Temp\ccSv5CWQ.s 			page 63


 2936              		.loc 1 611 0
 2937 0076 DFED220A 		vldr.32	s1, .L173+12
 2938 007a FFEE002A 		vmov.f32	s5, #-1.0e+0
 2939 007e 9FED222A 		vldr.32	s4, .L173+20
 2940 0082 F0EE601A 		vmov.f32	s3, s1
 2941 0086 9FED211A 		vldr.32	s2, .L173+24
 2942 008a 9FED210A 		vldr.32	s0, .L173+28
 2943 008e FFF7FEFF 		bl	Control_AngCalculator
 2944              	.LVL155:
 612:Src/motion.c  ****     motion_end_flag = FALSE;
 2945              		.loc 1 612 0
 2946 0092 1C4B     		ldr	r3, .L173+16
 2947 0094 0022     		movs	r2, #0
 2948 0096 1A70     		strb	r2, [r3]
 2949              	.L170:
 613:Src/motion.c  ****     while (motion_end_flag == FALSE)
 2950              		.loc 1 613 0 discriminator 1
 2951 0098 1A4B     		ldr	r3, .L173+16
 2952 009a 1B78     		ldrb	r3, [r3]	@ zero_extendqisi2
 2953 009c 002B     		cmp	r3, #0
 2954 009e FBD0     		beq	.L170
 614:Src/motion.c  ****     {
 615:Src/motion.c  ****     }
 616:Src/motion.c  ****     //offset out
 617:Src/motion.c  ****     Control_StrCalculator(47.0f, VELO_F, VELO_F, v_end, 16000.0f, 1);
 2955              		.loc 1 617 0
 2956 00a0 DFED150A 		vldr.32	s1, .L173+4
 2957 00a4 F7EE002A 		vmov.f32	s5, #1.0e+0
 2958 00a8 9FED1A2A 		vldr.32	s4, .L173+32
 2959 00ac F0EE481A 		vmov.f32	s3, s16
 2960 00b0 B0EE601A 		vmov.f32	s2, s1
 2961 00b4 9FED180A 		vldr.32	s0, .L173+36
 2962 00b8 FFF7FEFF 		bl	Control_StrCalculator
 2963              	.LVL156:
 618:Src/motion.c  ****     Control_AngCalculator(0, 0, 0, 0, 1, 0);
 2964              		.loc 1 618 0
 2965 00bc 9FED100A 		vldr.32	s0, .L173+12
 2966 00c0 F0EE402A 		vmov.f32	s5, s0
 2967 00c4 B7EE002A 		vmov.f32	s4, #1.0e+0
 2968 00c8 F0EE401A 		vmov.f32	s3, s0
 2969 00cc B0EE401A 		vmov.f32	s2, s0
 2970 00d0 F0EE400A 		vmov.f32	s1, s0
 2971 00d4 FFF7FEFF 		bl	Control_AngCalculator
 2972              	.LVL157:
 619:Src/motion.c  ****     motion_end_flag = FALSE;
 2973              		.loc 1 619 0
 2974 00d8 0A4B     		ldr	r3, .L173+16
 2975 00da 0022     		movs	r2, #0
 2976 00dc 1A70     		strb	r2, [r3]
 2977              	.L171:
 620:Src/motion.c  ****     while (motion_end_flag == FALSE)
 2978              		.loc 1 620 0 discriminator 1
 2979 00de 094B     		ldr	r3, .L173+16
 2980 00e0 1B78     		ldrb	r3, [r3]	@ zero_extendqisi2
 2981 00e2 002B     		cmp	r3, #0
 2982 00e4 FBD0     		beq	.L171
 621:Src/motion.c  ****     {
ARM GAS  C:\Users\kotaro\AppData\Local\Temp\ccSv5CWQ.s 			page 64


 622:Src/motion.c  ****     }
 623:Src/motion.c  ****     enc.offset = 0.0f;
 2983              		.loc 1 623 0
 2984 00e6 034B     		ldr	r3, .L173
 2985 00e8 0022     		movs	r2, #0
 2986 00ea 9A60     		str	r2, [r3, #8]	@ float
 624:Src/motion.c  **** }
 2987              		.loc 1 624 0
 2988 00ec BDEC028B 		vldm	sp!, {d8}
 2989              	.LCFI51:
 2990              		.cfi_restore 80
 2991              		.cfi_restore 81
 2992              		.cfi_def_cfa_offset 8
 2993              	.LVL158:
 2994 00f0 08BD     		pop	{r3, pc}
 2995              	.L174:
 2996 00f2 00BF     		.align	2
 2997              	.L173:
 2998 00f4 00000000 		.word	enc
 2999 00f8 00004844 		.word	1145569280
 3000 00fc 0000A242 		.word	1117913088
 3001 0100 00000000 		.word	0
 3002 0104 00000000 		.word	motion_end_flag
 3003 0108 00409C46 		.word	1184645120
 3004 010c 00001644 		.word	1142292480
 3005 0110 00003642 		.word	1110835200
 3006 0114 00007A46 		.word	1182400512
 3007 0118 00003C42 		.word	1111228416
 3008              		.cfi_endproc
 3009              	.LFE183:
 3011              		.section	.text.Motion_Left90Turn,"ax",%progbits
 3012              		.align	1
 3013              		.global	Motion_Left90Turn
 3014              		.syntax unified
 3015              		.thumb
 3016              		.thumb_func
 3017              		.fpu fpv4-sp-d16
 3019              	Motion_Left90Turn:
 3020              	.LFB184:
 625:Src/motion.c  **** 
 626:Src/motion.c  **** void Motion_Left90Turn(float v_end)
 627:Src/motion.c  **** {
 3021              		.loc 1 627 0
 3022              		.cfi_startproc
 3023              		@ args = 0, pretend = 0, frame = 0
 3024              		@ frame_needed = 0, uses_anonymous_args = 0
 3025              	.LVL159:
 3026 0000 08B5     		push	{r3, lr}
 3027              	.LCFI52:
 3028              		.cfi_def_cfa_offset 8
 3029              		.cfi_offset 3, -8
 3030              		.cfi_offset 14, -4
 3031 0002 2DED028B 		vpush.64	{d8}
 3032              	.LCFI53:
 3033              		.cfi_def_cfa_offset 16
 3034              		.cfi_offset 80, -16
 3035              		.cfi_offset 81, -12
ARM GAS  C:\Users\kotaro\AppData\Local\Temp\ccSv5CWQ.s 			page 65


 3036 0006 B0EE408A 		vmov.f32	s16, s0
 628:Src/motion.c  ****     //offset in
 629:Src/motion.c  ****     Control_StrCalculator(10.5f - enc.offset, VELO_F, VELO_F, VELO_F, ACCEL_F, 1);
 3037              		.loc 1 629 0
 3038 000a 3A4B     		ldr	r3, .L180
 3039 000c D3ED027A 		vldr.32	s15, [r3, #8]
 3040 0010 DFED390A 		vldr.32	s1, .L180+4
 3041 0014 F7EE002A 		vmov.f32	s5, #1.0e+0
 3042 0018 9FED382A 		vldr.32	s4, .L180+8
 3043 001c F0EE601A 		vmov.f32	s3, s1
 3044 0020 B0EE601A 		vmov.f32	s2, s1
 3045 0024 B2EE050A 		vmov.f32	s0, #1.05e+1
 3046              	.LVL160:
 3047 0028 30EE670A 		vsub.f32	s0, s0, s15
 3048 002c FFF7FEFF 		bl	Control_StrCalculator
 3049              	.LVL161:
 630:Src/motion.c  ****     Control_AngCalculator(0, 0, 0, 0, 1, 0);
 3050              		.loc 1 630 0
 3051 0030 9FED330A 		vldr.32	s0, .L180+12
 3052 0034 F0EE402A 		vmov.f32	s5, s0
 3053 0038 B7EE002A 		vmov.f32	s4, #1.0e+0
 3054 003c F0EE401A 		vmov.f32	s3, s0
 3055 0040 B0EE401A 		vmov.f32	s2, s0
 3056 0044 F0EE400A 		vmov.f32	s1, s0
 3057 0048 FFF7FEFF 		bl	Control_AngCalculator
 3058              	.LVL162:
 631:Src/motion.c  ****     motion_end_flag = FALSE;
 3059              		.loc 1 631 0
 3060 004c 2D4B     		ldr	r3, .L180+16
 3061 004e 0022     		movs	r2, #0
 3062 0050 1A70     		strb	r2, [r3]
 3063              	.L176:
 632:Src/motion.c  ****     while (motion_end_flag == FALSE)
 3064              		.loc 1 632 0 discriminator 1
 3065 0052 2C4B     		ldr	r3, .L180+16
 3066 0054 1B78     		ldrb	r3, [r3]	@ zero_extendqisi2
 3067 0056 002B     		cmp	r3, #0
 3068 0058 FBD0     		beq	.L176
 633:Src/motion.c  ****     {
 634:Src/motion.c  ****     }
 635:Src/motion.c  ****     //turn
 636:Src/motion.c  ****     Control_StrCalculator(600.0f, VELO_F, VELO_F, VELO_F, 1, 1);
 3069              		.loc 1 636 0
 3070 005a DFED270A 		vldr.32	s1, .L180+4
 3071 005e F7EE002A 		vmov.f32	s5, #1.0e+0
 3072 0062 B0EE622A 		vmov.f32	s4, s5
 3073 0066 F0EE601A 		vmov.f32	s3, s1
 3074 006a B0EE601A 		vmov.f32	s2, s1
 3075 006e 9FED260A 		vldr.32	s0, .L180+20
 3076 0072 FFF7FEFF 		bl	Control_StrCalculator
 3077              	.LVL163:
 637:Src/motion.c  ****     Control_AngCalculator(90.5f, 0, VELO_ANG_B, 0, ACCEL_ANG_B, 1);
 3078              		.loc 1 637 0
 3079 0076 DFED220A 		vldr.32	s1, .L180+12
 3080 007a F7EE002A 		vmov.f32	s5, #1.0e+0
 3081 007e 9FED232A 		vldr.32	s4, .L180+24
 3082 0082 F0EE601A 		vmov.f32	s3, s1
ARM GAS  C:\Users\kotaro\AppData\Local\Temp\ccSv5CWQ.s 			page 66


 3083 0086 9FED221A 		vldr.32	s2, .L180+28
 3084 008a 9FED220A 		vldr.32	s0, .L180+32
 3085 008e FFF7FEFF 		bl	Control_AngCalculator
 3086              	.LVL164:
 638:Src/motion.c  ****     motion_end_flag = FALSE;
 3087              		.loc 1 638 0
 3088 0092 1C4B     		ldr	r3, .L180+16
 3089 0094 0022     		movs	r2, #0
 3090 0096 1A70     		strb	r2, [r3]
 3091              	.L177:
 639:Src/motion.c  ****     while (motion_end_flag == FALSE)
 3092              		.loc 1 639 0 discriminator 1
 3093 0098 1A4B     		ldr	r3, .L180+16
 3094 009a 1B78     		ldrb	r3, [r3]	@ zero_extendqisi2
 3095 009c 002B     		cmp	r3, #0
 3096 009e FBD0     		beq	.L177
 640:Src/motion.c  ****     {
 641:Src/motion.c  ****     }
 642:Src/motion.c  ****     //offset out
 643:Src/motion.c  ****     Control_StrCalculator(20.0f, VELO_F, VELO_F, v_end, 16000.0f, 1);
 3097              		.loc 1 643 0
 3098 00a0 DFED150A 		vldr.32	s1, .L180+4
 3099 00a4 F7EE002A 		vmov.f32	s5, #1.0e+0
 3100 00a8 9FED1B2A 		vldr.32	s4, .L180+36
 3101 00ac F0EE481A 		vmov.f32	s3, s16
 3102 00b0 B0EE601A 		vmov.f32	s2, s1
 3103 00b4 B3EE040A 		vmov.f32	s0, #2.0e+1
 3104 00b8 FFF7FEFF 		bl	Control_StrCalculator
 3105              	.LVL165:
 644:Src/motion.c  ****     Control_AngCalculator(0, 0, 0, 0, 1, 0);
 3106              		.loc 1 644 0
 3107 00bc 9FED100A 		vldr.32	s0, .L180+12
 3108 00c0 F0EE402A 		vmov.f32	s5, s0
 3109 00c4 B7EE002A 		vmov.f32	s4, #1.0e+0
 3110 00c8 F0EE401A 		vmov.f32	s3, s0
 3111 00cc B0EE401A 		vmov.f32	s2, s0
 3112 00d0 F0EE400A 		vmov.f32	s1, s0
 3113 00d4 FFF7FEFF 		bl	Control_AngCalculator
 3114              	.LVL166:
 645:Src/motion.c  ****     motion_end_flag = FALSE;
 3115              		.loc 1 645 0
 3116 00d8 0A4B     		ldr	r3, .L180+16
 3117 00da 0022     		movs	r2, #0
 3118 00dc 1A70     		strb	r2, [r3]
 3119              	.L178:
 646:Src/motion.c  ****     while (motion_end_flag == FALSE)
 3120              		.loc 1 646 0 discriminator 1
 3121 00de 094B     		ldr	r3, .L180+16
 3122 00e0 1B78     		ldrb	r3, [r3]	@ zero_extendqisi2
 3123 00e2 002B     		cmp	r3, #0
 3124 00e4 FBD0     		beq	.L178
 647:Src/motion.c  ****     {
 648:Src/motion.c  ****     }
 649:Src/motion.c  ****     enc.offset = 0.0f;
 3125              		.loc 1 649 0
 3126 00e6 034B     		ldr	r3, .L180
 3127 00e8 0022     		movs	r2, #0
ARM GAS  C:\Users\kotaro\AppData\Local\Temp\ccSv5CWQ.s 			page 67


 3128 00ea 9A60     		str	r2, [r3, #8]	@ float
 650:Src/motion.c  **** }
 3129              		.loc 1 650 0
 3130 00ec BDEC028B 		vldm	sp!, {d8}
 3131              	.LCFI54:
 3132              		.cfi_restore 80
 3133              		.cfi_restore 81
 3134              		.cfi_def_cfa_offset 8
 3135              	.LVL167:
 3136 00f0 08BD     		pop	{r3, pc}
 3137              	.L181:
 3138 00f2 00BF     		.align	2
 3139              	.L180:
 3140 00f4 00000000 		.word	enc
 3141 00f8 00004844 		.word	1145569280
 3142 00fc 0000FA45 		.word	1174011904
 3143 0100 00000000 		.word	0
 3144 0104 00000000 		.word	motion_end_flag
 3145 0108 00001644 		.word	1142292480
 3146 010c 00007A45 		.word	1165623296
 3147 0110 0000BE43 		.word	1136525312
 3148 0114 0000B542 		.word	1119158272
 3149 0118 00007A46 		.word	1182400512
 3150              		.cfi_endproc
 3151              	.LFE184:
 3153              		.section	.text.Motion_Right90Turn,"ax",%progbits
 3154              		.align	1
 3155              		.global	Motion_Right90Turn
 3156              		.syntax unified
 3157              		.thumb
 3158              		.thumb_func
 3159              		.fpu fpv4-sp-d16
 3161              	Motion_Right90Turn:
 3162              	.LFB185:
 651:Src/motion.c  **** 
 652:Src/motion.c  **** void Motion_Right90Turn(float v_end)
 653:Src/motion.c  **** {
 3163              		.loc 1 653 0
 3164              		.cfi_startproc
 3165              		@ args = 0, pretend = 0, frame = 0
 3166              		@ frame_needed = 0, uses_anonymous_args = 0
 3167              	.LVL168:
 3168 0000 08B5     		push	{r3, lr}
 3169              	.LCFI55:
 3170              		.cfi_def_cfa_offset 8
 3171              		.cfi_offset 3, -8
 3172              		.cfi_offset 14, -4
 3173 0002 2DED028B 		vpush.64	{d8}
 3174              	.LCFI56:
 3175              		.cfi_def_cfa_offset 16
 3176              		.cfi_offset 80, -16
 3177              		.cfi_offset 81, -12
 3178 0006 B0EE408A 		vmov.f32	s16, s0
 654:Src/motion.c  ****     //offset in
 655:Src/motion.c  ****     Control_StrCalculator(12.0f - enc.offset, VELO_F, VELO_F, VELO_F, ACCEL_F, 1);
 3179              		.loc 1 655 0
 3180 000a 3A4B     		ldr	r3, .L187
ARM GAS  C:\Users\kotaro\AppData\Local\Temp\ccSv5CWQ.s 			page 68


 3181 000c D3ED027A 		vldr.32	s15, [r3, #8]
 3182 0010 DFED390A 		vldr.32	s1, .L187+4
 3183 0014 F7EE002A 		vmov.f32	s5, #1.0e+0
 3184 0018 9FED382A 		vldr.32	s4, .L187+8
 3185 001c F0EE601A 		vmov.f32	s3, s1
 3186 0020 B0EE601A 		vmov.f32	s2, s1
 3187 0024 B2EE080A 		vmov.f32	s0, #1.2e+1
 3188              	.LVL169:
 3189 0028 30EE670A 		vsub.f32	s0, s0, s15
 3190 002c FFF7FEFF 		bl	Control_StrCalculator
 3191              	.LVL170:
 656:Src/motion.c  ****     Control_AngCalculator(0, 0, 0, 0, 1, 0);
 3192              		.loc 1 656 0
 3193 0030 9FED330A 		vldr.32	s0, .L187+12
 3194 0034 F0EE402A 		vmov.f32	s5, s0
 3195 0038 B7EE002A 		vmov.f32	s4, #1.0e+0
 3196 003c F0EE401A 		vmov.f32	s3, s0
 3197 0040 B0EE401A 		vmov.f32	s2, s0
 3198 0044 F0EE400A 		vmov.f32	s1, s0
 3199 0048 FFF7FEFF 		bl	Control_AngCalculator
 3200              	.LVL171:
 657:Src/motion.c  ****     motion_end_flag = FALSE;
 3201              		.loc 1 657 0
 3202 004c 2D4B     		ldr	r3, .L187+16
 3203 004e 0022     		movs	r2, #0
 3204 0050 1A70     		strb	r2, [r3]
 3205              	.L183:
 658:Src/motion.c  ****     while (motion_end_flag == FALSE)
 3206              		.loc 1 658 0 discriminator 1
 3207 0052 2C4B     		ldr	r3, .L187+16
 3208 0054 1B78     		ldrb	r3, [r3]	@ zero_extendqisi2
 3209 0056 002B     		cmp	r3, #0
 3210 0058 FBD0     		beq	.L183
 659:Src/motion.c  ****     {
 660:Src/motion.c  ****     }
 661:Src/motion.c  ****     //turn
 662:Src/motion.c  ****     Control_StrCalculator(600.0f, VELO_F, VELO_F, VELO_F, 1, 1);
 3211              		.loc 1 662 0
 3212 005a DFED270A 		vldr.32	s1, .L187+4
 3213 005e F7EE002A 		vmov.f32	s5, #1.0e+0
 3214 0062 B0EE622A 		vmov.f32	s4, s5
 3215 0066 F0EE601A 		vmov.f32	s3, s1
 3216 006a B0EE601A 		vmov.f32	s2, s1
 3217 006e 9FED260A 		vldr.32	s0, .L187+20
 3218 0072 FFF7FEFF 		bl	Control_StrCalculator
 3219              	.LVL172:
 663:Src/motion.c  ****     Control_AngCalculator(90.5f, 0, VELO_ANG_B, 0, ACCEL_ANG_B, -1);
 3220              		.loc 1 663 0
 3221 0076 DFED220A 		vldr.32	s1, .L187+12
 3222 007a FFEE002A 		vmov.f32	s5, #-1.0e+0
 3223 007e 9FED232A 		vldr.32	s4, .L187+24
 3224 0082 F0EE601A 		vmov.f32	s3, s1
 3225 0086 9FED221A 		vldr.32	s2, .L187+28
 3226 008a 9FED220A 		vldr.32	s0, .L187+32
 3227 008e FFF7FEFF 		bl	Control_AngCalculator
 3228              	.LVL173:
 664:Src/motion.c  ****     motion_end_flag = FALSE;
ARM GAS  C:\Users\kotaro\AppData\Local\Temp\ccSv5CWQ.s 			page 69


 3229              		.loc 1 664 0
 3230 0092 1C4B     		ldr	r3, .L187+16
 3231 0094 0022     		movs	r2, #0
 3232 0096 1A70     		strb	r2, [r3]
 3233              	.L184:
 665:Src/motion.c  ****     while (motion_end_flag == FALSE)
 3234              		.loc 1 665 0 discriminator 1
 3235 0098 1A4B     		ldr	r3, .L187+16
 3236 009a 1B78     		ldrb	r3, [r3]	@ zero_extendqisi2
 3237 009c 002B     		cmp	r3, #0
 3238 009e FBD0     		beq	.L184
 666:Src/motion.c  ****     {
 667:Src/motion.c  ****     }
 668:Src/motion.c  ****     //offset out
 669:Src/motion.c  ****     Control_StrCalculator(28.0f, VELO_F, VELO_F, v_end, 16000.0f, 1);
 3239              		.loc 1 669 0
 3240 00a0 DFED150A 		vldr.32	s1, .L187+4
 3241 00a4 F7EE002A 		vmov.f32	s5, #1.0e+0
 3242 00a8 9FED1B2A 		vldr.32	s4, .L187+36
 3243 00ac F0EE481A 		vmov.f32	s3, s16
 3244 00b0 B0EE601A 		vmov.f32	s2, s1
 3245 00b4 B3EE0C0A 		vmov.f32	s0, #2.8e+1
 3246 00b8 FFF7FEFF 		bl	Control_StrCalculator
 3247              	.LVL174:
 670:Src/motion.c  ****     Control_AngCalculator(0, 0, 0, 0, 1, 0);
 3248              		.loc 1 670 0
 3249 00bc 9FED100A 		vldr.32	s0, .L187+12
 3250 00c0 F0EE402A 		vmov.f32	s5, s0
 3251 00c4 B7EE002A 		vmov.f32	s4, #1.0e+0
 3252 00c8 F0EE401A 		vmov.f32	s3, s0
 3253 00cc B0EE401A 		vmov.f32	s2, s0
 3254 00d0 F0EE400A 		vmov.f32	s1, s0
 3255 00d4 FFF7FEFF 		bl	Control_AngCalculator
 3256              	.LVL175:
 671:Src/motion.c  ****     motion_end_flag = FALSE;
 3257              		.loc 1 671 0
 3258 00d8 0A4B     		ldr	r3, .L187+16
 3259 00da 0022     		movs	r2, #0
 3260 00dc 1A70     		strb	r2, [r3]
 3261              	.L185:
 672:Src/motion.c  ****     while (motion_end_flag == FALSE)
 3262              		.loc 1 672 0 discriminator 1
 3263 00de 094B     		ldr	r3, .L187+16
 3264 00e0 1B78     		ldrb	r3, [r3]	@ zero_extendqisi2
 3265 00e2 002B     		cmp	r3, #0
 3266 00e4 FBD0     		beq	.L185
 673:Src/motion.c  ****     {
 674:Src/motion.c  ****     }
 675:Src/motion.c  ****     enc.offset = 0.0f;
 3267              		.loc 1 675 0
 3268 00e6 034B     		ldr	r3, .L187
 3269 00e8 0022     		movs	r2, #0
 3270 00ea 9A60     		str	r2, [r3, #8]	@ float
 676:Src/motion.c  **** }
 3271              		.loc 1 676 0
 3272 00ec BDEC028B 		vldm	sp!, {d8}
 3273              	.LCFI57:
ARM GAS  C:\Users\kotaro\AppData\Local\Temp\ccSv5CWQ.s 			page 70


 3274              		.cfi_restore 80
 3275              		.cfi_restore 81
 3276              		.cfi_def_cfa_offset 8
 3277              	.LVL176:
 3278 00f0 08BD     		pop	{r3, pc}
 3279              	.L188:
 3280 00f2 00BF     		.align	2
 3281              	.L187:
 3282 00f4 00000000 		.word	enc
 3283 00f8 00004844 		.word	1145569280
 3284 00fc 0000FA45 		.word	1174011904
 3285 0100 00000000 		.word	0
 3286 0104 00000000 		.word	motion_end_flag
 3287 0108 00001644 		.word	1142292480
 3288 010c 00007A45 		.word	1165623296
 3289 0110 0000BE43 		.word	1136525312
 3290 0114 0000B542 		.word	1119158272
 3291 0118 00007A46 		.word	1182400512
 3292              		.cfi_endproc
 3293              	.LFE185:
 3295              		.section	.text.Turn,"ax",%progbits
 3296              		.align	1
 3297              		.global	Turn
 3298              		.syntax unified
 3299              		.thumb
 3300              		.thumb_func
 3301              		.fpu fpv4-sp-d16
 3303              	Turn:
 3304              	.LFB186:
 677:Src/motion.c  **** 
 678:Src/motion.c  **** void Turn(float offset_in, float offset_out, float velo, float v_end, float deg, float velo_ang, fl
 679:Src/motion.c  **** {
 3305              		.loc 1 679 0
 3306              		.cfi_startproc
 3307              		@ args = 0, pretend = 0, frame = 0
 3308              		@ frame_needed = 0, uses_anonymous_args = 0
 3309              	.LVL177:
 3310 0000 08B5     		push	{r3, lr}
 3311              	.LCFI58:
 3312              		.cfi_def_cfa_offset 8
 3313              		.cfi_offset 3, -8
 3314              		.cfi_offset 14, -4
 3315 0002 2DED088B 		vpush.64	{d8, d9, d10, d11}
 3316              	.LCFI59:
 3317              		.cfi_def_cfa_offset 40
 3318              		.cfi_offset 80, -40
 3319              		.cfi_offset 81, -36
 3320              		.cfi_offset 82, -32
 3321              		.cfi_offset 83, -28
 3322              		.cfi_offset 84, -24
 3323              		.cfi_offset 85, -20
 3324              		.cfi_offset 86, -16
 3325              		.cfi_offset 87, -12
 3326 0006 F0EE608A 		vmov.f32	s17, s1
 3327 000a B0EE418A 		vmov.f32	s16, s2
 3328 000e B0EE619A 		vmov.f32	s18, s3
 3329 0012 F0EE429A 		vmov.f32	s19, s4
ARM GAS  C:\Users\kotaro\AppData\Local\Temp\ccSv5CWQ.s 			page 71


 3330 0016 B0EE62AA 		vmov.f32	s20, s5
 3331 001a F0EE43AA 		vmov.f32	s21, s6
 3332 001e 0BEE100A 		vmov	s22, r0	@ int
 680:Src/motion.c  ****     //offset in
 681:Src/motion.c  ****     Control_StrCalculator(offset_in - enc.offset, velo, velo, velo, 1, 1);
 3333              		.loc 1 681 0
 3334 0022 384B     		ldr	r3, .L194
 3335 0024 D3ED027A 		vldr.32	s15, [r3, #8]
 3336 0028 F7EE002A 		vmov.f32	s5, #1.0e+0
 3337              	.LVL178:
 3338 002c B0EE622A 		vmov.f32	s4, s5
 3339              	.LVL179:
 3340 0030 F0EE411A 		vmov.f32	s3, s2
 3341              	.LVL180:
 3342 0034 F0EE410A 		vmov.f32	s1, s2
 3343              	.LVL181:
 3344 0038 30EE670A 		vsub.f32	s0, s0, s15
 3345              	.LVL182:
 3346 003c FFF7FEFF 		bl	Control_StrCalculator
 3347              	.LVL183:
 682:Src/motion.c  ****     Control_AngCalculator(0, 0, 0, 0, 1, 0);
 3348              		.loc 1 682 0
 3349 0040 9FED310A 		vldr.32	s0, .L194+4
 3350 0044 F0EE402A 		vmov.f32	s5, s0
 3351 0048 B7EE002A 		vmov.f32	s4, #1.0e+0
 3352 004c F0EE401A 		vmov.f32	s3, s0
 3353 0050 B0EE401A 		vmov.f32	s2, s0
 3354 0054 F0EE400A 		vmov.f32	s1, s0
 3355 0058 FFF7FEFF 		bl	Control_AngCalculator
 3356              	.LVL184:
 683:Src/motion.c  ****     motion_end_flag = FALSE;
 3357              		.loc 1 683 0
 3358 005c 2B4B     		ldr	r3, .L194+8
 3359 005e 0022     		movs	r2, #0
 3360 0060 1A70     		strb	r2, [r3]
 3361              	.L190:
 684:Src/motion.c  ****     while (motion_end_flag == FALSE)
 3362              		.loc 1 684 0 discriminator 1
 3363 0062 2A4B     		ldr	r3, .L194+8
 3364 0064 1B78     		ldrb	r3, [r3]	@ zero_extendqisi2
 3365 0066 002B     		cmp	r3, #0
 3366 0068 FBD0     		beq	.L190
 685:Src/motion.c  ****     {
 686:Src/motion.c  ****     }
 687:Src/motion.c  ****     //turn
 688:Src/motion.c  ****     Control_StrCalculator(600.0f, velo, velo, velo, 1, 1);
 3367              		.loc 1 688 0
 3368 006a F7EE002A 		vmov.f32	s5, #1.0e+0
 3369 006e B0EE622A 		vmov.f32	s4, s5
 3370 0072 F0EE481A 		vmov.f32	s3, s16
 3371 0076 B0EE481A 		vmov.f32	s2, s16
 3372 007a F0EE480A 		vmov.f32	s1, s16
 3373 007e 9FED240A 		vldr.32	s0, .L194+12
 3374 0082 FFF7FEFF 		bl	Control_StrCalculator
 3375              	.LVL185:
 689:Src/motion.c  ****     Control_AngCalculator(deg, 0, velo_ang, 0, accel_ang, dir);
 3376              		.loc 1 689 0
ARM GAS  C:\Users\kotaro\AppData\Local\Temp\ccSv5CWQ.s 			page 72


 3377 0086 DFED200A 		vldr.32	s1, .L194+4
 3378 008a F8EE4B2A 		vcvt.f32.u32	s5, s22
 3379 008e B0EE6A2A 		vmov.f32	s4, s21
 3380 0092 F0EE601A 		vmov.f32	s3, s1
 3381 0096 B0EE4A1A 		vmov.f32	s2, s20
 3382 009a B0EE690A 		vmov.f32	s0, s19
 3383 009e FFF7FEFF 		bl	Control_AngCalculator
 3384              	.LVL186:
 690:Src/motion.c  ****     motion_end_flag = FALSE;
 3385              		.loc 1 690 0
 3386 00a2 1A4B     		ldr	r3, .L194+8
 3387 00a4 0022     		movs	r2, #0
 3388 00a6 1A70     		strb	r2, [r3]
 3389              	.L191:
 691:Src/motion.c  ****     while (motion_end_flag == FALSE)
 3390              		.loc 1 691 0 discriminator 1
 3391 00a8 184B     		ldr	r3, .L194+8
 3392 00aa 1B78     		ldrb	r3, [r3]	@ zero_extendqisi2
 3393 00ac 002B     		cmp	r3, #0
 3394 00ae FBD0     		beq	.L191
 692:Src/motion.c  ****     {
 693:Src/motion.c  ****     }
 694:Src/motion.c  ****     //offset out
 695:Src/motion.c  ****     Control_StrCalculator(offset_out, velo, velo, v_end, 16000.0f, 1);
 3395              		.loc 1 695 0
 3396 00b0 F7EE002A 		vmov.f32	s5, #1.0e+0
 3397 00b4 9FED172A 		vldr.32	s4, .L194+16
 3398 00b8 F0EE491A 		vmov.f32	s3, s18
 3399 00bc B0EE481A 		vmov.f32	s2, s16
 3400 00c0 F0EE480A 		vmov.f32	s1, s16
 3401 00c4 B0EE680A 		vmov.f32	s0, s17
 3402 00c8 FFF7FEFF 		bl	Control_StrCalculator
 3403              	.LVL187:
 696:Src/motion.c  ****     Control_AngCalculator(0, 0, 0, 0, 1, 0);
 3404              		.loc 1 696 0
 3405 00cc 9FED0E0A 		vldr.32	s0, .L194+4
 3406 00d0 F0EE402A 		vmov.f32	s5, s0
 3407 00d4 B7EE002A 		vmov.f32	s4, #1.0e+0
 3408 00d8 F0EE401A 		vmov.f32	s3, s0
 3409 00dc B0EE401A 		vmov.f32	s2, s0
 3410 00e0 F0EE400A 		vmov.f32	s1, s0
 3411 00e4 FFF7FEFF 		bl	Control_AngCalculator
 3412              	.LVL188:
 697:Src/motion.c  ****     motion_end_flag = FALSE;
 3413              		.loc 1 697 0
 3414 00e8 084B     		ldr	r3, .L194+8
 3415 00ea 0022     		movs	r2, #0
 3416 00ec 1A70     		strb	r2, [r3]
 3417              	.L192:
 698:Src/motion.c  ****     while (motion_end_flag == FALSE)
 3418              		.loc 1 698 0 discriminator 1
 3419 00ee 074B     		ldr	r3, .L194+8
 3420 00f0 1B78     		ldrb	r3, [r3]	@ zero_extendqisi2
 3421 00f2 002B     		cmp	r3, #0
 3422 00f4 FBD0     		beq	.L192
 699:Src/motion.c  ****     {
 700:Src/motion.c  ****     }
ARM GAS  C:\Users\kotaro\AppData\Local\Temp\ccSv5CWQ.s 			page 73


 701:Src/motion.c  ****     enc.offset = 0.0f;
 3423              		.loc 1 701 0
 3424 00f6 034B     		ldr	r3, .L194
 3425 00f8 0022     		movs	r2, #0
 3426 00fa 9A60     		str	r2, [r3, #8]	@ float
 702:Src/motion.c  **** }
 3427              		.loc 1 702 0
 3428 00fc BDEC088B 		vldm	sp!, {d8-d11}
 3429              	.LCFI60:
 3430              		.cfi_restore 86
 3431              		.cfi_restore 87
 3432              		.cfi_restore 84
 3433              		.cfi_restore 85
 3434              		.cfi_restore 82
 3435              		.cfi_restore 83
 3436              		.cfi_restore 80
 3437              		.cfi_restore 81
 3438              		.cfi_def_cfa_offset 8
 3439              	.LVL189:
 3440 0100 08BD     		pop	{r3, pc}
 3441              	.L195:
 3442 0102 00BF     		.align	2
 3443              	.L194:
 3444 0104 00000000 		.word	enc
 3445 0108 00000000 		.word	0
 3446 010c 00000000 		.word	motion_end_flag
 3447 0110 00001644 		.word	1142292480
 3448 0114 00007A46 		.word	1182400512
 3449              		.cfi_endproc
 3450              	.LFE186:
 3452              		.section	.text.Motion_FastLeftTurn,"ax",%progbits
 3453              		.align	1
 3454              		.global	Motion_FastLeftTurn
 3455              		.syntax unified
 3456              		.thumb
 3457              		.thumb_func
 3458              		.fpu fpv4-sp-d16
 3460              	Motion_FastLeftTurn:
 3461              	.LFB187:
 703:Src/motion.c  **** 
 704:Src/motion.c  **** void Motion_FastLeftTurn(uint8_t type, float v_end)
 705:Src/motion.c  **** {
 3462              		.loc 1 705 0
 3463              		.cfi_startproc
 3464              		@ args = 0, pretend = 0, frame = 0
 3465              		@ frame_needed = 0, uses_anonymous_args = 0
 3466              	.LVL190:
 3467 0000 08B5     		push	{r3, lr}
 3468              	.LCFI61:
 3469              		.cfi_def_cfa_offset 8
 3470              		.cfi_offset 3, -8
 3471              		.cfi_offset 14, -4
 706:Src/motion.c  ****     switch (type)
 3472              		.loc 1 706 0
 3473 0002 0728     		cmp	r0, #7
 3474 0004 07D8     		bhi	.L196
 3475 0006 DFE800F0 		tbb	[pc, r0]
ARM GAS  C:\Users\kotaro\AppData\Local\Temp\ccSv5CWQ.s 			page 74


 3476              	.L199:
 3477 000a 04       		.byte	(.L198-.L199)/2
 3478 000b 1C       		.byte	(.L200-.L199)/2
 3479 000c 22       		.byte	(.L201-.L199)/2
 3480 000d 07       		.byte	(.L202-.L199)/2
 3481 000e 0A       		.byte	(.L203-.L199)/2
 3482 000f 1F       		.byte	(.L204-.L199)/2
 3483 0010 34       		.byte	(.L205-.L199)/2
 3484 0011 46       		.byte	(.L206-.L199)/2
 3485              		.p2align 1
 3486              	.L198:
 707:Src/motion.c  ****     {
 708:Src/motion.c  ****     case SEARCH:
 709:Src/motion.c  ****         Motion_LeftTurn();
 3487              		.loc 1 709 0
 3488 0012 FFF7FEFF 		bl	Motion_LeftTurn
 3489              	.LVL191:
 3490              	.L196:
 710:Src/motion.c  ****         break;
 711:Src/motion.c  ****     case T_90:
 712:Src/motion.c  ****         Motion_Left90Turn(v_end);
 713:Src/motion.c  ****         break;
 714:Src/motion.c  ****     case T_180:
 715:Src/motion.c  ****         Turn(36.0f, 53.0f, 800.0f, v_end, 181.0f, 530.0f, 5000.0f, 1);
 716:Src/motion.c  ****         break;
 717:Src/motion.c  ****     case T_45IN:
 718:Src/motion.c  ****         //control_wall_flag = 0;
 719:Src/motion.c  ****         Motion_InLeft45Turn();
 720:Src/motion.c  ****         break;
 721:Src/motion.c  ****     case T_45OUT:
 722:Src/motion.c  ****         Motion_OutLeft45Turn(v_end);
 723:Src/motion.c  ****         //control_wall_flag = 2;
 724:Src/motion.c  ****         break;
 725:Src/motion.c  ****     case T_135IN:
 726:Src/motion.c  ****         //control_wall_flag = 0;
 727:Src/motion.c  ****         Turn(51.0f, 60.0f, 800.0f, 800.0f, 136.0f, 600.0f, 8000.0f, 1);
 728:Src/motion.c  ****         break;
 729:Src/motion.c  ****     case T_135OUT:
 730:Src/motion.c  ****         Turn(25.0f, 67.0f, 800.0f, v_end, 136.0f, 600.0f, 8000.0f, 1);
 731:Src/motion.c  ****         //control_wall_flag = 2;
 732:Src/motion.c  ****         break;
 733:Src/motion.c  ****     case T_V90:
 734:Src/motion.c  ****         Turn(60.0f, 75.0f, 800.0f, 800.0f, 91.0f, 800.0f, 20000.0f, 1);
 735:Src/motion.c  ****         break;
 736:Src/motion.c  ****     }
 737:Src/motion.c  **** }
 3491              		.loc 1 737 0
 3492 0016 08BD     		pop	{r3, pc}
 3493              	.LVL192:
 3494              	.L202:
 712:Src/motion.c  ****         break;
 3495              		.loc 1 712 0
 3496 0018 FFF7FEFF 		bl	Motion_Left90Turn
 3497              	.LVL193:
 713:Src/motion.c  ****     case T_180:
 3498              		.loc 1 713 0
 3499 001c FBE7     		b	.L196
ARM GAS  C:\Users\kotaro\AppData\Local\Temp\ccSv5CWQ.s 			page 75


 3500              	.LVL194:
 3501              	.L203:
 715:Src/motion.c  ****         break;
 3502              		.loc 1 715 0
 3503 001e 0120     		movs	r0, #1
 3504              	.LVL195:
 3505 0020 9FED263A 		vldr.32	s6, .L208
 3506 0024 DFED262A 		vldr.32	s5, .L208+4
 3507 0028 9FED262A 		vldr.32	s4, .L208+8
 3508 002c F0EE401A 		vmov.f32	s3, s0
 3509 0030 9FED251A 		vldr.32	s2, .L208+12
 3510 0034 DFED250A 		vldr.32	s1, .L208+16
 3511 0038 9FED250A 		vldr.32	s0, .L208+20
 3512              	.LVL196:
 3513 003c FFF7FEFF 		bl	Turn
 3514              	.LVL197:
 716:Src/motion.c  ****     case T_45IN:
 3515              		.loc 1 716 0
 3516 0040 E9E7     		b	.L196
 3517              	.LVL198:
 3518              	.L200:
 719:Src/motion.c  ****         break;
 3519              		.loc 1 719 0
 3520 0042 FFF7FEFF 		bl	Motion_InLeft45Turn
 3521              	.LVL199:
 720:Src/motion.c  ****     case T_45OUT:
 3522              		.loc 1 720 0
 3523 0046 E6E7     		b	.L196
 3524              	.LVL200:
 3525              	.L204:
 722:Src/motion.c  ****         //control_wall_flag = 2;
 3526              		.loc 1 722 0
 3527 0048 FFF7FEFF 		bl	Motion_OutLeft45Turn
 3528              	.LVL201:
 724:Src/motion.c  ****     case T_135IN:
 3529              		.loc 1 724 0
 3530 004c E3E7     		b	.L196
 3531              	.LVL202:
 3532              	.L201:
 727:Src/motion.c  ****         break;
 3533              		.loc 1 727 0
 3534 004e 9FED1E1A 		vldr.32	s2, .L208+12
 3535 0052 0120     		movs	r0, #1
 3536              	.LVL203:
 3537 0054 9FED1F3A 		vldr.32	s6, .L208+24
 3538 0058 DFED1F2A 		vldr.32	s5, .L208+28
 3539 005c 9FED1F2A 		vldr.32	s4, .L208+32
 3540 0060 F0EE411A 		vmov.f32	s3, s2
 3541 0064 DFED1E0A 		vldr.32	s1, .L208+36
 3542 0068 9FED1E0A 		vldr.32	s0, .L208+40
 3543              	.LVL204:
 3544 006c FFF7FEFF 		bl	Turn
 3545              	.LVL205:
 728:Src/motion.c  ****     case T_135OUT:
 3546              		.loc 1 728 0
 3547 0070 D1E7     		b	.L196
 3548              	.LVL206:
ARM GAS  C:\Users\kotaro\AppData\Local\Temp\ccSv5CWQ.s 			page 76


 3549              	.L205:
 730:Src/motion.c  ****         //control_wall_flag = 2;
 3550              		.loc 1 730 0
 3551 0072 0120     		movs	r0, #1
 3552              	.LVL207:
 3553 0074 9FED173A 		vldr.32	s6, .L208+24
 3554 0078 DFED172A 		vldr.32	s5, .L208+28
 3555 007c 9FED172A 		vldr.32	s4, .L208+32
 3556 0080 F0EE401A 		vmov.f32	s3, s0
 3557 0084 9FED101A 		vldr.32	s2, .L208+12
 3558 0088 DFED170A 		vldr.32	s1, .L208+44
 3559 008c B3EE090A 		vmov.f32	s0, #2.5e+1
 3560              	.LVL208:
 3561 0090 FFF7FEFF 		bl	Turn
 3562              	.LVL209:
 732:Src/motion.c  ****     case T_V90:
 3563              		.loc 1 732 0
 3564 0094 BFE7     		b	.L196
 3565              	.LVL210:
 3566              	.L206:
 734:Src/motion.c  ****         break;
 3567              		.loc 1 734 0
 3568 0096 9FED0C1A 		vldr.32	s2, .L208+12
 3569 009a 0120     		movs	r0, #1
 3570              	.LVL211:
 3571 009c 9FED133A 		vldr.32	s6, .L208+48
 3572 00a0 F0EE412A 		vmov.f32	s5, s2
 3573 00a4 9FED122A 		vldr.32	s4, .L208+52
 3574 00a8 F0EE411A 		vmov.f32	s3, s2
 3575 00ac DFED110A 		vldr.32	s1, .L208+56
 3576 00b0 9FED0B0A 		vldr.32	s0, .L208+36
 3577              	.LVL212:
 3578 00b4 FFF7FEFF 		bl	Turn
 3579              	.LVL213:
 3580              		.loc 1 737 0
 3581 00b8 ADE7     		b	.L196
 3582              	.L209:
 3583 00ba 00BF     		.align	2
 3584              	.L208:
 3585 00bc 00409C45 		.word	1167867904
 3586 00c0 00800444 		.word	1141145600
 3587 00c4 00003543 		.word	1127546880
 3588 00c8 00004844 		.word	1145569280
 3589 00cc 00005442 		.word	1112801280
 3590 00d0 00001042 		.word	1108344832
 3591 00d4 0000FA45 		.word	1174011904
 3592 00d8 00001644 		.word	1142292480
 3593 00dc 00000843 		.word	1124597760
 3594 00e0 00007042 		.word	1114636288
 3595 00e4 00004C42 		.word	1112276992
 3596 00e8 00008642 		.word	1116078080
 3597 00ec 00409C46 		.word	1184645120
 3598 00f0 0000B642 		.word	1119223808
 3599 00f4 00009642 		.word	1117126656
 3600              		.cfi_endproc
 3601              	.LFE187:
 3603              		.section	.text.Motion_FastRightTurn,"ax",%progbits
ARM GAS  C:\Users\kotaro\AppData\Local\Temp\ccSv5CWQ.s 			page 77


 3604              		.align	1
 3605              		.global	Motion_FastRightTurn
 3606              		.syntax unified
 3607              		.thumb
 3608              		.thumb_func
 3609              		.fpu fpv4-sp-d16
 3611              	Motion_FastRightTurn:
 3612              	.LFB188:
 738:Src/motion.c  **** 
 739:Src/motion.c  **** void Motion_FastRightTurn(uint8_t type, float v_end)
 740:Src/motion.c  **** {
 3613              		.loc 1 740 0
 3614              		.cfi_startproc
 3615              		@ args = 0, pretend = 0, frame = 0
 3616              		@ frame_needed = 0, uses_anonymous_args = 0
 3617              	.LVL214:
 3618 0000 08B5     		push	{r3, lr}
 3619              	.LCFI62:
 3620              		.cfi_def_cfa_offset 8
 3621              		.cfi_offset 3, -8
 3622              		.cfi_offset 14, -4
 741:Src/motion.c  ****     switch (type)
 3623              		.loc 1 741 0
 3624 0002 0728     		cmp	r0, #7
 3625 0004 07D8     		bhi	.L210
 3626 0006 DFE800F0 		tbb	[pc, r0]
 3627              	.L213:
 3628 000a 04       		.byte	(.L212-.L213)/2
 3629 000b 1C       		.byte	(.L214-.L213)/2
 3630 000c 22       		.byte	(.L215-.L213)/2
 3631 000d 07       		.byte	(.L216-.L213)/2
 3632 000e 0A       		.byte	(.L217-.L213)/2
 3633 000f 1F       		.byte	(.L218-.L213)/2
 3634 0010 34       		.byte	(.L219-.L213)/2
 3635 0011 46       		.byte	(.L220-.L213)/2
 3636              		.p2align 1
 3637              	.L212:
 742:Src/motion.c  ****     {
 743:Src/motion.c  ****     case SEARCH:
 744:Src/motion.c  ****         Motion_RightTurn();
 3638              		.loc 1 744 0
 3639 0012 FFF7FEFF 		bl	Motion_RightTurn
 3640              	.LVL215:
 3641              	.L210:
 745:Src/motion.c  ****         break;
 746:Src/motion.c  ****     case T_90:
 747:Src/motion.c  ****         Motion_Right90Turn(v_end);
 748:Src/motion.c  ****         break;
 749:Src/motion.c  ****     case T_180:
 750:Src/motion.c  ****         Turn(30.0f, 50.0f, 800.0f, v_end, 181.0f, 530.0f, 5000.0f, -1);
 751:Src/motion.c  ****         break;
 752:Src/motion.c  ****     case T_45IN:
 753:Src/motion.c  ****         //control_wall_flag = 0;
 754:Src/motion.c  ****         Motion_InRight45Turn();
 755:Src/motion.c  ****         break;
 756:Src/motion.c  ****     case T_45OUT:
 757:Src/motion.c  ****         Motion_OutRight45Turn(v_end);
ARM GAS  C:\Users\kotaro\AppData\Local\Temp\ccSv5CWQ.s 			page 78


 758:Src/motion.c  ****         //control_wall_flag = 2;
 759:Src/motion.c  ****         break;
 760:Src/motion.c  ****     case T_135IN:
 761:Src/motion.c  ****         //control_wall_flag = 0;
 762:Src/motion.c  ****         Turn(41.0f, 40.0f, 800.0f, 800.0f, 136.0f, 600.0f, 8000.0f, -1);
 763:Src/motion.c  ****         break;
 764:Src/motion.c  ****     case T_135OUT:
 765:Src/motion.c  ****         Turn(25.0f, 57.0f, 800.0f, v_end, 136.0f, 600.0f, 8000.0f, -1);
 766:Src/motion.c  ****         break;
 767:Src/motion.c  ****     case T_V90:
 768:Src/motion.c  ****         Turn(35.0f, 60.0f, 800.0f, 800.0f, 91.0f, 800.0f, 20000.0f, -1);
 769:Src/motion.c  ****         //control_wall_flag = 2;
 770:Src/motion.c  ****         break;
 771:Src/motion.c  ****     }
 772:Src/motion.c  **** }...
 3642              		.loc 1 772 0
 3643 0016 08BD     		pop	{r3, pc}
 3644              	.LVL216:
 3645              	.L216:
 747:Src/motion.c  ****         Motion_Right90Turn(v_end);
 3646              		.loc 1 747 0
 3647 0018 FFF7FEFF 		bl	Motion_Right90Turn
 3648              	.LVL217:
 748:Src/motion.c  ****         break;
 3649              		.loc 1 748 0
 3650 001c FBE7     		b	.L210
 3651              	.LVL218:
 3652              	.L217:
 750:Src/motion.c  ****         Turn(30.0f, 50.0f, 800.0f, v_end, 181.0f, 530.0f, 5000.0f, -1);
 3653              		.loc 1 750 0
 3654 001e FF20     		movs	r0, #255
 3655              	.LVL219:
 3656 0020 9FED263A 		vldr.32	s6, .L222
 3657 0024 DFED262A 		vldr.32	s5, .L222+4
 3658 0028 9FED262A 		vldr.32	s4, .L222+8
 3659 002c F0EE401A 		vmov.f32	s3, s0
 3660 0030 9FED251A 		vldr.32	s2, .L222+12
 3661 0034 DFED250A 		vldr.32	s1, .L222+16
 3662 0038 B3EE0E0A 		vmov.f32	s0, #3.0e+1
 3663              	.LVL220:
 3664 003c FFF7FEFF 		bl	Turn
 3665              	.LVL221:
 751:Src/motion.c  ****         break;
 3666              		.loc 1 751 0
 3667 0040 E9E7     		b	.L210
 3668              	.LVL222:
 3669              	.L214:
 754:Src/motion.c  ****         Motion_InRight45Turn();
 3670              		.loc 1 754 0
 3671 0042 FFF7FEFF 		bl	Motion_InRight45Turn
 3672              	.LVL223:
 755:Src/motion.c  ****         break;
 3673              		.loc 1 755 0
 3674 0046 E6E7     		b	.L210
 3675              	.LVL224:
 3676              	.L218:
 757:Src/motion.c  ****         Motion_OutRight45Turn(v_end);
ARM GAS  C:\Users\kotaro\AppData\Local\Temp\ccSv5CWQ.s 			page 79


 3677              		.loc 1 757 0
 3678 0048 FFF7FEFF 		bl	Motion_OutRight45Turn
 3679              	.LVL225:
 759:Src/motion.c  ****         break;
 3680              		.loc 1 759 0
 3681 004c E3E7     		b	.L210
 3682              	.LVL226:
 3683              	.L215:
 762:Src/motion.c  ****         Turn(41.0f, 40.0f, 800.0f, 800.0f, 136.0f, 600.0f, 8000.0f, -1);
 3684              		.loc 1 762 0
 3685 004e 9FED1E1A 		vldr.32	s2, .L222+12
 3686 0052 FF20     		movs	r0, #255
 3687              	.LVL227:
 3688 0054 9FED1E3A 		vldr.32	s6, .L222+20
 3689 0058 DFED1E2A 		vldr.32	s5, .L222+24
 3690 005c 9FED1E2A 		vldr.32	s4, .L222+28
 3691 0060 F0EE411A 		vmov.f32	s3, s2
 3692 0064 DFED1D0A 		vldr.32	s1, .L222+32
 3693 0068 9FED1D0A 		vldr.32	s0, .L222+36
 3694              	.LVL228:
 3695 006c FFF7FEFF 		bl	Turn
 3696              	.LVL229:
 763:Src/motion.c  ****         break;
 3697              		.loc 1 763 0
 3698 0070 D1E7     		b	.L210
 3699              	.LVL230:
 3700              	.L219:
 765:Src/motion.c  ****         Turn(25.0f, 57.0f, 800.0f, v_end, 136.0f, 600.0f, 8000.0f, -1);
 3701              		.loc 1 765 0
 3702 0072 FF20     		movs	r0, #255
 3703              	.LVL231:
 3704 0074 9FED163A 		vldr.32	s6, .L222+20
 3705 0078 DFED162A 		vldr.32	s5, .L222+24
 3706 007c 9FED162A 		vldr.32	s4, .L222+28
 3707 0080 F0EE401A 		vmov.f32	s3, s0
 3708 0084 9FED101A 		vldr.32	s2, .L222+12
 3709 0088 DFED160A 		vldr.32	s1, .L222+40
 3710 008c B3EE090A 		vmov.f32	s0, #2.5e+1
 3711              	.LVL232:
 3712 0090 FFF7FEFF 		bl	Turn
 3713              	.LVL233:
 766:Src/motion.c  ****         break;
 3714              		.loc 1 766 0
 3715 0094 BFE7     		b	.L210
 3716              	.LVL234:
 3717              	.L220:
 768:Src/motion.c  ****         Turn(35.0f, 60.0f, 800.0f, 800.0f, 91.0f, 800.0f, 20000.0f, -1);
 3718              		.loc 1 768 0
 3719 0096 9FED0C1A 		vldr.32	s2, .L222+12
 3720 009a FF20     		movs	r0, #255
 3721              	.LVL235:
 3722 009c 9FED123A 		vldr.32	s6, .L222+44
 3723 00a0 F0EE412A 		vmov.f32	s5, s2
 3724 00a4 9FED112A 		vldr.32	s4, .L222+48
 3725 00a8 F0EE411A 		vmov.f32	s3, s2
 3726 00ac DFED100A 		vldr.32	s1, .L222+52
 3727 00b0 9FED100A 		vldr.32	s0, .L222+56
ARM GAS  C:\Users\kotaro\AppData\Local\Temp\ccSv5CWQ.s 			page 80


 3728              	.LVL236:
 3729 00b4 FFF7FEFF 		bl	Turn
 3730              	.LVL237:
 3731              		.loc 1 772 0
 3732 00b8 ADE7     		b	.L210
 3733              	.L223:
 3734 00ba 00BF     		.align	2
 3735              	.L222:
 3736 00bc 00409C45 		.word	1167867904
 3737 00c0 00800444 		.word	1141145600
 3738 00c4 00003543 		.word	1127546880
 3739 00c8 00004844 		.word	1145569280
 3740 00cc 00004842 		.word	1112014848
 3741 00d0 0000FA45 		.word	1174011904
 3742 00d4 00001644 		.word	1142292480
 3743 00d8 00000843 		.word	1124597760
 3744 00dc 00002042 		.word	1109393408
 3745 00e0 00002442 		.word	1109655552
 3746 00e4 00006442 		.word	1113849856
 3747 00e8 00409C46 		.word	1184645120
 3748 00ec 0000B642 		.word	1119223808
 3749 00f0 00007042 		.word	1114636288
 3750 00f4 00000C42 		.word	1108082688
 3751              		.cfi_endproc
 3752              	.LFE188:
 3754              		.global	prefront_flag
 3755              		.global	diagonal_step
 3756              		.global	gain_velo
 3757              		.comm	motion_end_flag,1,1
 3758              		.section	.bss.diagonal_step,"aw",%nobits
 3759              		.align	2
 3760              		.set	.LANCHOR2,. + 0
 3763              	diagonal_step:
 3764 0000 00000000 		.space	4
 3765              		.section	.bss.gain_velo,"aw",%nobits
 3766              		.align	2
 3767              		.set	.LANCHOR0,. + 0
 3770              	gain_velo:
 3771 0000 00000000 		.space	4
 3772              		.section	.bss.prefront_flag,"aw",%nobits
 3773              		.align	1
 3774              		.set	.LANCHOR1,. + 0
 3777              	prefront_flag:
 3778 0000 0000     		.space	2
 3779              		.text
 3780              	.Letext0:
 3781              		.file 2 "c:\\program files (x86)\\gnu tools arm embedded\\7 2017-q4-major\\arm-none-eabi\\include\
 3782              		.file 3 "c:\\program files (x86)\\gnu tools arm embedded\\7 2017-q4-major\\arm-none-eabi\\include\
 3783              		.file 4 "Inc/control.h"
 3784              		.file 5 "Drivers/CMSIS/Include/core_cm4.h"
 3785              		.file 6 "Drivers/CMSIS/Device/ST/STM32F4xx/Include/system_stm32f4xx.h"
 3786              		.file 7 "Drivers/CMSIS/Device/ST/STM32F4xx/Include/stm32f405xx.h"
 3787              		.file 8 "c:\\program files (x86)\\gnu tools arm embedded\\7 2017-q4-major\\arm-none-eabi\\include\
 3788              		.file 9 "c:\\program files (x86)\\gnu tools arm embedded\\7 2017-q4-major\\arm-none-eabi\\include\
 3789              		.file 10 "c:\\program files (x86)\\gnu tools arm embedded\\7 2017-q4-major\\lib\\gcc\\arm-none-eab
 3790              		.file 11 "c:\\program files (x86)\\gnu tools arm embedded\\7 2017-q4-major\\arm-none-eabi\\include
 3791              		.file 12 "Drivers/STM32F4xx_HAL_Driver/Inc/stm32f4xx_hal_def.h"
ARM GAS  C:\Users\kotaro\AppData\Local\Temp\ccSv5CWQ.s 			page 81


 3792              		.file 13 "Drivers/STM32F4xx_HAL_Driver/Inc/stm32f4xx_hal_dma.h"
 3793              		.file 14 "Drivers/STM32F4xx_HAL_Driver/Inc/stm32f4xx_hal_adc.h"
 3794              		.file 15 "Drivers/STM32F4xx_HAL_Driver/Inc/stm32f4xx_hal_spi.h"
 3795              		.file 16 "Drivers/STM32F4xx_HAL_Driver/Inc/stm32f4xx_hal_tim.h"
 3796              		.file 17 "Inc/tim.h"
 3797              		.file 18 "Inc/spi.h"
 3798              		.file 19 "c:\\program files (x86)\\gnu tools arm embedded\\7 2017-q4-major\\arm-none-eabi\\include
 3799              		.file 20 "Inc/adc.h"
 3800              		.file 21 "Drivers/STM32F4xx_HAL_Driver/Inc/stm32f4xx_hal.h"
ARM GAS  C:\Users\kotaro\AppData\Local\Temp\ccSv5CWQ.s 			page 82


DEFINED SYMBOLS
                            *ABS*:00000000 motion.c
C:\Users\kotaro\AppData\Local\Temp\ccSv5CWQ.s:18     .text.Motion_MaxVeloSet:00000000 $t
C:\Users\kotaro\AppData\Local\Temp\ccSv5CWQ.s:25     .text.Motion_MaxVeloSet:00000000 Motion_MaxVeloSet
C:\Users\kotaro\AppData\Local\Temp\ccSv5CWQ.s:42     .text.Motion_MaxVeloSet:00000008 $d
C:\Users\kotaro\AppData\Local\Temp\ccSv5CWQ.s:47     .text.Motion_enkai:00000000 $t
C:\Users\kotaro\AppData\Local\Temp\ccSv5CWQ.s:54     .text.Motion_enkai:00000000 Motion_enkai
C:\Users\kotaro\AppData\Local\Temp\ccSv5CWQ.s:93     .text.Motion_enkai:00000044 $d
C:\Users\kotaro\AppData\Local\Temp\ccSv5CWQ.s:98     .text.Motion_TestTurn:00000000 $t
C:\Users\kotaro\AppData\Local\Temp\ccSv5CWQ.s:105    .text.Motion_TestTurn:00000000 Motion_TestTurn
C:\Users\kotaro\AppData\Local\Temp\ccSv5CWQ.s:180    .text.Motion_TestTurn:00000074 $d
                            *COM*:00000001 motion_end_flag
C:\Users\kotaro\AppData\Local\Temp\ccSv5CWQ.s:193    .text.Motion_Start:00000000 $t
C:\Users\kotaro\AppData\Local\Temp\ccSv5CWQ.s:200    .text.Motion_Start:00000000 Motion_Start
C:\Users\kotaro\AppData\Local\Temp\ccSv5CWQ.s:266    .text.Motion_Start:00000068 $d
C:\Users\kotaro\AppData\Local\Temp\ccSv5CWQ.s:277    .text.Motion_Restart:00000000 $t
C:\Users\kotaro\AppData\Local\Temp\ccSv5CWQ.s:284    .text.Motion_Restart:00000000 Motion_Restart
C:\Users\kotaro\AppData\Local\Temp\ccSv5CWQ.s:515    .text.Motion_Restart:000001cc $d
C:\Users\kotaro\AppData\Local\Temp\ccSv5CWQ.s:537    .text.Motion_End:00000000 $t
C:\Users\kotaro\AppData\Local\Temp\ccSv5CWQ.s:544    .text.Motion_End:00000000 Motion_End
C:\Users\kotaro\AppData\Local\Temp\ccSv5CWQ.s:618    .text.Motion_End:00000078 $d
C:\Users\kotaro\AppData\Local\Temp\ccSv5CWQ.s:632    .text.Motion_Straight:00000000 $t
C:\Users\kotaro\AppData\Local\Temp\ccSv5CWQ.s:639    .text.Motion_Straight:00000000 Motion_Straight
C:\Users\kotaro\AppData\Local\Temp\ccSv5CWQ.s:705    .text.Motion_Straight:00000070 $d
C:\Users\kotaro\AppData\Local\Temp\ccSv5CWQ.s:716    .text.Motion_SpinTurn:00000000 $t
C:\Users\kotaro\AppData\Local\Temp\ccSv5CWQ.s:723    .text.Motion_SpinTurn:00000000 Motion_SpinTurn
C:\Users\kotaro\AppData\Local\Temp\ccSv5CWQ.s:879    .text.Motion_SpinTurn:00000140 $d
C:\Users\kotaro\AppData\Local\Temp\ccSv5CWQ.s:896    .text.Motion_WallSpinTurn:00000000 $t
C:\Users\kotaro\AppData\Local\Temp\ccSv5CWQ.s:903    .text.Motion_WallSpinTurn:00000000 Motion_WallSpinTurn
C:\Users\kotaro\AppData\Local\Temp\ccSv5CWQ.s:1132   .text.Motion_WallSpinTurn:000001d4 $d
C:\Users\kotaro\AppData\Local\Temp\ccSv5CWQ.s:1154   .text.Motion_LeftTurn:00000000 $t
C:\Users\kotaro\AppData\Local\Temp\ccSv5CWQ.s:1161   .text.Motion_LeftTurn:00000000 Motion_LeftTurn
C:\Users\kotaro\AppData\Local\Temp\ccSv5CWQ.s:1286   .text.Motion_LeftTurn:00000100 $d
C:\Users\kotaro\AppData\Local\Temp\ccSv5CWQ.s:1302   .text.Motion_RightTurn:00000000 $t
C:\Users\kotaro\AppData\Local\Temp\ccSv5CWQ.s:1309   .text.Motion_RightTurn:00000000 Motion_RightTurn
C:\Users\kotaro\AppData\Local\Temp\ccSv5CWQ.s:1434   .text.Motion_RightTurn:00000100 $d
C:\Users\kotaro\AppData\Local\Temp\ccSv5CWQ.s:1450   .text.Motion_Switch:00000000 $t
C:\Users\kotaro\AppData\Local\Temp\ccSv5CWQ.s:1457   .text.Motion_Switch:00000000 Motion_Switch
C:\Users\kotaro\AppData\Local\Temp\ccSv5CWQ.s:1474   .text.Motion_Switch:0000000a $d
C:\Users\kotaro\AppData\Local\Temp\ccSv5CWQ.s:1526   .text.Motion_Switch:00000038 $d
C:\Users\kotaro\AppData\Local\Temp\ccSv5CWQ.s:1531   .text.Motion_FastStart:00000000 $t
C:\Users\kotaro\AppData\Local\Temp\ccSv5CWQ.s:1538   .text.Motion_FastStart:00000000 Motion_FastStart
C:\Users\kotaro\AppData\Local\Temp\ccSv5CWQ.s:1622   .text.Motion_FastStart:00000098 $d
C:\Users\kotaro\AppData\Local\Temp\ccSv5CWQ.s:1636   .text.Motion_FastStraight:00000000 $t
C:\Users\kotaro\AppData\Local\Temp\ccSv5CWQ.s:1643   .text.Motion_FastStraight:00000000 Motion_FastStraight
C:\Users\kotaro\AppData\Local\Temp\ccSv5CWQ.s:1707   .text.Motion_FastStraight:00000074 $d
C:\Users\kotaro\AppData\Local\Temp\ccSv5CWQ.s:1718   .text.Motion_Adjust:00000000 $t
C:\Users\kotaro\AppData\Local\Temp\ccSv5CWQ.s:1725   .text.Motion_Adjust:00000000 Motion_Adjust
C:\Users\kotaro\AppData\Local\Temp\ccSv5CWQ.s:1829   .text.Motion_Adjust:000000bc $d
C:\Users\kotaro\AppData\Local\Temp\ccSv5CWQ.s:1841   .text.Motion_FastGoal:00000000 $t
C:\Users\kotaro\AppData\Local\Temp\ccSv5CWQ.s:1848   .text.Motion_FastGoal:00000000 Motion_FastGoal
C:\Users\kotaro\AppData\Local\Temp\ccSv5CWQ.s:1933   .text.Motion_FastGoal:0000009c $d
C:\Users\kotaro\AppData\Local\Temp\ccSv5CWQ.s:1946   .text.Motion_Diagonal:00000000 $t
C:\Users\kotaro\AppData\Local\Temp\ccSv5CWQ.s:1953   .text.Motion_Diagonal:00000000 Motion_Diagonal
C:\Users\kotaro\AppData\Local\Temp\ccSv5CWQ.s:2009   .text.Motion_Diagonal:00000068 $d
C:\Users\kotaro\AppData\Local\Temp\ccSv5CWQ.s:2019   .text.Motion_DiagonalLeft:00000000 $t
C:\Users\kotaro\AppData\Local\Temp\ccSv5CWQ.s:2026   .text.Motion_DiagonalLeft:00000000 Motion_DiagonalLeft
ARM GAS  C:\Users\kotaro\AppData\Local\Temp\ccSv5CWQ.s 			page 83


C:\Users\kotaro\AppData\Local\Temp\ccSv5CWQ.s:2139   .text.Motion_DiagonalLeft:000000d8 $d
C:\Users\kotaro\AppData\Local\Temp\ccSv5CWQ.s:2154   .text.Motion_DiagonalRight:00000000 $t
C:\Users\kotaro\AppData\Local\Temp\ccSv5CWQ.s:2161   .text.Motion_DiagonalRight:00000000 Motion_DiagonalRight
C:\Users\kotaro\AppData\Local\Temp\ccSv5CWQ.s:2274   .text.Motion_DiagonalRight:000000d8 $d
C:\Users\kotaro\AppData\Local\Temp\ccSv5CWQ.s:2289   .text.Motion_DiagonalStart:00000000 $t
C:\Users\kotaro\AppData\Local\Temp\ccSv5CWQ.s:2296   .text.Motion_DiagonalStart:00000000 Motion_DiagonalStart
C:\Users\kotaro\AppData\Local\Temp\ccSv5CWQ.s:2362   .text.Motion_DiagonalStart:00000068 $d
C:\Users\kotaro\AppData\Local\Temp\ccSv5CWQ.s:2374   .text.Motion_DiagonalStop:00000000 $t
C:\Users\kotaro\AppData\Local\Temp\ccSv5CWQ.s:2381   .text.Motion_DiagonalStop:00000000 Motion_DiagonalStop
C:\Users\kotaro\AppData\Local\Temp\ccSv5CWQ.s:2458   .text.Motion_DiagonalStop:00000080 $d
C:\Users\kotaro\AppData\Local\Temp\ccSv5CWQ.s:2472   .text.Motion_InLeft45Turn:00000000 $t
C:\Users\kotaro\AppData\Local\Temp\ccSv5CWQ.s:2479   .text.Motion_InLeft45Turn:00000000 Motion_InLeft45Turn
C:\Users\kotaro\AppData\Local\Temp\ccSv5CWQ.s:2586   .text.Motion_InLeft45Turn:000000e8 $d
C:\Users\kotaro\AppData\Local\Temp\ccSv5CWQ.s:2600   .text.Motion_InRight45Turn:00000000 $t
C:\Users\kotaro\AppData\Local\Temp\ccSv5CWQ.s:2607   .text.Motion_InRight45Turn:00000000 Motion_InRight45Turn
C:\Users\kotaro\AppData\Local\Temp\ccSv5CWQ.s:2714   .text.Motion_InRight45Turn:000000e8 $d
C:\Users\kotaro\AppData\Local\Temp\ccSv5CWQ.s:2728   .text.Motion_OutLeft45Turn:00000000 $t
C:\Users\kotaro\AppData\Local\Temp\ccSv5CWQ.s:2735   .text.Motion_OutLeft45Turn:00000000 Motion_OutLeft45Turn
C:\Users\kotaro\AppData\Local\Temp\ccSv5CWQ.s:2856   .text.Motion_OutLeft45Turn:000000f4 $d
C:\Users\kotaro\AppData\Local\Temp\ccSv5CWQ.s:2870   .text.Motion_OutRight45Turn:00000000 $t
C:\Users\kotaro\AppData\Local\Temp\ccSv5CWQ.s:2877   .text.Motion_OutRight45Turn:00000000 Motion_OutRight45Turn
C:\Users\kotaro\AppData\Local\Temp\ccSv5CWQ.s:2998   .text.Motion_OutRight45Turn:000000f4 $d
C:\Users\kotaro\AppData\Local\Temp\ccSv5CWQ.s:3012   .text.Motion_Left90Turn:00000000 $t
C:\Users\kotaro\AppData\Local\Temp\ccSv5CWQ.s:3019   .text.Motion_Left90Turn:00000000 Motion_Left90Turn
C:\Users\kotaro\AppData\Local\Temp\ccSv5CWQ.s:3140   .text.Motion_Left90Turn:000000f4 $d
C:\Users\kotaro\AppData\Local\Temp\ccSv5CWQ.s:3154   .text.Motion_Right90Turn:00000000 $t
C:\Users\kotaro\AppData\Local\Temp\ccSv5CWQ.s:3161   .text.Motion_Right90Turn:00000000 Motion_Right90Turn
C:\Users\kotaro\AppData\Local\Temp\ccSv5CWQ.s:3282   .text.Motion_Right90Turn:000000f4 $d
C:\Users\kotaro\AppData\Local\Temp\ccSv5CWQ.s:3296   .text.Turn:00000000 $t
C:\Users\kotaro\AppData\Local\Temp\ccSv5CWQ.s:3303   .text.Turn:00000000 Turn
C:\Users\kotaro\AppData\Local\Temp\ccSv5CWQ.s:3444   .text.Turn:00000104 $d
C:\Users\kotaro\AppData\Local\Temp\ccSv5CWQ.s:3453   .text.Motion_FastLeftTurn:00000000 $t
C:\Users\kotaro\AppData\Local\Temp\ccSv5CWQ.s:3460   .text.Motion_FastLeftTurn:00000000 Motion_FastLeftTurn
C:\Users\kotaro\AppData\Local\Temp\ccSv5CWQ.s:3477   .text.Motion_FastLeftTurn:0000000a $d
C:\Users\kotaro\AppData\Local\Temp\ccSv5CWQ.s:3485   .text.Motion_FastLeftTurn:00000012 $t
C:\Users\kotaro\AppData\Local\Temp\ccSv5CWQ.s:3585   .text.Motion_FastLeftTurn:000000bc $d
C:\Users\kotaro\AppData\Local\Temp\ccSv5CWQ.s:3604   .text.Motion_FastRightTurn:00000000 $t
C:\Users\kotaro\AppData\Local\Temp\ccSv5CWQ.s:3611   .text.Motion_FastRightTurn:00000000 Motion_FastRightTurn
C:\Users\kotaro\AppData\Local\Temp\ccSv5CWQ.s:3628   .text.Motion_FastRightTurn:0000000a $d
C:\Users\kotaro\AppData\Local\Temp\ccSv5CWQ.s:3636   .text.Motion_FastRightTurn:00000012 $t
C:\Users\kotaro\AppData\Local\Temp\ccSv5CWQ.s:3736   .text.Motion_FastRightTurn:000000bc $d
C:\Users\kotaro\AppData\Local\Temp\ccSv5CWQ.s:3777   .bss.prefront_flag:00000000 prefront_flag
C:\Users\kotaro\AppData\Local\Temp\ccSv5CWQ.s:3763   .bss.diagonal_step:00000000 diagonal_step
C:\Users\kotaro\AppData\Local\Temp\ccSv5CWQ.s:3770   .bss.gain_velo:00000000 gain_velo
C:\Users\kotaro\AppData\Local\Temp\ccSv5CWQ.s:3759   .bss.diagonal_step:00000000 $d
C:\Users\kotaro\AppData\Local\Temp\ccSv5CWQ.s:3766   .bss.gain_velo:00000000 $d
C:\Users\kotaro\AppData\Local\Temp\ccSv5CWQ.s:3773   .bss.prefront_flag:00000000 $d
C:\Users\kotaro\AppData\Local\Temp\ccSv5CWQ.s:1479   .text.Motion_Switch:0000000f $d
C:\Users\kotaro\AppData\Local\Temp\ccSv5CWQ.s:1479   .text.Motion_Switch:00000010 $t

UNDEFINED SYMBOLS
Control_ResetVelo
Control_StrCalculator
Control_AngCalculator
HAL_Delay
straight
angle
ARM GAS  C:\Users\kotaro\AppData\Local\Temp\ccSv5CWQ.s 			page 84


error_ang_sum
error_ang_old
enc
front_wall_flag
Control_EdgeSet
sen_front
motor_flag
control_wall_flag
sen_l
sen_r
